
bin/kernel.bin:     file format elf32-i386
bin/kernel.bin
architecture: i386, flags 0x00000112:
EXEC_P, HAS_SYMS, D_PAGED
start address 0x00100030

SYMBOL TABLE:
00100000 l    d  .text	00000000 .text
00127c50 l    d  .text.startup	00000000 .text.startup
00128030 l    d  .text._ZNSt5arrayIhEC2EPhmb	00000000 .text._ZNSt5arrayIhEC2EPhmb
00128150 l    d  .text._ZNSt5arrayIjEC2Em	00000000 .text._ZNSt5arrayIjEC2Em
00128260 l    d  .text._ZNSt5arrayIhEC2Em	00000000 .text._ZNSt5arrayIhEC2Em
00128370 l    d  .text._ZNSt9arraylistIPcEC2EPS0_mb	00000000 .text._ZNSt9arraylistIPcEC2EPS0_mb
00128490 l    d  .text._ZNSt5arrayIPcEC2EPS0_mb	00000000 .text._ZNSt5arrayIPcEC2EPS0_mb
001285b0 l    d  .text._ZNSt5arrayIcEC2EPcmb	00000000 .text._ZNSt5arrayIcEC2EPcmb
00129000 l    d  .rodata	00000000 .rodata
00129e8c l    d  .rodata.str1.1	00000000 .rodata.str1.1
0012a9c8 l    d  .rodata.str1.4	00000000 .rodata.str1.4
0012bdc8 l    d  .rodata._ZTVN2os3hal14ata_controllerE	00000000 .rodata._ZTVN2os3hal14ata_controllerE
0012bddc l    d  .eh_frame	00000000 .eh_frame
0013c954 l    d  .rodata._ZTVN2os3hal8device_tE	00000000 .rodata._ZTVN2os3hal8device_tE
0013c968 l    d  .rodata.cst4	00000000 .rodata.cst4
0013c97c l    d  .rodata._ZTVN2os3hal17serial_controllerE	00000000 .rodata._ZTVN2os3hal17serial_controllerE
0013c990 l    d  .rodata._ZTVN2os3hal14vbe_controllerE	00000000 .rodata._ZTVN2os3hal14vbe_controllerE
0013d000 l    d  .data	00000000 .data
0014c958 l    d  .ctors	00000000 .ctors
0014d000 l    d  .bss	00000000 .bss
00000000 l    df *ABS*	00000000 kernel/src/asm/boot.asm
00000001 l       *ABS*	00000000 MBOOT_PAGE_ALIGN
00000002 l       *ABS*	00000000 MBOOT_MEM_INFO
00000004 l       *ABS*	00000000 MBOOT_VID_INFO
1badb002 l       *ABS*	00000000 MBOOT_HEADER_MAGIC
00000007 l       *ABS*	00000000 MBOOT_HEADER_FLAGS
e4524ff7 l       *ABS*	00000000 MBOOT_CHECKSUM
00000000 l    df *ABS*	00000000 ata.cpp
00000000 l    df *ABS*	00000000 bitmap.cpp
00000000 l    df *ABS*	00000000 common.cpp
00000000 l    df *ABS*	00000000 config_parser.cpp
00000000 l    df *ABS*	00000000 kernel/src/asm/contextsw.asm
00000000 l    df *ABS*	00000000 ctype.cpp
00000000 l    df *ABS*	00000000 debug.cpp
00127c50 l     F .text.startup	0000000b _GLOBAL__sub_I__ZN2os3sys5debug6serialE
00000000 l    df *ABS*	00000000 device.cpp
00000000 l    df *ABS*	00000000 devmgr.cpp
00127c60 l     F .text.startup	00000015 _GLOBAL__sub_I__ZN2os3hal14device_manager8_devicesE
00000000 l    df *ABS*	00000000 filesys.cpp
00127c80 l     F .text.startup	00000015 _GLOBAL__sub_I__ZN2os10filesystem11filesystemsE
00000000 l    df *ABS*	00000000 font.cpp
00127ca0 l     F .text.startup	00000027 _GLOBAL__sub_I__ZSt12FONT_DEFAULT
00000000 l    df *ABS*	00000000 gc.cpp
00000000 l    df *ABS*	00000000 gdt.cpp
00129000 l     O .rodata	00000001 _ZL15KERNEL_CS_FLAGS
00129002 l     O .rodata	00000001 _ZL16KERNEL_CS_ACCESS
00129000 l     O .rodata	00000001 _ZL15KERNEL_DS_FLAGS
00129001 l     O .rodata	00000001 _ZL16KERNEL_DS_ACCESS
00000000 l    df *ABS*	00000000 heap.cpp
00104a70 l     F .text	00000266 _ZN2os11memory_heap7nearestEPNS_11heapblock_tE.part.0
00129004 l     O .rodata	00000014 CSWTCH.34
00000000 l    df *ABS*	00000000 idt.cpp
001425e0 l     O .data	00000074 _ZN2os3halL14EXCEPTION_MSGSE
00000000 l    df *ABS*	00000000 image.cpp
00000000 l    df *ABS*	00000000 kernel/src/asm/irqs.asm
00113d70 l       .text	00000000 exception_stub
00113d9e l       .text	00000000 irq_stub
00000000 l    df *ABS*	00000000 kernel.cpp
00129020 l     O .rodata	00000e00 _ZStL16FONTDATA_DEFAULT
00000000 l    df *ABS*	00000000 math.cpp
00000000 l    df *ABS*	00000000 memmgr.cpp
00129e20 l     O .rodata	00000020 CSWTCH.41
00000000 l    df *ABS*	00000000 memops.cpp
00000000 l    df *ABS*	00000000 pit.cpp
00000000 l    df *ABS*	00000000 ramfs.cpp
00000000 l    df *ABS*	00000000 kernel/src/asm/realmode.asm
00000000 l       *ABS*	00000000 regs16_t
00000000 l       *ABS*	00000000 regs16_t.di
00000002 l       *ABS*	00000000 regs16_t.si
00000004 l       *ABS*	00000000 regs16_t.bp
00000006 l       *ABS*	00000000 regs16_t.sp
00000008 l       *ABS*	00000000 regs16_t.bx
0000000a l       *ABS*	00000000 regs16_t.dx
0000000c l       *ABS*	00000000 regs16_t.cx
0000000e l       *ABS*	00000000 regs16_t.ax
00000010 l       *ABS*	00000000 regs16_t.gs
00000012 l       *ABS*	00000000 regs16_t.fs
00000014 l       *ABS*	00000000 regs16_t.es
00000016 l       *ABS*	00000000 regs16_t.ds
00000018 l       *ABS*	00000000 regs16_t.ef
0000001a l       *ABS*	00000000 regs16_t_size
00115e79 l       .text	00000000 reloc
00115eb4 l       .text	00000000 p_mode16
00115ece l       .text	00000000 r_mode16
00115ee8 l       .text	00000000 ib
00115f0f l       .text	00000000 p_mode32
00115f47 l       .text	00000000 resetpic
00115f68 l       .text	00000000 stack32_ptr
00115f6c l       .text	00000000 idt32_ptr
00115f72 l       .text	00000000 gdt32_ptr
00115f78 l       .text	00000000 idt16_ptr
00115f7e l       .text	00000000 gdt16_base
00115f7e l       .text	00000000 gdt16_base.null
00115f86 l       .text	00000000 gdt16_base.code32
00115f8e l       .text	00000000 gdt16_base.data32
00115f96 l       .text	00000000 gdt16_base.code16
00115f9e l       .text	00000000 gdt16_base.data16
00115fa6 l       .text	00000000 gdt16_ptr
00115fac l       .text	00000000 int32_end
00000000 l    df *ABS*	00000000 kernel/src/asm/registers.asm
00115fbe l       .text	00000000 _gdt_flush.done
00115fdb l       .text	00000000 _idt_flush.done
00000000 l    df *ABS*	00000000 rtc.cpp
00000000 l    df *ABS*	00000000 scheduler.cpp
00128010 l     F .text.startup	00000015 _GLOBAL__sub_I__ZN2os9threading9scheduler4_tidE
00000000 l    df *ABS*	00000000 serial.cpp
00000000 l    df *ABS*	00000000 stdio.cpp
00000000 l    df *ABS*	00000000 stdlib.cpp
00129e40 l     O .rodata	00000011 _ZL10HEX_VALUES
00000000 l    df *ABS*	00000000 string.cpp
0011c540 l     F .text	0000002f memcpy.part.0
0011c570 l     F .text	00000119 strcpy.part.2
0011c690 l     F .text	00000042 strlen.part.3
0011c6e0 l     F .text	000000ee strcat.part.4
00000000 l    df *ABS*	00000000 tests.cpp
00000000 l    df *ABS*	00000000 thread.cpp
00000000 l    df *ABS*	00000000 time.cpp
00000000 l    df *ABS*	00000000 tokenizer.cpp
00129e60 l     O .rodata	0000002c CSWTCH.72
00000000 l    df *ABS*	00000000 typescript.cpp
00000000 l    df *ABS*	00000000 ubsan.cpp
00000000 l    df *ABS*	00000000 vbe.cpp
0010f370 g     F .text	00000110 _ZNSt3gfx5image5clearESt7color32
00103b70 g     F .text	0000011c _ZN2os10filesystem10close_fileEPNS_6file_tE
00104ce0 g     F .text	00000448 _ZN2os11memory_heap4freeEPv
00123c00 g     F .text	00000351 _ZN2os11interpreter14tokenizer_unit10is_keywordEPc
00106ad0 g     F .text	00000199 _ZN2os11memory_heap9calc_usedEv
00111ce0 g     F .text	00000064 _ZNSt3gfx5image4copyESt7irect_tPj
001140c0 g     F .text	00000006 _ZN2os6kernel12stk_end_addrEv
00125cb0 g     F .text	000000ef __ubsan_handle_type_mismatch
00128150  w    F .text._ZNSt5arrayIjEC2Em	00000110 _ZNSt5arrayIjEC1Em
0011ce00 g     F .text	00000018 strcpy
001178c0 g     F .text	000003d2 _ZN2os9threading9scheduler6unloadEPNS0_8thread_tE
001248e0 g     F .text	0000031d _ZN2os11interpreter14tokenizer_unit14handle_newlineEv
001162c0 g     F .text	00000011 _ZN2os3hal3rtc8read_regEt
0011a660 g     F .text	00000015 _ZN2os3hal17serial_controller9print_fmtEPcz
001242d0 g     F .text	0000060a _ZN2os11interpreter14tokenizer_unit11handle_wordEv
00110590 g     F .text	00000064 _ZNSt3gfx5image11rect_filledESt7irect_tj
00110600 g     F .text	00000064 _ZNSt3gfx5image11rect_filledESt7irect_tSt7color32
001cd0f4 g     O .bss	00000004 _ZN2os17garbage_collector6threadE
001002e0 g     F .text	0000018f _ZN2os3hal14ata_controller5writeEyjPh
00114fa0 g     F .text	000000c4 _ZN2os14memory_manager4nextEv
001036a0 g     F .text	000000a6 _ZN2os10filesystem11file_existsEPKc
0010e540 g     F .text	00000088 _ZN2os3hal3idt12register_irqENS0_3IRQEPFvPNS0_15idt_registers_tEE
001d0448 g     O .bss	00000004 _ZN2os3sys5tests19_test_threads_countE
00115ff2 g       .text	00000000 _read_cr3
001d0450 g     O .bss	00000004 _ZN2os9threading8_mon_nowE
00126750 g     F .text	00000096 _ZN2os3hal14vbe_controller5clearEj
0011ac60 g     F .text	00000015 printf
00128030  w    F .text._ZNSt5arrayIhEC2EPhmb	0000011c _ZNSt5arrayIhEC1EPhmb
0010e1d0 g     F .text	000000f4 _ZN2os3hal3idt4initEv
00113160 g     F .text	00000047 _ZNSt3gfx5image4dataEv
00125da0 g     F .text	0000004c __ubsan_handle_add_overflow
001d0408 g     O .bss	00000004 _ZN2os3hal3rtc5_lastE
00111b50 g     F .text	0000006e _ZNSt3gfx5image4copyEiiiiPSt7color32
00116300 g     F .text	00000008 _ZN2os9threading9scheduler7unreadyEv
0011cf90 g     F .text	00000325 strsplit
00113fc0 g     F .text	000000bd _ZN2os6kernel4bootEv
0011a8c0 g     F .text	00000030 _ZN2os3hal17serial_controller5startEv
001238f0 g     F .text	000000be _ZN2os11interpreter14tokenizer_unit14is_literal_decEPc
00113fa5 g       .text	00000000 irq128
0011c4f0 g     F .text	0000000d strerror
001d03e0 g     O .bss	00000001 _ZN2os14memory_manager8messagesE
00113430 g     F .text	000002e5 _ZNSt3gfx5imageC1ESt8ivec2d_t
00120ef0 g     F .text	000004e6 _ZN2os11interpreter14tokenizer_unitC1Ev
001cd200 g     O .bss	00000006 _gdt_reg
0011eb90 g     F .text	00000453 _ZN2os3sys5tests11test_streamEi
0011b360 g     F .text	000000ce _itoa_rev
00102a70 g     F .text	000001b8 _ZN2os3hal14device_manager4initEv
00113df9 g       .text	00000000 isr4
0011c990 g     F .text	00000003 memmove
00113ed3 g       .text	00000000 isr27
00122bc0 g     F .text	0000007b _ZN2os11interpreter14tokenizer_unit10clear_wordEv
00113e4b g       .text	00000000 isr13
0011e870 g     F .text	0000004a _ZN2os3sys5tests15test_threadmainEiPPc
00106f50 g     F .text	00000031 _ZN2os11memory_heap10table_sizeEv
0013c954  w    O .rodata._ZTVN2os3hal8device_tE	00000014 _ZTVN2os3hal8device_tE
00114ec0 g     F .text	000000d9 _ZN2os14memory_manager12first_bytypeENS_11memblk_typeE
00100040 g     F .text	00000002 _ZN2os3hal14ata_controller8callbackEPNS0_15idt_registers_tE
0010f720 g     F .text	000002b7 _ZNSt3gfx5image4blitEiiSt7color32
0011aff0 g     F .text	000001b6 atol
0011d3d0 g     F .text	00000070 strlower
0010ffa0 g     F .text	00000453 _ZNSt3gfx5image11rect_filledEiiiij
00113f7d g       .text	00000000 irq12
00101790 g     F .text	00000036 _ZN2os10filesystem7parsing13config_parser8tokenizeEv
0012bdc8  w    O .rodata._ZTVN2os3hal14ata_controllerE	00000014 _ZTVN2os3hal14ata_controllerE
00116020 g     F .text	0000009d _ZN2os3hal3rtc4initEv
00103750 g     F .text	00000101 _ZN2os10filesystem10dir_existsEPKc
00103040 g     F .text	000002cf _ZN2os10filesystem13fs_unregisterEPNS0_9filesys_tE
00113ea1 g       .text	00000000 isr22
0011ffb0 g     F .text	000000d4 _ZN2os9threading11thread_exitEv
00114190 g     F .text	0000005e ceil
00113e5b g       .text	00000000 isr15
001d0454 g     O .bss	00000004 THREAD_NEXT
001153b0 g     F .text	00000012 _Znwm
00110d60 g     F .text	0000008d _ZNSt3gfx5image4putcEiicNS_7bitfontESt7color32S2_
001141f0 g     F .text	000000e8 floor
00113f69 g       .text	00000000 irq10
00118b10 g     F .text	0000017d _ZN2os3hal17serial_controller4readEv
001cdf60 g     O .bss	00000060 _ZN2os6kernel9multibootE
001cdf00 g     O .bss	00000006 _idt_reg
0011dda0 g     F .text	0000009a _ZNSt6string7disposeEv
001cdfe0 g     O .bss	00002400 _ZN2os14memory_manager8_memblksE
00113f91 g       .text	00000000 irq14
0011e3e0 g     F .text	00000002 _ZNSt6string6insertEiPc
0011baa0 g     F .text	0000023c _ftoa_conv
00110690 g     F .text	00000039 _ZNSt3gfx5image4rectEiiiiiSt7color32
001239b0 g     F .text	000000f9 _ZN2os11interpreter14tokenizer_unit14is_literal_hexEPc
0011f3c0 g     F .text	000001b9 _ZN2os3sys5tests14test_schedulerEi
0011e8c0 g     F .text	000002c2 _ZN2os3sys5tests9test_heapEi
00107050 g     F .text	0000001e _ZN2os11memory_heap7typestrE9ALLOCTYPE
00104a00 g     F .text	00000063 _ZN2os3hal3gdt4initEv
00102f30 g     F .text	00000109 _ZN2os10filesystem11fs_registerEPNS0_9filesys_tE
00101170 g     F .text	0000002e _Z4lockv
00113e29 g       .text	00000000 isr9
001056c0 g     F .text	0000050d _ZN2os11memory_heap5mergeEv
001158e0 g     F .text	0000002b _ZN2os10filesystem10ramfs_host4infoEv
00127cd0 g     F .text.startup	00000098 _ZN2os17garbage_collector4mainEiPPc
00113f55 g       .text	00000000 irq8
0011c900 g     F .text	0000002f memcpy
001154b0 g     F .text	00000065 _ZN2os3hal3pit6updateEv
00113d10 g     F .text	0000005a _ZNSt3gfx5image6resizeESt8ivec2d_t
00113eab g       .text	00000000 isr23
0011b6e0 g     F .text	000002f2 _ultoa
00128150  w    F .text._ZNSt5arrayIjEC2Em	00000110 _ZNSt5arrayIjEC2Em
001162f0 g     F .text	00000008 _ZN2os9threading9scheduler5readyEv
0011c500 g     F .text	00000040 perror
001d0428 g     O .bss	00000004 _ZN2os9threading9scheduler4_nowE
0013d000 g       .data	00000000 start_ctors
00113ee7 g       .text	00000000 isr29
00122350 g     F .text	0000045e _ZN2os11interpreter14tokenizer_unitC1ESt5arrayIcE
00110470 g     F .text	0000008b _ZNSt3gfx5image11rect_filledESt8ivec2d_tS1_j
0010eeb0 g     F .text	0000007a _ZNSt3gfx5image4loadEiiSt5arrayIjE
001257d0 g     F .text	0000048d _ZN2os11interpreter14tokenizer_unitC1ESt5arrayIhE
001018d0 g     F .text	00000011 islower
00100050 g     F .text	0000011d _ZN2os3hal14ata_controller8identifyEv
0011e3c0 g     F .text	00000002 _ZNSt6string6appendEOS_
001019b0 g     F .text	00000011 tolower
001204a0 g     F .text	00000481 _ZN2os9threading13thread_createEPcmPFiiPS1_EiS2_
0010ed80 g     F .text	0000012f _ZNSt3gfx5image7disposeEv
001184e0 g     F .text	0000000f _ZN2os9threading9scheduler11generate_idEv
0011c4e0 g     F .text	00000003 system
0011b1b0 g     F .text	0000011c atox
0011ace0 g     F .text	00000012 malloc
00110500 g     F .text	0000008b _ZNSt3gfx5image11rect_filledESt8ivec2d_tS1_St7color32
0011ba00 g     F .text	0000009f _ftoa_rev
001024e0 g     F .text	0000002e _ZN2os3hal8device_t2idEv
00103310 g     F .text	00000115 _ZN2os10filesystem9fs_createENS0_15filesystem_typeEcPcPv
0010e2d0 g     F .text	00000263 _ZN2os3hal3idt14set_descriptorEhjNS0_11idt_flags_tEt
00113efb g       .text	00000000 isr31
00107270 g     F .text	00004606 _ZN2os3hal3idt15init_exceptionsEv
0011e490 g     F .text	0000002b _ZNSt6string6lengthEv
0014c956 g       .data	00000000 _bss_start
00113050 g     F .text	00000107 _ZNSt3gfx5image4sizeEv
001128b0 g     F .text	000001a8 _ZNSt3gfx5image4copyEiijPS0_
001257d0 g     F .text	0000048d _ZN2os11interpreter14tokenizer_unitC2ESt5arrayIhE
001cdf20 g     O .bss	00000004 _ZN2os6kernel6threadE
00126020 g     F .text	0000004c __ubsan_handle_vla_bound_not_positive
00126c30 g     F .text	00000355 _ZN2os3hal14vbe_controller4putcEiicNSt3gfx7bitfontEjj
0011b430 g     F .text	000002a4 itoa
0010e6b0 g     F .text	00000012 _ZN2os3hal3idt12irqs_enabledEv
00125600 g     F .text	000000a1 _ZN2os11interpreter14tokenizer_unit9is_symbolEc
00113e97 g       .text	00000000 isr21
0011e100 g     F .text	0000025a _ZNSt6string6appendEPc
00115ffa g       .text	00000000 _read_eflags
0010ef30 g     F .text	000000fc _ZNSt3gfx5image4loadEPc
00101910 g     F .text	0000002e ispunct
001191c0 g     F .text	000001e7 _ZN2os3hal17serial_controller7printlnEPc
00103430 g     F .text	0000024c _ZN2os10filesystem9from_pathEPKc
001cd0cc g     O .bss	00000004 _ZN2os3sys5debug6serialE
00114080 g     F .text	00000002 _ZN2os6kernel11before_mainEv
00113f73 g       .text	00000000 irq11
001d0440 g     O .bss	00000004 _ZN2os9threading9scheduler4_tidE
00101940 g     F .text	0000001b isspace
00110df0 g     F .text	0000007f _ZNSt3gfx5image4putcESt8ivec2d_tcNS_7bitfontEjj
0011e430 g     F .text	00000002 _ZNSt6string6removeEii
00106fc0 g     F .text	0000002b _ZN2os11memory_heap5countEv
00113edd g       .text	00000000 isr28
00127a60 g     F .text	000000b3 _ZN2os3hal14vbe_controller8modeinfoEv
00106f20 g     F .text	0000002b _ZN2os11memory_heap9data_sizeEv
001061b0 g     F .text	000000c0 _ZN2os11memory_heap4initEb
001cd040 g     O .bss	0000008c _ZN2os3sys5debug11_dbg_serialE
00120cc0 g     F .text	00000223 _ZSt7timestrSt6time_tPcSt11time_formatb
0011e440 g     F .text	00000002 _ZNSt6string8to_upperEv
0011e420 g     F .text	00000002 _ZNSt6string9backspaceEi
0011cf20 g     F .text	00000065 stradd
00127b20 g     F .text	00000089 _ZN2os3hal14vbe_controller4initEv
0010fcc0 g     F .text	000002de _ZNSt3gfx5image4blitESt8ivec2d_tSt7color32
00111d50 g     F .text	00000064 _ZNSt3gfx5image4copyESt7irect_tPSt7color32
00102580 g     F .text	00000016 _ZN2os3hal14device_manager9probe_pciEv
00113e21 g       .text	00000000 isr8
001153f0 g     F .text	00000005 _ZdlPv
00113f37 g       .text	00000000 irq5
00100470 g     F .text	00000084 _ZN2os3hal14ata_controller4initEv
001cd100 g     O .bss	00000018 _gdt_entries
00107070 g     F .text	00000002 default_handler
00128370  w    F .text._ZNSt9arraylistIPcEC2EPS0_mb	0000011f _ZNSt9arraylistIPcEC1EPS0_mb
0010e6d0 g     F .text	00000225 _ZNSt3gfx5imageC2Ev
00128260  w    F .text._ZNSt5arrayIhEC2Em	00000109 _ZNSt5arrayIhEC2Em
001126b0 g     F .text	0000008f _ZNSt3gfx5image4copyESt8ivec2d_tS1_jPj
001019f0 g     F .text	00000053 _ZN2os3sys5debug4initENS_3hal11serial_portE
00101980 g     F .text	00000026 isxdigit
00113e8d g       .text	00000000 isr20
0011f580 g     F .text	000001a1 _ZN2os3sys5tests14test_tokenizerEi
001011d0 g     F .text	00000005 _Z5yieldv
00122350 g     F .text	0000045e _ZN2os11interpreter14tokenizer_unitC2ESt5arrayIcE
0010eb30 g     F .text	0000024b _ZNSt3gfx5imageC1ESt8ivec2d_tSt5arrayIjE
001d1000 g       .bss	00000000 _kernel_end
00106980 g     F .text	00000071 _ZN2os11memory_heap8validateEj
00115520 g     F .text	00000019 _ZN2os3hal3pit8callbackEPNS0_15idt_registers_tE
001d0458 g     O .bss	00000004 THREAD
001d0430 g     O .bss	00000004 _ZN2os9threading9scheduler6_indexE
00115430 g     F .text	00000080 _ZN2os3hal3pit4initEv
00110830 g     F .text	0000005a _ZNSt3gfx5image4rectESt7irect_tiSt7color32
00113e53 g       .text	00000000 isr14
001d0460 g       .bss	00000000 _bss_end
00114790 g     F .text	000001b5 _ZN2os14memory_manager10probe_mmapEv
0011e3f0 g     F .text	00000002 _ZNSt6string6insertEiRKS_
00113e03 g       .text	00000000 isr5
0011d6d0 g     F .text	0000003b _ZSt9to_stringi
001006c0 g     F .text	0000005f _ZN2os3hal14ata_controller4stopEv
0011ced0 g     F .text	00000003 strrchr
001049a0 g     F .text	00000052 _ZN2os3hal3gdt16init_descriptorsEv
00112a60 g     F .text	000001a8 _ZNSt3gfx5image4copyEiiSt7color32PS0_
00104460 g     F .text	00000531 _ZN2os3hal3gdt14set_descriptorEhjjNS0_12gdt_access_tENS0_11gdt_flags_tE
00100170 g     F .text	0000016f _ZN2os3hal14ata_controller4readEyjPh
001220d0 g     F .text	00000277 _ZN2os11interpreter14tokenizer_unit4loadESt5arrayIcE
00115ff6 g       .text	00000000 _read_cr4
0011dcb0 g     F .text	000000e6 _ZNSt6stringD2Ev
0010b880 g     F .text	00002946 _ZN2os3hal3idt9init_irqsEv
001140f0 g     F .text	0000003b kernel_main
00125c60 g     F .text	0000004c __ubsan_handle_out_of_bounds
001cd000 g       .bss	00000000 _stack_top
0011a6c0 g     F .text	00000036 _ZN2os3hal17serial_controller8has_recvEv
00113430 g     F .text	000002e5 _ZNSt3gfx5imageC2ESt8ivec2d_t
00105f30 g     F .text	00000274 _ZN2os11memory_heap4initEmmjb
0011da50 g     F .text	00000260 _ZNSt6stringC2EOS_
001425d6 g     O .data	00000001 IDT_EXCEPTION_ATTRS
00115540 g     F .text	00000006 _ZN2os3hal3pit4freqEv
0011b2d0 g     F .text	00000003 atof
00120ef0 g     F .text	000004e6 _ZN2os11interpreter14tokenizer_unitC2Ev
00115fcd g       .text	00000000 _idt_flush
0011d2c0 g     F .text	0000009e strwhite
001cd0f0 g     O .bss	00000001 _ZN2os17garbage_collector8messagesE
00120930 g     F .text	000002f7 _ZN2os9threading15thread_create_kEv
00112630 g     F .text	0000007e _ZNSt3gfx5image4copyEiiiiSt7color32PS1_
00110400 g     F .text	0000006e _ZNSt3gfx5image11rect_filledEiiiiSt7color32
0011c9a0 g     F .text	00000024 strcat
0010e670 g     F .text	00000040 _ZN2os3hal3idt7ack_irqEPNS0_15idt_registers_tE
00113f41 g       .text	00000000 irq6
00111200 g     F .text	0000094f _ZNSt3gfx5image4copyEiiiiPj
001106d0 g     F .text	0000007e _ZNSt3gfx5image4rectESt8ivec2d_tS1_ij
001267f0 g     F .text	00000118 _ZN2os3hal14vbe_controller4blitEiij
0011abf0 g     F .text	0000006f vprintf
00113f0f g       .text	00000000 irq1
0010eb30 g     F .text	0000024b _ZNSt3gfx5imageC2ESt8ivec2d_tSt5arrayIjE
001cdf40 g     O .bss	0000001c _ZN2os6kernel10heap_smallE
00127c20 g     F .text	00000030 _ZN2os3hal14vbe_controller4stopEv
00105d70 g     F .text	000001be _ZN2os11memory_heap6createEjPNS_9threading8thread_tEm9ALLOCTYPE
00111dc0 g     F .text	000001a4 _ZNSt3gfx5image4copyEiiPS0_
001d0434 g     O .bss	0000000c _ZN2os9threading9scheduler8_threadsE
00105130 g     F .text	00000309 _ZN2os11memory_heap5printEv
00106a90 g     F .text	00000037 _ZN2os11memory_heap11toggle_msgsEb
001201a0 g     F .text	000002a7 _ZN2os9threading14thread_disposeEPNS0_8thread_tE
00101b90 g     F .text	00000725 _ZN2os3sys5debug12draw_overlayEv
0011fd70 g     F .text	00000231 _ZN2os3sys5tests8test_vbeEii
00111f70 g     F .text	00000212 _ZNSt3gfx5image4copyESt8ivec2d_tPS0_
00100000 g       .text	00000000 _mboot
00125e90 g     F .text	0000004c __ubsan_handle_negate_overflow
0011f730 g     F .text	00000639 _ZN2os3sys5tests13test_vbe_iterEPNS_3hal14vbe_controllerEiii
00124c00 g     F .text	000005c6 _ZN2os11interpreter14tokenizer_unit6handleEc
001cd0e8 g     O .bss	00000008 _ZSt12FONT_DEFAULT
00110ef0 g     F .text	0000019a _ZNSt3gfx5image6putstrEiiPcNS_7bitfontEjj
0011bce0 g     F .text	000000e2 ftoa
00114560 g     F .text	0000002f fmod
001285b0  w    F .text._ZNSt5arrayIcEC2EPcmb	0000011c _ZNSt5arrayIcEC1EPcmb
0011c7d0 g     F .text	0000006a memchr
001d0444 g     O .bss	00000004 _ZN2os3hal7devices6serialE
001257b0 g     F .text	0000001e _ZN2os11interpreter14tokenizer_unit7typestrENS0_10token_typeE
001285b0  w    F .text._ZNSt5arrayIcEC2EPcmb	0000011c _ZNSt5arrayIcEC2EPcmb
00115550 g     F .text	00000006 _ZN2os3hal3pit5ticksEv
0011da50 g     F .text	00000260 _ZNSt6stringC1ERKS_
00115fee g       .text	00000000 _read_cr2
00123ab0 g     F .text	000000de _ZN2os11interpreter14tokenizer_unit14is_literal_binEPc
00110890 g     F .text	000004cc _ZNSt3gfx5image4putcEiicNS_7bitfontEjj
001d03e8 g     O .bss	00000004 _ZN2os3hal3pit13_millis_totalE
00100030 g       .text	00000000 _start
001251d0 g     F .text	0000042e _ZN2os11interpreter14tokenizer_unit3runEv
0011cef0 g     F .text	00000003 strstr
0010e900 g     F .text	00000221 _ZNSt3gfx5imageC2EiiSt5arrayIjE
00112c10 g     F .text	00000219 _ZNSt3gfx5image4copyESt8ivec2d_tjPS0_
0011b2e0 g     F .text	00000003 rand
00101160 g     F .text	00000002 __cxa_pure_virtual
001160c0 g     F .text	00000141 _ZN2os3hal3rtc5fetchEv
00113de1 g       .text	00000000 isr1
00126070 g     F .text	0000027e _ZN2os3hal14vbe_controller16populate_headersEv
00127d70 g     F .text.startup	0000029b _ZN2os6kernel4mainEv
001184f0 g     F .text	00000030 _ZN2os9threading9scheduler8is_readyEv
00113f5f g       .text	00000000 irq9
00101960 g     F .text	00000011 isupper
0011cc80 g     F .text	00000177 strncmp
00103c90 g     F .text	000003b6 _ZN2os10filesystem11fetch_filesEPKc
001022c0 g     F .text	0000002f _ZN2os3hal8device_t4initEv
0010f030 g     F .text	00000259 _ZNSt3gfx5imageC1EPc
001170f0 g     F .text	00000185 _ZN2os9threading9scheduler5pauseEPNS0_8thread_tE
00103ac0 g     F .text	000000ae _ZN2os10filesystem10write_fileEPKvmmPNS_6file_tE
001142e0 g     F .text	00000078 pow
00113ec9 g       .text	00000000 isr26
00115400 g     F .text	00000005 _ZdlPvm
0011ce20 g     F .text	0000007d strncpy
00115590 g     F .text	0000019b _ZN2os10filesystem10ramfs_host4initESt5arrayIhE
001022f0 g     F .text	000000c2 _ZN2os3hal8device_t5startEv
00113e3b g       .text	00000000 isr11
0011b300 g     F .text	00000054 _itoa_swap
001041c0 g     F .text	00000079 _ZN2os17garbage_collector5mergeEv
00102770 g     F .text	000002f2 _ZN2os3hal14device_manager5probeEv
00115560 g     F .text	00000006 _ZN2os3hal3pit6millisEv
00125e40 g     F .text	0000004c __ubsan_handle_mul_overflow
00101420 g     F .text	00000361 _ZN2os10filesystem7parsing13config_parserC1EPc
0010f290 g     F .text	000000e0 _ZNSt3gfx5image5clearEj
001213e0 g     F .text	00000786 _ZN2os11interpreter14tokenizer_unitC1EPc
001131b0 g     F .text	0000027d _ZNSt3gfx5imageC2Eii
0013c97c  w    O .rodata._ZTVN2os3hal17serial_controllerE	00000014 _ZTVN2os3hal17serial_controllerE
0011cf00 g     F .text	00000003 strtok
001186f0 g     F .text	000001f2 _ZN2os9threading9scheduler10is_runningEj
0011600d g       .text	00000000 _write_cr4
001d040c g     O .bss	00000004 _ZN2os3hal3rtc4_nowE
0011c840 g     F .text	000000b4 memcmp
00106500 g     F .text	00000287 _ZN2os11memory_heap8allocateEm9ALLOCTYPEb
0011ad80 g     F .text	000000a6 freearray
00120090 g     F .text	00000102 _ZN2os9threading14thread_setnameEPNS0_8thread_tEPKc
00111120 g     F .text	0000006b _ZNSt3gfx5image6putstrESt8ivec2d_tPcNS_7bitfontEjj
00102510 g     F .text	00000008 _ZN2os3hal8device_t4nameEv
00101850 g     F .text	00000014 isalpha
0011a700 g     F .text	000000b6 _ZN2os3hal17serial_controller8validateEv
0011c9d0 g     F .text	000000d8 strncat
00110750 g     F .text	0000007e _ZNSt3gfx5image4rectESt8ivec2d_tS1_iSt7color32
00101420 g     F .text	00000361 _ZN2os10filesystem7parsing13config_parserC2EPc
00102490 g     F .text	00000042 _ZN2os3hal8device_t8set_infoEPcj
00125ee0 g     F .text	0000004c __ubsan_handle_divrem_overflow
0011a8f0 g     F .text	00000299 _ZN2os3hal17serial_controller5startENS0_11serial_portE
0011ac80 g     F .text	00000057 tmalloc
0011d4f0 g     F .text	00000189 _ZNSt6stringC1EPc
0010f9e0 g     F .text	000002de _ZNSt3gfx5image4blitESt8ivec2d_tj
00113f87 g       .text	00000000 irq13
00113e43 g       .text	00000000 isr12
00112190 g     F .text	00000495 _ZNSt3gfx5image4copyEiiiijPj
00111c50 g     F .text	0000008b _ZNSt3gfx5image4copyESt8ivec2d_tS1_PSt7color32
0011d4f0 g     F .text	00000189 _ZNSt6stringC2EPc
00106790 g     F .text	00000014 _ZN2os11memory_heap7nearestEPNS_11heapblock_tE
00125f30 g     F .text	0000004c __ubsan_handle_missing_return
00127bb0 g     F .text	00000062 _ZN2os3hal14vbe_controller5startEv
00107020 g     F .text	0000002a _ZN2os11memory_heap6blocksEv
00120450 g     F .text	00000050 _ZN2os9threading14thread_monitorEv
001011a0 g     F .text	0000002e _Z6unlockv
0013d000 g       .data	00000000 end_ctors
0011d680 g     F .text	0000004a _ZSt9to_stringb
001cd000 g     O .bss	00000004 _ZN2os3hal7devices3ataE
0011c930 g     F .text	00000052 memset
00115e60 g       .text	00000000 int32
00120c30 g     F .text	00000055 _ZSt7timenowv
00104240 g     F .text	00000212 _ZN2os17garbage_collector7collectEv
001cd020 g     O .bss	00000001 _ZN2os3sys5debug14stdout_enabledE
001279b0 g     F .text	000000ad _ZN2os3hal14vbe_controller9get_pixelEii
001cd300 g     O .bss	00000400 _idt_handlers
0011d440 g     F .text	0000003a strback
0013c990  w    O .rodata._ZTVN2os3hal14vbe_controllerE	00000014 _ZTVN2os3hal14vbe_controllerE
0011cf10 g     F .text	00000003 strxfrm
00113dda g       .text	00000000 isr0
0011d710 g     F .text	0000003b _ZSt9to_stringj
00111090 g     F .text	0000008c _ZNSt3gfx5image6putstrEiiPcNS_7bitfontESt7color32S3_
00123290 g     F .text	0000064b _ZN2os11interpreter14tokenizer_unit18handle_str_literalEv
00115410 g     F .text	00000005 _ZdaPv
00113f19 g       .text	00000000 irq2
0011e400 g     F .text	00000002 _ZNSt6string6insertEOS_
0011a850 g     F .text	00000062 _ZN2os3hal17serial_controller4initEv
001d03f4 g     O .bss	00000004 _ZN2os3hal3pit6_ticksE
0010f030 g     F .text	00000259 _ZNSt3gfx5imageC2EPc
00106a00 g     F .text	0000008c _ZN2os11memory_heap8validateEPv
00101230 g     F .text	000001eb _ZN2os10filesystem7parsing13config_parserC2Ev
001018b0 g     F .text	00000011 isgraph
001cd0d0 g     O .bss	0000000c _ZN2os3hal14device_manager8_devicesE
00106f90 g     F .text	0000002b _ZN2os11memory_heap9alignmentEv
001cdfc0 g     O .bss	00000004 _ZN2os14memory_manager7_usableE
00105bd0 g     F .text	00000191 _ZN2os11memory_heap10next_emptyEv
00101820 g     F .text	00000026 isalnum
00102c30 g     F .text	000002e6 _ZN2os3hal14device_manager9uninstallEPNS0_8device_tE
001018f0 g     F .text	0000001c isprint
00110e70 g     F .text	0000007f _ZNSt3gfx5image4putcESt8ivec2d_tcNS_7bitfontESt7color32S3_
00128490  w    F .text._ZNSt5arrayIPcEC2EPS0_mb	0000011f _ZNSt5arrayIPcEC1EPS0_mb
001025a0 g     F .text	000001c1 _ZN2os3hal14device_manager7installEPNS0_8device_tEb
00113eb5 g       .text	00000000 isr24
00113e65 g       .text	00000000 isr16
001175c0 g     F .text	000002f1 _ZN2os9threading9scheduler4initEv
0011e410 g     F .text	00000002 _ZNSt6string9backspaceEv
001127d0 g     F .text	00000068 _ZNSt3gfx5image4copyESt7irect_tjPj
00115580 g     F .text	00000006 _ZN2os3hal3pit7secondsEv
001213e0 g     F .text	00000786 _ZN2os11interpreter14tokenizer_unitC2EPc
00115570 g     F .text	00000006 _ZN2os3hal3pit12millis_totalEv
0011cb10 g     F .text	00000163 strcmp
0011d480 g     F .text	0000006b _ZNSt6stringC1Ev
00115070 g     F .text	00000006 _ZN2os14memory_manager6usableEv
00114950 g     F .text	000000c8 _ZN2os14memory_manager10probe_modsEv
001d03ec g     O .bss	00000004 _ZN2os3hal3pit7_millisE
00113def g       .text	00000000 isr3
00114590 g     F .text	000001f3 _ZN2os14memory_manager3mapEjmNS_11memblk_typeE
001cdf24 g     O .bss	0000001c _ZN2os6kernel10heap_largeE
00104070 g     F .text	000000e7 _ZN2os10filesystem4initEv
0010e6d0 g     F .text	00000225 _ZNSt3gfx5imageC1Ev
00104050 g     F .text	00000014 _ZN2os10filesystem10fetch_dirsEPKc
00122c40 g     F .text	0000064b _ZN2os11interpreter14tokenizer_unit19handle_char_literalEv
001d0414 g     O .bss	00000004 _ZN2os3hal3rtc6_ticksE
001162e0 g     F .text	00000006 _ZN2os3hal3rtc4timeEv
0011cea0 g     F .text	00000003 strcspn
0010e900 g     F .text	00000221 _ZNSt3gfx5imageC1EiiSt5arrayIjE
00125fd0 g     F .text	0000004c __ubsan_handle_shift_out_of_bounds
00121b70 g     F .text	00000552 _ZN2os11interpreter14tokenizer_unit7disposeEv
00114090 g     F .text	00000006 _ZN2os6kernel10start_addrEv
0011b9e0 g     F .text	0000001d ltoa
00106e90 g     F .text	00000089 _ZN2os11memory_heap10total_sizeEv
0011a680 g     F .text	00000039 _ZN2os3hal17serial_controller8can_sendEv
00125df0 g     F .text	0000004c __ubsan_handle_sub_overflow
00115910 g     F .text	00000546 _ZN2os10filesystem10ramfs_host4readEPKc
00114a20 g     F .text	00000493 _ZN2os14memory_manager7requestEmNS_11memblk_typeE
00106270 g     F .text	0000028e _ZN2os11memory_heap4nextEm
001d0424 g     O .bss	00000004 _ZN2os9threading9scheduler5_lastE
001262f0 g     F .text	00000455 _ZN2os3hal14vbe_controller8set_modeEii
00112840 g     F .text	00000068 _ZNSt3gfx5image4copyESt7irect_tSt7color32PS2_
0011e450 g     F .text	00000002 _ZNSt6string8to_lowerEv
001140a0 g     F .text	00000006 _ZN2os6kernel8end_addrEv
00128260  w    F .text._ZNSt5arrayIhEC2Em	00000109 _ZNSt5arrayIhEC1Em
00113e0d g       .text	00000000 isr6
00118530 g     F .text	000001bd _ZN2os9threading9scheduler10is_runningEPNS0_8thread_tE
001140e0 g     F .text	00000006 _ZN2os6kernel12bss_end_addrEv
00113f4b g       .text	00000000 irq7
00107120 g     F .text	00000145 irq_handler
0011e460 g     F .text	0000002a _ZNSt6string5c_strEv
00117280 g     F .text	00000185 _ZN2os9threading9scheduler9terminateEPNS0_8thread_tE
00101230 g     F .text	000001eb _ZN2os10filesystem7parsing13config_parserC1Ev
00122800 g     F .text	000003b6 _ZN2os11interpreter14tokenizer_unit9add_tokenENS0_10token_typeEiPcb
001d0418 g     O .bss	0000000a _ZN2os3hal3rtc3_tmE
001153d0 g     F .text	00000012 _Znam
0011da50 g     F .text	00000260 _ZNSt6stringC2ERKS_
001d03f8 g     O .bss	00000004 _ZN2os3hal3pit5_freqE
00115e60 g       .text	00000000 _int32
00111bc0 g     F .text	0000008b _ZNSt3gfx5image4copyESt8ivec2d_tS1_Pj
001d0400 g     O .bss	00000008 _ZN2os3hal3rtc7_millisE
00118520 g     F .text	00000006 _ZN2os9threading9scheduler7threadsEv
001d03e4 g     O .bss	00000004 _ZN2os3hal3pit8_secondsE
00120c90 g     F .text	00000025 _ZSt7timenowPSt6time_t
00113e79 g       .text	00000000 isr18
0014d000 g       .bss	00000000 _stack_bottom
00117ca0 g     F .text	000006b6 _ZN2os9threading9scheduler4nextEv
001d042c g     O .bss	00000001 _ZN2os9threading9scheduler6_readyE
00118360 g     F .text	0000017c _ZN2os9threading9scheduler5yieldEv
00101890 g     F .text	00000011 isdigit
001d045c g     O .bss	00000004 _ZN2os3hal7devices3vbeE
001256b0 g     F .text	000000f9 _ZN2os11interpreter14tokenizer_unit9is_symbolEPc
0011bdd0 g     F .text	00000709 strhex
00113f05 g       .text	00000000 irq0
00123f60 g     F .text	00000369 _ZN2os11interpreter14tokenizer_unit11is_typenameEPc
001067b0 g     F .text	000001ca _ZN2os11memory_heap5fetchEPv
00117410 g     F .text	000001a5 _ZN2os9threading9scheduler4loadEPNS0_8thread_tE
00127130 g     F .text	0000087f _ZN2os3hal14vbe_controller4copyEiiiiPj
0011df00 g     F .text	000001f3 _ZNSt6string6appendEc
00105440 g     F .text	00000276 _ZN2os11memory_heap6removeEPNS_11heapblock_tE
00115080 g     F .text	0000001e _ZN2os14memory_manager7typestrENS_11memblk_typeE
00102520 g     F .text	00000054 _ZN2os3hal8device_t7runningEv
00113e33 g       .text	00000000 isr10
0011b2f0 g     F .text	00000002 exit
00101af0 g     F .text	00000093 _ZN2os3sys5debug10print_regsEPNS_9threading13thread_regs_tE
00101a50 g     F .text	000000a0 _ZN2os3sys5debug10print_regsEPNS_3hal15idt_registers_tE
00102f20 g     F .text	00000006 _ZN2os3hal14device_manager7devicesEv
001150a0 g     F .text	0000020d _ZN2os14memory_manager5printEv
0011d360 g     F .text	00000070 strupper
001227b0 g     F .text	0000004d _ZN2os11interpreter14tokenizer_unit9set_rulesENS0_17tokenizer_rules_tE
00100500 g     F .text	000001b7 _ZN2os3hal14ata_controller5startEv
00106c70 g     F .text	00000215 _ZN2os11memory_heap9calc_usedEPNS_9threading8thread_tE
0011d750 g     F .text	00000300 _ZSt9to_stringd
00100720 g     F .text	00000a31 _ZN2os10filesystem7parsing8bmp_loadEPc
00110670 g     F .text	00000015 _ZNSt3gfx5image4rectEiiiiij
00126910 g     F .text	0000031f _ZN2os3hal14vbe_controller11rect_filledEiiiij
00115ffd g       .text	00000000 _write_cr0
00112e30 g     F .text	00000219 _ZNSt3gfx5image4copyESt8ivec2d_tSt7color32PS0_
0011ae30 g     F .text	000001b6 atoi
00101870 g     F .text	00000016 iscntrl
001cd700 g     O .bss	00000800 _idt_entries
00113e6f g       .text	00000000 isr17
00114170 g     F .text	00000017 clamp
00113de8 g       .text	00000000 isr2
001d0410 g     O .bss	00000004 _ZN2os3hal3rtc6_timerE
00115730 g     F .text	000001af _ZN2os10filesystem10ramfs_host6existsEPKc
00113e83 g       .text	00000000 isr19
0011a820 g     F .text	0000002f _ZN2os3hal17serial_controller4portEv
00128490  w    F .text._ZNSt5arrayIPcEC2EPS0_mb	0000011f _ZNSt5arrayIPcEC2EPS0_mb
0011cee0 g     F .text	00000003 strspn
00113ef1 g       .text	00000000 isr30
00125f80 g     F .text	0000004c __ubsan_handle_load_invalid_value
00126f90 g     F .text	0000019a _ZN2os3hal14vbe_controller6putstrEiiPcNSt3gfx7bitfontEjj
0011e4c0 g     F .text	000003ae _ZNSt6stringaSERKS_
00116310 g     F .text	00000bfd _ZN2os9threading9scheduler7monitorEv
0011ceb0 g     F .text	00000010 strlen
001cd0dc g     O .bss	0000000c _ZN2os10filesystem11filesystemsE
0011ab90 g     F .text	00000058 _ZN2os3hal17serial_controller4stopEv
00100000 g       .text	00000000 _kernel_start
001238e0 g     F .text	00000002 _ZN2os11interpreter14tokenizer_unit14handle_commentEv
001d03f0 g     O .bss	00000004 _ZN2os3hal3pit6_timerE
001019d0 g     F .text	00000011 toupper
001140d0 g     F .text	00000006 _ZN2os6kernel14bss_start_addrEv
00115fb0 g       .text	00000000 _gdt_flush
0011de40 g     F .text	000000c0 _ZNSt6string5clearEv
00116f10 g     F .text	000001d3 _ZN2os9threading9scheduler5startEPNS0_8thread_tE
0010e5d0 g     F .text	0000009d _ZN2os3hal3idt14unregister_irqENS0_3IRQE
00106ff0 g     F .text	0000002b _ZN2os11memory_heap9count_maxEv
00114130 g     F .text	00000032 abs
0011a7c0 g     F .text	00000056 _ZN2os3hal17serial_controller7portstrENS0_11serial_portE
00113f9b g       .text	00000000 irq15
0011cab0 g     F .text	00000052 strchr
00113e17 g       .text	00000000 isr7
001023c0 g     F .text	000000c2 _ZN2os3hal8device_t4stopEv
00112740 g     F .text	0000008f _ZNSt3gfx5image4copyESt8ivec2d_tS1_St7color32PS2_
0011da50 g     F .text	00000260 _ZNSt6stringC1EOS_
00116210 g     F .text	000000a5 _ZN2os3hal3rtc8callbackEPNS0_15idt_registers_tE
00104160 g     F .text	00000051 _ZN2os17garbage_collector5startEv
00118c90 g     F .text	0000017d _ZN2os3hal17serial_controller5writeEc
00113ebf g       .text	00000000 isr25
001193b0 g     F .text	000012a8 _ZN2os3hal17serial_controller10vprint_fmtEPcS2_
00116005 g       .text	00000000 _write_cr3
0011eff0 g     F .text	000003c2 _ZN2os3sys5tests14test_arraylistEi
00115fea g       .text	00000000 _read_cr0
00114360 g     F .text	000001f3 trunc
001425d5 g     O .data	00000001 IDT_IRQ_ATTRS
001cdfc8 g     O .bss	00000004 _ZN2os14memory_manager8_freeblkE
001011e0 g     F .text	00000048 _Z5sleepj
0011e3d0 g     F .text	00000002 _ZNSt6string6insertEic
00115420 g     F .text	00000005 _ZdaPvm
00123b90 g     F .text	0000006a _ZN2os11interpreter14tokenizer_unit15is_literal_boolEPc
00103860 g     F .text	00000111 _ZN2os10filesystem9open_fileEPKcS2_
0011e360 g     F .text	0000005a _ZNSt6string6appendERKS_
00103680 g     F .text	0000001a _ZN2os10filesystem12from_modestrEPKc
0011d480 g     F .text	0000006b _ZNSt6stringC2Ev
00113720 g     F .text	000005e3 _ZNSt3gfx5image6resizeEii
0011dcb0 g     F .text	000000e6 _ZNSt6stringD1Ev
00118e10 g     F .text	000003ae _ZN2os3hal17serial_controller5printEPc
001188f0 g     F .text	00000212 _ZN2os9threading9scheduler10is_runningEPc
001107d0 g     F .text	0000005a _ZNSt3gfx5image4rectESt7irect_tij
0010f480 g     F .text	00000292 _ZNSt3gfx5image4blitEiij
00128370  w    F .text._ZNSt9arraylistIPcEC2EPS0_mb	0000011f _ZNSt9arraylistIPcEC2EPS0_mb
001017d0 g       .text	00000000 _context_switch
001cdfc4 g     O .bss	00000004 _ZN2os14memory_manager14_after_freeblkE
00103980 g     F .text	00000138 _ZN2os10filesystem9read_fileEPvmmPNS_6file_tE
001d044c g     O .bss	00000004 _ZN2os9threading9_mon_lastE
001140b0 g     F .text	00000006 _ZN2os6kernel14stk_start_addrEv
00113f2d g       .text	00000000 irq4
0011cec0 g     F .text	00000003 strpbrk
00113f23 g       .text	00000000 irq3
001131b0 g     F .text	0000027d _ZNSt3gfx5imageC1Eii
001152b0 g     F .text	000000f6 _ZN2os14memory_manager4initEv
00111190 g     F .text	0000006b _ZNSt3gfx5image6putstrESt8ivec2d_tPcNS_7bitfontESt7color32S4_
00107080 g     F .text	000000a0 exception_handler
00128030  w    F .text._ZNSt5arrayIhEC2EPhmb	0000011c _ZNSt5arrayIhEC2EPhmb
0011ad00 g     F .text	0000007b free



Disassembly of section .text:

00100000 <_kernel_start>:
  100000:	02 b0 ad 1b 07 00    	add    dh,BYTE PTR [eax+0x71bad]
  100006:	00 00                	add    BYTE PTR [eax],al
  100008:	f7 4f 52 e4 00 00 10 	test   DWORD PTR [edi+0x52],0x100000e4
	...
  10001b:	00 30                	add    BYTE PTR [eax],dh
  10001d:	00 10                	add    BYTE PTR [eax],dl
  10001f:	00 00                	add    BYTE PTR [eax],al
  100021:	00 00                	add    BYTE PTR [eax],al
  100023:	00 80 02 00 00 e0    	add    BYTE PTR [eax-0x1ffffffe],al
  100029:	01 00                	add    DWORD PTR [eax],eax
  10002b:	00 20                	add    BYTE PTR [eax],ah
  10002d:	00 00                	add    BYTE PTR [eax],al
	...

00100030 <_start>:
  100030:	fa                   	cli    
  100031:	bd 00 d0 1c 00       	mov    ebp,0x1cd000
  100036:	89 ec                	mov    esp,ebp
  100038:	53                   	push   ebx
  100039:	e8 b2 40 01 00       	call   1140f0 <kernel_main>
  10003e:	fa                   	cli    
  10003f:	f4                   	hlt    

00100040 <_ZN2os3hal14ata_controller8callbackEPNS0_15idt_registers_tE>:
  100040:	f3 c3                	repz ret 
  100042:	8d b4 26 00 00 00 00 	lea    esi,[esi+eiz*1+0x0]
  100049:	8d bc 27 00 00 00 00 	lea    edi,[edi+eiz*1+0x0]

00100050 <_ZN2os3hal14ata_controller8identifyEv>:
  100050:	55                   	push   ebp
  100051:	57                   	push   edi
  100052:	56                   	push   esi
  100053:	53                   	push   ebx
  100054:	83 ec 0c             	sub    esp,0xc
  100057:	8b 5c 24 20          	mov    ebx,DWORD PTR [esp+0x20]
  10005b:	85 db                	test   ebx,ebx
  10005d:	0f 84 dd 00 00 00    	je     100140 <_ZN2os3hal14ata_controller8identifyEv+0xf0>
  100063:	f6 c3 03             	test   bl,0x3
  100066:	0f 85 d4 00 00 00    	jne    100140 <_ZN2os3hal14ata_controller8identifyEv+0xf0>
  10006c:	0f b6 9b 88 00 00 00 	movzx  ebx,BYTE PTR [ebx+0x88]
  100073:	80 fb 01             	cmp    bl,0x1
  100076:	0f 87 d9 00 00 00    	ja     100155 <_ZN2os3hal14ata_controller8identifyEv+0x105>
  10007c:	83 e3 01             	and    ebx,0x1
  10007f:	0f 84 85 00 00 00    	je     10010a <_ZN2os3hal14ata_controller8identifyEv+0xba>
  100085:	b9 f7 01 00 00       	mov    ecx,0x1f7
  10008a:	89 ca                	mov    edx,ecx
  10008c:	ec                   	in     al,dx
  10008d:	b8 a0 ff ff ff       	mov    eax,0xffffffa0
  100092:	ba f6 01 00 00       	mov    edx,0x1f6
  100097:	ee                   	out    dx,al
  100098:	89 ca                	mov    edx,ecx
  10009a:	ec                   	in     al,dx
  10009b:	31 ed                	xor    ebp,ebp
  10009d:	ba f2 01 00 00       	mov    edx,0x1f2
  1000a2:	89 e8                	mov    eax,ebp
  1000a4:	ee                   	out    dx,al
  1000a5:	89 ca                	mov    edx,ecx
  1000a7:	ec                   	in     al,dx
  1000a8:	ba f3 01 00 00       	mov    edx,0x1f3
  1000ad:	89 e8                	mov    eax,ebp
  1000af:	ee                   	out    dx,al
  1000b0:	89 ca                	mov    edx,ecx
  1000b2:	ec                   	in     al,dx
  1000b3:	be f4 01 00 00       	mov    esi,0x1f4
  1000b8:	89 e8                	mov    eax,ebp
  1000ba:	89 f2                	mov    edx,esi
  1000bc:	ee                   	out    dx,al
  1000bd:	89 ca                	mov    edx,ecx
  1000bf:	ec                   	in     al,dx
  1000c0:	bf f5 01 00 00       	mov    edi,0x1f5
  1000c5:	89 e8                	mov    eax,ebp
  1000c7:	89 fa                	mov    edx,edi
  1000c9:	ee                   	out    dx,al
  1000ca:	89 ca                	mov    edx,ecx
  1000cc:	ec                   	in     al,dx
  1000cd:	b8 ec ff ff ff       	mov    eax,0xffffffec
  1000d2:	ee                   	out    dx,al
  1000d3:	b8 e7 ff ff ff       	mov    eax,0xffffffe7
  1000d8:	ee                   	out    dx,al
  1000d9:	ec                   	in     al,dx
  1000da:	84 c0                	test   al,al
  1000dc:	89 c1                	mov    ecx,eax
  1000de:	89 c5                	mov    ebp,eax
  1000e0:	78 32                	js     100114 <_ZN2os3hal14ata_controller8identifyEv+0xc4>
  1000e2:	74 24                	je     100108 <_ZN2os3hal14ata_controller8identifyEv+0xb8>
  1000e4:	89 f2                	mov    edx,esi
  1000e6:	ec                   	in     al,dx
  1000e7:	89 c6                	mov    esi,eax
  1000e9:	89 fa                	mov    edx,edi
  1000eb:	ec                   	in     al,dx
  1000ec:	89 f2                	mov    edx,esi
  1000ee:	08 c2                	or     dl,al
  1000f0:	75 16                	jne    100108 <_ZN2os3hal14ata_controller8identifyEv+0xb8>
  1000f2:	83 e1 09             	and    ecx,0x9
  1000f5:	75 0c                	jne    100103 <_ZN2os3hal14ata_controller8identifyEv+0xb3>
  1000f7:	ba f7 01 00 00       	mov    edx,0x1f7
  1000fc:	ec                   	in     al,dx
  1000fd:	a8 09                	test   al,0x9
  1000ff:	89 c5                	mov    ebp,eax
  100101:	74 f9                	je     1000fc <_ZN2os3hal14ata_controller8identifyEv+0xac>
  100103:	83 e5 01             	and    ebp,0x1
  100106:	74 0e                	je     100116 <_ZN2os3hal14ata_controller8identifyEv+0xc6>
  100108:	31 db                	xor    ebx,ebx
  10010a:	83 c4 0c             	add    esp,0xc
  10010d:	89 d8                	mov    eax,ebx
  10010f:	5b                   	pop    ebx
  100110:	5e                   	pop    esi
  100111:	5f                   	pop    edi
  100112:	5d                   	pop    ebp
  100113:	c3                   	ret    
  100114:	eb fe                	jmp    100114 <_ZN2os3hal14ata_controller8identifyEv+0xc4>
  100116:	50                   	push   eax
  100117:	50                   	push   eax
  100118:	6a 04                	push   0x4
  10011a:	68 00 02 00 00       	push   0x200
  10011f:	e8 5c ab 01 00       	call   11ac80 <tmalloc>
  100124:	b9 00 01 00 00       	mov    ecx,0x100
  100129:	89 c7                	mov    edi,eax
  10012b:	ba f0 01 00 00       	mov    edx,0x1f0
  100130:	66 f3 6d             	rep ins WORD PTR es:[edi],dx
  100133:	89 04 24             	mov    DWORD PTR [esp],eax
  100136:	e8 c5 ab 01 00       	call   11ad00 <free>
  10013b:	83 c4 10             	add    esp,0x10
  10013e:	eb ca                	jmp    10010a <_ZN2os3hal14ata_controller8identifyEv+0xba>
  100140:	51                   	push   ecx
  100141:	51                   	push   ecx
  100142:	53                   	push   ebx
  100143:	68 7c d1 13 00       	push   0x13d17c
  100148:	e8 63 5b 02 00       	call   125cb0 <__ubsan_handle_type_mismatch>
  10014d:	83 c4 10             	add    esp,0x10
  100150:	e9 17 ff ff ff       	jmp    10006c <_ZN2os3hal14ata_controller8identifyEv+0x1c>
  100155:	0f b6 c3             	movzx  eax,bl
  100158:	52                   	push   edx
  100159:	52                   	push   edx
  10015a:	50                   	push   eax
  10015b:	68 e0 d1 13 00       	push   0x13d1e0
  100160:	e8 1b 5e 02 00       	call   125f80 <__ubsan_handle_load_invalid_value>
  100165:	83 c4 10             	add    esp,0x10
  100168:	e9 0f ff ff ff       	jmp    10007c <_ZN2os3hal14ata_controller8identifyEv+0x2c>
  10016d:	90                   	nop
  10016e:	66 90                	xchg   ax,ax

00100170 <_ZN2os3hal14ata_controller4readEyjPh>:
  100170:	55                   	push   ebp
  100171:	57                   	push   edi
  100172:	56                   	push   esi
  100173:	53                   	push   ebx
  100174:	83 ec 1c             	sub    esp,0x1c
  100177:	8b 5c 24 30          	mov    ebx,DWORD PTR [esp+0x30]
  10017b:	8b 74 24 34          	mov    esi,DWORD PTR [esp+0x34]
  10017f:	8b 7c 24 38          	mov    edi,DWORD PTR [esp+0x38]
  100183:	85 db                	test   ebx,ebx
  100185:	0f 84 3f 01 00 00    	je     1002ca <_ZN2os3hal14ata_controller4readEyjPh+0x15a>
  10018b:	f6 c3 03             	test   bl,0x3
  10018e:	0f 85 36 01 00 00    	jne    1002ca <_ZN2os3hal14ata_controller4readEyjPh+0x15a>
  100194:	0f b6 9b 88 00 00 00 	movzx  ebx,BYTE PTR [ebx+0x88]
  10019b:	80 fb 01             	cmp    bl,0x1
  10019e:	0f 87 0e 01 00 00    	ja     1002b2 <_ZN2os3hal14ata_controller4readEyjPh+0x142>
  1001a4:	83 e3 01             	and    ebx,0x1
  1001a7:	88 5c 24 07          	mov    BYTE PTR [esp+0x7],bl
  1001ab:	0f 84 c9 00 00 00    	je     10027a <_ZN2os3hal14ata_controller4readEyjPh+0x10a>
  1001b1:	b8 40 00 00 00       	mov    eax,0x40
  1001b6:	ba f6 01 00 00       	mov    edx,0x1f6
  1001bb:	ee                   	out    dx,al
  1001bc:	8b 44 24 3c          	mov    eax,DWORD PTR [esp+0x3c]
  1001c0:	bb f2 01 00 00       	mov    ebx,0x1f2
  1001c5:	89 da                	mov    edx,ebx
  1001c7:	c1 e8 08             	shr    eax,0x8
  1001ca:	ee                   	out    dx,al
  1001cb:	89 f0                	mov    eax,esi
  1001cd:	ba f3 01 00 00       	mov    edx,0x1f3
  1001d2:	0f ac f8 18          	shrd   eax,edi,0x18
  1001d6:	89 44 24 08          	mov    DWORD PTR [esp+0x8],eax
  1001da:	0f b6 44 24 08       	movzx  eax,BYTE PTR [esp+0x8]
  1001df:	ee                   	out    dx,al
  1001e0:	bd f4 01 00 00       	mov    ebp,0x1f4
  1001e5:	89 f8                	mov    eax,edi
  1001e7:	89 ea                	mov    edx,ebp
  1001e9:	ee                   	out    dx,al
  1001ea:	b9 f5 01 00 00       	mov    ecx,0x1f5
  1001ef:	89 f8                	mov    eax,edi
  1001f1:	c1 e8 08             	shr    eax,0x8
  1001f4:	89 ca                	mov    edx,ecx
  1001f6:	ee                   	out    dx,al
  1001f7:	0f b6 44 24 3c       	movzx  eax,BYTE PTR [esp+0x3c]
  1001fc:	89 da                	mov    edx,ebx
  1001fe:	ee                   	out    dx,al
  1001ff:	ba f3 01 00 00       	mov    edx,0x1f3
  100204:	89 f0                	mov    eax,esi
  100206:	ee                   	out    dx,al
  100207:	89 f0                	mov    eax,esi
  100209:	89 fa                	mov    edx,edi
  10020b:	0f ac f8 08          	shrd   eax,edi,0x8
  10020f:	c1 ea 08             	shr    edx,0x8
  100212:	89 44 24 08          	mov    DWORD PTR [esp+0x8],eax
  100216:	89 54 24 0c          	mov    DWORD PTR [esp+0xc],edx
  10021a:	89 ea                	mov    edx,ebp
  10021c:	0f b6 44 24 08       	movzx  eax,BYTE PTR [esp+0x8]
  100221:	ee                   	out    dx,al
  100222:	89 f0                	mov    eax,esi
  100224:	89 ca                	mov    edx,ecx
  100226:	0f ac f8 10          	shrd   eax,edi,0x10
  10022a:	ee                   	out    dx,al
  10022b:	b8 24 00 00 00       	mov    eax,0x24
  100230:	ba f7 01 00 00       	mov    edx,0x1f7
  100235:	ee                   	out    dx,al
  100236:	8b 7c 24 3c          	mov    edi,DWORD PTR [esp+0x3c]
  10023a:	31 f6                	xor    esi,esi
  10023c:	bb f7 01 00 00       	mov    ebx,0x1f7
  100241:	bd f0 01 00 00       	mov    ebp,0x1f0
  100246:	85 ff                	test   edi,edi
  100248:	75 0a                	jne    100254 <_ZN2os3hal14ata_controller4readEyjPh+0xe4>
  10024a:	eb 2e                	jmp    10027a <_ZN2os3hal14ata_controller4readEyjPh+0x10a>
  10024c:	8d 74 26 00          	lea    esi,[esi+eiz*1+0x0]
  100250:	a8 01                	test   al,0x1
  100252:	75 3c                	jne    100290 <_ZN2os3hal14ata_controller4readEyjPh+0x120>
  100254:	89 da                	mov    edx,ebx
  100256:	ec                   	in     al,dx
  100257:	a8 08                	test   al,0x8
  100259:	74 f5                	je     100250 <_ZN2os3hal14ata_controller4readEyjPh+0xe0>
  10025b:	8b 7c 24 40          	mov    edi,DWORD PTR [esp+0x40]
  10025f:	b9 00 01 00 00       	mov    ecx,0x100
  100264:	89 ea                	mov    edx,ebp
  100266:	66 f3 6d             	rep ins WORD PTR es:[edi],dx
  100269:	81 44 24 40 00 01 00 00 	add    DWORD PTR [esp+0x40],0x100
  100271:	83 c6 01             	add    esi,0x1
  100274:	39 74 24 3c          	cmp    DWORD PTR [esp+0x3c],esi
  100278:	75 da                	jne    100254 <_ZN2os3hal14ata_controller4readEyjPh+0xe4>
  10027a:	0f b6 44 24 07       	movzx  eax,BYTE PTR [esp+0x7]
  10027f:	83 c4 1c             	add    esp,0x1c
  100282:	5b                   	pop    ebx
  100283:	5e                   	pop    esi
  100284:	5f                   	pop    edi
  100285:	5d                   	pop    ebp
  100286:	c3                   	ret    
  100287:	89 f6                	mov    esi,esi
  100289:	8d bc 27 00 00 00 00 	lea    edi,[edi+eiz*1+0x0]
  100290:	83 ec 0c             	sub    esp,0xc
  100293:	68 8c 9e 12 00       	push   0x129e8c
  100298:	e8 63 c2 01 00       	call   11c500 <perror>
  10029d:	83 c4 10             	add    esp,0x10
  1002a0:	c6 44 24 07 00       	mov    BYTE PTR [esp+0x7],0x0
  1002a5:	0f b6 44 24 07       	movzx  eax,BYTE PTR [esp+0x7]
  1002aa:	83 c4 1c             	add    esp,0x1c
  1002ad:	5b                   	pop    ebx
  1002ae:	5e                   	pop    esi
  1002af:	5f                   	pop    edi
  1002b0:	5d                   	pop    ebp
  1002b1:	c3                   	ret    
  1002b2:	0f b6 c3             	movzx  eax,bl
  1002b5:	55                   	push   ebp
  1002b6:	55                   	push   ebp
  1002b7:	50                   	push   eax
  1002b8:	68 d0 d1 13 00       	push   0x13d1d0
  1002bd:	e8 be 5c 02 00       	call   125f80 <__ubsan_handle_load_invalid_value>
  1002c2:	83 c4 10             	add    esp,0x10
  1002c5:	e9 da fe ff ff       	jmp    1001a4 <_ZN2os3hal14ata_controller4readEyjPh+0x34>
  1002ca:	50                   	push   eax
  1002cb:	50                   	push   eax
  1002cc:	53                   	push   ebx
  1002cd:	68 64 d1 13 00       	push   0x13d164
  1002d2:	e8 d9 59 02 00       	call   125cb0 <__ubsan_handle_type_mismatch>
  1002d7:	83 c4 10             	add    esp,0x10
  1002da:	e9 b5 fe ff ff       	jmp    100194 <_ZN2os3hal14ata_controller4readEyjPh+0x24>
  1002df:	90                   	nop

001002e0 <_ZN2os3hal14ata_controller5writeEyjPh>:
  1002e0:	55                   	push   ebp
  1002e1:	57                   	push   edi
  1002e2:	56                   	push   esi
  1002e3:	53                   	push   ebx
  1002e4:	83 ec 1c             	sub    esp,0x1c
  1002e7:	8b 5c 24 30          	mov    ebx,DWORD PTR [esp+0x30]
  1002eb:	8b 74 24 34          	mov    esi,DWORD PTR [esp+0x34]
  1002ef:	8b 7c 24 38          	mov    edi,DWORD PTR [esp+0x38]
  1002f3:	85 db                	test   ebx,ebx
  1002f5:	0f 84 5f 01 00 00    	je     10045a <_ZN2os3hal14ata_controller5writeEyjPh+0x17a>
  1002fb:	f6 c3 03             	test   bl,0x3
  1002fe:	0f 85 56 01 00 00    	jne    10045a <_ZN2os3hal14ata_controller5writeEyjPh+0x17a>
  100304:	0f b6 9b 88 00 00 00 	movzx  ebx,BYTE PTR [ebx+0x88]
  10030b:	80 fb 01             	cmp    bl,0x1
  10030e:	0f 87 2e 01 00 00    	ja     100442 <_ZN2os3hal14ata_controller5writeEyjPh+0x162>
  100314:	83 e3 01             	and    ebx,0x1
  100317:	88 5c 24 07          	mov    BYTE PTR [esp+0x7],bl
  10031b:	0f 84 e4 00 00 00    	je     100405 <_ZN2os3hal14ata_controller5writeEyjPh+0x125>
  100321:	b8 40 00 00 00       	mov    eax,0x40
  100326:	ba f6 01 00 00       	mov    edx,0x1f6
  10032b:	ee                   	out    dx,al
  10032c:	8b 44 24 3c          	mov    eax,DWORD PTR [esp+0x3c]
  100330:	bb f2 01 00 00       	mov    ebx,0x1f2
  100335:	89 da                	mov    edx,ebx
  100337:	c1 e8 08             	shr    eax,0x8
  10033a:	ee                   	out    dx,al
  10033b:	89 f0                	mov    eax,esi
  10033d:	ba f3 01 00 00       	mov    edx,0x1f3
  100342:	0f ac f8 18          	shrd   eax,edi,0x18
  100346:	89 44 24 08          	mov    DWORD PTR [esp+0x8],eax
  10034a:	0f b6 44 24 08       	movzx  eax,BYTE PTR [esp+0x8]
  10034f:	ee                   	out    dx,al
  100350:	bd f4 01 00 00       	mov    ebp,0x1f4
  100355:	89 f8                	mov    eax,edi
  100357:	89 ea                	mov    edx,ebp
  100359:	ee                   	out    dx,al
  10035a:	b9 f5 01 00 00       	mov    ecx,0x1f5
  10035f:	89 f8                	mov    eax,edi
  100361:	c1 e8 08             	shr    eax,0x8
  100364:	89 ca                	mov    edx,ecx
  100366:	ee                   	out    dx,al
  100367:	0f b6 44 24 3c       	movzx  eax,BYTE PTR [esp+0x3c]
  10036c:	89 da                	mov    edx,ebx
  10036e:	ee                   	out    dx,al
  10036f:	ba f3 01 00 00       	mov    edx,0x1f3
  100374:	89 f0                	mov    eax,esi
  100376:	ee                   	out    dx,al
  100377:	89 f0                	mov    eax,esi
  100379:	89 fa                	mov    edx,edi
  10037b:	0f ac f8 08          	shrd   eax,edi,0x8
  10037f:	c1 ea 08             	shr    edx,0x8
  100382:	89 44 24 08          	mov    DWORD PTR [esp+0x8],eax
  100386:	89 54 24 0c          	mov    DWORD PTR [esp+0xc],edx
  10038a:	89 ea                	mov    edx,ebp
  10038c:	0f b6 44 24 08       	movzx  eax,BYTE PTR [esp+0x8]
  100391:	ee                   	out    dx,al
  100392:	89 f0                	mov    eax,esi
  100394:	89 ca                	mov    edx,ecx
  100396:	0f ac f8 10          	shrd   eax,edi,0x10
  10039a:	ee                   	out    dx,al
  10039b:	b8 34 00 00 00       	mov    eax,0x34
  1003a0:	ba f7 01 00 00       	mov    edx,0x1f7
  1003a5:	ee                   	out    dx,al
  1003a6:	8b 7c 24 3c          	mov    edi,DWORD PTR [esp+0x3c]
  1003aa:	85 ff                	test   edi,edi
  1003ac:	74 41                	je     1003ef <_ZN2os3hal14ata_controller5writeEyjPh+0x10f>
  1003ae:	31 ff                	xor    edi,edi
  1003b0:	bb f7 01 00 00       	mov    ebx,0x1f7
  1003b5:	bd f0 01 00 00       	mov    ebp,0x1f0
  1003ba:	eb 08                	jmp    1003c4 <_ZN2os3hal14ata_controller5writeEyjPh+0xe4>
  1003bc:	8d 74 26 00          	lea    esi,[esi+eiz*1+0x0]
  1003c0:	a8 01                	test   al,0x1
  1003c2:	75 5c                	jne    100420 <_ZN2os3hal14ata_controller5writeEyjPh+0x140>
  1003c4:	89 da                	mov    edx,ebx
  1003c6:	ec                   	in     al,dx
  1003c7:	a8 08                	test   al,0x8
  1003c9:	74 f5                	je     1003c0 <_ZN2os3hal14ata_controller5writeEyjPh+0xe0>
  1003cb:	8b 74 24 40          	mov    esi,DWORD PTR [esp+0x40]
  1003cf:	b9 00 01 00 00       	mov    ecx,0x100
  1003d4:	89 ea                	mov    edx,ebp
  1003d6:	66 f3 6f             	rep outs dx,WORD PTR ds:[esi]
  1003d9:	83 c7 01             	add    edi,0x1
  1003dc:	81 44 24 40 00 01 00 00 	add    DWORD PTR [esp+0x40],0x100
  1003e4:	89 f8                	mov    eax,edi
  1003e6:	0f b6 c0             	movzx  eax,al
  1003e9:	3b 44 24 3c          	cmp    eax,DWORD PTR [esp+0x3c]
  1003ed:	72 d5                	jb     1003c4 <_ZN2os3hal14ata_controller5writeEyjPh+0xe4>
  1003ef:	b8 e7 ff ff ff       	mov    eax,0xffffffe7
  1003f4:	ba f7 01 00 00       	mov    edx,0x1f7
  1003f9:	ee                   	out    dx,al
  1003fa:	8d b6 00 00 00 00    	lea    esi,[esi+0x0]
  100400:	ec                   	in     al,dx
  100401:	84 c0                	test   al,al
  100403:	78 fb                	js     100400 <_ZN2os3hal14ata_controller5writeEyjPh+0x120>
  100405:	0f b6 44 24 07       	movzx  eax,BYTE PTR [esp+0x7]
  10040a:	83 c4 1c             	add    esp,0x1c
  10040d:	5b                   	pop    ebx
  10040e:	5e                   	pop    esi
  10040f:	5f                   	pop    edi
  100410:	5d                   	pop    ebp
  100411:	c3                   	ret    
  100412:	8d b4 26 00 00 00 00 	lea    esi,[esi+eiz*1+0x0]
  100419:	8d bc 27 00 00 00 00 	lea    edi,[edi+eiz*1+0x0]
  100420:	83 ec 0c             	sub    esp,0xc
  100423:	68 9c 9e 12 00       	push   0x129e9c
  100428:	e8 d3 c0 01 00       	call   11c500 <perror>
  10042d:	83 c4 10             	add    esp,0x10
  100430:	c6 44 24 07 00       	mov    BYTE PTR [esp+0x7],0x0
  100435:	0f b6 44 24 07       	movzx  eax,BYTE PTR [esp+0x7]
  10043a:	83 c4 1c             	add    esp,0x1c
  10043d:	5b                   	pop    ebx
  10043e:	5e                   	pop    esi
  10043f:	5f                   	pop    edi
  100440:	5d                   	pop    ebp
  100441:	c3                   	ret    
  100442:	0f b6 c3             	movzx  eax,bl
  100445:	55                   	push   ebp
  100446:	55                   	push   ebp
  100447:	50                   	push   eax
  100448:	68 c0 d1 13 00       	push   0x13d1c0
  10044d:	e8 2e 5b 02 00       	call   125f80 <__ubsan_handle_load_invalid_value>
  100452:	83 c4 10             	add    esp,0x10
  100455:	e9 ba fe ff ff       	jmp    100314 <_ZN2os3hal14ata_controller5writeEyjPh+0x34>
  10045a:	50                   	push   eax
  10045b:	50                   	push   eax
  10045c:	53                   	push   ebx
  10045d:	68 4c d1 13 00       	push   0x13d14c
  100462:	e8 49 58 02 00       	call   125cb0 <__ubsan_handle_type_mismatch>
  100467:	83 c4 10             	add    esp,0x10
  10046a:	e9 95 fe ff ff       	jmp    100304 <_ZN2os3hal14ata_controller5writeEyjPh+0x24>
  10046f:	90                   	nop

00100470 <_ZN2os3hal14ata_controller4initEv>:
  100470:	53                   	push   ebx
  100471:	83 ec 08             	sub    esp,0x8
  100474:	8b 5c 24 10          	mov    ebx,DWORD PTR [esp+0x10]
  100478:	85 db                	test   ebx,ebx
  10047a:	74 42                	je     1004be <_ZN2os3hal14ata_controller4initEv+0x4e>
  10047c:	f6 c3 03             	test   bl,0x3
  10047f:	75 3d                	jne    1004be <_ZN2os3hal14ata_controller4initEv+0x4e>
  100481:	83 ec 0c             	sub    esp,0xc
  100484:	53                   	push   ebx
  100485:	e8 36 1e 00 00       	call   1022c0 <_ZN2os3hal8device_t4initEv>
  10048a:	83 c4 10             	add    esp,0x10
  10048d:	85 db                	test   ebx,ebx
  10048f:	74 51                	je     1004e2 <_ZN2os3hal14ata_controller4initEv+0x72>
  100491:	f6 c3 03             	test   bl,0x3
  100494:	75 4c                	jne    1004e2 <_ZN2os3hal14ata_controller4initEv+0x72>
  100496:	85 db                	test   ebx,ebx
  100498:	c6 83 89 00 00 00 00 	mov    BYTE PTR [ebx+0x89],0x0
  10049f:	74 2f                	je     1004d0 <_ZN2os3hal14ata_controller4initEv+0x60>
  1004a1:	f6 c3 03             	test   bl,0x3
  1004a4:	75 2a                	jne    1004d0 <_ZN2os3hal14ata_controller4initEv+0x60>
  1004a6:	83 ec 04             	sub    esp,0x4
  1004a9:	68 00 00 00 d0       	push   0xd0000000
  1004ae:	68 ad 9e 12 00       	push   0x129ead
  1004b3:	53                   	push   ebx
  1004b4:	e8 d7 1f 00 00       	call   102490 <_ZN2os3hal8device_t8set_infoEPcj>
  1004b9:	83 c4 18             	add    esp,0x18
  1004bc:	5b                   	pop    ebx
  1004bd:	c3                   	ret    
  1004be:	51                   	push   ecx
  1004bf:	51                   	push   ecx
  1004c0:	53                   	push   ebx
  1004c1:	68 1c d1 13 00       	push   0x13d11c
  1004c6:	e8 e5 57 02 00       	call   125cb0 <__ubsan_handle_type_mismatch>
  1004cb:	83 c4 10             	add    esp,0x10
  1004ce:	eb b1                	jmp    100481 <_ZN2os3hal14ata_controller4initEv+0x11>
  1004d0:	50                   	push   eax
  1004d1:	50                   	push   eax
  1004d2:	53                   	push   ebx
  1004d3:	68 ec d0 13 00       	push   0x13d0ec
  1004d8:	e8 d3 57 02 00       	call   125cb0 <__ubsan_handle_type_mismatch>
  1004dd:	83 c4 10             	add    esp,0x10
  1004e0:	eb c4                	jmp    1004a6 <_ZN2os3hal14ata_controller4initEv+0x36>
  1004e2:	52                   	push   edx
  1004e3:	52                   	push   edx
  1004e4:	53                   	push   ebx
  1004e5:	68 04 d1 13 00       	push   0x13d104
  1004ea:	e8 c1 57 02 00       	call   125cb0 <__ubsan_handle_type_mismatch>
  1004ef:	83 c4 10             	add    esp,0x10
  1004f2:	eb a2                	jmp    100496 <_ZN2os3hal14ata_controller4initEv+0x26>
  1004f4:	8d b6 00 00 00 00    	lea    esi,[esi+0x0]
  1004fa:	8d bf 00 00 00 00    	lea    edi,[edi+0x0]

00100500 <_ZN2os3hal14ata_controller5startEv>:
  100500:	56                   	push   esi
  100501:	53                   	push   ebx
  100502:	83 ec 14             	sub    esp,0x14
  100505:	8b 5c 24 20          	mov    ebx,DWORD PTR [esp+0x20]
  100509:	85 db                	test   ebx,ebx
  10050b:	0f 84 52 01 00 00    	je     100663 <_ZN2os3hal14ata_controller5startEv+0x163>
  100511:	f6 c3 03             	test   bl,0x3
  100514:	0f 85 49 01 00 00    	jne    100663 <_ZN2os3hal14ata_controller5startEv+0x163>
  10051a:	83 ec 0c             	sub    esp,0xc
  10051d:	53                   	push   ebx
  10051e:	e8 cd 1d 00 00       	call   1022f0 <_ZN2os3hal8device_t5startEv>
  100523:	58                   	pop    eax
  100524:	5a                   	pop    edx
  100525:	68 40 00 10 00       	push   0x100040
  10052a:	6a 2e                	push   0x2e
  10052c:	e8 0f e0 00 00       	call   10e540 <_ZN2os3hal3idt12register_irqENS0_3IRQEPFvPNS0_15idt_registers_tEE>
  100531:	83 c4 10             	add    esp,0x10
  100534:	85 db                	test   ebx,ebx
  100536:	0f 84 12 01 00 00    	je     10064e <_ZN2os3hal14ata_controller5startEv+0x14e>
  10053c:	f6 c3 03             	test   bl,0x3
  10053f:	0f 85 09 01 00 00    	jne    10064e <_ZN2os3hal14ata_controller5startEv+0x14e>
  100545:	83 ec 0c             	sub    esp,0xc
  100548:	53                   	push   ebx
  100549:	e8 02 fb ff ff       	call   100050 <_ZN2os3hal14ata_controller8identifyEv>
  10054e:	83 c4 10             	add    esp,0x10
  100551:	85 db                	test   ebx,ebx
  100553:	0f 84 d7 00 00 00    	je     100630 <_ZN2os3hal14ata_controller5startEv+0x130>
  100559:	f6 c3 03             	test   bl,0x3
  10055c:	0f 85 ce 00 00 00    	jne    100630 <_ZN2os3hal14ata_controller5startEv+0x130>
  100562:	85 db                	test   ebx,ebx
  100564:	88 83 89 00 00 00    	mov    BYTE PTR [ebx+0x89],al
  10056a:	0f 84 ab 00 00 00    	je     10061b <_ZN2os3hal14ata_controller5startEv+0x11b>
  100570:	f6 c3 03             	test   bl,0x3
  100573:	0f 85 a2 00 00 00    	jne    10061b <_ZN2os3hal14ata_controller5startEv+0x11b>
  100579:	0f b6 83 89 00 00 00 	movzx  eax,BYTE PTR [ebx+0x89]
  100580:	3c 01                	cmp    al,0x1
  100582:	77 76                	ja     1005fa <_ZN2os3hal14ata_controller5startEv+0xfa>
  100584:	a8 01                	test   al,0x1
  100586:	74 18                	je     1005a0 <_ZN2os3hal14ata_controller5startEv+0xa0>
  100588:	83 ec 08             	sub    esp,0x8
  10058b:	68 dd 9e 12 00       	push   0x129edd
  100590:	68 ef 9e 12 00       	push   0x129eef
  100595:	e8 c6 a6 01 00       	call   11ac60 <printf>
  10059a:	83 c4 24             	add    esp,0x24
  10059d:	5b                   	pop    ebx
  10059e:	5e                   	pop    esi
  10059f:	c3                   	ret    
  1005a0:	83 ec 08             	sub    esp,0x8
  1005a3:	68 cb 9e 12 00       	push   0x129ecb
  1005a8:	68 c8 a9 12 00       	push   0x12a9c8
  1005ad:	e8 ae a6 01 00       	call   11ac60 <printf>
  1005b2:	83 c4 10             	add    esp,0x10
  1005b5:	85 db                	test   ebx,ebx
  1005b7:	0f 84 bb 00 00 00    	je     100678 <_ZN2os3hal14ata_controller5startEv+0x178>
  1005bd:	f6 c3 03             	test   bl,0x3
  1005c0:	0f 85 b2 00 00 00    	jne    100678 <_ZN2os3hal14ata_controller5startEv+0x178>
  1005c6:	85 db                	test   ebx,ebx
  1005c8:	0f 84 bf 00 00 00    	je     10068d <_ZN2os3hal14ata_controller5startEv+0x18d>
  1005ce:	f6 c3 03             	test   bl,0x3
  1005d1:	0f 85 b6 00 00 00    	jne    10068d <_ZN2os3hal14ata_controller5startEv+0x18d>
  1005d7:	8b 33                	mov    esi,DWORD PTR [ebx]
  1005d9:	89 f0                	mov    eax,esi
  1005db:	83 c0 08             	add    eax,0x8
  1005de:	0f 84 be 00 00 00    	je     1006a2 <_ZN2os3hal14ata_controller5startEv+0x1a2>
  1005e4:	a8 03                	test   al,0x3
  1005e6:	0f 85 b6 00 00 00    	jne    1006a2 <_ZN2os3hal14ata_controller5startEv+0x1a2>
  1005ec:	89 5c 24 20          	mov    DWORD PTR [esp+0x20],ebx
  1005f0:	8b 46 08             	mov    eax,DWORD PTR [esi+0x8]
  1005f3:	83 c4 14             	add    esp,0x14
  1005f6:	5b                   	pop    ebx
  1005f7:	5e                   	pop    esi
  1005f8:	ff e0                	jmp    eax
  1005fa:	52                   	push   edx
  1005fb:	52                   	push   edx
  1005fc:	0f b6 d0             	movzx  edx,al
  1005ff:	88 44 24 17          	mov    BYTE PTR [esp+0x17],al
  100603:	52                   	push   edx
  100604:	68 b0 d1 13 00       	push   0x13d1b0
  100609:	e8 72 59 02 00       	call   125f80 <__ubsan_handle_load_invalid_value>
  10060e:	83 c4 10             	add    esp,0x10
  100611:	0f b6 44 24 0f       	movzx  eax,BYTE PTR [esp+0xf]
  100616:	e9 69 ff ff ff       	jmp    100584 <_ZN2os3hal14ata_controller5startEv+0x84>
  10061b:	51                   	push   ecx
  10061c:	51                   	push   ecx
  10061d:	53                   	push   ebx
  10061e:	68 8c d0 13 00       	push   0x13d08c
  100623:	e8 88 56 02 00       	call   125cb0 <__ubsan_handle_type_mismatch>
  100628:	83 c4 10             	add    esp,0x10
  10062b:	e9 49 ff ff ff       	jmp    100579 <_ZN2os3hal14ata_controller5startEv+0x79>
  100630:	88 44 24 0f          	mov    BYTE PTR [esp+0xf],al
  100634:	56                   	push   esi
  100635:	56                   	push   esi
  100636:	53                   	push   ebx
  100637:	68 a4 d0 13 00       	push   0x13d0a4
  10063c:	e8 6f 56 02 00       	call   125cb0 <__ubsan_handle_type_mismatch>
  100641:	83 c4 10             	add    esp,0x10
  100644:	0f b6 44 24 0f       	movzx  eax,BYTE PTR [esp+0xf]
  100649:	e9 14 ff ff ff       	jmp    100562 <_ZN2os3hal14ata_controller5startEv+0x62>
  10064e:	50                   	push   eax
  10064f:	50                   	push   eax
  100650:	53                   	push   ebx
  100651:	68 bc d0 13 00       	push   0x13d0bc
  100656:	e8 55 56 02 00       	call   125cb0 <__ubsan_handle_type_mismatch>
  10065b:	83 c4 10             	add    esp,0x10
  10065e:	e9 e2 fe ff ff       	jmp    100545 <_ZN2os3hal14ata_controller5startEv+0x45>
  100663:	51                   	push   ecx
  100664:	51                   	push   ecx
  100665:	53                   	push   ebx
  100666:	68 d4 d0 13 00       	push   0x13d0d4
  10066b:	e8 40 56 02 00       	call   125cb0 <__ubsan_handle_type_mismatch>
  100670:	83 c4 10             	add    esp,0x10
  100673:	e9 a2 fe ff ff       	jmp    10051a <_ZN2os3hal14ata_controller5startEv+0x1a>
  100678:	56                   	push   esi
  100679:	56                   	push   esi
  10067a:	53                   	push   ebx
  10067b:	68 74 d0 13 00       	push   0x13d074
  100680:	e8 2b 56 02 00       	call   125cb0 <__ubsan_handle_type_mismatch>
  100685:	83 c4 10             	add    esp,0x10
  100688:	e9 39 ff ff ff       	jmp    1005c6 <_ZN2os3hal14ata_controller5startEv+0xc6>
  10068d:	51                   	push   ecx
  10068e:	51                   	push   ecx
  10068f:	53                   	push   ebx
  100690:	68 5c d0 13 00       	push   0x13d05c
  100695:	e8 16 56 02 00       	call   125cb0 <__ubsan_handle_type_mismatch>
  10069a:	83 c4 10             	add    esp,0x10
  10069d:	e9 35 ff ff ff       	jmp    1005d7 <_ZN2os3hal14ata_controller5startEv+0xd7>
  1006a2:	52                   	push   edx
  1006a3:	52                   	push   edx
  1006a4:	50                   	push   eax
  1006a5:	68 30 d0 13 00       	push   0x13d030
  1006aa:	e8 01 56 02 00       	call   125cb0 <__ubsan_handle_type_mismatch>
  1006af:	83 c4 10             	add    esp,0x10
  1006b2:	e9 35 ff ff ff       	jmp    1005ec <_ZN2os3hal14ata_controller5startEv+0xec>
  1006b7:	90                   	nop
  1006b8:	90                   	nop
  1006b9:	8d b4 26 00 00 00 00 	lea    esi,[esi+eiz*1+0x0]

001006c0 <_ZN2os3hal14ata_controller4stopEv>:
  1006c0:	53                   	push   ebx
  1006c1:	83 ec 08             	sub    esp,0x8
  1006c4:	8b 5c 24 10          	mov    ebx,DWORD PTR [esp+0x10]
  1006c8:	85 db                	test   ebx,ebx
  1006ca:	74 2f                	je     1006fb <_ZN2os3hal14ata_controller4stopEv+0x3b>
  1006cc:	f6 c3 03             	test   bl,0x3
  1006cf:	75 2a                	jne    1006fb <_ZN2os3hal14ata_controller4stopEv+0x3b>
  1006d1:	83 ec 0c             	sub    esp,0xc
  1006d4:	53                   	push   ebx
  1006d5:	e8 e6 1c 00 00       	call   1023c0 <_ZN2os3hal8device_t4stopEv>
  1006da:	83 c4 10             	add    esp,0x10
  1006dd:	85 db                	test   ebx,ebx
  1006df:	74 2c                	je     10070d <_ZN2os3hal14ata_controller4stopEv+0x4d>
  1006e1:	f6 c3 03             	test   bl,0x3
  1006e4:	75 27                	jne    10070d <_ZN2os3hal14ata_controller4stopEv+0x4d>
  1006e6:	c6 83 89 00 00 00 00 	mov    BYTE PTR [ebx+0x89],0x0
  1006ed:	c6 44 24 10 2e       	mov    BYTE PTR [esp+0x10],0x2e
  1006f2:	83 c4 08             	add    esp,0x8
  1006f5:	5b                   	pop    ebx
  1006f6:	e9 d5 de 00 00       	jmp    10e5d0 <_ZN2os3hal3idt14unregister_irqENS0_3IRQE>
  1006fb:	52                   	push   edx
  1006fc:	52                   	push   edx
  1006fd:	53                   	push   ebx
  1006fe:	68 18 d0 13 00       	push   0x13d018
  100703:	e8 a8 55 02 00       	call   125cb0 <__ubsan_handle_type_mismatch>
  100708:	83 c4 10             	add    esp,0x10
  10070b:	eb c4                	jmp    1006d1 <_ZN2os3hal14ata_controller4stopEv+0x11>
  10070d:	50                   	push   eax
  10070e:	50                   	push   eax
  10070f:	53                   	push   ebx
  100710:	68 00 d0 13 00       	push   0x13d000
  100715:	e8 96 55 02 00       	call   125cb0 <__ubsan_handle_type_mismatch>
  10071a:	83 c4 10             	add    esp,0x10
  10071d:	eb c7                	jmp    1006e6 <_ZN2os3hal14ata_controller4stopEv+0x26>
  10071f:	90                   	nop

00100720 <_ZN2os10filesystem7parsing8bmp_loadEPc>:
  100720:	55                   	push   ebp
  100721:	57                   	push   edi
  100722:	56                   	push   esi
  100723:	53                   	push   ebx
  100724:	83 ec 64             	sub    esp,0x64
  100727:	68 f9 a6 12 00       	push   0x12a6f9
  10072c:	ff b4 24 80 00 00 00 	push   DWORD PTR [esp+0x80]
  100733:	e8 28 31 00 00       	call   103860 <_ZN2os10filesystem9open_fileEPKcS2_>
  100738:	89 44 24 20          	mov    DWORD PTR [esp+0x20],eax
  10073c:	83 c4 10             	add    esp,0x10
  10073f:	85 c0                	test   eax,eax
  100741:	0f 84 89 05 00 00    	je     100cd0 <_ZN2os10filesystem7parsing8bmp_loadEPc+0x5b0>
  100747:	8b 5c 24 10          	mov    ebx,DWORD PTR [esp+0x10]
  10074b:	83 c3 04             	add    ebx,0x4
  10074e:	0f 84 cc 07 00 00    	je     100f20 <_ZN2os10filesystem7parsing8bmp_loadEPc+0x800>
  100754:	f6 c3 03             	test   bl,0x3
  100757:	0f 85 c3 07 00 00    	jne    100f20 <_ZN2os10filesystem7parsing8bmp_loadEPc+0x800>
  10075d:	85 db                	test   ebx,ebx
  10075f:	0f 84 e5 07 00 00    	je     100f4a <_ZN2os10filesystem7parsing8bmp_loadEPc+0x82a>
  100765:	f6 c3 03             	test   bl,0x3
  100768:	0f 85 dc 07 00 00    	jne    100f4a <_ZN2os10filesystem7parsing8bmp_loadEPc+0x82a>
  10076e:	8b 44 24 10          	mov    eax,DWORD PTR [esp+0x10]
  100772:	85 db                	test   ebx,ebx
  100774:	8b 78 04             	mov    edi,DWORD PTR [eax+0x4]
  100777:	0f 84 b8 07 00 00    	je     100f35 <_ZN2os10filesystem7parsing8bmp_loadEPc+0x815>
  10077d:	f6 c3 03             	test   bl,0x3
  100780:	0f 85 af 07 00 00    	jne    100f35 <_ZN2os10filesystem7parsing8bmp_loadEPc+0x815>
  100786:	85 db                	test   ebx,ebx
  100788:	0f 84 e5 08 00 00    	je     101073 <_ZN2os10filesystem7parsing8bmp_loadEPc+0x953>
  10078e:	f6 c3 03             	test   bl,0x3
  100791:	0f 85 dc 08 00 00    	jne    101073 <_ZN2os10filesystem7parsing8bmp_loadEPc+0x953>
  100797:	89 fe                	mov    esi,edi
  100799:	83 c6 0e             	add    esi,0xe
  10079c:	0f 84 bc 08 00 00    	je     10105e <_ZN2os10filesystem7parsing8bmp_loadEPc+0x93e>
  1007a2:	f7 c6 03 00 00 00    	test   esi,0x3
  1007a8:	0f 85 b0 08 00 00    	jne    10105e <_ZN2os10filesystem7parsing8bmp_loadEPc+0x93e>
  1007ae:	8b 6e 04             	mov    ebp,DWORD PTR [esi+0x4]
  1007b1:	85 ed                	test   ebp,ebp
  1007b3:	74 1b                	je     1007d0 <_ZN2os10filesystem7parsing8bmp_loadEPc+0xb0>
  1007b5:	85 f6                	test   esi,esi
  1007b7:	0f 84 cb 08 00 00    	je     101088 <_ZN2os10filesystem7parsing8bmp_loadEPc+0x968>
  1007bd:	f7 c6 03 00 00 00    	test   esi,0x3
  1007c3:	0f 85 bf 08 00 00    	jne    101088 <_ZN2os10filesystem7parsing8bmp_loadEPc+0x968>
  1007c9:	8b 46 08             	mov    eax,DWORD PTR [esi+0x8]
  1007cc:	85 c0                	test   eax,eax
  1007ce:	75 40                	jne    100810 <_ZN2os10filesystem7parsing8bmp_loadEPc+0xf0>
  1007d0:	83 ec 04             	sub    esp,0x4
  1007d3:	ff 74 24 78          	push   DWORD PTR [esp+0x78]
  1007d7:	68 0c 9f 12 00       	push   0x129f0c
  1007dc:	68 34 aa 12 00       	push   0x12aa34
  1007e1:	e8 7a a4 01 00       	call   11ac60 <printf>
  1007e6:	5a                   	pop    edx
  1007e7:	ff 74 24 1c          	push   DWORD PTR [esp+0x1c]
  1007eb:	e8 80 33 00 00       	call   103b70 <_ZN2os10filesystem10close_fileEPNS_6file_tE>
  1007f0:	59                   	pop    ecx
  1007f1:	ff 74 24 7c          	push   DWORD PTR [esp+0x7c]
  1007f5:	e8 d6 de 00 00       	call   10e6d0 <_ZNSt3gfx5imageC1Ev>
  1007fa:	83 c4 10             	add    esp,0x10
  1007fd:	8b 44 24 70          	mov    eax,DWORD PTR [esp+0x70]
  100801:	83 c4 5c             	add    esp,0x5c
  100804:	5b                   	pop    ebx
  100805:	5e                   	pop    esi
  100806:	5f                   	pop    edi
  100807:	5d                   	pop    ebp
  100808:	c2 04 00             	ret    0x4
  10080b:	90                   	nop
  10080c:	8d 74 26 00          	lea    esi,[esi+eiz*1+0x0]
  100810:	85 f6                	test   esi,esi
  100812:	0f 84 47 07 00 00    	je     100f5f <_ZN2os10filesystem7parsing8bmp_loadEPc+0x83f>
  100818:	f7 c6 03 00 00 00    	test   esi,0x3
  10081e:	0f 85 3b 07 00 00    	jne    100f5f <_ZN2os10filesystem7parsing8bmp_loadEPc+0x83f>
  100824:	85 f6                	test   esi,esi
  100826:	0f 84 50 07 00 00    	je     100f7c <_ZN2os10filesystem7parsing8bmp_loadEPc+0x85c>
  10082c:	f7 c6 03 00 00 00    	test   esi,0x3
  100832:	0f 85 44 07 00 00    	jne    100f7c <_ZN2os10filesystem7parsing8bmp_loadEPc+0x85c>
  100838:	83 ec 04             	sub    esp,0x4
  10083b:	50                   	push   eax
  10083c:	55                   	push   ebp
  10083d:	8d 44 24 48          	lea    eax,[esp+0x48]
  100841:	50                   	push   eax
  100842:	e8 69 29 01 00       	call   1131b0 <_ZNSt3gfx5imageC1Eii>
  100847:	83 c4 10             	add    esp,0x10
  10084a:	85 db                	test   ebx,ebx
  10084c:	0f 84 bf 08 00 00    	je     101111 <_ZN2os10filesystem7parsing8bmp_loadEPc+0x9f1>
  100852:	f6 c3 03             	test   bl,0x3
  100855:	0f 85 b6 08 00 00    	jne    101111 <_ZN2os10filesystem7parsing8bmp_loadEPc+0x9f1>
  10085b:	85 db                	test   ebx,ebx
  10085d:	0f 84 c3 08 00 00    	je     101126 <_ZN2os10filesystem7parsing8bmp_loadEPc+0xa06>
  100863:	f6 c3 03             	test   bl,0x3
  100866:	0f 85 ba 08 00 00    	jne    101126 <_ZN2os10filesystem7parsing8bmp_loadEPc+0xa06>
  10086c:	8b 44 24 10          	mov    eax,DWORD PTR [esp+0x10]
  100870:	85 ff                	test   edi,edi
  100872:	8b 58 04             	mov    ebx,DWORD PTR [eax+0x4]
  100875:	0f 84 c0 08 00 00    	je     10113b <_ZN2os10filesystem7parsing8bmp_loadEPc+0xa1b>
  10087b:	03 5f 0a             	add    ebx,DWORD PTR [edi+0xa]
  10087e:	83 ec 08             	sub    esp,0x8
  100881:	89 5c 24 14          	mov    DWORD PTR [esp+0x14],ebx
  100885:	8d 44 24 44          	lea    eax,[esp+0x44]
  100889:	50                   	push   eax
  10088a:	8d 44 24 34          	lea    eax,[esp+0x34]
  10088e:	50                   	push   eax
  10088f:	e8 bc 27 01 00       	call   113050 <_ZNSt3gfx5image4sizeEv>
  100894:	8b 7c 24 34          	mov    edi,DWORD PTR [esp+0x34]
  100898:	83 ec 0c             	sub    esp,0xc
  10089b:	8d 44 24 54          	lea    eax,[esp+0x54]
  10089f:	50                   	push   eax
  1008a0:	89 fb                	mov    ebx,edi
  1008a2:	8d 44 24 4c          	lea    eax,[esp+0x4c]
  1008a6:	50                   	push   eax
  1008a7:	e8 a4 27 01 00       	call   113050 <_ZNSt3gfx5image4sizeEv>
  1008ac:	83 c4 1c             	add    esp,0x1c
  1008af:	0f af 5c 24 34       	imul   ebx,DWORD PTR [esp+0x34]
  1008b4:	0f 80 5f 07 00 00    	jo     101019 <_ZN2os10filesystem7parsing8bmp_loadEPc+0x8f9>
  1008ba:	6b c3 04             	imul   eax,ebx,0x4
  1008bd:	89 44 24 14          	mov    DWORD PTR [esp+0x14],eax
  1008c1:	0f 80 1e 08 00 00    	jo     1010e5 <_ZN2os10filesystem7parsing8bmp_loadEPc+0x9c5>
  1008c7:	83 ec 08             	sub    esp,0x8
  1008ca:	8d 44 24 44          	lea    eax,[esp+0x44]
  1008ce:	50                   	push   eax
  1008cf:	8d 44 24 3c          	lea    eax,[esp+0x3c]
  1008d3:	50                   	push   eax
  1008d4:	e8 77 27 01 00       	call   113050 <_ZNSt3gfx5image4sizeEv>
  1008d9:	83 c4 0c             	add    esp,0xc
  1008dc:	8b 44 24 34          	mov    eax,DWORD PTR [esp+0x34]
  1008e0:	89 c3                	mov    ebx,eax
  1008e2:	83 eb 01             	sub    ebx,0x1
  1008e5:	0f 80 10 08 00 00    	jo     1010fb <_ZN2os10filesystem7parsing8bmp_loadEPc+0x9db>
  1008eb:	85 db                	test   ebx,ebx
  1008ed:	89 5c 24 08          	mov    DWORD PTR [esp+0x8],ebx
  1008f1:	0f 88 9b 00 00 00    	js     100992 <_ZN2os10filesystem7parsing8bmp_loadEPc+0x272>
  1008f7:	89 f0                	mov    eax,esi
  1008f9:	83 e0 03             	and    eax,0x3
  1008fc:	89 44 24 04          	mov    DWORD PTR [esp+0x4],eax
  100900:	31 db                	xor    ebx,ebx
  100902:	8d b4 26 00 00 00 00 	lea    esi,[esi+eiz*1+0x0]
  100909:	8d bc 27 00 00 00 00 	lea    edi,[edi+eiz*1+0x0]
  100910:	83 ec 08             	sub    esp,0x8
  100913:	8d 44 24 44          	lea    eax,[esp+0x44]
  100917:	50                   	push   eax
  100918:	8d 44 24 3c          	lea    eax,[esp+0x3c]
  10091c:	50                   	push   eax
  10091d:	e8 2e 27 01 00       	call   113050 <_ZNSt3gfx5image4sizeEv>
  100922:	83 c4 0c             	add    esp,0xc
  100925:	39 5c 24 30          	cmp    DWORD PTR [esp+0x30],ebx
  100929:	7e 55                	jle    100980 <_ZN2os10filesystem7parsing8bmp_loadEPc+0x260>
  10092b:	85 f6                	test   esi,esi
  10092d:	0f 84 16 07 00 00    	je     101049 <_ZN2os10filesystem7parsing8bmp_loadEPc+0x929>
  100933:	8b 54 24 04          	mov    edx,DWORD PTR [esp+0x4]
  100937:	85 d2                	test   edx,edx
  100939:	0f 85 0a 07 00 00    	jne    101049 <_ZN2os10filesystem7parsing8bmp_loadEPc+0x929>
  10093f:	0f b7 7e 0e          	movzx  edi,WORD PTR [esi+0xe]
  100943:	66 83 ff 18          	cmp    di,0x18
  100947:	0f 84 43 01 00 00    	je     100a90 <_ZN2os10filesystem7parsing8bmp_loadEPc+0x370>
  10094d:	85 f6                	test   esi,esi
  10094f:	0f 84 89 06 00 00    	je     100fde <_ZN2os10filesystem7parsing8bmp_loadEPc+0x8be>
  100955:	8b 54 24 04          	mov    edx,DWORD PTR [esp+0x4]
  100959:	85 d2                	test   edx,edx
  10095b:	0f 85 7d 06 00 00    	jne    100fde <_ZN2os10filesystem7parsing8bmp_loadEPc+0x8be>
  100961:	66 83 ff 20          	cmp    di,0x20
  100965:	0f 84 45 02 00 00    	je     100bb0 <_ZN2os10filesystem7parsing8bmp_loadEPc+0x490>
  10096b:	89 df                	mov    edi,ebx
  10096d:	83 c7 01             	add    edi,0x1
  100970:	0f 80 8b 03 00 00    	jo     100d01 <_ZN2os10filesystem7parsing8bmp_loadEPc+0x5e1>
  100976:	89 fb                	mov    ebx,edi
  100978:	eb 96                	jmp    100910 <_ZN2os10filesystem7parsing8bmp_loadEPc+0x1f0>
  10097a:	8d b6 00 00 00 00    	lea    esi,[esi+0x0]
  100980:	83 6c 24 08 01       	sub    DWORD PTR [esp+0x8],0x1
  100985:	8b 44 24 08          	mov    eax,DWORD PTR [esp+0x8]
  100989:	83 f8 ff             	cmp    eax,0xffffffff
  10098c:	0f 85 6e ff ff ff    	jne    100900 <_ZN2os10filesystem7parsing8bmp_loadEPc+0x1e0>
  100992:	85 f6                	test   esi,esi
  100994:	0f 84 ff 05 00 00    	je     100f99 <_ZN2os10filesystem7parsing8bmp_loadEPc+0x879>
  10099a:	f7 c6 03 00 00 00    	test   esi,0x3
  1009a0:	0f 85 f3 05 00 00    	jne    100f99 <_ZN2os10filesystem7parsing8bmp_loadEPc+0x879>
  1009a6:	83 ec 08             	sub    esp,0x8
  1009a9:	ff 74 24 1c          	push   DWORD PTR [esp+0x1c]
  1009ad:	ff 76 08             	push   DWORD PTR [esi+0x8]
  1009b0:	ff 76 04             	push   DWORD PTR [esi+0x4]
  1009b3:	ff b4 24 88 00 00 00 	push   DWORD PTR [esp+0x88]
  1009ba:	68 dd 9e 12 00       	push   0x129edd
  1009bf:	68 64 aa 12 00       	push   0x12aa64
  1009c4:	e8 97 a2 01 00       	call   11ac60 <printf>
  1009c9:	83 c4 14             	add    esp,0x14
  1009cc:	ff 74 24 1c          	push   DWORD PTR [esp+0x1c]
  1009d0:	e8 9b 31 00 00       	call   103b70 <_ZN2os10filesystem10close_fileEPNS_6file_tE>
  1009d5:	83 c4 10             	add    esp,0x10
  1009d8:	8b 44 24 70          	mov    eax,DWORD PTR [esp+0x70]
  1009dc:	85 c0                	test   eax,eax
  1009de:	0f 84 ca 05 00 00    	je     100fae <_ZN2os10filesystem7parsing8bmp_loadEPc+0x88e>
  1009e4:	f6 44 24 70 03       	test   BYTE PTR [esp+0x70],0x3
  1009e9:	0f 85 bf 05 00 00    	jne    100fae <_ZN2os10filesystem7parsing8bmp_loadEPc+0x88e>
  1009ef:	8b 44 24 70          	mov    eax,DWORD PTR [esp+0x70]
  1009f3:	85 c0                	test   eax,eax
  1009f5:	0f 84 cb 05 00 00    	je     100fc6 <_ZN2os10filesystem7parsing8bmp_loadEPc+0x8a6>
  1009fb:	f6 44 24 70 03       	test   BYTE PTR [esp+0x70],0x3
  100a00:	0f 85 c0 05 00 00    	jne    100fc6 <_ZN2os10filesystem7parsing8bmp_loadEPc+0x8a6>
  100a06:	8b 6c 24 70          	mov    ebp,DWORD PTR [esp+0x70]
  100a0a:	85 ed                	test   ebp,ebp
  100a0c:	0f 84 8b 06 00 00    	je     10109d <_ZN2os10filesystem7parsing8bmp_loadEPc+0x97d>
  100a12:	f6 44 24 70 03       	test   BYTE PTR [esp+0x70],0x3
  100a17:	0f 85 80 06 00 00    	jne    10109d <_ZN2os10filesystem7parsing8bmp_loadEPc+0x97d>
  100a1d:	8b 74 24 70          	mov    esi,DWORD PTR [esp+0x70]
  100a21:	8b 5c 24 3c          	mov    ebx,DWORD PTR [esp+0x3c]
  100a25:	85 f6                	test   esi,esi
  100a27:	0f 84 88 06 00 00    	je     1010b5 <_ZN2os10filesystem7parsing8bmp_loadEPc+0x995>
  100a2d:	f6 44 24 70 03       	test   BYTE PTR [esp+0x70],0x3
  100a32:	0f 85 7d 06 00 00    	jne    1010b5 <_ZN2os10filesystem7parsing8bmp_loadEPc+0x995>
  100a38:	8b 44 24 70          	mov    eax,DWORD PTR [esp+0x70]
  100a3c:	85 c0                	test   eax,eax
  100a3e:	89 18                	mov    DWORD PTR [eax],ebx
  100a40:	8b 5c 24 40          	mov    ebx,DWORD PTR [esp+0x40]
  100a44:	0f 84 83 06 00 00    	je     1010cd <_ZN2os10filesystem7parsing8bmp_loadEPc+0x9ad>
  100a4a:	a8 03                	test   al,0x3
  100a4c:	0f 85 7b 06 00 00    	jne    1010cd <_ZN2os10filesystem7parsing8bmp_loadEPc+0x9ad>
  100a52:	8b 44 24 70          	mov    eax,DWORD PTR [esp+0x70]
  100a56:	85 c0                	test   eax,eax
  100a58:	89 58 04             	mov    DWORD PTR [eax+0x4],ebx
  100a5b:	0f 84 d0 05 00 00    	je     101031 <_ZN2os10filesystem7parsing8bmp_loadEPc+0x911>
  100a61:	a8 03                	test   al,0x3
  100a63:	0f 85 c8 05 00 00    	jne    101031 <_ZN2os10filesystem7parsing8bmp_loadEPc+0x911>
  100a69:	8b 4c 24 70          	mov    ecx,DWORD PTR [esp+0x70]
  100a6d:	8b 44 24 44          	mov    eax,DWORD PTR [esp+0x44]
  100a71:	89 41 08             	mov    DWORD PTR [ecx+0x8],eax
  100a74:	8b 44 24 48          	mov    eax,DWORD PTR [esp+0x48]
  100a78:	89 41 0c             	mov    DWORD PTR [ecx+0xc],eax
  100a7b:	8b 44 24 4c          	mov    eax,DWORD PTR [esp+0x4c]
  100a7f:	89 41 10             	mov    DWORD PTR [ecx+0x10],eax
  100a82:	8b 44 24 70          	mov    eax,DWORD PTR [esp+0x70]
  100a86:	83 c4 5c             	add    esp,0x5c
  100a89:	5b                   	pop    ebx
  100a8a:	5e                   	pop    esi
  100a8b:	5f                   	pop    edi
  100a8c:	5d                   	pop    ebp
  100a8d:	c2 04 00             	ret    0x4
  100a90:	83 ec 08             	sub    esp,0x8
  100a93:	8d 44 24 44          	lea    eax,[esp+0x44]
  100a97:	50                   	push   eax
  100a98:	8d 44 24 3c          	lea    eax,[esp+0x3c]
  100a9c:	50                   	push   eax
  100a9d:	e8 ae 25 01 00       	call   113050 <_ZNSt3gfx5image4sizeEv>
  100aa2:	83 c4 0c             	add    esp,0xc
  100aa5:	8b 6c 24 08          	mov    ebp,DWORD PTR [esp+0x8]
  100aa9:	0f af 6c 24 30       	imul   ebp,DWORD PTR [esp+0x30]
  100aae:	0f 80 ae 03 00 00    	jo     100e62 <_ZN2os10filesystem7parsing8bmp_loadEPc+0x742>
  100ab4:	89 df                	mov    edi,ebx
  100ab6:	01 ef                	add    edi,ebp
  100ab8:	0f 80 8f 03 00 00    	jo     100e4d <_ZN2os10filesystem7parsing8bmp_loadEPc+0x72d>
  100abe:	6b ef 03             	imul   ebp,edi,0x3
  100ac1:	0f 80 70 03 00 00    	jo     100e37 <_ZN2os10filesystem7parsing8bmp_loadEPc+0x717>
  100ac7:	8b 44 24 0c          	mov    eax,DWORD PTR [esp+0xc]
  100acb:	8d 7c 28 02          	lea    edi,[eax+ebp*1+0x2]
  100acf:	85 ff                	test   edi,edi
  100ad1:	0f 84 bb 03 00 00    	je     100e92 <_ZN2os10filesystem7parsing8bmp_loadEPc+0x772>
  100ad7:	8b 44 24 0c          	mov    eax,DWORD PTR [esp+0xc]
  100adb:	0f b6 17             	movzx  edx,BYTE PTR [edi]
  100ade:	8d 7c 28 01          	lea    edi,[eax+ebp*1+0x1]
  100ae2:	85 ff                	test   edi,edi
  100ae4:	0f 84 18 04 00 00    	je     100f02 <_ZN2os10filesystem7parsing8bmp_loadEPc+0x7e2>
  100aea:	0f b6 3f             	movzx  edi,BYTE PTR [edi]
  100aed:	c1 e2 10             	shl    edx,0x10
  100af0:	89 f8                	mov    eax,edi
  100af2:	c1 e0 08             	shl    eax,0x8
  100af5:	03 6c 24 0c          	add    ebp,DWORD PTR [esp+0xc]
  100af9:	0f 84 dd 03 00 00    	je     100edc <_ZN2os10filesystem7parsing8bmp_loadEPc+0x7bc>
  100aff:	0f b6 7d 00          	movzx  edi,BYTE PTR [ebp+0x0]
  100b03:	83 ec 08             	sub    esp,0x8
  100b06:	81 cf 00 00 00 ff    	or     edi,0xff000000
  100b0c:	09 d7                	or     edi,edx
  100b0e:	09 c7                	or     edi,eax
  100b10:	8d 44 24 44          	lea    eax,[esp+0x44]
  100b14:	50                   	push   eax
  100b15:	8d 44 24 34          	lea    eax,[esp+0x34]
  100b19:	50                   	push   eax
  100b1a:	e8 31 25 01 00       	call   113050 <_ZNSt3gfx5image4sizeEv>
  100b1f:	83 c4 0c             	add    esp,0xc
  100b22:	8b 54 24 2c          	mov    edx,DWORD PTR [esp+0x2c]
  100b26:	89 d0                	mov    eax,edx
  100b28:	2b 44 24 08          	sub    eax,DWORD PTR [esp+0x8]
  100b2c:	0f 80 e5 02 00 00    	jo     100e17 <_ZN2os10filesystem7parsing8bmp_loadEPc+0x6f7>
  100b32:	89 c5                	mov    ebp,eax
  100b34:	83 ed 01             	sub    ebp,0x1
  100b37:	0f 80 c4 02 00 00    	jo     100e01 <_ZN2os10filesystem7parsing8bmp_loadEPc+0x6e1>
  100b3d:	83 ec 08             	sub    esp,0x8
  100b40:	8d 44 24 44          	lea    eax,[esp+0x44]
  100b44:	50                   	push   eax
  100b45:	8d 44 24 3c          	lea    eax,[esp+0x3c]
  100b49:	50                   	push   eax
  100b4a:	e8 01 25 01 00       	call   113050 <_ZNSt3gfx5image4sizeEv>
  100b4f:	83 c4 0c             	add    esp,0xc
  100b52:	89 e8                	mov    eax,ebp
  100b54:	0f af 44 24 30       	imul   eax,DWORD PTR [esp+0x30]
  100b59:	0f 80 82 02 00 00    	jo     100de1 <_ZN2os10filesystem7parsing8bmp_loadEPc+0x6c1>
  100b5f:	89 dd                	mov    ebp,ebx
  100b61:	01 c5                	add    ebp,eax
  100b63:	0f 80 63 02 00 00    	jo     100dcc <_ZN2os10filesystem7parsing8bmp_loadEPc+0x6ac>
  100b69:	83 ec 08             	sub    esp,0x8
  100b6c:	8d 44 24 44          	lea    eax,[esp+0x44]
  100b70:	50                   	push   eax
  100b71:	8d 44 24 3c          	lea    eax,[esp+0x3c]
  100b75:	50                   	push   eax
  100b76:	e8 e5 25 01 00       	call   113160 <_ZNSt3gfx5image4dataEv>
  100b7b:	8b 44 24 3c          	mov    eax,DWORD PTR [esp+0x3c]
  100b7f:	83 c4 0c             	add    esp,0xc
  100b82:	8d 2c a8             	lea    ebp,[eax+ebp*4]
  100b85:	85 ed                	test   ebp,ebp
  100b87:	0f 84 f0 02 00 00    	je     100e7d <_ZN2os10filesystem7parsing8bmp_loadEPc+0x75d>
  100b8d:	f7 c5 03 00 00 00    	test   ebp,0x3
  100b93:	0f 85 e4 02 00 00    	jne    100e7d <_ZN2os10filesystem7parsing8bmp_loadEPc+0x75d>
  100b99:	89 7d 00             	mov    DWORD PTR [ebp+0x0],edi
  100b9c:	e9 ca fd ff ff       	jmp    10096b <_ZN2os10filesystem7parsing8bmp_loadEPc+0x24b>
  100ba1:	eb 0d                	jmp    100bb0 <_ZN2os10filesystem7parsing8bmp_loadEPc+0x490>
  100ba3:	90                   	nop
  100ba4:	90                   	nop
  100ba5:	90                   	nop
  100ba6:	90                   	nop
  100ba7:	90                   	nop
  100ba8:	90                   	nop
  100ba9:	90                   	nop
  100baa:	90                   	nop
  100bab:	90                   	nop
  100bac:	90                   	nop
  100bad:	90                   	nop
  100bae:	90                   	nop
  100baf:	90                   	nop
  100bb0:	83 ec 08             	sub    esp,0x8
  100bb3:	8d 44 24 44          	lea    eax,[esp+0x44]
  100bb7:	50                   	push   eax
  100bb8:	8d 44 24 3c          	lea    eax,[esp+0x3c]
  100bbc:	50                   	push   eax
  100bbd:	e8 8e 24 01 00       	call   113050 <_ZNSt3gfx5image4sizeEv>
  100bc2:	83 c4 0c             	add    esp,0xc
  100bc5:	8b 6c 24 08          	mov    ebp,DWORD PTR [esp+0x8]
  100bc9:	0f af 6c 24 30       	imul   ebp,DWORD PTR [esp+0x30]
  100bce:	0f 80 dd 01 00 00    	jo     100db1 <_ZN2os10filesystem7parsing8bmp_loadEPc+0x691>
  100bd4:	89 df                	mov    edi,ebx
  100bd6:	01 ef                	add    edi,ebp
  100bd8:	0f 80 be 01 00 00    	jo     100d9c <_ZN2os10filesystem7parsing8bmp_loadEPc+0x67c>
  100bde:	6b ef 04             	imul   ebp,edi,0x4
  100be1:	0f 80 9f 01 00 00    	jo     100d86 <_ZN2os10filesystem7parsing8bmp_loadEPc+0x666>
  100be7:	8b 44 24 0c          	mov    eax,DWORD PTR [esp+0xc]
  100beb:	8d 7c 28 02          	lea    edi,[eax+ebp*1+0x2]
  100bef:	85 ff                	test   edi,edi
  100bf1:	0f 84 cf 02 00 00    	je     100ec6 <_ZN2os10filesystem7parsing8bmp_loadEPc+0x7a6>
  100bf7:	8b 44 24 0c          	mov    eax,DWORD PTR [esp+0xc]
  100bfb:	0f b6 17             	movzx  edx,BYTE PTR [edi]
  100bfe:	8d 7c 28 01          	lea    edi,[eax+ebp*1+0x1]
  100c02:	85 ff                	test   edi,edi
  100c04:	0f 84 9e 02 00 00    	je     100ea8 <_ZN2os10filesystem7parsing8bmp_loadEPc+0x788>
  100c0a:	0f b6 3f             	movzx  edi,BYTE PTR [edi]
  100c0d:	c1 e2 10             	shl    edx,0x10
  100c10:	89 f8                	mov    eax,edi
  100c12:	c1 e0 08             	shl    eax,0x8
  100c15:	03 6c 24 0c          	add    ebp,DWORD PTR [esp+0xc]
  100c19:	0f 84 d4 03 00 00    	je     100ff3 <_ZN2os10filesystem7parsing8bmp_loadEPc+0x8d3>
  100c1f:	0f b6 7d 00          	movzx  edi,BYTE PTR [ebp+0x0]
  100c23:	83 ec 08             	sub    esp,0x8
  100c26:	81 cf 00 00 00 ff    	or     edi,0xff000000
  100c2c:	09 d7                	or     edi,edx
  100c2e:	09 c7                	or     edi,eax
  100c30:	8d 44 24 44          	lea    eax,[esp+0x44]
  100c34:	50                   	push   eax
  100c35:	8d 44 24 34          	lea    eax,[esp+0x34]
  100c39:	50                   	push   eax
  100c3a:	e8 11 24 01 00       	call   113050 <_ZNSt3gfx5image4sizeEv>
  100c3f:	83 c4 0c             	add    esp,0xc
  100c42:	8b 54 24 2c          	mov    edx,DWORD PTR [esp+0x2c]
  100c46:	89 d0                	mov    eax,edx
  100c48:	2b 44 24 08          	sub    eax,DWORD PTR [esp+0x8]
  100c4c:	0f 80 14 01 00 00    	jo     100d66 <_ZN2os10filesystem7parsing8bmp_loadEPc+0x646>
  100c52:	89 c5                	mov    ebp,eax
  100c54:	83 ed 01             	sub    ebp,0x1
  100c57:	0f 80 f3 00 00 00    	jo     100d50 <_ZN2os10filesystem7parsing8bmp_loadEPc+0x630>
  100c5d:	83 ec 08             	sub    esp,0x8
  100c60:	8d 44 24 44          	lea    eax,[esp+0x44]
  100c64:	50                   	push   eax
  100c65:	8d 44 24 3c          	lea    eax,[esp+0x3c]
  100c69:	50                   	push   eax
  100c6a:	e8 e1 23 01 00       	call   113050 <_ZNSt3gfx5image4sizeEv>
  100c6f:	83 c4 0c             	add    esp,0xc
  100c72:	89 e8                	mov    eax,ebp
  100c74:	0f af 44 24 30       	imul   eax,DWORD PTR [esp+0x30]
  100c79:	0f 80 b1 00 00 00    	jo     100d30 <_ZN2os10filesystem7parsing8bmp_loadEPc+0x610>
  100c7f:	89 dd                	mov    ebp,ebx
  100c81:	01 c5                	add    ebp,eax
  100c83:	0f 80 92 00 00 00    	jo     100d1b <_ZN2os10filesystem7parsing8bmp_loadEPc+0x5fb>
  100c89:	83 ec 08             	sub    esp,0x8
  100c8c:	8d 44 24 44          	lea    eax,[esp+0x44]
  100c90:	50                   	push   eax
  100c91:	8d 44 24 3c          	lea    eax,[esp+0x3c]
  100c95:	50                   	push   eax
  100c96:	e8 c5 24 01 00       	call   113160 <_ZNSt3gfx5image4dataEv>
  100c9b:	8b 44 24 3c          	mov    eax,DWORD PTR [esp+0x3c]
  100c9f:	83 c4 0c             	add    esp,0xc
  100ca2:	8d 2c a8             	lea    ebp,[eax+ebp*4]
  100ca5:	85 ed                	test   ebp,ebp
  100ca7:	74 0c                	je     100cb5 <_ZN2os10filesystem7parsing8bmp_loadEPc+0x595>
  100ca9:	f7 c5 03 00 00 00    	test   ebp,0x3
  100caf:	0f 84 e4 fe ff ff    	je     100b99 <_ZN2os10filesystem7parsing8bmp_loadEPc+0x479>
  100cb5:	50                   	push   eax
  100cb6:	50                   	push   eax
  100cb7:	55                   	push   ebp
  100cb8:	68 2c d4 13 00       	push   0x13d42c
  100cbd:	e8 ee 4f 02 00       	call   125cb0 <__ubsan_handle_type_mismatch>
  100cc2:	83 c4 10             	add    esp,0x10
  100cc5:	e9 cf fe ff ff       	jmp    100b99 <_ZN2os10filesystem7parsing8bmp_loadEPc+0x479>
  100cca:	8d b6 00 00 00 00    	lea    esi,[esi+0x0]
  100cd0:	83 ec 04             	sub    esp,0x4
  100cd3:	ff 74 24 78          	push   DWORD PTR [esp+0x78]
  100cd7:	68 0c 9f 12 00       	push   0x129f0c
  100cdc:	68 10 aa 12 00       	push   0x12aa10
  100ce1:	e8 7a 9f 01 00       	call   11ac60 <printf>
  100ce6:	58                   	pop    eax
  100ce7:	ff 74 24 7c          	push   DWORD PTR [esp+0x7c]
  100ceb:	e8 e0 d9 00 00       	call   10e6d0 <_ZNSt3gfx5imageC1Ev>
  100cf0:	83 c4 10             	add    esp,0x10
  100cf3:	8b 44 24 70          	mov    eax,DWORD PTR [esp+0x70]
  100cf7:	83 c4 5c             	add    esp,0x5c
  100cfa:	5b                   	pop    ebx
  100cfb:	5e                   	pop    esi
  100cfc:	5f                   	pop    edi
  100cfd:	5d                   	pop    ebp
  100cfe:	c2 04 00             	ret    0x4
  100d01:	83 ec 04             	sub    esp,0x4
  100d04:	6a 01                	push   0x1
  100d06:	53                   	push   ebx
  100d07:	89 fb                	mov    ebx,edi
  100d09:	68 fc d1 13 00       	push   0x13d1fc
  100d0e:	e8 8d 50 02 00       	call   125da0 <__ubsan_handle_add_overflow>
  100d13:	83 c4 10             	add    esp,0x10
  100d16:	e9 f5 fb ff ff       	jmp    100910 <_ZN2os10filesystem7parsing8bmp_loadEPc+0x1f0>
  100d1b:	52                   	push   edx
  100d1c:	50                   	push   eax
  100d1d:	53                   	push   ebx
  100d1e:	68 0c d2 13 00       	push   0x13d20c
  100d23:	e8 78 50 02 00       	call   125da0 <__ubsan_handle_add_overflow>
  100d28:	83 c4 10             	add    esp,0x10
  100d2b:	e9 59 ff ff ff       	jmp    100c89 <_ZN2os10filesystem7parsing8bmp_loadEPc+0x569>
  100d30:	89 44 24 18          	mov    DWORD PTR [esp+0x18],eax
  100d34:	51                   	push   ecx
  100d35:	ff 74 24 34          	push   DWORD PTR [esp+0x34]
  100d39:	55                   	push   ebp
  100d3a:	68 1c d2 13 00       	push   0x13d21c
  100d3f:	e8 fc 50 02 00       	call   125e40 <__ubsan_handle_mul_overflow>
  100d44:	83 c4 10             	add    esp,0x10
  100d47:	8b 44 24 18          	mov    eax,DWORD PTR [esp+0x18]
  100d4b:	e9 2f ff ff ff       	jmp    100c7f <_ZN2os10filesystem7parsing8bmp_loadEPc+0x55f>
  100d50:	52                   	push   edx
  100d51:	6a 01                	push   0x1
  100d53:	50                   	push   eax
  100d54:	68 2c d2 13 00       	push   0x13d22c
  100d59:	e8 92 50 02 00       	call   125df0 <__ubsan_handle_sub_overflow>
  100d5e:	83 c4 10             	add    esp,0x10
  100d61:	e9 f7 fe ff ff       	jmp    100c5d <_ZN2os10filesystem7parsing8bmp_loadEPc+0x53d>
  100d66:	89 44 24 18          	mov    DWORD PTR [esp+0x18],eax
  100d6a:	51                   	push   ecx
  100d6b:	ff 74 24 0c          	push   DWORD PTR [esp+0xc]
  100d6f:	52                   	push   edx
  100d70:	68 3c d2 13 00       	push   0x13d23c
  100d75:	e8 76 50 02 00       	call   125df0 <__ubsan_handle_sub_overflow>
  100d7a:	83 c4 10             	add    esp,0x10
  100d7d:	8b 44 24 18          	mov    eax,DWORD PTR [esp+0x18]
  100d81:	e9 cc fe ff ff       	jmp    100c52 <_ZN2os10filesystem7parsing8bmp_loadEPc+0x532>
  100d86:	50                   	push   eax
  100d87:	6a 04                	push   0x4
  100d89:	57                   	push   edi
  100d8a:	68 4c d2 13 00       	push   0x13d24c
  100d8f:	e8 ac 50 02 00       	call   125e40 <__ubsan_handle_mul_overflow>
  100d94:	83 c4 10             	add    esp,0x10
  100d97:	e9 4b fe ff ff       	jmp    100be7 <_ZN2os10filesystem7parsing8bmp_loadEPc+0x4c7>
  100d9c:	50                   	push   eax
  100d9d:	55                   	push   ebp
  100d9e:	53                   	push   ebx
  100d9f:	68 5c d2 13 00       	push   0x13d25c
  100da4:	e8 f7 4f 02 00       	call   125da0 <__ubsan_handle_add_overflow>
  100da9:	83 c4 10             	add    esp,0x10
  100dac:	e9 2d fe ff ff       	jmp    100bde <_ZN2os10filesystem7parsing8bmp_loadEPc+0x4be>
  100db1:	50                   	push   eax
  100db2:	ff 74 24 34          	push   DWORD PTR [esp+0x34]
  100db6:	ff 74 24 10          	push   DWORD PTR [esp+0x10]
  100dba:	68 6c d2 13 00       	push   0x13d26c
  100dbf:	e8 7c 50 02 00       	call   125e40 <__ubsan_handle_mul_overflow>
  100dc4:	83 c4 10             	add    esp,0x10
  100dc7:	e9 08 fe ff ff       	jmp    100bd4 <_ZN2os10filesystem7parsing8bmp_loadEPc+0x4b4>
  100dcc:	52                   	push   edx
  100dcd:	50                   	push   eax
  100dce:	53                   	push   ebx
  100dcf:	68 7c d2 13 00       	push   0x13d27c
  100dd4:	e8 c7 4f 02 00       	call   125da0 <__ubsan_handle_add_overflow>
  100dd9:	83 c4 10             	add    esp,0x10
  100ddc:	e9 88 fd ff ff       	jmp    100b69 <_ZN2os10filesystem7parsing8bmp_loadEPc+0x449>
  100de1:	89 44 24 18          	mov    DWORD PTR [esp+0x18],eax
  100de5:	51                   	push   ecx
  100de6:	ff 74 24 34          	push   DWORD PTR [esp+0x34]
  100dea:	55                   	push   ebp
  100deb:	68 8c d2 13 00       	push   0x13d28c
  100df0:	e8 4b 50 02 00       	call   125e40 <__ubsan_handle_mul_overflow>
  100df5:	83 c4 10             	add    esp,0x10
  100df8:	8b 44 24 18          	mov    eax,DWORD PTR [esp+0x18]
  100dfc:	e9 5e fd ff ff       	jmp    100b5f <_ZN2os10filesystem7parsing8bmp_loadEPc+0x43f>
  100e01:	52                   	push   edx
  100e02:	6a 01                	push   0x1
  100e04:	50                   	push   eax
  100e05:	68 9c d2 13 00       	push   0x13d29c
  100e0a:	e8 e1 4f 02 00       	call   125df0 <__ubsan_handle_sub_overflow>
  100e0f:	83 c4 10             	add    esp,0x10
  100e12:	e9 26 fd ff ff       	jmp    100b3d <_ZN2os10filesystem7parsing8bmp_loadEPc+0x41d>
  100e17:	89 44 24 18          	mov    DWORD PTR [esp+0x18],eax
  100e1b:	51                   	push   ecx
  100e1c:	ff 74 24 0c          	push   DWORD PTR [esp+0xc]
  100e20:	52                   	push   edx
  100e21:	68 ac d2 13 00       	push   0x13d2ac
  100e26:	e8 c5 4f 02 00       	call   125df0 <__ubsan_handle_sub_overflow>
  100e2b:	83 c4 10             	add    esp,0x10
  100e2e:	8b 44 24 18          	mov    eax,DWORD PTR [esp+0x18]
  100e32:	e9 fb fc ff ff       	jmp    100b32 <_ZN2os10filesystem7parsing8bmp_loadEPc+0x412>
  100e37:	50                   	push   eax
  100e38:	6a 03                	push   0x3
  100e3a:	57                   	push   edi
  100e3b:	68 bc d2 13 00       	push   0x13d2bc
  100e40:	e8 fb 4f 02 00       	call   125e40 <__ubsan_handle_mul_overflow>
  100e45:	83 c4 10             	add    esp,0x10
  100e48:	e9 7a fc ff ff       	jmp    100ac7 <_ZN2os10filesystem7parsing8bmp_loadEPc+0x3a7>
  100e4d:	50                   	push   eax
  100e4e:	55                   	push   ebp
  100e4f:	53                   	push   ebx
  100e50:	68 cc d2 13 00       	push   0x13d2cc
  100e55:	e8 46 4f 02 00       	call   125da0 <__ubsan_handle_add_overflow>
  100e5a:	83 c4 10             	add    esp,0x10
  100e5d:	e9 5c fc ff ff       	jmp    100abe <_ZN2os10filesystem7parsing8bmp_loadEPc+0x39e>
  100e62:	50                   	push   eax
  100e63:	ff 74 24 34          	push   DWORD PTR [esp+0x34]
  100e67:	ff 74 24 10          	push   DWORD PTR [esp+0x10]
  100e6b:	68 dc d2 13 00       	push   0x13d2dc
  100e70:	e8 cb 4f 02 00       	call   125e40 <__ubsan_handle_mul_overflow>
  100e75:	83 c4 10             	add    esp,0x10
  100e78:	e9 37 fc ff ff       	jmp    100ab4 <_ZN2os10filesystem7parsing8bmp_loadEPc+0x394>
  100e7d:	51                   	push   ecx
  100e7e:	51                   	push   ecx
  100e7f:	55                   	push   ebp
  100e80:	68 a4 d4 13 00       	push   0x13d4a4
  100e85:	e8 26 4e 02 00       	call   125cb0 <__ubsan_handle_type_mismatch>
  100e8a:	83 c4 10             	add    esp,0x10
  100e8d:	e9 07 fd ff ff       	jmp    100b99 <_ZN2os10filesystem7parsing8bmp_loadEPc+0x479>
  100e92:	50                   	push   eax
  100e93:	50                   	push   eax
  100e94:	6a 00                	push   0x0
  100e96:	68 00 d5 13 00       	push   0x13d500
  100e9b:	e8 10 4e 02 00       	call   125cb0 <__ubsan_handle_type_mismatch>
  100ea0:	83 c4 10             	add    esp,0x10
  100ea3:	e9 2f fc ff ff       	jmp    100ad7 <_ZN2os10filesystem7parsing8bmp_loadEPc+0x3b7>
  100ea8:	89 54 24 18          	mov    DWORD PTR [esp+0x18],edx
  100eac:	50                   	push   eax
  100ead:	50                   	push   eax
  100eae:	6a 00                	push   0x0
  100eb0:	68 5c d4 13 00       	push   0x13d45c
  100eb5:	e8 f6 4d 02 00       	call   125cb0 <__ubsan_handle_type_mismatch>
  100eba:	83 c4 10             	add    esp,0x10
  100ebd:	8b 54 24 18          	mov    edx,DWORD PTR [esp+0x18]
  100ec1:	e9 44 fd ff ff       	jmp    100c0a <_ZN2os10filesystem7parsing8bmp_loadEPc+0x4ea>
  100ec6:	50                   	push   eax
  100ec7:	50                   	push   eax
  100ec8:	6a 00                	push   0x0
  100eca:	68 74 d4 13 00       	push   0x13d474
  100ecf:	e8 dc 4d 02 00       	call   125cb0 <__ubsan_handle_type_mismatch>
  100ed4:	83 c4 10             	add    esp,0x10
  100ed7:	e9 1b fd ff ff       	jmp    100bf7 <_ZN2os10filesystem7parsing8bmp_loadEPc+0x4d7>
  100edc:	89 44 24 1c          	mov    DWORD PTR [esp+0x1c],eax
  100ee0:	89 54 24 18          	mov    DWORD PTR [esp+0x18],edx
  100ee4:	57                   	push   edi
  100ee5:	57                   	push   edi
  100ee6:	6a 00                	push   0x0
  100ee8:	68 d0 d4 13 00       	push   0x13d4d0
  100eed:	e8 be 4d 02 00       	call   125cb0 <__ubsan_handle_type_mismatch>
  100ef2:	83 c4 10             	add    esp,0x10
  100ef5:	8b 44 24 1c          	mov    eax,DWORD PTR [esp+0x1c]
  100ef9:	8b 54 24 18          	mov    edx,DWORD PTR [esp+0x18]
  100efd:	e9 fd fb ff ff       	jmp    100aff <_ZN2os10filesystem7parsing8bmp_loadEPc+0x3df>
  100f02:	89 54 24 18          	mov    DWORD PTR [esp+0x18],edx
  100f06:	50                   	push   eax
  100f07:	50                   	push   eax
  100f08:	6a 00                	push   0x0
  100f0a:	68 e8 d4 13 00       	push   0x13d4e8
  100f0f:	e8 9c 4d 02 00       	call   125cb0 <__ubsan_handle_type_mismatch>
  100f14:	83 c4 10             	add    esp,0x10
  100f17:	8b 54 24 18          	mov    edx,DWORD PTR [esp+0x18]
  100f1b:	e9 ca fb ff ff       	jmp    100aea <_ZN2os10filesystem7parsing8bmp_loadEPc+0x3ca>
  100f20:	50                   	push   eax
  100f21:	50                   	push   eax
  100f22:	53                   	push   ebx
  100f23:	68 70 d6 13 00       	push   0x13d670
  100f28:	e8 83 4d 02 00       	call   125cb0 <__ubsan_handle_type_mismatch>
  100f2d:	83 c4 10             	add    esp,0x10
  100f30:	e9 28 f8 ff ff       	jmp    10075d <_ZN2os10filesystem7parsing8bmp_loadEPc+0x3d>
  100f35:	50                   	push   eax
  100f36:	50                   	push   eax
  100f37:	53                   	push   ebx
  100f38:	68 40 d6 13 00       	push   0x13d640
  100f3d:	e8 6e 4d 02 00       	call   125cb0 <__ubsan_handle_type_mismatch>
  100f42:	83 c4 10             	add    esp,0x10
  100f45:	e9 3c f8 ff ff       	jmp    100786 <_ZN2os10filesystem7parsing8bmp_loadEPc+0x66>
  100f4a:	50                   	push   eax
  100f4b:	50                   	push   eax
  100f4c:	53                   	push   ebx
  100f4d:	68 58 d6 13 00       	push   0x13d658
  100f52:	e8 59 4d 02 00       	call   125cb0 <__ubsan_handle_type_mismatch>
  100f57:	83 c4 10             	add    esp,0x10
  100f5a:	e9 0f f8 ff ff       	jmp    10076e <_ZN2os10filesystem7parsing8bmp_loadEPc+0x4e>
  100f5f:	89 44 24 04          	mov    DWORD PTR [esp+0x4],eax
  100f63:	50                   	push   eax
  100f64:	50                   	push   eax
  100f65:	56                   	push   esi
  100f66:	68 c0 d5 13 00       	push   0x13d5c0
  100f6b:	e8 40 4d 02 00       	call   125cb0 <__ubsan_handle_type_mismatch>
  100f70:	83 c4 10             	add    esp,0x10
  100f73:	8b 44 24 04          	mov    eax,DWORD PTR [esp+0x4]
  100f77:	e9 a8 f8 ff ff       	jmp    100824 <_ZN2os10filesystem7parsing8bmp_loadEPc+0x104>
  100f7c:	89 44 24 04          	mov    DWORD PTR [esp+0x4],eax
  100f80:	50                   	push   eax
  100f81:	50                   	push   eax
  100f82:	56                   	push   esi
  100f83:	68 a8 d5 13 00       	push   0x13d5a8
  100f88:	e8 23 4d 02 00       	call   125cb0 <__ubsan_handle_type_mismatch>
  100f8d:	83 c4 10             	add    esp,0x10
  100f90:	8b 44 24 04          	mov    eax,DWORD PTR [esp+0x4]
  100f94:	e9 9f f8 ff ff       	jmp    100838 <_ZN2os10filesystem7parsing8bmp_loadEPc+0x118>
  100f99:	50                   	push   eax
  100f9a:	50                   	push   eax
  100f9b:	56                   	push   esi
  100f9c:	68 14 d4 13 00       	push   0x13d414
  100fa1:	e8 0a 4d 02 00       	call   125cb0 <__ubsan_handle_type_mismatch>
  100fa6:	83 c4 10             	add    esp,0x10
  100fa9:	e9 f8 f9 ff ff       	jmp    1009a6 <_ZN2os10filesystem7parsing8bmp_loadEPc+0x286>
  100fae:	50                   	push   eax
  100faf:	50                   	push   eax
  100fb0:	ff 74 24 78          	push   DWORD PTR [esp+0x78]
  100fb4:	68 e4 d3 13 00       	push   0x13d3e4
  100fb9:	e8 f2 4c 02 00       	call   125cb0 <__ubsan_handle_type_mismatch>
  100fbe:	83 c4 10             	add    esp,0x10
  100fc1:	e9 29 fa ff ff       	jmp    1009ef <_ZN2os10filesystem7parsing8bmp_loadEPc+0x2cf>
  100fc6:	50                   	push   eax
  100fc7:	50                   	push   eax
  100fc8:	ff 74 24 78          	push   DWORD PTR [esp+0x78]
  100fcc:	68 b4 d3 13 00       	push   0x13d3b4
  100fd1:	e8 da 4c 02 00       	call   125cb0 <__ubsan_handle_type_mismatch>
  100fd6:	83 c4 10             	add    esp,0x10
  100fd9:	e9 28 fa ff ff       	jmp    100a06 <_ZN2os10filesystem7parsing8bmp_loadEPc+0x2e6>
  100fde:	50                   	push   eax
  100fdf:	50                   	push   eax
  100fe0:	56                   	push   esi
  100fe1:	68 8c d4 13 00       	push   0x13d48c
  100fe6:	e8 c5 4c 02 00       	call   125cb0 <__ubsan_handle_type_mismatch>
  100feb:	83 c4 10             	add    esp,0x10
  100fee:	e9 6e f9 ff ff       	jmp    100961 <_ZN2os10filesystem7parsing8bmp_loadEPc+0x241>
  100ff3:	89 44 24 1c          	mov    DWORD PTR [esp+0x1c],eax
  100ff7:	89 54 24 18          	mov    DWORD PTR [esp+0x18],edx
  100ffb:	57                   	push   edi
  100ffc:	57                   	push   edi
  100ffd:	6a 00                	push   0x0
  100fff:	68 44 d4 13 00       	push   0x13d444
  101004:	e8 a7 4c 02 00       	call   125cb0 <__ubsan_handle_type_mismatch>
  101009:	83 c4 10             	add    esp,0x10
  10100c:	8b 44 24 1c          	mov    eax,DWORD PTR [esp+0x1c]
  101010:	8b 54 24 18          	mov    edx,DWORD PTR [esp+0x18]
  101014:	e9 06 fc ff ff       	jmp    100c1f <_ZN2os10filesystem7parsing8bmp_loadEPc+0x4ff>
  101019:	55                   	push   ebp
  10101a:	ff 74 24 38          	push   DWORD PTR [esp+0x38]
  10101e:	57                   	push   edi
  10101f:	68 0c d3 13 00       	push   0x13d30c
  101024:	e8 17 4e 02 00       	call   125e40 <__ubsan_handle_mul_overflow>
  101029:	83 c4 10             	add    esp,0x10
  10102c:	e9 89 f8 ff ff       	jmp    1008ba <_ZN2os10filesystem7parsing8bmp_loadEPc+0x19a>
  101031:	50                   	push   eax
  101032:	50                   	push   eax
  101033:	ff 74 24 78          	push   DWORD PTR [esp+0x78]
  101037:	68 28 d3 13 00       	push   0x13d328
  10103c:	e8 6f 4c 02 00       	call   125cb0 <__ubsan_handle_type_mismatch>
  101041:	83 c4 10             	add    esp,0x10
  101044:	e9 20 fa ff ff       	jmp    100a69 <_ZN2os10filesystem7parsing8bmp_loadEPc+0x349>
  101049:	50                   	push   eax
  10104a:	50                   	push   eax
  10104b:	56                   	push   esi
  10104c:	68 28 d5 13 00       	push   0x13d528
  101051:	e8 5a 4c 02 00       	call   125cb0 <__ubsan_handle_type_mismatch>
  101056:	83 c4 10             	add    esp,0x10
  101059:	e9 e1 f8 ff ff       	jmp    10093f <_ZN2os10filesystem7parsing8bmp_loadEPc+0x21f>
  10105e:	55                   	push   ebp
  10105f:	55                   	push   ebp
  101060:	56                   	push   esi
  101061:	68 f0 d5 13 00       	push   0x13d5f0
  101066:	e8 45 4c 02 00       	call   125cb0 <__ubsan_handle_type_mismatch>
  10106b:	83 c4 10             	add    esp,0x10
  10106e:	e9 3b f7 ff ff       	jmp    1007ae <_ZN2os10filesystem7parsing8bmp_loadEPc+0x8e>
  101073:	50                   	push   eax
  101074:	50                   	push   eax
  101075:	53                   	push   ebx
  101076:	68 28 d6 13 00       	push   0x13d628
  10107b:	e8 30 4c 02 00       	call   125cb0 <__ubsan_handle_type_mismatch>
  101080:	83 c4 10             	add    esp,0x10
  101083:	e9 0f f7 ff ff       	jmp    100797 <_ZN2os10filesystem7parsing8bmp_loadEPc+0x77>
  101088:	50                   	push   eax
  101089:	50                   	push   eax
  10108a:	56                   	push   esi
  10108b:	68 d8 d5 13 00       	push   0x13d5d8
  101090:	e8 1b 4c 02 00       	call   125cb0 <__ubsan_handle_type_mismatch>
  101095:	83 c4 10             	add    esp,0x10
  101098:	e9 2c f7 ff ff       	jmp    1007c9 <_ZN2os10filesystem7parsing8bmp_loadEPc+0xa9>
  10109d:	57                   	push   edi
  10109e:	57                   	push   edi
  10109f:	ff 74 24 78          	push   DWORD PTR [esp+0x78]
  1010a3:	68 84 d3 13 00       	push   0x13d384
  1010a8:	e8 03 4c 02 00       	call   125cb0 <__ubsan_handle_type_mismatch>
  1010ad:	83 c4 10             	add    esp,0x10
  1010b0:	e9 68 f9 ff ff       	jmp    100a1d <_ZN2os10filesystem7parsing8bmp_loadEPc+0x2fd>
  1010b5:	51                   	push   ecx
  1010b6:	51                   	push   ecx
  1010b7:	ff 74 24 78          	push   DWORD PTR [esp+0x78]
  1010bb:	68 6c d3 13 00       	push   0x13d36c
  1010c0:	e8 eb 4b 02 00       	call   125cb0 <__ubsan_handle_type_mismatch>
  1010c5:	83 c4 10             	add    esp,0x10
  1010c8:	e9 6b f9 ff ff       	jmp    100a38 <_ZN2os10filesystem7parsing8bmp_loadEPc+0x318>
  1010cd:	52                   	push   edx
  1010ce:	52                   	push   edx
  1010cf:	ff 74 24 78          	push   DWORD PTR [esp+0x78]
  1010d3:	68 54 d3 13 00       	push   0x13d354
  1010d8:	e8 d3 4b 02 00       	call   125cb0 <__ubsan_handle_type_mismatch>
  1010dd:	83 c4 10             	add    esp,0x10
  1010e0:	e9 6d f9 ff ff       	jmp    100a52 <_ZN2os10filesystem7parsing8bmp_loadEPc+0x332>
  1010e5:	57                   	push   edi
  1010e6:	6a 04                	push   0x4
  1010e8:	53                   	push   ebx
  1010e9:	68 fc d2 13 00       	push   0x13d2fc
  1010ee:	e8 4d 4d 02 00       	call   125e40 <__ubsan_handle_mul_overflow>
  1010f3:	83 c4 10             	add    esp,0x10
  1010f6:	e9 cc f7 ff ff       	jmp    1008c7 <_ZN2os10filesystem7parsing8bmp_loadEPc+0x1a7>
  1010fb:	51                   	push   ecx
  1010fc:	6a 01                	push   0x1
  1010fe:	50                   	push   eax
  1010ff:	68 ec d2 13 00       	push   0x13d2ec
  101104:	e8 e7 4c 02 00       	call   125df0 <__ubsan_handle_sub_overflow>
  101109:	83 c4 10             	add    esp,0x10
  10110c:	e9 da f7 ff ff       	jmp    1008eb <_ZN2os10filesystem7parsing8bmp_loadEPc+0x1cb>
  101111:	50                   	push   eax
  101112:	50                   	push   eax
  101113:	53                   	push   ebx
  101114:	68 90 d5 13 00       	push   0x13d590
  101119:	e8 92 4b 02 00       	call   125cb0 <__ubsan_handle_type_mismatch>
  10111e:	83 c4 10             	add    esp,0x10
  101121:	e9 35 f7 ff ff       	jmp    10085b <_ZN2os10filesystem7parsing8bmp_loadEPc+0x13b>
  101126:	50                   	push   eax
  101127:	50                   	push   eax
  101128:	53                   	push   ebx
  101129:	68 78 d5 13 00       	push   0x13d578
  10112e:	e8 7d 4b 02 00       	call   125cb0 <__ubsan_handle_type_mismatch>
  101133:	83 c4 10             	add    esp,0x10
  101136:	e9 31 f7 ff ff       	jmp    10086c <_ZN2os10filesystem7parsing8bmp_loadEPc+0x14c>
  10113b:	50                   	push   eax
  10113c:	50                   	push   eax
  10113d:	6a 00                	push   0x0
  10113f:	68 40 d5 13 00       	push   0x13d540
  101144:	e8 67 4b 02 00       	call   125cb0 <__ubsan_handle_type_mismatch>
  101149:	83 c4 10             	add    esp,0x10
  10114c:	e9 2a f7 ff ff       	jmp    10087b <_ZN2os10filesystem7parsing8bmp_loadEPc+0x15b>
  101151:	66 90                	xchg   ax,ax
  101153:	66 90                	xchg   ax,ax
  101155:	66 90                	xchg   ax,ax
  101157:	66 90                	xchg   ax,ax
  101159:	66 90                	xchg   ax,ax
  10115b:	66 90                	xchg   ax,ax
  10115d:	66 90                	xchg   ax,ax
  10115f:	90                   	nop

00101160 <__cxa_pure_virtual>:
  101160:	f3 c3                	repz ret 
  101162:	8d b4 26 00 00 00 00 	lea    esi,[esi+eiz*1+0x0]
  101169:	8d bc 27 00 00 00 00 	lea    edi,[edi+eiz*1+0x0]

00101170 <_Z4lockv>:
  101170:	53                   	push   ebx
  101171:	83 ec 08             	sub    esp,0x8
  101174:	8b 1d 58 04 1d 00    	mov    ebx,DWORD PTR ds:0x1d0458
  10117a:	85 db                	test   ebx,ebx
  10117c:	74 09                	je     101187 <_Z4lockv+0x17>
  10117e:	f6 c3 03             	test   bl,0x3
  101181:	75 09                	jne    10118c <_Z4lockv+0x1c>
  101183:	80 4b 24 02          	or     BYTE PTR [ebx+0x24],0x2
  101187:	83 c4 08             	add    esp,0x8
  10118a:	5b                   	pop    ebx
  10118b:	c3                   	ret    
  10118c:	50                   	push   eax
  10118d:	50                   	push   eax
  10118e:	53                   	push   ebx
  10118f:	68 b4 d6 13 00       	push   0x13d6b4
  101194:	e8 17 4b 02 00       	call   125cb0 <__ubsan_handle_type_mismatch>
  101199:	83 c4 10             	add    esp,0x10
  10119c:	eb e5                	jmp    101183 <_Z4lockv+0x13>
  10119e:	66 90                	xchg   ax,ax

001011a0 <_Z6unlockv>:
  1011a0:	53                   	push   ebx
  1011a1:	83 ec 08             	sub    esp,0x8
  1011a4:	8b 1d 58 04 1d 00    	mov    ebx,DWORD PTR ds:0x1d0458
  1011aa:	85 db                	test   ebx,ebx
  1011ac:	74 09                	je     1011b7 <_Z6unlockv+0x17>
  1011ae:	f6 c3 03             	test   bl,0x3
  1011b1:	75 09                	jne    1011bc <_Z6unlockv+0x1c>
  1011b3:	80 63 24 fd          	and    BYTE PTR [ebx+0x24],0xfd
  1011b7:	83 c4 08             	add    esp,0x8
  1011ba:	5b                   	pop    ebx
  1011bb:	c3                   	ret    
  1011bc:	50                   	push   eax
  1011bd:	50                   	push   eax
  1011be:	53                   	push   ebx
  1011bf:	68 9c d6 13 00       	push   0x13d69c
  1011c4:	e8 e7 4a 02 00       	call   125cb0 <__ubsan_handle_type_mismatch>
  1011c9:	83 c4 10             	add    esp,0x10
  1011cc:	eb e5                	jmp    1011b3 <_Z6unlockv+0x13>
  1011ce:	66 90                	xchg   ax,ax

001011d0 <_Z5yieldv>:
  1011d0:	e9 8b 71 01 00       	jmp    118360 <_ZN2os9threading9scheduler5yieldEv>
  1011d5:	8d 74 26 00          	lea    esi,[esi+eiz*1+0x0]
  1011d9:	8d bc 27 00 00 00 00 	lea    edi,[edi+eiz*1+0x0]

001011e0 <_Z5sleepj>:
  1011e0:	55                   	push   ebp
  1011e1:	57                   	push   edi
  1011e2:	56                   	push   esi
  1011e3:	53                   	push   ebx
  1011e4:	83 ec 1c             	sub    esp,0x1c
  1011e7:	8b 7c 24 30          	mov    edi,DWORD PTR [esp+0x30]
  1011eb:	e8 00 73 01 00       	call   1184f0 <_ZN2os9threading9scheduler8is_readyEv>
  1011f0:	84 c0                	test   al,al
  1011f2:	75 2c                	jne    101220 <_Z5sleepj+0x40>
  1011f4:	8d 6c 24 06          	lea    ebp,[esp+0x6]
  1011f8:	31 db                	xor    ebx,ebx
  1011fa:	31 f6                	xor    esi,esi
  1011fc:	8d 74 26 00          	lea    esi,[esi+eiz*1+0x0]
  101200:	83 ec 0c             	sub    esp,0xc
  101203:	55                   	push   ebp
  101204:	e8 27 fa 01 00       	call   120c30 <_ZSt7timenowv>
  101209:	0f b7 44 24 12       	movzx  eax,WORD PTR [esp+0x12]
  10120e:	31 d2                	xor    edx,edx
  101210:	83 c4 0c             	add    esp,0xc
  101213:	39 c6                	cmp    esi,eax
  101215:	89 c6                	mov    esi,eax
  101217:	0f 95 c2             	setne  dl
  10121a:	01 d3                	add    ebx,edx
  10121c:	39 fb                	cmp    ebx,edi
  10121e:	72 e0                	jb     101200 <_Z5sleepj+0x20>
  101220:	83 c4 1c             	add    esp,0x1c
  101223:	5b                   	pop    ebx
  101224:	5e                   	pop    esi
  101225:	5f                   	pop    edi
  101226:	5d                   	pop    ebp
  101227:	c3                   	ret    
  101228:	66 90                	xchg   ax,ax
  10122a:	66 90                	xchg   ax,ax
  10122c:	66 90                	xchg   ax,ax
  10122e:	66 90                	xchg   ax,ax

00101230 <_ZN2os10filesystem7parsing13config_parserC1Ev>:
  101230:	57                   	push   edi
  101231:	56                   	push   esi
  101232:	53                   	push   ebx
  101233:	8b 5c 24 10          	mov    ebx,DWORD PTR [esp+0x10]
  101237:	85 db                	test   ebx,ebx
  101239:	0f 84 fb 00 00 00    	je     10133a <_ZN2os10filesystem7parsing13config_parserC1Ev+0x10a>
  10123f:	f6 c3 03             	test   bl,0x3
  101242:	0f 85 f2 00 00 00    	jne    10133a <_ZN2os10filesystem7parsing13config_parserC1Ev+0x10a>
  101248:	85 db                	test   ebx,ebx
  10124a:	0f 84 b6 01 00 00    	je     101406 <_ZN2os10filesystem7parsing13config_parserC1Ev+0x1d6>
  101250:	f6 c3 03             	test   bl,0x3
  101253:	0f 85 ad 01 00 00    	jne    101406 <_ZN2os10filesystem7parsing13config_parserC1Ev+0x1d6>
  101259:	83 ec 0c             	sub    esp,0xc
  10125c:	89 de                	mov    esi,ebx
  10125e:	53                   	push   ebx
  10125f:	e8 8c fc 01 00       	call   120ef0 <_ZN2os11interpreter14tokenizer_unitC1Ev>
  101264:	83 c4 10             	add    esp,0x10
  101267:	81 c6 fc 00 00 00    	add    esi,0xfc
  10126d:	0f 84 7e 01 00 00    	je     1013f1 <_ZN2os10filesystem7parsing13config_parserC1Ev+0x1c1>
  101273:	f7 c6 03 00 00 00    	test   esi,0x3
  101279:	0f 85 72 01 00 00    	jne    1013f1 <_ZN2os10filesystem7parsing13config_parserC1Ev+0x1c1>
  10127f:	85 f6                	test   esi,esi
  101281:	0f 84 55 01 00 00    	je     1013dc <_ZN2os10filesystem7parsing13config_parserC1Ev+0x1ac>
  101287:	f7 c6 03 00 00 00    	test   esi,0x3
  10128d:	0f 85 49 01 00 00    	jne    1013dc <_ZN2os10filesystem7parsing13config_parserC1Ev+0x1ac>
  101293:	89 d8                	mov    eax,ebx
  101295:	05 04 01 00 00       	add    eax,0x104
  10129a:	0f 84 27 01 00 00    	je     1013c7 <_ZN2os10filesystem7parsing13config_parserC1Ev+0x197>
  1012a0:	a8 03                	test   al,0x3
  1012a2:	0f 85 1f 01 00 00    	jne    1013c7 <_ZN2os10filesystem7parsing13config_parserC1Ev+0x197>
  1012a8:	89 df                	mov    edi,ebx
  1012aa:	81 c7 08 01 00 00    	add    edi,0x108
  1012b0:	0f 84 fc 00 00 00    	je     1013b2 <_ZN2os10filesystem7parsing13config_parserC1Ev+0x182>
  1012b6:	f7 c7 03 00 00 00    	test   edi,0x3
  1012bc:	0f 85 f0 00 00 00    	jne    1013b2 <_ZN2os10filesystem7parsing13config_parserC1Ev+0x182>
  1012c2:	85 ff                	test   edi,edi
  1012c4:	0f 84 d3 00 00 00    	je     10139d <_ZN2os10filesystem7parsing13config_parserC1Ev+0x16d>
  1012ca:	f7 c7 03 00 00 00    	test   edi,0x3
  1012d0:	0f 85 c7 00 00 00    	jne    10139d <_ZN2os10filesystem7parsing13config_parserC1Ev+0x16d>
  1012d6:	85 ff                	test   edi,edi
  1012d8:	0f 84 aa 00 00 00    	je     101388 <_ZN2os10filesystem7parsing13config_parserC1Ev+0x158>
  1012de:	f7 c7 03 00 00 00    	test   edi,0x3
  1012e4:	0f 85 9e 00 00 00    	jne    101388 <_ZN2os10filesystem7parsing13config_parserC1Ev+0x158>
  1012ea:	85 ff                	test   edi,edi
  1012ec:	c7 83 08 01 00 00 00 00 00 00 	mov    DWORD PTR [ebx+0x108],0x0
  1012f6:	74 7b                	je     101373 <_ZN2os10filesystem7parsing13config_parserC1Ev+0x143>
  1012f8:	f7 c7 03 00 00 00    	test   edi,0x3
  1012fe:	75 73                	jne    101373 <_ZN2os10filesystem7parsing13config_parserC1Ev+0x143>
  101300:	85 f6                	test   esi,esi
  101302:	c7 83 0c 01 00 00 00 00 00 00 	mov    DWORD PTR [ebx+0x10c],0x0
  10130c:	74 53                	je     101361 <_ZN2os10filesystem7parsing13config_parserC1Ev+0x131>
  10130e:	f7 c6 03 00 00 00    	test   esi,0x3
  101314:	75 4b                	jne    101361 <_ZN2os10filesystem7parsing13config_parserC1Ev+0x131>
  101316:	85 f6                	test   esi,esi
  101318:	c7 83 fc 00 00 00 00 00 00 00 	mov    DWORD PTR [ebx+0xfc],0x0
  101322:	74 2b                	je     10134f <_ZN2os10filesystem7parsing13config_parserC1Ev+0x11f>
  101324:	f7 c6 03 00 00 00    	test   esi,0x3
  10132a:	75 23                	jne    10134f <_ZN2os10filesystem7parsing13config_parserC1Ev+0x11f>
  10132c:	c7 83 00 01 00 00 00 00 00 00 	mov    DWORD PTR [ebx+0x100],0x0
  101336:	5b                   	pop    ebx
  101337:	5e                   	pop    esi
  101338:	5f                   	pop    edi
  101339:	c3                   	ret    
  10133a:	50                   	push   eax
  10133b:	50                   	push   eax
  10133c:	53                   	push   ebx
  10133d:	68 f0 d9 13 00       	push   0x13d9f0
  101342:	e8 69 49 02 00       	call   125cb0 <__ubsan_handle_type_mismatch>
  101347:	83 c4 10             	add    esp,0x10
  10134a:	e9 f9 fe ff ff       	jmp    101248 <_ZN2os10filesystem7parsing13config_parserC1Ev+0x18>
  10134f:	50                   	push   eax
  101350:	50                   	push   eax
  101351:	56                   	push   esi
  101352:	68 68 d8 13 00       	push   0x13d868
  101357:	e8 54 49 02 00       	call   125cb0 <__ubsan_handle_type_mismatch>
  10135c:	83 c4 10             	add    esp,0x10
  10135f:	eb cb                	jmp    10132c <_ZN2os10filesystem7parsing13config_parserC1Ev+0xfc>
  101361:	52                   	push   edx
  101362:	52                   	push   edx
  101363:	56                   	push   esi
  101364:	68 80 d8 13 00       	push   0x13d880
  101369:	e8 42 49 02 00       	call   125cb0 <__ubsan_handle_type_mismatch>
  10136e:	83 c4 10             	add    esp,0x10
  101371:	eb a3                	jmp    101316 <_ZN2os10filesystem7parsing13config_parserC1Ev+0xe6>
  101373:	51                   	push   ecx
  101374:	51                   	push   ecx
  101375:	57                   	push   edi
  101376:	68 98 d8 13 00       	push   0x13d898
  10137b:	e8 30 49 02 00       	call   125cb0 <__ubsan_handle_type_mismatch>
  101380:	83 c4 10             	add    esp,0x10
  101383:	e9 78 ff ff ff       	jmp    101300 <_ZN2os10filesystem7parsing13config_parserC1Ev+0xd0>
  101388:	50                   	push   eax
  101389:	50                   	push   eax
  10138a:	57                   	push   edi
  10138b:	68 b0 d8 13 00       	push   0x13d8b0
  101390:	e8 1b 49 02 00       	call   125cb0 <__ubsan_handle_type_mismatch>
  101395:	83 c4 10             	add    esp,0x10
  101398:	e9 4d ff ff ff       	jmp    1012ea <_ZN2os10filesystem7parsing13config_parserC1Ev+0xba>
  10139d:	50                   	push   eax
  10139e:	50                   	push   eax
  10139f:	57                   	push   edi
  1013a0:	68 c8 d8 13 00       	push   0x13d8c8
  1013a5:	e8 06 49 02 00       	call   125cb0 <__ubsan_handle_type_mismatch>
  1013aa:	83 c4 10             	add    esp,0x10
  1013ad:	e9 24 ff ff ff       	jmp    1012d6 <_ZN2os10filesystem7parsing13config_parserC1Ev+0xa6>
  1013b2:	50                   	push   eax
  1013b3:	50                   	push   eax
  1013b4:	57                   	push   edi
  1013b5:	68 f8 d8 13 00       	push   0x13d8f8
  1013ba:	e8 f1 48 02 00       	call   125cb0 <__ubsan_handle_type_mismatch>
  1013bf:	83 c4 10             	add    esp,0x10
  1013c2:	e9 fb fe ff ff       	jmp    1012c2 <_ZN2os10filesystem7parsing13config_parserC1Ev+0x92>
  1013c7:	52                   	push   edx
  1013c8:	52                   	push   edx
  1013c9:	50                   	push   eax
  1013ca:	68 28 d9 13 00       	push   0x13d928
  1013cf:	e8 dc 48 02 00       	call   125cb0 <__ubsan_handle_type_mismatch>
  1013d4:	83 c4 10             	add    esp,0x10
  1013d7:	e9 cc fe ff ff       	jmp    1012a8 <_ZN2os10filesystem7parsing13config_parserC1Ev+0x78>
  1013dc:	51                   	push   ecx
  1013dd:	51                   	push   ecx
  1013de:	56                   	push   esi
  1013df:	68 5c d9 13 00       	push   0x13d95c
  1013e4:	e8 c7 48 02 00       	call   125cb0 <__ubsan_handle_type_mismatch>
  1013e9:	83 c4 10             	add    esp,0x10
  1013ec:	e9 a2 fe ff ff       	jmp    101293 <_ZN2os10filesystem7parsing13config_parserC1Ev+0x63>
  1013f1:	57                   	push   edi
  1013f2:	57                   	push   edi
  1013f3:	56                   	push   esi
  1013f4:	68 8c d9 13 00       	push   0x13d98c
  1013f9:	e8 b2 48 02 00       	call   125cb0 <__ubsan_handle_type_mismatch>
  1013fe:	83 c4 10             	add    esp,0x10
  101401:	e9 79 fe ff ff       	jmp    10127f <_ZN2os10filesystem7parsing13config_parserC1Ev+0x4f>
  101406:	50                   	push   eax
  101407:	50                   	push   eax
  101408:	53                   	push   ebx
  101409:	68 bc d9 13 00       	push   0x13d9bc
  10140e:	e8 9d 48 02 00       	call   125cb0 <__ubsan_handle_type_mismatch>
  101413:	83 c4 10             	add    esp,0x10
  101416:	e9 3e fe ff ff       	jmp    101259 <_ZN2os10filesystem7parsing13config_parserC1Ev+0x29>
  10141b:	90                   	nop
  10141c:	8d 74 26 00          	lea    esi,[esi+eiz*1+0x0]

00101420 <_ZN2os10filesystem7parsing13config_parserC1EPc>:
  101420:	55                   	push   ebp
  101421:	57                   	push   edi
  101422:	56                   	push   esi
  101423:	53                   	push   ebx
  101424:	81 ec 0c 01 00 00    	sub    esp,0x10c
  10142a:	8b 9c 24 20 01 00 00 	mov    ebx,DWORD PTR [esp+0x120]
  101431:	85 db                	test   ebx,ebx
  101433:	0f 84 25 02 00 00    	je     10165e <_ZN2os10filesystem7parsing13config_parserC1EPc+0x23e>
  101439:	f6 c3 03             	test   bl,0x3
  10143c:	0f 85 1c 02 00 00    	jne    10165e <_ZN2os10filesystem7parsing13config_parserC1EPc+0x23e>
  101442:	85 db                	test   ebx,ebx
  101444:	0f 84 22 03 00 00    	je     10176c <_ZN2os10filesystem7parsing13config_parserC1EPc+0x34c>
  10144a:	f6 c3 03             	test   bl,0x3
  10144d:	0f 85 19 03 00 00    	jne    10176c <_ZN2os10filesystem7parsing13config_parserC1EPc+0x34c>
  101453:	83 ec 0c             	sub    esp,0xc
  101456:	89 de                	mov    esi,ebx
  101458:	53                   	push   ebx
  101459:	e8 92 fa 01 00       	call   120ef0 <_ZN2os11interpreter14tokenizer_unitC1Ev>
  10145e:	83 c4 10             	add    esp,0x10
  101461:	81 c6 fc 00 00 00    	add    esi,0xfc
  101467:	0f 84 ea 02 00 00    	je     101757 <_ZN2os10filesystem7parsing13config_parserC1EPc+0x337>
  10146d:	f7 c6 03 00 00 00    	test   esi,0x3
  101473:	0f 85 de 02 00 00    	jne    101757 <_ZN2os10filesystem7parsing13config_parserC1EPc+0x337>
  101479:	85 f6                	test   esi,esi
  10147b:	0f 84 c1 02 00 00    	je     101742 <_ZN2os10filesystem7parsing13config_parserC1EPc+0x322>
  101481:	f7 c6 03 00 00 00    	test   esi,0x3
  101487:	0f 85 b5 02 00 00    	jne    101742 <_ZN2os10filesystem7parsing13config_parserC1EPc+0x322>
  10148d:	89 d8                	mov    eax,ebx
  10148f:	05 04 01 00 00       	add    eax,0x104
  101494:	0f 84 93 02 00 00    	je     10172d <_ZN2os10filesystem7parsing13config_parserC1EPc+0x30d>
  10149a:	a8 03                	test   al,0x3
  10149c:	0f 85 8b 02 00 00    	jne    10172d <_ZN2os10filesystem7parsing13config_parserC1EPc+0x30d>
  1014a2:	89 dd                	mov    ebp,ebx
  1014a4:	81 c5 08 01 00 00    	add    ebp,0x108
  1014aa:	0f 84 68 02 00 00    	je     101718 <_ZN2os10filesystem7parsing13config_parserC1EPc+0x2f8>
  1014b0:	f7 c5 03 00 00 00    	test   ebp,0x3
  1014b6:	0f 85 5c 02 00 00    	jne    101718 <_ZN2os10filesystem7parsing13config_parserC1EPc+0x2f8>
  1014bc:	85 ed                	test   ebp,ebp
  1014be:	0f 84 3f 02 00 00    	je     101703 <_ZN2os10filesystem7parsing13config_parserC1EPc+0x2e3>
  1014c4:	f7 c5 03 00 00 00    	test   ebp,0x3
  1014ca:	0f 85 33 02 00 00    	jne    101703 <_ZN2os10filesystem7parsing13config_parserC1EPc+0x2e3>
  1014d0:	85 ed                	test   ebp,ebp
  1014d2:	0f 84 16 02 00 00    	je     1016ee <_ZN2os10filesystem7parsing13config_parserC1EPc+0x2ce>
  1014d8:	f7 c5 03 00 00 00    	test   ebp,0x3
  1014de:	0f 85 0a 02 00 00    	jne    1016ee <_ZN2os10filesystem7parsing13config_parserC1EPc+0x2ce>
  1014e4:	85 ed                	test   ebp,ebp
  1014e6:	c7 83 08 01 00 00 00 00 00 00 	mov    DWORD PTR [ebx+0x108],0x0
  1014f0:	0f 84 e3 01 00 00    	je     1016d9 <_ZN2os10filesystem7parsing13config_parserC1EPc+0x2b9>
  1014f6:	f7 c5 03 00 00 00    	test   ebp,0x3
  1014fc:	0f 85 d7 01 00 00    	jne    1016d9 <_ZN2os10filesystem7parsing13config_parserC1EPc+0x2b9>
  101502:	85 f6                	test   esi,esi
  101504:	c7 83 0c 01 00 00 00 00 00 00 	mov    DWORD PTR [ebx+0x10c],0x0
  10150e:	0f 84 b0 01 00 00    	je     1016c4 <_ZN2os10filesystem7parsing13config_parserC1EPc+0x2a4>
  101514:	f7 c6 03 00 00 00    	test   esi,0x3
  10151a:	0f 85 a4 01 00 00    	jne    1016c4 <_ZN2os10filesystem7parsing13config_parserC1EPc+0x2a4>
  101520:	85 f6                	test   esi,esi
  101522:	c7 83 fc 00 00 00 00 00 00 00 	mov    DWORD PTR [ebx+0xfc],0x0
  10152c:	0f 84 7d 01 00 00    	je     1016af <_ZN2os10filesystem7parsing13config_parserC1EPc+0x28f>
  101532:	f7 c6 03 00 00 00    	test   esi,0x3
  101538:	0f 85 71 01 00 00    	jne    1016af <_ZN2os10filesystem7parsing13config_parserC1EPc+0x28f>
  10153e:	83 ec 08             	sub    esp,0x8
  101541:	c7 83 00 01 00 00 00 00 00 00 	mov    DWORD PTR [ebx+0x100],0x0
  10154b:	ff b4 24 2c 01 00 00 	push   DWORD PTR [esp+0x12c]
  101552:	8d 6c 24 10          	lea    ebp,[esp+0x10]
  101556:	55                   	push   ebp
  101557:	e8 84 fe 01 00       	call   1213e0 <_ZN2os11interpreter14tokenizer_unitC1EPc>
  10155c:	83 c4 10             	add    esp,0x10
  10155f:	85 db                	test   ebx,ebx
  101561:	0f 84 33 01 00 00    	je     10169a <_ZN2os10filesystem7parsing13config_parserC1EPc+0x27a>
  101567:	f6 c3 03             	test   bl,0x3
  10156a:	0f 85 2a 01 00 00    	jne    10169a <_ZN2os10filesystem7parsing13config_parserC1EPc+0x27a>
  101570:	85 db                	test   ebx,ebx
  101572:	b9 3f 00 00 00       	mov    ecx,0x3f
  101577:	89 df                	mov    edi,ebx
  101579:	89 ee                	mov    esi,ebp
  10157b:	f3 a5                	rep movs DWORD PTR es:[edi],DWORD PTR ds:[esi]
  10157d:	c7 44 24 10 00 00 00 00 	mov    DWORD PTR [esp+0x10],0x0
  101585:	c7 44 24 14 00 00 00 00 	mov    DWORD PTR [esp+0x14],0x0
  10158d:	c7 44 24 04 00 00 00 00 	mov    DWORD PTR [esp+0x4],0x0
  101595:	c7 44 24 08 00 00 00 00 	mov    DWORD PTR [esp+0x8],0x0
  10159d:	0f 84 e2 00 00 00    	je     101685 <_ZN2os10filesystem7parsing13config_parserC1EPc+0x265>
  1015a3:	f6 c3 03             	test   bl,0x3
  1015a6:	0f 85 d9 00 00 00    	jne    101685 <_ZN2os10filesystem7parsing13config_parserC1EPc+0x265>
  1015ac:	8b 44 24 04          	mov    eax,DWORD PTR [esp+0x4]
  1015b0:	b9 33 00 00 00       	mov    ecx,0x33
  1015b5:	89 ef                	mov    edi,ebp
  1015b7:	ba 30 78 00 00       	mov    edx,0x7830
  1015bc:	89 83 fc 00 00 00    	mov    DWORD PTR [ebx+0xfc],eax
  1015c2:	8b 44 24 08          	mov    eax,DWORD PTR [esp+0x8]
  1015c6:	89 83 00 01 00 00    	mov    DWORD PTR [ebx+0x100],eax
  1015cc:	8b 44 24 0c          	mov    eax,DWORD PTR [esp+0xc]
  1015d0:	89 83 04 01 00 00    	mov    DWORD PTR [ebx+0x104],eax
  1015d6:	8b 44 24 10          	mov    eax,DWORD PTR [esp+0x10]
  1015da:	89 83 08 01 00 00    	mov    DWORD PTR [ebx+0x108],eax
  1015e0:	8b 44 24 14          	mov    eax,DWORD PTR [esp+0x14]
  1015e4:	89 83 0c 01 00 00    	mov    DWORD PTR [ebx+0x10c],eax
  1015ea:	8b 44 24 18          	mov    eax,DWORD PTR [esp+0x18]
  1015ee:	89 83 10 01 00 00    	mov    DWORD PTR [ebx+0x110],eax
  1015f4:	31 c0                	xor    eax,eax
  1015f6:	85 db                	test   ebx,ebx
  1015f8:	f3 ab                	rep stos DWORD PTR es:[edi],eax
  1015fa:	b9 30 62 00 00       	mov    ecx,0x6230
  1015ff:	c6 44 24 04 ff       	mov    BYTE PTR [esp+0x4],0xff
  101604:	66 89 54 24 06       	mov    WORD PTR [esp+0x6],dx
  101609:	66 89 4c 24 16       	mov    WORD PTR [esp+0x16],cx
  10160e:	c6 44 24 26 23       	mov    BYTE PTR [esp+0x26],0x23
  101613:	c7 44 24 36 74 72 75 65 	mov    DWORD PTR [esp+0x36],0x65757274
  10161b:	c7 44 24 56 66 61 6c 73 	mov    DWORD PTR [esp+0x56],0x736c6166
  101623:	c6 44 24 5a 65       	mov    BYTE PTR [esp+0x5a],0x65
  101628:	c7 44 24 76 27 22 3d 5b 	mov    DWORD PTR [esp+0x76],0x5b3d2227
  101630:	c6 44 24 7a 5d       	mov    BYTE PTR [esp+0x7a],0x5d
  101635:	74 3c                	je     101673 <_ZN2os10filesystem7parsing13config_parserC1EPc+0x253>
  101637:	f6 c3 03             	test   bl,0x3
  10163a:	75 37                	jne    101673 <_ZN2os10filesystem7parsing13config_parserC1EPc+0x253>
  10163c:	81 ec cc 00 00 00    	sub    esp,0xcc
  101642:	89 ee                	mov    esi,ebp
  101644:	b9 33 00 00 00       	mov    ecx,0x33
  101649:	89 e7                	mov    edi,esp
  10164b:	f3 a5                	rep movs DWORD PTR es:[edi],DWORD PTR ds:[esi]
  10164d:	53                   	push   ebx
  10164e:	e8 5d 11 02 00       	call   1227b0 <_ZN2os11interpreter14tokenizer_unit9set_rulesENS0_17tokenizer_rules_tE>
  101653:	81 c4 dc 01 00 00    	add    esp,0x1dc
  101659:	5b                   	pop    ebx
  10165a:	5e                   	pop    esi
  10165b:	5f                   	pop    edi
  10165c:	5d                   	pop    ebp
  10165d:	c3                   	ret    
  10165e:	50                   	push   eax
  10165f:	50                   	push   eax
  101660:	53                   	push   ebx
  101661:	68 50 d8 13 00       	push   0x13d850
  101666:	e8 45 46 02 00       	call   125cb0 <__ubsan_handle_type_mismatch>
  10166b:	83 c4 10             	add    esp,0x10
  10166e:	e9 cf fd ff ff       	jmp    101442 <_ZN2os10filesystem7parsing13config_parserC1EPc+0x22>
  101673:	50                   	push   eax
  101674:	50                   	push   eax
  101675:	53                   	push   ebx
  101676:	68 fc d6 13 00       	push   0x13d6fc
  10167b:	e8 30 46 02 00       	call   125cb0 <__ubsan_handle_type_mismatch>
  101680:	83 c4 10             	add    esp,0x10
  101683:	eb b7                	jmp    10163c <_ZN2os10filesystem7parsing13config_parserC1EPc+0x21c>
  101685:	56                   	push   esi
  101686:	56                   	push   esi
  101687:	53                   	push   ebx
  101688:	68 14 d7 13 00       	push   0x13d714
  10168d:	e8 1e 46 02 00       	call   125cb0 <__ubsan_handle_type_mismatch>
  101692:	83 c4 10             	add    esp,0x10
  101695:	e9 12 ff ff ff       	jmp    1015ac <_ZN2os10filesystem7parsing13config_parserC1EPc+0x18c>
  10169a:	57                   	push   edi
  10169b:	57                   	push   edi
  10169c:	53                   	push   ebx
  10169d:	68 2c d7 13 00       	push   0x13d72c
  1016a2:	e8 09 46 02 00       	call   125cb0 <__ubsan_handle_type_mismatch>
  1016a7:	83 c4 10             	add    esp,0x10
  1016aa:	e9 c1 fe ff ff       	jmp    101570 <_ZN2os10filesystem7parsing13config_parserC1EPc+0x150>
  1016af:	55                   	push   ebp
  1016b0:	55                   	push   ebp
  1016b1:	56                   	push   esi
  1016b2:	68 60 d7 13 00       	push   0x13d760
  1016b7:	e8 f4 45 02 00       	call   125cb0 <__ubsan_handle_type_mismatch>
  1016bc:	83 c4 10             	add    esp,0x10
  1016bf:	e9 7a fe ff ff       	jmp    10153e <_ZN2os10filesystem7parsing13config_parserC1EPc+0x11e>
  1016c4:	50                   	push   eax
  1016c5:	50                   	push   eax
  1016c6:	56                   	push   esi
  1016c7:	68 78 d7 13 00       	push   0x13d778
  1016cc:	e8 df 45 02 00       	call   125cb0 <__ubsan_handle_type_mismatch>
  1016d1:	83 c4 10             	add    esp,0x10
  1016d4:	e9 47 fe ff ff       	jmp    101520 <_ZN2os10filesystem7parsing13config_parserC1EPc+0x100>
  1016d9:	50                   	push   eax
  1016da:	50                   	push   eax
  1016db:	55                   	push   ebp
  1016dc:	68 90 d7 13 00       	push   0x13d790
  1016e1:	e8 ca 45 02 00       	call   125cb0 <__ubsan_handle_type_mismatch>
  1016e6:	83 c4 10             	add    esp,0x10
  1016e9:	e9 14 fe ff ff       	jmp    101502 <_ZN2os10filesystem7parsing13config_parserC1EPc+0xe2>
  1016ee:	50                   	push   eax
  1016ef:	50                   	push   eax
  1016f0:	55                   	push   ebp
  1016f1:	68 a8 d7 13 00       	push   0x13d7a8
  1016f6:	e8 b5 45 02 00       	call   125cb0 <__ubsan_handle_type_mismatch>
  1016fb:	83 c4 10             	add    esp,0x10
  1016fe:	e9 e1 fd ff ff       	jmp    1014e4 <_ZN2os10filesystem7parsing13config_parserC1EPc+0xc4>
  101703:	50                   	push   eax
  101704:	50                   	push   eax
  101705:	55                   	push   ebp
  101706:	68 c0 d7 13 00       	push   0x13d7c0
  10170b:	e8 a0 45 02 00       	call   125cb0 <__ubsan_handle_type_mismatch>
  101710:	83 c4 10             	add    esp,0x10
  101713:	e9 b8 fd ff ff       	jmp    1014d0 <_ZN2os10filesystem7parsing13config_parserC1EPc+0xb0>
  101718:	50                   	push   eax
  101719:	50                   	push   eax
  10171a:	55                   	push   ebp
  10171b:	68 d8 d7 13 00       	push   0x13d7d8
  101720:	e8 8b 45 02 00       	call   125cb0 <__ubsan_handle_type_mismatch>
  101725:	83 c4 10             	add    esp,0x10
  101728:	e9 8f fd ff ff       	jmp    1014bc <_ZN2os10filesystem7parsing13config_parserC1EPc+0x9c>
  10172d:	52                   	push   edx
  10172e:	52                   	push   edx
  10172f:	50                   	push   eax
  101730:	68 f0 d7 13 00       	push   0x13d7f0
  101735:	e8 76 45 02 00       	call   125cb0 <__ubsan_handle_type_mismatch>
  10173a:	83 c4 10             	add    esp,0x10
  10173d:	e9 60 fd ff ff       	jmp    1014a2 <_ZN2os10filesystem7parsing13config_parserC1EPc+0x82>
  101742:	51                   	push   ecx
  101743:	51                   	push   ecx
  101744:	56                   	push   esi
  101745:	68 08 d8 13 00       	push   0x13d808
  10174a:	e8 61 45 02 00       	call   125cb0 <__ubsan_handle_type_mismatch>
  10174f:	83 c4 10             	add    esp,0x10
  101752:	e9 36 fd ff ff       	jmp    10148d <_ZN2os10filesystem7parsing13config_parserC1EPc+0x6d>
  101757:	57                   	push   edi
  101758:	57                   	push   edi
  101759:	56                   	push   esi
  10175a:	68 20 d8 13 00       	push   0x13d820
  10175f:	e8 4c 45 02 00       	call   125cb0 <__ubsan_handle_type_mismatch>
  101764:	83 c4 10             	add    esp,0x10
  101767:	e9 0d fd ff ff       	jmp    101479 <_ZN2os10filesystem7parsing13config_parserC1EPc+0x59>
  10176c:	55                   	push   ebp
  10176d:	55                   	push   ebp
  10176e:	53                   	push   ebx
  10176f:	68 38 d8 13 00       	push   0x13d838
  101774:	e8 37 45 02 00       	call   125cb0 <__ubsan_handle_type_mismatch>
  101779:	83 c4 10             	add    esp,0x10
  10177c:	e9 d2 fc ff ff       	jmp    101453 <_ZN2os10filesystem7parsing13config_parserC1EPc+0x33>
  101781:	90                   	nop
  101782:	8d b4 26 00 00 00 00 	lea    esi,[esi+eiz*1+0x0]
  101789:	8d bc 27 00 00 00 00 	lea    edi,[edi+eiz*1+0x0]

00101790 <_ZN2os10filesystem7parsing13config_parser8tokenizeEv>:
  101790:	53                   	push   ebx
  101791:	83 ec 08             	sub    esp,0x8
  101794:	8b 5c 24 10          	mov    ebx,DWORD PTR [esp+0x10]
  101798:	85 db                	test   ebx,ebx
  10179a:	74 18                	je     1017b4 <_ZN2os10filesystem7parsing13config_parser8tokenizeEv+0x24>
  10179c:	f6 c3 03             	test   bl,0x3
  10179f:	75 13                	jne    1017b4 <_ZN2os10filesystem7parsing13config_parser8tokenizeEv+0x24>
  1017a1:	83 ec 0c             	sub    esp,0xc
  1017a4:	53                   	push   ebx
  1017a5:	e8 26 3a 02 00       	call   1251d0 <_ZN2os11interpreter14tokenizer_unit3runEv>
  1017aa:	83 c4 18             	add    esp,0x18
  1017ad:	b8 01 00 00 00       	mov    eax,0x1
  1017b2:	5b                   	pop    ebx
  1017b3:	c3                   	ret    
  1017b4:	50                   	push   eax
  1017b5:	50                   	push   eax
  1017b6:	53                   	push   ebx
  1017b7:	68 e4 d6 13 00       	push   0x13d6e4
  1017bc:	e8 ef 44 02 00       	call   125cb0 <__ubsan_handle_type_mismatch>
  1017c1:	83 c4 10             	add    esp,0x10
  1017c4:	eb db                	jmp    1017a1 <_ZN2os10filesystem7parsing13config_parser8tokenizeEv+0x11>
  1017c6:	66 90                	xchg   ax,ax
  1017c8:	66 90                	xchg   ax,ax
  1017ca:	66 90                	xchg   ax,ax
  1017cc:	66 90                	xchg   ax,ax
  1017ce:	66 90                	xchg   ax,ax

001017d0 <_context_switch>:
  1017d0:	a1 58 04 1d 00       	mov    eax,ds:0x1d0458
  1017d5:	89 38                	mov    DWORD PTR [eax],edi
  1017d7:	89 70 04             	mov    DWORD PTR [eax+0x4],esi
  1017da:	89 68 08             	mov    DWORD PTR [eax+0x8],ebp
  1017dd:	89 60 0c             	mov    DWORD PTR [eax+0xc],esp
  1017e0:	89 58 10             	mov    DWORD PTR [eax+0x10],ebx
  1017e3:	89 50 14             	mov    DWORD PTR [eax+0x14],edx
  1017e6:	89 48 18             	mov    DWORD PTR [eax+0x18],ecx
  1017e9:	89 40 1c             	mov    DWORD PTR [eax+0x1c],eax
  1017ec:	9c                   	pushf  
  1017ed:	59                   	pop    ecx
  1017ee:	89 48 20             	mov    DWORD PTR [eax+0x20],ecx
  1017f1:	a1 54 04 1d 00       	mov    eax,ds:0x1d0454
  1017f6:	a3 58 04 1d 00       	mov    ds:0x1d0458,eax
  1017fb:	8b 48 20             	mov    ecx,DWORD PTR [eax+0x20]
  1017fe:	51                   	push   ecx
  1017ff:	9d                   	popf   
  101800:	8b 38                	mov    edi,DWORD PTR [eax]
  101802:	8b 70 04             	mov    esi,DWORD PTR [eax+0x4]
  101805:	8b 68 08             	mov    ebp,DWORD PTR [eax+0x8]
  101808:	8b 60 0c             	mov    esp,DWORD PTR [eax+0xc]
  10180b:	8b 58 10             	mov    ebx,DWORD PTR [eax+0x10]
  10180e:	8b 50 14             	mov    edx,DWORD PTR [eax+0x14]
  101811:	8b 48 18             	mov    ecx,DWORD PTR [eax+0x18]
  101814:	8b 40 1c             	mov    eax,DWORD PTR [eax+0x1c]
  101817:	fb                   	sti    
  101818:	c3                   	ret    
  101819:	66 90                	xchg   ax,ax
  10181b:	66 90                	xchg   ax,ax
  10181d:	66 90                	xchg   ax,ax
  10181f:	90                   	nop

00101820 <isalnum>:
  101820:	8b 54 24 04          	mov    edx,DWORD PTR [esp+0x4]
  101824:	b8 01 00 00 00       	mov    eax,0x1
  101829:	83 e2 df             	and    edx,0xffffffdf
  10182c:	83 ea 41             	sub    edx,0x41
  10182f:	83 fa 19             	cmp    edx,0x19
  101832:	76 10                	jbe    101844 <isalnum+0x24>
  101834:	8b 44 24 04          	mov    eax,DWORD PTR [esp+0x4]
  101838:	83 e8 30             	sub    eax,0x30
  10183b:	83 f8 09             	cmp    eax,0x9
  10183e:	0f 96 c0             	setbe  al
  101841:	0f b6 c0             	movzx  eax,al
  101844:	f3 c3                	repz ret 
  101846:	8d 76 00             	lea    esi,[esi+0x0]
  101849:	8d bc 27 00 00 00 00 	lea    edi,[edi+eiz*1+0x0]

00101850 <isalpha>:
  101850:	8b 44 24 04          	mov    eax,DWORD PTR [esp+0x4]
  101854:	83 e0 df             	and    eax,0xffffffdf
  101857:	83 e8 41             	sub    eax,0x41
  10185a:	83 f8 19             	cmp    eax,0x19
  10185d:	0f 96 c0             	setbe  al
  101860:	0f b6 c0             	movzx  eax,al
  101863:	c3                   	ret    
  101864:	8d b6 00 00 00 00    	lea    esi,[esi+0x0]
  10186a:	8d bf 00 00 00 00    	lea    edi,[edi+0x0]

00101870 <iscntrl>:
  101870:	8b 54 24 04          	mov    edx,DWORD PTR [esp+0x4]
  101874:	83 fa 7f             	cmp    edx,0x7f
  101877:	0f 94 c0             	sete   al
  10187a:	83 fa 1f             	cmp    edx,0x1f
  10187d:	0f 9e c2             	setle  dl
  101880:	09 d0                	or     eax,edx
  101882:	0f b6 c0             	movzx  eax,al
  101885:	c3                   	ret    
  101886:	8d 76 00             	lea    esi,[esi+0x0]
  101889:	8d bc 27 00 00 00 00 	lea    edi,[edi+eiz*1+0x0]

00101890 <isdigit>:
  101890:	8b 44 24 04          	mov    eax,DWORD PTR [esp+0x4]
  101894:	83 e8 30             	sub    eax,0x30
  101897:	83 f8 09             	cmp    eax,0x9
  10189a:	0f 96 c0             	setbe  al
  10189d:	0f b6 c0             	movzx  eax,al
  1018a0:	c3                   	ret    
  1018a1:	eb 0d                	jmp    1018b0 <isgraph>
  1018a3:	90                   	nop
  1018a4:	90                   	nop
  1018a5:	90                   	nop
  1018a6:	90                   	nop
  1018a7:	90                   	nop
  1018a8:	90                   	nop
  1018a9:	90                   	nop
  1018aa:	90                   	nop
  1018ab:	90                   	nop
  1018ac:	90                   	nop
  1018ad:	90                   	nop
  1018ae:	90                   	nop
  1018af:	90                   	nop

001018b0 <isgraph>:
  1018b0:	8b 44 24 04          	mov    eax,DWORD PTR [esp+0x4]
  1018b4:	83 e8 21             	sub    eax,0x21
  1018b7:	83 f8 5d             	cmp    eax,0x5d
  1018ba:	0f 96 c0             	setbe  al
  1018bd:	0f b6 c0             	movzx  eax,al
  1018c0:	c3                   	ret    
  1018c1:	eb 0d                	jmp    1018d0 <islower>
  1018c3:	90                   	nop
  1018c4:	90                   	nop
  1018c5:	90                   	nop
  1018c6:	90                   	nop
  1018c7:	90                   	nop
  1018c8:	90                   	nop
  1018c9:	90                   	nop
  1018ca:	90                   	nop
  1018cb:	90                   	nop
  1018cc:	90                   	nop
  1018cd:	90                   	nop
  1018ce:	90                   	nop
  1018cf:	90                   	nop

001018d0 <islower>:
  1018d0:	8b 44 24 04          	mov    eax,DWORD PTR [esp+0x4]
  1018d4:	83 e8 61             	sub    eax,0x61
  1018d7:	83 f8 19             	cmp    eax,0x19
  1018da:	0f 96 c0             	setbe  al
  1018dd:	0f b6 c0             	movzx  eax,al
  1018e0:	c3                   	ret    
  1018e1:	eb 0d                	jmp    1018f0 <isprint>
  1018e3:	90                   	nop
  1018e4:	90                   	nop
  1018e5:	90                   	nop
  1018e6:	90                   	nop
  1018e7:	90                   	nop
  1018e8:	90                   	nop
  1018e9:	90                   	nop
  1018ea:	90                   	nop
  1018eb:	90                   	nop
  1018ec:	90                   	nop
  1018ed:	90                   	nop
  1018ee:	90                   	nop
  1018ef:	90                   	nop

001018f0 <isprint>:
  1018f0:	8b 54 24 04          	mov    edx,DWORD PTR [esp+0x4]
  1018f4:	52                   	push   edx
  1018f5:	e8 b6 ff ff ff       	call   1018b0 <isgraph>
  1018fa:	83 fa 20             	cmp    edx,0x20
  1018fd:	0f 94 c2             	sete   dl
  101900:	85 c0                	test   eax,eax
  101902:	0f 95 c0             	setne  al
  101905:	09 d0                	or     eax,edx
  101907:	59                   	pop    ecx
  101908:	0f b6 c0             	movzx  eax,al
  10190b:	c3                   	ret    
  10190c:	8d 74 26 00          	lea    esi,[esi+eiz*1+0x0]

00101910 <ispunct>:
  101910:	8b 54 24 04          	mov    edx,DWORD PTR [esp+0x4]
  101914:	b8 01 00 00 00       	mov    eax,0x1
  101919:	8d 4a df             	lea    ecx,[edx-0x21]
  10191c:	83 f9 0e             	cmp    ecx,0xe
  10191f:	76 1b                	jbe    10193c <ispunct+0x2c>
  101921:	8d 4a c6             	lea    ecx,[edx-0x3a]
  101924:	83 f9 06             	cmp    ecx,0x6
  101927:	76 13                	jbe    10193c <ispunct+0x2c>
  101929:	8d 4a a5             	lea    ecx,[edx-0x5b]
  10192c:	83 f9 05             	cmp    ecx,0x5
  10192f:	76 0b                	jbe    10193c <ispunct+0x2c>
  101931:	83 ea 7b             	sub    edx,0x7b
  101934:	31 c0                	xor    eax,eax
  101936:	83 fa 03             	cmp    edx,0x3
  101939:	0f 96 c0             	setbe  al
  10193c:	f3 c3                	repz ret 
  10193e:	66 90                	xchg   ax,ax

00101940 <isspace>:
  101940:	8b 54 24 04          	mov    edx,DWORD PTR [esp+0x4]
  101944:	b8 01 00 00 00       	mov    eax,0x1
  101949:	83 fa 20             	cmp    edx,0x20
  10194c:	74 0b                	je     101959 <isspace+0x19>
  10194e:	83 ea 0c             	sub    edx,0xc
  101951:	31 c0                	xor    eax,eax
  101953:	83 fa 03             	cmp    edx,0x3
  101956:	0f 96 c0             	setbe  al
  101959:	f3 c3                	repz ret 
  10195b:	90                   	nop
  10195c:	8d 74 26 00          	lea    esi,[esi+eiz*1+0x0]

00101960 <isupper>:
  101960:	8b 44 24 04          	mov    eax,DWORD PTR [esp+0x4]
  101964:	83 e8 41             	sub    eax,0x41
  101967:	83 f8 19             	cmp    eax,0x19
  10196a:	0f 96 c0             	setbe  al
  10196d:	0f b6 c0             	movzx  eax,al
  101970:	c3                   	ret    
  101971:	eb 0d                	jmp    101980 <isxdigit>
  101973:	90                   	nop
  101974:	90                   	nop
  101975:	90                   	nop
  101976:	90                   	nop
  101977:	90                   	nop
  101978:	90                   	nop
  101979:	90                   	nop
  10197a:	90                   	nop
  10197b:	90                   	nop
  10197c:	90                   	nop
  10197d:	90                   	nop
  10197e:	90                   	nop
  10197f:	90                   	nop

00101980 <isxdigit>:
  101980:	8b 54 24 04          	mov    edx,DWORD PTR [esp+0x4]
  101984:	b8 01 00 00 00       	mov    eax,0x1
  101989:	8d 4a d0             	lea    ecx,[edx-0x30]
  10198c:	83 f9 09             	cmp    ecx,0x9
  10198f:	76 13                	jbe    1019a4 <isxdigit+0x24>
  101991:	8d 4a bf             	lea    ecx,[edx-0x41]
  101994:	83 f9 05             	cmp    ecx,0x5
  101997:	76 0b                	jbe    1019a4 <isxdigit+0x24>
  101999:	83 ea 61             	sub    edx,0x61
  10199c:	31 c0                	xor    eax,eax
  10199e:	83 fa 04             	cmp    edx,0x4
  1019a1:	0f 96 c0             	setbe  al
  1019a4:	f3 c3                	repz ret 
  1019a6:	8d 76 00             	lea    esi,[esi+0x0]
  1019a9:	8d bc 27 00 00 00 00 	lea    edi,[edi+eiz*1+0x0]

001019b0 <tolower>:
  1019b0:	8b 54 24 04          	mov    edx,DWORD PTR [esp+0x4]
  1019b4:	8d 4a bf             	lea    ecx,[edx-0x41]
  1019b7:	8d 42 20             	lea    eax,[edx+0x20]
  1019ba:	83 f9 1a             	cmp    ecx,0x1a
  1019bd:	0f 43 c2             	cmovae eax,edx
  1019c0:	c3                   	ret    
  1019c1:	eb 0d                	jmp    1019d0 <toupper>
  1019c3:	90                   	nop
  1019c4:	90                   	nop
  1019c5:	90                   	nop
  1019c6:	90                   	nop
  1019c7:	90                   	nop
  1019c8:	90                   	nop
  1019c9:	90                   	nop
  1019ca:	90                   	nop
  1019cb:	90                   	nop
  1019cc:	90                   	nop
  1019cd:	90                   	nop
  1019ce:	90                   	nop
  1019cf:	90                   	nop

001019d0 <toupper>:
  1019d0:	8b 54 24 04          	mov    edx,DWORD PTR [esp+0x4]
  1019d4:	8d 4a 9f             	lea    ecx,[edx-0x61]
  1019d7:	8d 42 e0             	lea    eax,[edx-0x20]
  1019da:	83 f9 1a             	cmp    ecx,0x1a
  1019dd:	0f 43 c2             	cmovae eax,edx
  1019e0:	c3                   	ret    
  1019e1:	66 90                	xchg   ax,ax
  1019e3:	66 90                	xchg   ax,ax
  1019e5:	66 90                	xchg   ax,ax
  1019e7:	66 90                	xchg   ax,ax
  1019e9:	66 90                	xchg   ax,ax
  1019eb:	66 90                	xchg   ax,ax
  1019ed:	66 90                	xchg   ax,ax
  1019ef:	90                   	nop

001019f0 <_ZN2os3sys5debug4initENS_3hal11serial_portE>:
  1019f0:	53                   	push   ebx
  1019f1:	83 ec 14             	sub    esp,0x14
  1019f4:	c6 05 20 d0 1c 00 01 	mov    BYTE PTR ds:0x1cd020,0x1
  1019fb:	c7 05 cc d0 1c 00 40 d0 1c 00 	mov    DWORD PTR ds:0x1cd0cc,0x1cd040
  101a05:	8b 5c 24 1c          	mov    ebx,DWORD PTR [esp+0x1c]
  101a09:	68 40 d0 1c 00       	push   0x1cd040
  101a0e:	e8 3d 8e 01 00       	call   11a850 <_ZN2os3hal17serial_controller4initEv>
  101a13:	58                   	pop    eax
  101a14:	5a                   	pop    edx
  101a15:	53                   	push   ebx
  101a16:	68 40 d0 1c 00       	push   0x1cd040
  101a1b:	e8 d0 8e 01 00       	call   11a8f0 <_ZN2os3hal17serial_controller5startENS0_11serial_portE>
  101a20:	66 89 1c 24          	mov    WORD PTR [esp],bx
  101a24:	e8 97 8d 01 00       	call   11a7c0 <_ZN2os3hal17serial_controller7portstrENS0_11serial_portE>
  101a29:	50                   	push   eax
  101a2a:	68 dd 9e 12 00       	push   0x129edd
  101a2f:	68 5c ab 12 00       	push   0x12ab5c
  101a34:	68 40 d0 1c 00       	push   0x1cd040
  101a39:	e8 22 8c 01 00       	call   11a660 <_ZN2os3hal17serial_controller9print_fmtEPcz>
  101a3e:	83 c4 28             	add    esp,0x28
  101a41:	5b                   	pop    ebx
  101a42:	c3                   	ret    
  101a43:	90                   	nop
  101a44:	8d b6 00 00 00 00    	lea    esi,[esi+0x0]
  101a4a:	8d bf 00 00 00 00    	lea    edi,[edi+0x0]

00101a50 <_ZN2os3sys5debug10print_regsEPNS_3hal15idt_registers_tE>:
  101a50:	57                   	push   edi
  101a51:	56                   	push   esi
  101a52:	53                   	push   ebx
  101a53:	8b 5c 24 10          	mov    ebx,DWORD PTR [esp+0x10]
  101a57:	85 db                	test   ebx,ebx
  101a59:	74 7f                	je     101ada <_ZN2os3sys5debug10print_regsEPNS_3hal15idt_registers_tE+0x8a>
  101a5b:	83 ec 0c             	sub    esp,0xc
  101a5e:	ff 73 14             	push   DWORD PTR [ebx+0x14]
  101a61:	ff 73 18             	push   DWORD PTR [ebx+0x18]
  101a64:	ff 73 10             	push   DWORD PTR [ebx+0x10]
  101a67:	ff 73 1c             	push   DWORD PTR [ebx+0x1c]
  101a6a:	68 80 ab 12 00       	push   0x12ab80
  101a6f:	e8 ec 91 01 00       	call   11ac60 <printf>
  101a74:	83 c4 14             	add    esp,0x14
  101a77:	ff 73 0c             	push   DWORD PTR [ebx+0xc]
  101a7a:	ff 73 08             	push   DWORD PTR [ebx+0x8]
  101a7d:	ff 33                	push   DWORD PTR [ebx]
  101a7f:	ff 73 04             	push   DWORD PTR [ebx+0x4]
  101a82:	68 b0 ab 12 00       	push   0x12abb0
  101a87:	e8 d4 91 01 00       	call   11ac60 <printf>
  101a8c:	83 c4 14             	add    esp,0x14
  101a8f:	ff 73 38             	push   DWORD PTR [ebx+0x38]
  101a92:	ff 73 2c             	push   DWORD PTR [ebx+0x2c]
  101a95:	ff 73 30             	push   DWORD PTR [ebx+0x30]
  101a98:	ff 73 28             	push   DWORD PTR [ebx+0x28]
  101a9b:	68 e0 ab 12 00       	push   0x12abe0
  101aa0:	e8 bb 91 01 00       	call   11ac60 <printf>
  101aa5:	83 c4 20             	add    esp,0x20
  101aa8:	e8 49 45 01 00       	call   115ff6 <_read_cr4>
  101aad:	89 c7                	mov    edi,eax
  101aaf:	e8 3e 45 01 00       	call   115ff2 <_read_cr3>
  101ab4:	89 c6                	mov    esi,eax
  101ab6:	e8 33 45 01 00       	call   115fee <_read_cr2>
  101abb:	89 c3                	mov    ebx,eax
  101abd:	e8 28 45 01 00       	call   115fea <_read_cr0>
  101ac2:	83 ec 0c             	sub    esp,0xc
  101ac5:	57                   	push   edi
  101ac6:	56                   	push   esi
  101ac7:	53                   	push   ebx
  101ac8:	50                   	push   eax
  101ac9:	68 10 ac 12 00       	push   0x12ac10
  101ace:	e8 8d 91 01 00       	call   11ac60 <printf>
  101ad3:	83 c4 20             	add    esp,0x20
  101ad6:	5b                   	pop    ebx
  101ad7:	5e                   	pop    esi
  101ad8:	5f                   	pop    edi
  101ad9:	c3                   	ret    
  101ada:	50                   	push   eax
  101adb:	50                   	push   eax
  101adc:	6a 00                	push   0x0
  101ade:	68 f0 db 13 00       	push   0x13dbf0
  101ae3:	e8 c8 41 02 00       	call   125cb0 <__ubsan_handle_type_mismatch>
  101ae8:	83 c4 10             	add    esp,0x10
  101aeb:	e9 6b ff ff ff       	jmp    101a5b <_ZN2os3sys5debug10print_regsEPNS_3hal15idt_registers_tE+0xb>

00101af0 <_ZN2os3sys5debug10print_regsEPNS_9threading13thread_regs_tE>:
  101af0:	57                   	push   edi
  101af1:	56                   	push   esi
  101af2:	53                   	push   ebx
  101af3:	8b 5c 24 10          	mov    ebx,DWORD PTR [esp+0x10]
  101af7:	85 db                	test   ebx,ebx
  101af9:	74 72                	je     101b6d <_ZN2os3sys5debug10print_regsEPNS_9threading13thread_regs_tE+0x7d>
  101afb:	83 ec 0c             	sub    esp,0xc
  101afe:	ff 73 14             	push   DWORD PTR [ebx+0x14]
  101b01:	ff 73 18             	push   DWORD PTR [ebx+0x18]
  101b04:	ff 73 10             	push   DWORD PTR [ebx+0x10]
  101b07:	ff 73 1c             	push   DWORD PTR [ebx+0x1c]
  101b0a:	68 80 ab 12 00       	push   0x12ab80
  101b0f:	e8 4c 91 01 00       	call   11ac60 <printf>
  101b14:	83 c4 14             	add    esp,0x14
  101b17:	ff 73 0c             	push   DWORD PTR [ebx+0xc]
  101b1a:	ff 73 08             	push   DWORD PTR [ebx+0x8]
  101b1d:	ff 33                	push   DWORD PTR [ebx]
  101b1f:	ff 73 04             	push   DWORD PTR [ebx+0x4]
  101b22:	68 b0 ab 12 00       	push   0x12abb0
  101b27:	e8 34 91 01 00       	call   11ac60 <printf>
  101b2c:	83 c4 18             	add    esp,0x18
  101b2f:	ff 73 20             	push   DWORD PTR [ebx+0x20]
  101b32:	68 40 ac 12 00       	push   0x12ac40
  101b37:	e8 24 91 01 00       	call   11ac60 <printf>
  101b3c:	e8 b5 44 01 00       	call   115ff6 <_read_cr4>
  101b41:	89 c7                	mov    edi,eax
  101b43:	e8 aa 44 01 00       	call   115ff2 <_read_cr3>
  101b48:	89 c6                	mov    esi,eax
  101b4a:	e8 9f 44 01 00       	call   115fee <_read_cr2>
  101b4f:	89 c3                	mov    ebx,eax
  101b51:	e8 94 44 01 00       	call   115fea <_read_cr0>
  101b56:	89 3c 24             	mov    DWORD PTR [esp],edi
  101b59:	56                   	push   esi
  101b5a:	53                   	push   ebx
  101b5b:	50                   	push   eax
  101b5c:	68 10 ac 12 00       	push   0x12ac10
  101b61:	e8 fa 90 01 00       	call   11ac60 <printf>
  101b66:	83 c4 20             	add    esp,0x20
  101b69:	5b                   	pop    ebx
  101b6a:	5e                   	pop    esi
  101b6b:	5f                   	pop    edi
  101b6c:	c3                   	ret    
  101b6d:	50                   	push   eax
  101b6e:	50                   	push   eax
  101b6f:	6a 00                	push   0x0
  101b71:	68 bc db 13 00       	push   0x13dbbc
  101b76:	e8 35 41 02 00       	call   125cb0 <__ubsan_handle_type_mismatch>
  101b7b:	83 c4 10             	add    esp,0x10
  101b7e:	e9 78 ff ff ff       	jmp    101afb <_ZN2os3sys5debug10print_regsEPNS_9threading13thread_regs_tE+0xb>
  101b83:	90                   	nop
  101b84:	8d b6 00 00 00 00    	lea    esi,[esi+0x0]
  101b8a:	8d bf 00 00 00 00    	lea    edi,[edi+0x0]

00101b90 <_ZN2os3sys5debug12draw_overlayEv>:
  101b90:	57                   	push   edi
  101b91:	56                   	push   esi
  101b92:	53                   	push   ebx
  101b93:	81 ec a4 00 00 00    	sub    esp,0xa4
  101b99:	6a 40                	push   0x40
  101b9b:	6a 00                	push   0x0
  101b9d:	8d 74 24 2c          	lea    esi,[esp+0x2c]
  101ba1:	56                   	push   esi
  101ba2:	e8 89 ad 01 00       	call   11c930 <memset>
  101ba7:	83 c4 0c             	add    esp,0xc
  101baa:	6a 40                	push   0x40
  101bac:	6a 00                	push   0x0
  101bae:	8d 5c 24 6c          	lea    ebx,[esp+0x6c]
  101bb2:	53                   	push   ebx
  101bb3:	e8 78 ad 01 00       	call   11c930 <memset>
  101bb8:	8d 44 24 26          	lea    eax,[esp+0x26]
  101bbc:	89 04 24             	mov    DWORD PTR [esp],eax
  101bbf:	e8 6c f0 01 00       	call   120c30 <_ZSt7timenowv>
  101bc4:	83 ec 0c             	sub    esp,0xc
  101bc7:	6a 01                	push   0x1
  101bc9:	6a 01                	push   0x1
  101bcb:	56                   	push   esi
  101bcc:	83 ec 0c             	sub    esp,0xc
  101bcf:	8b 44 24 46          	mov    eax,DWORD PTR [esp+0x46]
  101bd3:	89 04 24             	mov    DWORD PTR [esp],eax
  101bd6:	8b 44 24 4a          	mov    eax,DWORD PTR [esp+0x4a]
  101bda:	89 44 24 04          	mov    DWORD PTR [esp+0x4],eax
  101bde:	0f b7 44 24 4e       	movzx  eax,WORD PTR [esp+0x4e]
  101be3:	66 89 44 24 08       	mov    WORD PTR [esp+0x8],ax
  101be8:	e8 d3 f0 01 00       	call   120cc0 <_ZSt7timestrSt6time_tPcSt11time_formatb>
  101bed:	83 c4 28             	add    esp,0x28
  101bf0:	68 75 9f 12 00       	push   0x129f75
  101bf5:	53                   	push   ebx
  101bf6:	e8 a5 ad 01 00       	call   11c9a0 <strcat>
  101bfb:	5f                   	pop    edi
  101bfc:	58                   	pop    eax
  101bfd:	56                   	push   esi
  101bfe:	53                   	push   ebx
  101bff:	e8 9c ad 01 00       	call   11c9a0 <strcat>
  101c04:	8b 3d 5c 04 1d 00    	mov    edi,DWORD PTR ds:0x1d045c
  101c0a:	83 c4 10             	add    esp,0x10
  101c0d:	85 ff                	test   edi,edi
  101c0f:	0f 84 8b 06 00 00    	je     1022a0 <_ZN2os3sys5debug12draw_overlayEv+0x710>
  101c15:	f7 c7 03 00 00 00    	test   edi,0x3
  101c1b:	0f 85 7f 06 00 00    	jne    1022a0 <_ZN2os3sys5debug12draw_overlayEv+0x710>
  101c21:	68 00 00 00 ff       	push   0xff000000
  101c26:	68 00 ff 00 ff       	push   0xff00ff00
  101c2b:	ff 35 ec d0 1c 00    	push   DWORD PTR ds:0x1cd0ec
  101c31:	ff 35 e8 d0 1c 00    	push   DWORD PTR ds:0x1cd0e8
  101c37:	53                   	push   ebx
  101c38:	6a 00                	push   0x0
  101c3a:	6a 00                	push   0x0
  101c3c:	57                   	push   edi
  101c3d:	e8 4e 53 02 00       	call   126f90 <_ZN2os3hal14vbe_controller6putstrEiiPcNSt3gfx7bitfontEjj>
  101c42:	83 c4 1c             	add    esp,0x1c
  101c45:	6a 40                	push   0x40
  101c47:	6a 00                	push   0x0
  101c49:	56                   	push   esi
  101c4a:	e8 e1 ac 01 00       	call   11c930 <memset>
  101c4f:	83 c4 0c             	add    esp,0xc
  101c52:	6a 40                	push   0x40
  101c54:	6a 00                	push   0x0
  101c56:	53                   	push   ebx
  101c57:	e8 d4 ac 01 00       	call   11c930 <memset>
  101c5c:	58                   	pop    eax
  101c5d:	5a                   	pop    edx
  101c5e:	68 82 9f 12 00       	push   0x129f82
  101c63:	53                   	push   ebx
  101c64:	e8 37 ad 01 00       	call   11c9a0 <strcat>
  101c69:	e8 12 39 01 00       	call   115580 <_ZN2os3hal3pit7secondsEv>
  101c6e:	83 c4 0c             	add    esp,0xc
  101c71:	6a 0a                	push   0xa
  101c73:	56                   	push   esi
  101c74:	50                   	push   eax
  101c75:	e8 66 9d 01 00       	call   11b9e0 <ltoa>
  101c7a:	59                   	pop    ecx
  101c7b:	5f                   	pop    edi
  101c7c:	50                   	push   eax
  101c7d:	53                   	push   ebx
  101c7e:	e8 1d ad 01 00       	call   11c9a0 <strcat>
  101c83:	58                   	pop    eax
  101c84:	5a                   	pop    edx
  101c85:	68 c9 a0 12 00       	push   0x12a0c9
  101c8a:	53                   	push   ebx
  101c8b:	e8 10 ad 01 00       	call   11c9a0 <strcat>
  101c90:	8b 3d 5c 04 1d 00    	mov    edi,DWORD PTR ds:0x1d045c
  101c96:	83 c4 10             	add    esp,0x10
  101c99:	85 ff                	test   edi,edi
  101c9b:	0f 84 ea 05 00 00    	je     10228b <_ZN2os3sys5debug12draw_overlayEv+0x6fb>
  101ca1:	f7 c7 03 00 00 00    	test   edi,0x3
  101ca7:	0f 85 de 05 00 00    	jne    10228b <_ZN2os3sys5debug12draw_overlayEv+0x6fb>
  101cad:	68 00 00 00 ff       	push   0xff000000
  101cb2:	68 00 ff 00 ff       	push   0xff00ff00
  101cb7:	ff 35 ec d0 1c 00    	push   DWORD PTR ds:0x1cd0ec
  101cbd:	ff 35 e8 d0 1c 00    	push   DWORD PTR ds:0x1cd0e8
  101cc3:	53                   	push   ebx
  101cc4:	6a 0f                	push   0xf
  101cc6:	6a 00                	push   0x0
  101cc8:	57                   	push   edi
  101cc9:	e8 c2 52 02 00       	call   126f90 <_ZN2os3hal14vbe_controller6putstrEiiPcNSt3gfx7bitfontEjj>
  101cce:	83 c4 1c             	add    esp,0x1c
  101cd1:	6a 40                	push   0x40
  101cd3:	6a 00                	push   0x0
  101cd5:	56                   	push   esi
  101cd6:	e8 55 ac 01 00       	call   11c930 <memset>
  101cdb:	83 c4 0c             	add    esp,0xc
  101cde:	6a 40                	push   0x40
  101ce0:	6a 00                	push   0x0
  101ce2:	53                   	push   ebx
  101ce3:	e8 48 ac 01 00       	call   11c930 <memset>
  101ce8:	58                   	pop    eax
  101ce9:	5a                   	pop    edx
  101cea:	68 8f 9f 12 00       	push   0x129f8f
  101cef:	53                   	push   ebx
  101cf0:	e8 ab ac 01 00       	call   11c9a0 <strcat>
  101cf5:	59                   	pop    ecx
  101cf6:	5f                   	pop    edi
  101cf7:	68 9c 9f 12 00       	push   0x129f9c
  101cfc:	53                   	push   ebx
  101cfd:	e8 9e ac 01 00       	call   11c9a0 <strcat>
  101d02:	e8 19 68 01 00       	call   118520 <_ZN2os9threading9scheduler7threadsEv>
  101d07:	83 c4 10             	add    esp,0x10
  101d0a:	85 c0                	test   eax,eax
  101d0c:	0f 84 5c 05 00 00    	je     10226e <_ZN2os3sys5debug12draw_overlayEv+0x6de>
  101d12:	a8 03                	test   al,0x3
  101d14:	0f 85 54 05 00 00    	jne    10226e <_ZN2os3sys5debug12draw_overlayEv+0x6de>
  101d1a:	85 c0                	test   eax,eax
  101d1c:	0f 84 2f 05 00 00    	je     102251 <_ZN2os3sys5debug12draw_overlayEv+0x6c1>
  101d22:	a8 03                	test   al,0x3
  101d24:	0f 85 27 05 00 00    	jne    102251 <_ZN2os3sys5debug12draw_overlayEv+0x6c1>
  101d2a:	83 ec 04             	sub    esp,0x4
  101d2d:	6a 0a                	push   0xa
  101d2f:	56                   	push   esi
  101d30:	ff 70 04             	push   DWORD PTR [eax+0x4]
  101d33:	e8 a8 9c 01 00       	call   11b9e0 <ltoa>
  101d38:	5f                   	pop    edi
  101d39:	5a                   	pop    edx
  101d3a:	50                   	push   eax
  101d3b:	53                   	push   ebx
  101d3c:	e8 5f ac 01 00       	call   11c9a0 <strcat>
  101d41:	8b 3d 5c 04 1d 00    	mov    edi,DWORD PTR ds:0x1d045c
  101d47:	83 c4 10             	add    esp,0x10
  101d4a:	85 ff                	test   edi,edi
  101d4c:	0f 84 ea 04 00 00    	je     10223c <_ZN2os3sys5debug12draw_overlayEv+0x6ac>
  101d52:	f7 c7 03 00 00 00    	test   edi,0x3
  101d58:	0f 85 de 04 00 00    	jne    10223c <_ZN2os3sys5debug12draw_overlayEv+0x6ac>
  101d5e:	68 00 00 00 ff       	push   0xff000000
  101d63:	68 00 ff 00 ff       	push   0xff00ff00
  101d68:	ff 35 ec d0 1c 00    	push   DWORD PTR ds:0x1cd0ec
  101d6e:	ff 35 e8 d0 1c 00    	push   DWORD PTR ds:0x1cd0e8
  101d74:	53                   	push   ebx
  101d75:	6a 1e                	push   0x1e
  101d77:	6a 00                	push   0x0
  101d79:	57                   	push   edi
  101d7a:	e8 11 52 02 00       	call   126f90 <_ZN2os3hal14vbe_controller6putstrEiiPcNSt3gfx7bitfontEjj>
  101d7f:	83 c4 1c             	add    esp,0x1c
  101d82:	6a 40                	push   0x40
  101d84:	6a 00                	push   0x0
  101d86:	56                   	push   esi
  101d87:	e8 a4 ab 01 00       	call   11c930 <memset>
  101d8c:	83 c4 0c             	add    esp,0xc
  101d8f:	6a 40                	push   0x40
  101d91:	6a 00                	push   0x0
  101d93:	53                   	push   ebx
  101d94:	e8 97 ab 01 00       	call   11c930 <memset>
  101d99:	58                   	pop    eax
  101d9a:	5a                   	pop    edx
  101d9b:	68 9c 9f 12 00       	push   0x129f9c
  101da0:	53                   	push   ebx
  101da1:	e8 fa ab 01 00       	call   11c9a0 <strcat>
  101da6:	c7 04 24 24 df 1c 00 	mov    DWORD PTR [esp],0x1cdf24
  101dad:	e8 1e 4d 00 00       	call   106ad0 <_ZN2os11memory_heap9calc_usedEv>
  101db2:	89 c7                	mov    edi,eax
  101db4:	c7 04 24 40 df 1c 00 	mov    DWORD PTR [esp],0x1cdf40
  101dbb:	e8 10 4d 00 00       	call   106ad0 <_ZN2os11memory_heap9calc_usedEv>
  101dc0:	01 c7                	add    edi,eax
  101dc2:	83 c4 0c             	add    esp,0xc
  101dc5:	c1 ef 0a             	shr    edi,0xa
  101dc8:	6a 0a                	push   0xa
  101dca:	56                   	push   esi
  101dcb:	57                   	push   edi
  101dcc:	e8 0f 9c 01 00       	call   11b9e0 <ltoa>
  101dd1:	59                   	pop    ecx
  101dd2:	5f                   	pop    edi
  101dd3:	50                   	push   eax
  101dd4:	53                   	push   ebx
  101dd5:	e8 c6 ab 01 00       	call   11c9a0 <strcat>
  101dda:	58                   	pop    eax
  101ddb:	5a                   	pop    edx
  101ddc:	68 a9 9f 12 00       	push   0x129fa9
  101de1:	53                   	push   ebx
  101de2:	e8 b9 ab 01 00       	call   11c9a0 <strcat>
  101de7:	83 c4 0c             	add    esp,0xc
  101dea:	6a 40                	push   0x40
  101dec:	6a 00                	push   0x0
  101dee:	56                   	push   esi
  101def:	e8 3c ab 01 00       	call   11c930 <memset>
  101df4:	c7 04 24 24 df 1c 00 	mov    DWORD PTR [esp],0x1cdf24
  101dfb:	e8 20 51 00 00       	call   106f20 <_ZN2os11memory_heap9data_sizeEv>
  101e00:	89 c7                	mov    edi,eax
  101e02:	c7 04 24 40 df 1c 00 	mov    DWORD PTR [esp],0x1cdf40
  101e09:	e8 12 51 00 00       	call   106f20 <_ZN2os11memory_heap9data_sizeEv>
  101e0e:	01 c7                	add    edi,eax
  101e10:	83 c4 0c             	add    esp,0xc
  101e13:	c1 ef 0a             	shr    edi,0xa
  101e16:	6a 0a                	push   0xa
  101e18:	56                   	push   esi
  101e19:	57                   	push   edi
  101e1a:	e8 c1 9b 01 00       	call   11b9e0 <ltoa>
  101e1f:	59                   	pop    ecx
  101e20:	5f                   	pop    edi
  101e21:	50                   	push   eax
  101e22:	53                   	push   ebx
  101e23:	e8 78 ab 01 00       	call   11c9a0 <strcat>
  101e28:	58                   	pop    eax
  101e29:	5a                   	pop    edx
  101e2a:	68 ab 9f 12 00       	push   0x129fab
  101e2f:	53                   	push   ebx
  101e30:	e8 6b ab 01 00       	call   11c9a0 <strcat>
  101e35:	8b 3d 5c 04 1d 00    	mov    edi,DWORD PTR ds:0x1d045c
  101e3b:	83 c4 10             	add    esp,0x10
  101e3e:	85 ff                	test   edi,edi
  101e40:	0f 84 e1 03 00 00    	je     102227 <_ZN2os3sys5debug12draw_overlayEv+0x697>
  101e46:	f7 c7 03 00 00 00    	test   edi,0x3
  101e4c:	0f 85 d5 03 00 00    	jne    102227 <_ZN2os3sys5debug12draw_overlayEv+0x697>
  101e52:	68 00 00 00 ff       	push   0xff000000
  101e57:	68 00 ff 00 ff       	push   0xff00ff00
  101e5c:	ff 35 ec d0 1c 00    	push   DWORD PTR ds:0x1cd0ec
  101e62:	ff 35 e8 d0 1c 00    	push   DWORD PTR ds:0x1cd0e8
  101e68:	53                   	push   ebx
  101e69:	6a 2d                	push   0x2d
  101e6b:	6a 00                	push   0x0
  101e6d:	57                   	push   edi
  101e6e:	e8 1d 51 02 00       	call   126f90 <_ZN2os3hal14vbe_controller6putstrEiiPcNSt3gfx7bitfontEjj>
  101e73:	8b 3d 5c 04 1d 00    	mov    edi,DWORD PTR ds:0x1d045c
  101e79:	83 c4 20             	add    esp,0x20
  101e7c:	85 ff                	test   edi,edi
  101e7e:	0f 84 8e 03 00 00    	je     102212 <_ZN2os3sys5debug12draw_overlayEv+0x682>
  101e84:	f7 c7 03 00 00 00    	test   edi,0x3
  101e8a:	0f 85 82 03 00 00    	jne    102212 <_ZN2os3sys5debug12draw_overlayEv+0x682>
  101e90:	68 00 00 00 ff       	push   0xff000000
  101e95:	68 00 ff 00 ff       	push   0xff00ff00
  101e9a:	ff 35 ec d0 1c 00    	push   DWORD PTR ds:0x1cd0ec
  101ea0:	ff 35 e8 d0 1c 00    	push   DWORD PTR ds:0x1cd0e8
  101ea6:	68 af 9f 12 00       	push   0x129faf
  101eab:	6a 3c                	push   0x3c
  101ead:	6a 00                	push   0x0
  101eaf:	57                   	push   edi
  101eb0:	e8 db 50 02 00       	call   126f90 <_ZN2os3hal14vbe_controller6putstrEiiPcNSt3gfx7bitfontEjj>
  101eb5:	83 c4 1c             	add    esp,0x1c
  101eb8:	6a 40                	push   0x40
  101eba:	6a 00                	push   0x0
  101ebc:	56                   	push   esi
  101ebd:	e8 6e aa 01 00       	call   11c930 <memset>
  101ec2:	83 c4 0c             	add    esp,0xc
  101ec5:	6a 40                	push   0x40
  101ec7:	6a 00                	push   0x0
  101ec9:	53                   	push   ebx
  101eca:	e8 61 aa 01 00       	call   11c930 <memset>
  101ecf:	58                   	pop    eax
  101ed0:	5a                   	pop    edx
  101ed1:	68 bc 9f 12 00       	push   0x129fbc
  101ed6:	53                   	push   ebx
  101ed7:	e8 c4 aa 01 00       	call   11c9a0 <strcat>
  101edc:	8b 3d 20 df 1c 00    	mov    edi,DWORD PTR ds:0x1cdf20
  101ee2:	83 c4 10             	add    esp,0x10
  101ee5:	85 ff                	test   edi,edi
  101ee7:	0f 84 10 03 00 00    	je     1021fd <_ZN2os3sys5debug12draw_overlayEv+0x66d>
  101eed:	f7 c7 03 00 00 00    	test   edi,0x3
  101ef3:	0f 85 04 03 00 00    	jne    1021fd <_ZN2os3sys5debug12draw_overlayEv+0x66d>
  101ef9:	0f b6 47 50          	movzx  eax,BYTE PTR [edi+0x50]
  101efd:	3c 09                	cmp    al,0x9
  101eff:	0f 86 4b 02 00 00    	jbe    102150 <_ZN2os3sys5debug12draw_overlayEv+0x5c0>
  101f05:	85 ff                	test   edi,edi
  101f07:	0f 84 75 02 00 00    	je     102182 <_ZN2os3sys5debug12draw_overlayEv+0x5f2>
  101f0d:	f7 c7 03 00 00 00    	test   edi,0x3
  101f13:	0f 85 69 02 00 00    	jne    102182 <_ZN2os3sys5debug12draw_overlayEv+0x5f2>
  101f19:	83 ec 04             	sub    esp,0x4
  101f1c:	6a 0a                	push   0xa
  101f1e:	56                   	push   esi
  101f1f:	50                   	push   eax
  101f20:	e8 bb 9a 01 00       	call   11b9e0 <ltoa>
  101f25:	5a                   	pop    edx
  101f26:	59                   	pop    ecx
  101f27:	50                   	push   eax
  101f28:	53                   	push   ebx
  101f29:	e8 72 aa 01 00       	call   11c9a0 <strcat>
  101f2e:	5f                   	pop    edi
  101f2f:	58                   	pop    eax
  101f30:	68 c2 9f 12 00       	push   0x129fc2
  101f35:	53                   	push   ebx
  101f36:	e8 65 aa 01 00       	call   11c9a0 <strcat>
  101f3b:	83 c4 0c             	add    esp,0xc
  101f3e:	6a 40                	push   0x40
  101f40:	6a 00                	push   0x0
  101f42:	56                   	push   esi
  101f43:	e8 e8 a9 01 00       	call   11c930 <memset>
  101f48:	58                   	pop    eax
  101f49:	5a                   	pop    edx
  101f4a:	ff 35 20 df 1c 00    	push   DWORD PTR ds:0x1cdf20
  101f50:	68 24 df 1c 00       	push   0x1cdf24
  101f55:	e8 16 4d 00 00       	call   106c70 <_ZN2os11memory_heap9calc_usedEPNS_9threading8thread_tE>
  101f5a:	59                   	pop    ecx
  101f5b:	89 c7                	mov    edi,eax
  101f5d:	58                   	pop    eax
  101f5e:	ff 35 20 df 1c 00    	push   DWORD PTR ds:0x1cdf20
  101f64:	68 40 df 1c 00       	push   0x1cdf40
  101f69:	e8 02 4d 00 00       	call   106c70 <_ZN2os11memory_heap9calc_usedEPNS_9threading8thread_tE>
  101f6e:	83 c4 0c             	add    esp,0xc
  101f71:	01 c7                	add    edi,eax
  101f73:	6a 0a                	push   0xa
  101f75:	56                   	push   esi
  101f76:	57                   	push   edi
  101f77:	e8 64 9a 01 00       	call   11b9e0 <ltoa>
  101f7c:	5a                   	pop    edx
  101f7d:	59                   	pop    ecx
  101f7e:	50                   	push   eax
  101f7f:	53                   	push   ebx
  101f80:	e8 1b aa 01 00       	call   11c9a0 <strcat>
  101f85:	5f                   	pop    edi
  101f86:	58                   	pop    eax
  101f87:	68 c4 a0 12 00       	push   0x12a0c4
  101f8c:	53                   	push   ebx
  101f8d:	e8 0e aa 01 00       	call   11c9a0 <strcat>
  101f92:	8b 3d 5c 04 1d 00    	mov    edi,DWORD PTR ds:0x1d045c
  101f98:	83 c4 10             	add    esp,0x10
  101f9b:	85 ff                	test   edi,edi
  101f9d:	0f 84 12 02 00 00    	je     1021b5 <_ZN2os3sys5debug12draw_overlayEv+0x625>
  101fa3:	f7 c7 03 00 00 00    	test   edi,0x3
  101fa9:	0f 85 06 02 00 00    	jne    1021b5 <_ZN2os3sys5debug12draw_overlayEv+0x625>
  101faf:	68 00 00 00 ff       	push   0xff000000
  101fb4:	68 00 ff 00 ff       	push   0xff00ff00
  101fb9:	ff 35 ec d0 1c 00    	push   DWORD PTR ds:0x1cd0ec
  101fbf:	ff 35 e8 d0 1c 00    	push   DWORD PTR ds:0x1cd0e8
  101fc5:	53                   	push   ebx
  101fc6:	6a 3c                	push   0x3c
  101fc8:	6a 6c                	push   0x6c
  101fca:	57                   	push   edi
  101fcb:	e8 c0 4f 02 00       	call   126f90 <_ZN2os3hal14vbe_controller6putstrEiiPcNSt3gfx7bitfontEjj>
  101fd0:	8b 3d 5c 04 1d 00    	mov    edi,DWORD PTR ds:0x1d045c
  101fd6:	83 c4 20             	add    esp,0x20
  101fd9:	85 ff                	test   edi,edi
  101fdb:	0f 84 bf 01 00 00    	je     1021a0 <_ZN2os3sys5debug12draw_overlayEv+0x610>
  101fe1:	f7 c7 03 00 00 00    	test   edi,0x3
  101fe7:	0f 85 b3 01 00 00    	jne    1021a0 <_ZN2os3sys5debug12draw_overlayEv+0x610>
  101fed:	68 00 00 00 ff       	push   0xff000000
  101ff2:	68 00 ff 00 ff       	push   0xff00ff00
  101ff7:	ff 35 ec d0 1c 00    	push   DWORD PTR ds:0x1cd0ec
  101ffd:	ff 35 e8 d0 1c 00    	push   DWORD PTR ds:0x1cd0e8
  102003:	68 ca 9f 12 00       	push   0x129fca
  102008:	6a 4b                	push   0x4b
  10200a:	6a 00                	push   0x0
  10200c:	57                   	push   edi
  10200d:	e8 7e 4f 02 00       	call   126f90 <_ZN2os3hal14vbe_controller6putstrEiiPcNSt3gfx7bitfontEjj>
  102012:	83 c4 1c             	add    esp,0x1c
  102015:	6a 40                	push   0x40
  102017:	6a 00                	push   0x0
  102019:	56                   	push   esi
  10201a:	e8 11 a9 01 00       	call   11c930 <memset>
  10201f:	83 c4 0c             	add    esp,0xc
  102022:	6a 40                	push   0x40
  102024:	6a 00                	push   0x0
  102026:	53                   	push   ebx
  102027:	e8 04 a9 01 00       	call   11c930 <memset>
  10202c:	58                   	pop    eax
  10202d:	5a                   	pop    edx
  10202e:	68 bc 9f 12 00       	push   0x129fbc
  102033:	53                   	push   ebx
  102034:	e8 67 a9 01 00       	call   11c9a0 <strcat>
  102039:	8b 3d f4 d0 1c 00    	mov    edi,DWORD PTR ds:0x1cd0f4
  10203f:	83 c4 10             	add    esp,0x10
  102042:	85 ff                	test   edi,edi
  102044:	0f 84 23 01 00 00    	je     10216d <_ZN2os3sys5debug12draw_overlayEv+0x5dd>
  10204a:	f7 c7 03 00 00 00    	test   edi,0x3
  102050:	0f 85 17 01 00 00    	jne    10216d <_ZN2os3sys5debug12draw_overlayEv+0x5dd>
  102056:	0f b6 47 50          	movzx  eax,BYTE PTR [edi+0x50]
  10205a:	3c 09                	cmp    al,0x9
  10205c:	77 18                	ja     102076 <_ZN2os3sys5debug12draw_overlayEv+0x4e6>
  10205e:	83 ec 08             	sub    esp,0x8
  102061:	6a 30                	push   0x30
  102063:	53                   	push   ebx
  102064:	e8 b7 ae 01 00       	call   11cf20 <stradd>
  102069:	8b 3d f4 d0 1c 00    	mov    edi,DWORD PTR ds:0x1cd0f4
  10206f:	83 c4 10             	add    esp,0x10
  102072:	0f b6 47 50          	movzx  eax,BYTE PTR [edi+0x50]
  102076:	85 ff                	test   edi,edi
  102078:	0f 84 61 01 00 00    	je     1021df <_ZN2os3sys5debug12draw_overlayEv+0x64f>
  10207e:	f7 c7 03 00 00 00    	test   edi,0x3
  102084:	0f 85 55 01 00 00    	jne    1021df <_ZN2os3sys5debug12draw_overlayEv+0x64f>
  10208a:	83 ec 04             	sub    esp,0x4
  10208d:	6a 0a                	push   0xa
  10208f:	56                   	push   esi
  102090:	50                   	push   eax
  102091:	e8 4a 99 01 00       	call   11b9e0 <ltoa>
  102096:	5a                   	pop    edx
  102097:	59                   	pop    ecx
  102098:	50                   	push   eax
  102099:	53                   	push   ebx
  10209a:	e8 01 a9 01 00       	call   11c9a0 <strcat>
  10209f:	5f                   	pop    edi
  1020a0:	58                   	pop    eax
  1020a1:	68 c2 9f 12 00       	push   0x129fc2
  1020a6:	53                   	push   ebx
  1020a7:	e8 f4 a8 01 00       	call   11c9a0 <strcat>
  1020ac:	83 c4 0c             	add    esp,0xc
  1020af:	6a 40                	push   0x40
  1020b1:	6a 00                	push   0x0
  1020b3:	56                   	push   esi
  1020b4:	e8 77 a8 01 00       	call   11c930 <memset>
  1020b9:	58                   	pop    eax
  1020ba:	5a                   	pop    edx
  1020bb:	ff 35 f4 d0 1c 00    	push   DWORD PTR ds:0x1cd0f4
  1020c1:	68 24 df 1c 00       	push   0x1cdf24
  1020c6:	e8 a5 4b 00 00       	call   106c70 <_ZN2os11memory_heap9calc_usedEPNS_9threading8thread_tE>
  1020cb:	59                   	pop    ecx
  1020cc:	89 c7                	mov    edi,eax
  1020ce:	58                   	pop    eax
  1020cf:	ff 35 f4 d0 1c 00    	push   DWORD PTR ds:0x1cd0f4
  1020d5:	68 40 df 1c 00       	push   0x1cdf40
  1020da:	e8 91 4b 00 00       	call   106c70 <_ZN2os11memory_heap9calc_usedEPNS_9threading8thread_tE>
  1020df:	83 c4 0c             	add    esp,0xc
  1020e2:	01 c7                	add    edi,eax
  1020e4:	6a 0a                	push   0xa
  1020e6:	56                   	push   esi
  1020e7:	57                   	push   edi
  1020e8:	e8 f3 98 01 00       	call   11b9e0 <ltoa>
  1020ed:	5a                   	pop    edx
  1020ee:	59                   	pop    ecx
  1020ef:	50                   	push   eax
  1020f0:	53                   	push   ebx
  1020f1:	e8 aa a8 01 00       	call   11c9a0 <strcat>
  1020f6:	5e                   	pop    esi
  1020f7:	5f                   	pop    edi
  1020f8:	68 c4 a0 12 00       	push   0x12a0c4
  1020fd:	53                   	push   ebx
  1020fe:	e8 9d a8 01 00       	call   11c9a0 <strcat>
  102103:	8b 35 5c 04 1d 00    	mov    esi,DWORD PTR ds:0x1d045c
  102109:	83 c4 10             	add    esp,0x10
  10210c:	85 f6                	test   esi,esi
  10210e:	0f 84 b6 00 00 00    	je     1021ca <_ZN2os3sys5debug12draw_overlayEv+0x63a>
  102114:	f7 c6 03 00 00 00    	test   esi,0x3
  10211a:	0f 85 aa 00 00 00    	jne    1021ca <_ZN2os3sys5debug12draw_overlayEv+0x63a>
  102120:	68 00 00 00 ff       	push   0xff000000
  102125:	68 00 ff 00 ff       	push   0xff00ff00
  10212a:	ff 35 ec d0 1c 00    	push   DWORD PTR ds:0x1cd0ec
  102130:	ff 35 e8 d0 1c 00    	push   DWORD PTR ds:0x1cd0e8
  102136:	53                   	push   ebx
  102137:	6a 4b                	push   0x4b
  102139:	6a 6c                	push   0x6c
  10213b:	56                   	push   esi
  10213c:	e8 4f 4e 02 00       	call   126f90 <_ZN2os3hal14vbe_controller6putstrEiiPcNSt3gfx7bitfontEjj>
  102141:	81 c4 c0 00 00 00    	add    esp,0xc0
  102147:	5b                   	pop    ebx
  102148:	5e                   	pop    esi
  102149:	5f                   	pop    edi
  10214a:	c3                   	ret    
  10214b:	90                   	nop
  10214c:	8d 74 26 00          	lea    esi,[esi+eiz*1+0x0]
  102150:	83 ec 08             	sub    esp,0x8
  102153:	6a 30                	push   0x30
  102155:	53                   	push   ebx
  102156:	e8 c5 ad 01 00       	call   11cf20 <stradd>
  10215b:	8b 3d 20 df 1c 00    	mov    edi,DWORD PTR ds:0x1cdf20
  102161:	83 c4 10             	add    esp,0x10
  102164:	0f b6 47 50          	movzx  eax,BYTE PTR [edi+0x50]
  102168:	e9 98 fd ff ff       	jmp    101f05 <_ZN2os3sys5debug12draw_overlayEv+0x375>
  10216d:	50                   	push   eax
  10216e:	50                   	push   eax
  10216f:	57                   	push   edi
  102170:	68 50 da 13 00       	push   0x13da50
  102175:	e8 36 3b 02 00       	call   125cb0 <__ubsan_handle_type_mismatch>
  10217a:	83 c4 10             	add    esp,0x10
  10217d:	e9 d4 fe ff ff       	jmp    102056 <_ZN2os3sys5debug12draw_overlayEv+0x4c6>
  102182:	88 44 24 0c          	mov    BYTE PTR [esp+0xc],al
  102186:	50                   	push   eax
  102187:	50                   	push   eax
  102188:	57                   	push   edi
  102189:	68 98 da 13 00       	push   0x13da98
  10218e:	e8 1d 3b 02 00       	call   125cb0 <__ubsan_handle_type_mismatch>
  102193:	83 c4 10             	add    esp,0x10
  102196:	0f b6 44 24 0c       	movzx  eax,BYTE PTR [esp+0xc]
  10219b:	e9 79 fd ff ff       	jmp    101f19 <_ZN2os3sys5debug12draw_overlayEv+0x389>
  1021a0:	51                   	push   ecx
  1021a1:	51                   	push   ecx
  1021a2:	57                   	push   edi
  1021a3:	68 68 da 13 00       	push   0x13da68
  1021a8:	e8 03 3b 02 00       	call   125cb0 <__ubsan_handle_type_mismatch>
  1021ad:	83 c4 10             	add    esp,0x10
  1021b0:	e9 38 fe ff ff       	jmp    101fed <_ZN2os3sys5debug12draw_overlayEv+0x45d>
  1021b5:	50                   	push   eax
  1021b6:	50                   	push   eax
  1021b7:	57                   	push   edi
  1021b8:	68 80 da 13 00       	push   0x13da80
  1021bd:	e8 ee 3a 02 00       	call   125cb0 <__ubsan_handle_type_mismatch>
  1021c2:	83 c4 10             	add    esp,0x10
  1021c5:	e9 e5 fd ff ff       	jmp    101faf <_ZN2os3sys5debug12draw_overlayEv+0x41f>
  1021ca:	50                   	push   eax
  1021cb:	50                   	push   eax
  1021cc:	56                   	push   esi
  1021cd:	68 20 da 13 00       	push   0x13da20
  1021d2:	e8 d9 3a 02 00       	call   125cb0 <__ubsan_handle_type_mismatch>
  1021d7:	83 c4 10             	add    esp,0x10
  1021da:	e9 41 ff ff ff       	jmp    102120 <_ZN2os3sys5debug12draw_overlayEv+0x590>
  1021df:	88 44 24 0c          	mov    BYTE PTR [esp+0xc],al
  1021e3:	50                   	push   eax
  1021e4:	50                   	push   eax
  1021e5:	57                   	push   edi
  1021e6:	68 38 da 13 00       	push   0x13da38
  1021eb:	e8 c0 3a 02 00       	call   125cb0 <__ubsan_handle_type_mismatch>
  1021f0:	83 c4 10             	add    esp,0x10
  1021f3:	0f b6 44 24 0c       	movzx  eax,BYTE PTR [esp+0xc]
  1021f8:	e9 8d fe ff ff       	jmp    10208a <_ZN2os3sys5debug12draw_overlayEv+0x4fa>
  1021fd:	50                   	push   eax
  1021fe:	50                   	push   eax
  1021ff:	57                   	push   edi
  102200:	68 b0 da 13 00       	push   0x13dab0
  102205:	e8 a6 3a 02 00       	call   125cb0 <__ubsan_handle_type_mismatch>
  10220a:	83 c4 10             	add    esp,0x10
  10220d:	e9 e7 fc ff ff       	jmp    101ef9 <_ZN2os3sys5debug12draw_overlayEv+0x369>
  102212:	51                   	push   ecx
  102213:	51                   	push   ecx
  102214:	57                   	push   edi
  102215:	68 e0 da 13 00       	push   0x13dae0
  10221a:	e8 91 3a 02 00       	call   125cb0 <__ubsan_handle_type_mismatch>
  10221f:	83 c4 10             	add    esp,0x10
  102222:	e9 69 fc ff ff       	jmp    101e90 <_ZN2os3sys5debug12draw_overlayEv+0x300>
  102227:	50                   	push   eax
  102228:	50                   	push   eax
  102229:	57                   	push   edi
  10222a:	68 f8 da 13 00       	push   0x13daf8
  10222f:	e8 7c 3a 02 00       	call   125cb0 <__ubsan_handle_type_mismatch>
  102234:	83 c4 10             	add    esp,0x10
  102237:	e9 16 fc ff ff       	jmp    101e52 <_ZN2os3sys5debug12draw_overlayEv+0x2c2>
  10223c:	51                   	push   ecx
  10223d:	51                   	push   ecx
  10223e:	57                   	push   edi
  10223f:	68 10 db 13 00       	push   0x13db10
  102244:	e8 67 3a 02 00       	call   125cb0 <__ubsan_handle_type_mismatch>
  102249:	83 c4 10             	add    esp,0x10
  10224c:	e9 0d fb ff ff       	jmp    101d5e <_ZN2os3sys5debug12draw_overlayEv+0x1ce>
  102251:	51                   	push   ecx
  102252:	51                   	push   ecx
  102253:	50                   	push   eax
  102254:	89 44 24 18          	mov    DWORD PTR [esp+0x18],eax
  102258:	68 28 db 13 00       	push   0x13db28
  10225d:	e8 4e 3a 02 00       	call   125cb0 <__ubsan_handle_type_mismatch>
  102262:	83 c4 10             	add    esp,0x10
  102265:	8b 44 24 0c          	mov    eax,DWORD PTR [esp+0xc]
  102269:	e9 bc fa ff ff       	jmp    101d2a <_ZN2os3sys5debug12draw_overlayEv+0x19a>
  10226e:	57                   	push   edi
  10226f:	57                   	push   edi
  102270:	50                   	push   eax
  102271:	89 44 24 18          	mov    DWORD PTR [esp+0x18],eax
  102275:	68 40 db 13 00       	push   0x13db40
  10227a:	e8 31 3a 02 00       	call   125cb0 <__ubsan_handle_type_mismatch>
  10227f:	83 c4 10             	add    esp,0x10
  102282:	8b 44 24 0c          	mov    eax,DWORD PTR [esp+0xc]
  102286:	e9 8f fa ff ff       	jmp    101d1a <_ZN2os3sys5debug12draw_overlayEv+0x18a>
  10228b:	50                   	push   eax
  10228c:	50                   	push   eax
  10228d:	57                   	push   edi
  10228e:	68 70 db 13 00       	push   0x13db70
  102293:	e8 18 3a 02 00       	call   125cb0 <__ubsan_handle_type_mismatch>
  102298:	83 c4 10             	add    esp,0x10
  10229b:	e9 0d fa ff ff       	jmp    101cad <_ZN2os3sys5debug12draw_overlayEv+0x11d>
  1022a0:	51                   	push   ecx
  1022a1:	51                   	push   ecx
  1022a2:	57                   	push   edi
  1022a3:	68 88 db 13 00       	push   0x13db88
  1022a8:	e8 03 3a 02 00       	call   125cb0 <__ubsan_handle_type_mismatch>
  1022ad:	83 c4 10             	add    esp,0x10
  1022b0:	e9 6c f9 ff ff       	jmp    101c21 <_ZN2os3sys5debug12draw_overlayEv+0x91>
  1022b5:	66 90                	xchg   ax,ax
  1022b7:	66 90                	xchg   ax,ax
  1022b9:	66 90                	xchg   ax,ax
  1022bb:	66 90                	xchg   ax,ax
  1022bd:	66 90                	xchg   ax,ax
  1022bf:	90                   	nop

001022c0 <_ZN2os3hal8device_t4initEv>:
  1022c0:	53                   	push   ebx
  1022c1:	83 ec 08             	sub    esp,0x8
  1022c4:	8b 5c 24 10          	mov    ebx,DWORD PTR [esp+0x10]
  1022c8:	85 db                	test   ebx,ebx
  1022ca:	74 11                	je     1022dd <_ZN2os3hal8device_t4initEv+0x1d>
  1022cc:	f6 c3 03             	test   bl,0x3
  1022cf:	75 0c                	jne    1022dd <_ZN2os3hal8device_t4initEv+0x1d>
  1022d1:	c6 83 88 00 00 00 00 	mov    BYTE PTR [ebx+0x88],0x0
  1022d8:	83 c4 08             	add    esp,0x8
  1022db:	5b                   	pop    ebx
  1022dc:	c3                   	ret    
  1022dd:	50                   	push   eax
  1022de:	50                   	push   eax
  1022df:	53                   	push   ebx
  1022e0:	68 00 dd 13 00       	push   0x13dd00
  1022e5:	e8 c6 39 02 00       	call   125cb0 <__ubsan_handle_type_mismatch>
  1022ea:	83 c4 10             	add    esp,0x10
  1022ed:	eb e2                	jmp    1022d1 <_ZN2os3hal8device_t4initEv+0x11>
  1022ef:	90                   	nop

001022f0 <_ZN2os3hal8device_t5startEv>:
  1022f0:	56                   	push   esi
  1022f1:	53                   	push   ebx
  1022f2:	83 ec 14             	sub    esp,0x14
  1022f5:	8b 5c 24 20          	mov    ebx,DWORD PTR [esp+0x20]
  1022f9:	85 db                	test   ebx,ebx
  1022fb:	74 7c                	je     102379 <_ZN2os3hal8device_t5startEv+0x89>
  1022fd:	f6 c3 03             	test   bl,0x3
  102300:	75 77                	jne    102379 <_ZN2os3hal8device_t5startEv+0x89>
  102302:	0f b6 83 88 00 00 00 	movzx  eax,BYTE PTR [ebx+0x88]
  102309:	3c 01                	cmp    al,0x1
  10230b:	77 4e                	ja     10235b <_ZN2os3hal8device_t5startEv+0x6b>
  10230d:	a8 01                	test   al,0x1
  10230f:	74 0f                	je     102320 <_ZN2os3hal8device_t5startEv+0x30>
  102311:	83 c4 14             	add    esp,0x14
  102314:	5b                   	pop    ebx
  102315:	5e                   	pop    esi
  102316:	c3                   	ret    
  102317:	89 f6                	mov    esi,esi
  102319:	8d bc 27 00 00 00 00 	lea    edi,[edi+eiz*1+0x0]
  102320:	85 db                	test   ebx,ebx
  102322:	74 6a                	je     10238e <_ZN2os3hal8device_t5startEv+0x9e>
  102324:	f6 c3 03             	test   bl,0x3
  102327:	75 65                	jne    10238e <_ZN2os3hal8device_t5startEv+0x9e>
  102329:	85 db                	test   ebx,ebx
  10232b:	c6 83 88 00 00 00 01 	mov    BYTE PTR [ebx+0x88],0x1
  102332:	8d 73 04             	lea    esi,[ebx+0x4]
  102335:	74 69                	je     1023a0 <_ZN2os3hal8device_t5startEv+0xb0>
  102337:	f6 c3 03             	test   bl,0x3
  10233a:	75 64                	jne    1023a0 <_ZN2os3hal8device_t5startEv+0xb0>
  10233c:	56                   	push   esi
  10233d:	ff b3 84 00 00 00    	push   DWORD PTR [ebx+0x84]
  102343:	68 dd 9e 12 00       	push   0x129edd
  102348:	68 88 ac 12 00       	push   0x12ac88
  10234d:	e8 0e 89 01 00       	call   11ac60 <printf>
  102352:	83 c4 10             	add    esp,0x10
  102355:	83 c4 14             	add    esp,0x14
  102358:	5b                   	pop    ebx
  102359:	5e                   	pop    esi
  10235a:	c3                   	ret    
  10235b:	51                   	push   ecx
  10235c:	51                   	push   ecx
  10235d:	0f b6 d0             	movzx  edx,al
  102360:	88 44 24 17          	mov    BYTE PTR [esp+0x17],al
  102364:	52                   	push   edx
  102365:	68 50 dd 13 00       	push   0x13dd50
  10236a:	e8 11 3c 02 00       	call   125f80 <__ubsan_handle_load_invalid_value>
  10236f:	83 c4 10             	add    esp,0x10
  102372:	0f b6 44 24 0f       	movzx  eax,BYTE PTR [esp+0xf]
  102377:	eb 94                	jmp    10230d <_ZN2os3hal8device_t5startEv+0x1d>
  102379:	56                   	push   esi
  10237a:	56                   	push   esi
  10237b:	53                   	push   ebx
  10237c:	68 e8 dc 13 00       	push   0x13dce8
  102381:	e8 2a 39 02 00       	call   125cb0 <__ubsan_handle_type_mismatch>
  102386:	83 c4 10             	add    esp,0x10
  102389:	e9 74 ff ff ff       	jmp    102302 <_ZN2os3hal8device_t5startEv+0x12>
  10238e:	52                   	push   edx
  10238f:	52                   	push   edx
  102390:	53                   	push   ebx
  102391:	68 d0 dc 13 00       	push   0x13dcd0
  102396:	e8 15 39 02 00       	call   125cb0 <__ubsan_handle_type_mismatch>
  10239b:	83 c4 10             	add    esp,0x10
  10239e:	eb 89                	jmp    102329 <_ZN2os3hal8device_t5startEv+0x39>
  1023a0:	50                   	push   eax
  1023a1:	50                   	push   eax
  1023a2:	53                   	push   ebx
  1023a3:	68 b8 dc 13 00       	push   0x13dcb8
  1023a8:	e8 03 39 02 00       	call   125cb0 <__ubsan_handle_type_mismatch>
  1023ad:	83 c4 10             	add    esp,0x10
  1023b0:	eb 8a                	jmp    10233c <_ZN2os3hal8device_t5startEv+0x4c>
  1023b2:	8d b4 26 00 00 00 00 	lea    esi,[esi+eiz*1+0x0]
  1023b9:	8d bc 27 00 00 00 00 	lea    edi,[edi+eiz*1+0x0]

001023c0 <_ZN2os3hal8device_t4stopEv>:
  1023c0:	56                   	push   esi
  1023c1:	53                   	push   ebx
  1023c2:	83 ec 14             	sub    esp,0x14
  1023c5:	8b 5c 24 20          	mov    ebx,DWORD PTR [esp+0x20]
  1023c9:	85 db                	test   ebx,ebx
  1023cb:	74 7c                	je     102449 <_ZN2os3hal8device_t4stopEv+0x89>
  1023cd:	f6 c3 03             	test   bl,0x3
  1023d0:	75 77                	jne    102449 <_ZN2os3hal8device_t4stopEv+0x89>
  1023d2:	0f b6 83 88 00 00 00 	movzx  eax,BYTE PTR [ebx+0x88]
  1023d9:	3c 01                	cmp    al,0x1
  1023db:	77 4e                	ja     10242b <_ZN2os3hal8device_t4stopEv+0x6b>
  1023dd:	a8 01                	test   al,0x1
  1023df:	75 0f                	jne    1023f0 <_ZN2os3hal8device_t4stopEv+0x30>
  1023e1:	83 c4 14             	add    esp,0x14
  1023e4:	5b                   	pop    ebx
  1023e5:	5e                   	pop    esi
  1023e6:	c3                   	ret    
  1023e7:	89 f6                	mov    esi,esi
  1023e9:	8d bc 27 00 00 00 00 	lea    edi,[edi+eiz*1+0x0]
  1023f0:	85 db                	test   ebx,ebx
  1023f2:	74 6a                	je     10245e <_ZN2os3hal8device_t4stopEv+0x9e>
  1023f4:	f6 c3 03             	test   bl,0x3
  1023f7:	75 65                	jne    10245e <_ZN2os3hal8device_t4stopEv+0x9e>
  1023f9:	85 db                	test   ebx,ebx
  1023fb:	c6 83 88 00 00 00 00 	mov    BYTE PTR [ebx+0x88],0x0
  102402:	8d 73 04             	lea    esi,[ebx+0x4]
  102405:	74 69                	je     102470 <_ZN2os3hal8device_t4stopEv+0xb0>
  102407:	f6 c3 03             	test   bl,0x3
  10240a:	75 64                	jne    102470 <_ZN2os3hal8device_t4stopEv+0xb0>
  10240c:	56                   	push   esi
  10240d:	ff b3 84 00 00 00    	push   DWORD PTR [ebx+0x84]
  102413:	68 d7 9f 12 00       	push   0x129fd7
  102418:	68 b4 ac 12 00       	push   0x12acb4
  10241d:	e8 3e 88 01 00       	call   11ac60 <printf>
  102422:	83 c4 10             	add    esp,0x10
  102425:	83 c4 14             	add    esp,0x14
  102428:	5b                   	pop    ebx
  102429:	5e                   	pop    esi
  10242a:	c3                   	ret    
  10242b:	51                   	push   ecx
  10242c:	51                   	push   ecx
  10242d:	0f b6 d0             	movzx  edx,al
  102430:	88 44 24 17          	mov    BYTE PTR [esp+0x17],al
  102434:	52                   	push   edx
  102435:	68 40 dd 13 00       	push   0x13dd40
  10243a:	e8 41 3b 02 00       	call   125f80 <__ubsan_handle_load_invalid_value>
  10243f:	83 c4 10             	add    esp,0x10
  102442:	0f b6 44 24 0f       	movzx  eax,BYTE PTR [esp+0xf]
  102447:	eb 94                	jmp    1023dd <_ZN2os3hal8device_t4stopEv+0x1d>
  102449:	56                   	push   esi
  10244a:	56                   	push   esi
  10244b:	53                   	push   ebx
  10244c:	68 a0 dc 13 00       	push   0x13dca0
  102451:	e8 5a 38 02 00       	call   125cb0 <__ubsan_handle_type_mismatch>
  102456:	83 c4 10             	add    esp,0x10
  102459:	e9 74 ff ff ff       	jmp    1023d2 <_ZN2os3hal8device_t4stopEv+0x12>
  10245e:	52                   	push   edx
  10245f:	52                   	push   edx
  102460:	53                   	push   ebx
  102461:	68 88 dc 13 00       	push   0x13dc88
  102466:	e8 45 38 02 00       	call   125cb0 <__ubsan_handle_type_mismatch>
  10246b:	83 c4 10             	add    esp,0x10
  10246e:	eb 89                	jmp    1023f9 <_ZN2os3hal8device_t4stopEv+0x39>
  102470:	50                   	push   eax
  102471:	50                   	push   eax
  102472:	53                   	push   ebx
  102473:	68 70 dc 13 00       	push   0x13dc70
  102478:	e8 33 38 02 00       	call   125cb0 <__ubsan_handle_type_mismatch>
  10247d:	83 c4 10             	add    esp,0x10
  102480:	eb 8a                	jmp    10240c <_ZN2os3hal8device_t4stopEv+0x4c>
  102482:	8d b4 26 00 00 00 00 	lea    esi,[esi+eiz*1+0x0]
  102489:	8d bc 27 00 00 00 00 	lea    edi,[edi+eiz*1+0x0]

00102490 <_ZN2os3hal8device_t8set_infoEPcj>:
  102490:	53                   	push   ebx
  102491:	83 ec 10             	sub    esp,0x10
  102494:	8b 5c 24 18          	mov    ebx,DWORD PTR [esp+0x18]
  102498:	ff 74 24 1c          	push   DWORD PTR [esp+0x1c]
  10249c:	8d 43 04             	lea    eax,[ebx+0x4]
  10249f:	50                   	push   eax
  1024a0:	e8 5b a9 01 00       	call   11ce00 <strcpy>
  1024a5:	83 c4 10             	add    esp,0x10
  1024a8:	85 db                	test   ebx,ebx
  1024aa:	74 14                	je     1024c0 <_ZN2os3hal8device_t8set_infoEPcj+0x30>
  1024ac:	f6 c3 03             	test   bl,0x3
  1024af:	75 0f                	jne    1024c0 <_ZN2os3hal8device_t8set_infoEPcj+0x30>
  1024b1:	8b 44 24 18          	mov    eax,DWORD PTR [esp+0x18]
  1024b5:	89 83 84 00 00 00    	mov    DWORD PTR [ebx+0x84],eax
  1024bb:	83 c4 08             	add    esp,0x8
  1024be:	5b                   	pop    ebx
  1024bf:	c3                   	ret    
  1024c0:	50                   	push   eax
  1024c1:	50                   	push   eax
  1024c2:	53                   	push   ebx
  1024c3:	68 58 dc 13 00       	push   0x13dc58
  1024c8:	e8 e3 37 02 00       	call   125cb0 <__ubsan_handle_type_mismatch>
  1024cd:	83 c4 10             	add    esp,0x10
  1024d0:	eb df                	jmp    1024b1 <_ZN2os3hal8device_t8set_infoEPcj+0x21>
  1024d2:	8d b4 26 00 00 00 00 	lea    esi,[esi+eiz*1+0x0]
  1024d9:	8d bc 27 00 00 00 00 	lea    edi,[edi+eiz*1+0x0]

001024e0 <_ZN2os3hal8device_t2idEv>:
  1024e0:	53                   	push   ebx
  1024e1:	83 ec 08             	sub    esp,0x8
  1024e4:	8b 5c 24 10          	mov    ebx,DWORD PTR [esp+0x10]
  1024e8:	85 db                	test   ebx,ebx
  1024ea:	74 10                	je     1024fc <_ZN2os3hal8device_t2idEv+0x1c>
  1024ec:	f6 c3 03             	test   bl,0x3
  1024ef:	75 0b                	jne    1024fc <_ZN2os3hal8device_t2idEv+0x1c>
  1024f1:	8b 83 84 00 00 00    	mov    eax,DWORD PTR [ebx+0x84]
  1024f7:	83 c4 08             	add    esp,0x8
  1024fa:	5b                   	pop    ebx
  1024fb:	c3                   	ret    
  1024fc:	50                   	push   eax
  1024fd:	50                   	push   eax
  1024fe:	53                   	push   ebx
  1024ff:	68 40 dc 13 00       	push   0x13dc40
  102504:	e8 a7 37 02 00       	call   125cb0 <__ubsan_handle_type_mismatch>
  102509:	83 c4 10             	add    esp,0x10
  10250c:	eb e3                	jmp    1024f1 <_ZN2os3hal8device_t2idEv+0x11>
  10250e:	66 90                	xchg   ax,ax

00102510 <_ZN2os3hal8device_t4nameEv>:
  102510:	8b 44 24 04          	mov    eax,DWORD PTR [esp+0x4]
  102514:	83 c0 04             	add    eax,0x4
  102517:	c3                   	ret    
  102518:	90                   	nop
  102519:	8d b4 26 00 00 00 00 	lea    esi,[esi+eiz*1+0x0]

00102520 <_ZN2os3hal8device_t7runningEv>:
  102520:	53                   	push   ebx
  102521:	83 ec 18             	sub    esp,0x18
  102524:	8b 5c 24 20          	mov    ebx,DWORD PTR [esp+0x20]
  102528:	85 db                	test   ebx,ebx
  10252a:	74 36                	je     102562 <_ZN2os3hal8device_t7runningEv+0x42>
  10252c:	f6 c3 03             	test   bl,0x3
  10252f:	75 31                	jne    102562 <_ZN2os3hal8device_t7runningEv+0x42>
  102531:	0f b6 83 88 00 00 00 	movzx  eax,BYTE PTR [ebx+0x88]
  102538:	3c 01                	cmp    al,0x1
  10253a:	77 08                	ja     102544 <_ZN2os3hal8device_t7runningEv+0x24>
  10253c:	83 c4 18             	add    esp,0x18
  10253f:	83 e0 01             	and    eax,0x1
  102542:	5b                   	pop    ebx
  102543:	c3                   	ret    
  102544:	52                   	push   edx
  102545:	52                   	push   edx
  102546:	0f b6 d0             	movzx  edx,al
  102549:	88 44 24 17          	mov    BYTE PTR [esp+0x17],al
  10254d:	52                   	push   edx
  10254e:	68 30 dd 13 00       	push   0x13dd30
  102553:	e8 28 3a 02 00       	call   125f80 <__ubsan_handle_load_invalid_value>
  102558:	83 c4 10             	add    esp,0x10
  10255b:	0f b6 44 24 0f       	movzx  eax,BYTE PTR [esp+0xf]
  102560:	eb da                	jmp    10253c <_ZN2os3hal8device_t7runningEv+0x1c>
  102562:	51                   	push   ecx
  102563:	51                   	push   ecx
  102564:	53                   	push   ebx
  102565:	68 28 dc 13 00       	push   0x13dc28
  10256a:	e8 41 37 02 00       	call   125cb0 <__ubsan_handle_type_mismatch>
  10256f:	83 c4 10             	add    esp,0x10
  102572:	eb bd                	jmp    102531 <_ZN2os3hal8device_t7runningEv+0x11>
  102574:	66 90                	xchg   ax,ax
  102576:	66 90                	xchg   ax,ax
  102578:	66 90                	xchg   ax,ax
  10257a:	66 90                	xchg   ax,ax
  10257c:	66 90                	xchg   ax,ax
  10257e:	66 90                	xchg   ax,ax

00102580 <_ZN2os3hal14device_manager9probe_pciEv>:
  102580:	83 ec 14             	sub    esp,0x14
  102583:	68 d7 9f 12 00       	push   0x129fd7
  102588:	68 e9 9f 12 00       	push   0x129fe9
  10258d:	e8 ce 86 01 00       	call   11ac60 <printf>
  102592:	83 c4 1c             	add    esp,0x1c
  102595:	c3                   	ret    
  102596:	8d 76 00             	lea    esi,[esi+0x0]
  102599:	8d bc 27 00 00 00 00 	lea    edi,[edi+eiz*1+0x0]

001025a0 <_ZN2os3hal14device_manager7installEPNS0_8device_tEb>:
  1025a0:	57                   	push   edi
  1025a1:	56                   	push   esi
  1025a2:	53                   	push   ebx
  1025a3:	8b 5c 24 10          	mov    ebx,DWORD PTR [esp+0x10]
  1025a7:	8b 44 24 14          	mov    eax,DWORD PTR [esp+0x14]
  1025ab:	85 db                	test   ebx,ebx
  1025ad:	0f 84 1d 01 00 00    	je     1026d0 <_ZN2os3hal14device_manager7installEPNS0_8device_tEb+0x130>
  1025b3:	84 c0                	test   al,al
  1025b5:	0f 85 d5 00 00 00    	jne    102690 <_ZN2os3hal14device_manager7installEPNS0_8device_tEb+0xf0>
  1025bb:	a1 d4 d0 1c 00       	mov    eax,ds:0x1cd0d4
  1025c0:	83 ec 08             	sub    esp,0x8
  1025c3:	6a 04                	push   0x4
  1025c5:	8d 04 85 04 00 00 00 	lea    eax,[eax*4+0x4]
  1025cc:	50                   	push   eax
  1025cd:	e8 ae 86 01 00       	call   11ac80 <tmalloc>
  1025d2:	89 c7                	mov    edi,eax
  1025d4:	a1 d0 d0 1c 00       	mov    eax,ds:0x1cd0d0
  1025d9:	83 c4 10             	add    esp,0x10
  1025dc:	85 c0                	test   eax,eax
  1025de:	74 27                	je     102607 <_ZN2os3hal14device_manager7installEPNS0_8device_tEb+0x67>
  1025e0:	8b 0d d4 d0 1c 00    	mov    ecx,DWORD PTR ds:0x1cd0d4
  1025e6:	83 ec 04             	sub    esp,0x4
  1025e9:	8d 14 8d 00 00 00 00 	lea    edx,[ecx*4+0x0]
  1025f0:	52                   	push   edx
  1025f1:	50                   	push   eax
  1025f2:	57                   	push   edi
  1025f3:	e8 08 a3 01 00       	call   11c900 <memcpy>
  1025f8:	5e                   	pop    esi
  1025f9:	ff 35 d0 d0 1c 00    	push   DWORD PTR ds:0x1cd0d0
  1025ff:	e8 fc 86 01 00       	call   11ad00 <free>
  102604:	83 c4 10             	add    esp,0x10
  102607:	8b 35 d4 d0 1c 00    	mov    esi,DWORD PTR ds:0x1cd0d4
  10260d:	89 3d d0 d0 1c 00    	mov    DWORD PTR ds:0x1cd0d0,edi
  102613:	8d 3c b7             	lea    edi,[edi+esi*4]
  102616:	85 ff                	test   edi,edi
  102618:	0f 84 04 01 00 00    	je     102722 <_ZN2os3hal14device_manager7installEPNS0_8device_tEb+0x182>
  10261e:	f7 c7 03 00 00 00    	test   edi,0x3
  102624:	0f 85 f8 00 00 00    	jne    102722 <_ZN2os3hal14device_manager7installEPNS0_8device_tEb+0x182>
  10262a:	83 c6 01             	add    esi,0x1
  10262d:	85 db                	test   ebx,ebx
  10262f:	89 1f                	mov    DWORD PTR [edi],ebx
  102631:	89 35 d4 d0 1c 00    	mov    DWORD PTR ds:0x1cd0d4,esi
  102637:	0f 84 d0 00 00 00    	je     10270d <_ZN2os3hal14device_manager7installEPNS0_8device_tEb+0x16d>
  10263d:	f6 c3 03             	test   bl,0x3
  102640:	0f 85 c7 00 00 00    	jne    10270d <_ZN2os3hal14device_manager7installEPNS0_8device_tEb+0x16d>
  102646:	83 ec 0c             	sub    esp,0xc
  102649:	53                   	push   ebx
  10264a:	e8 c1 fe ff ff       	call   102510 <_ZN2os3hal8device_t4nameEv>
  10264f:	83 c4 10             	add    esp,0x10
  102652:	85 db                	test   ebx,ebx
  102654:	89 c6                	mov    esi,eax
  102656:	0f 84 9c 00 00 00    	je     1026f8 <_ZN2os3hal14device_manager7installEPNS0_8device_tEb+0x158>
  10265c:	f6 c3 03             	test   bl,0x3
  10265f:	0f 85 93 00 00 00    	jne    1026f8 <_ZN2os3hal14device_manager7installEPNS0_8device_tEb+0x158>
  102665:	83 ec 0c             	sub    esp,0xc
  102668:	53                   	push   ebx
  102669:	e8 72 fe ff ff       	call   1024e0 <_ZN2os3hal8device_t2idEv>
  10266e:	89 34 24             	mov    DWORD PTR [esp],esi
  102671:	50                   	push   eax
  102672:	53                   	push   ebx
  102673:	68 d7 9f 12 00       	push   0x129fd7
  102678:	68 00 ad 12 00       	push   0x12ad00
  10267d:	e8 de 85 01 00       	call   11ac60 <printf>
  102682:	83 c4 20             	add    esp,0x20
  102685:	b8 01 00 00 00       	mov    eax,0x1
  10268a:	5b                   	pop    ebx
  10268b:	5e                   	pop    esi
  10268c:	5f                   	pop    edi
  10268d:	c3                   	ret    
  10268e:	66 90                	xchg   ax,ax
  102690:	f6 c3 03             	test   bl,0x3
  102693:	0f 85 9e 00 00 00    	jne    102737 <_ZN2os3hal14device_manager7installEPNS0_8device_tEb+0x197>
  102699:	85 db                	test   ebx,ebx
  10269b:	0f 84 ab 00 00 00    	je     10274c <_ZN2os3hal14device_manager7installEPNS0_8device_tEb+0x1ac>
  1026a1:	f6 c3 03             	test   bl,0x3
  1026a4:	0f 85 a2 00 00 00    	jne    10274c <_ZN2os3hal14device_manager7installEPNS0_8device_tEb+0x1ac>
  1026aa:	8b 33                	mov    esi,DWORD PTR [ebx]
  1026ac:	85 f6                	test   esi,esi
  1026ae:	74 36                	je     1026e6 <_ZN2os3hal14device_manager7installEPNS0_8device_tEb+0x146>
  1026b0:	f7 c6 03 00 00 00    	test   esi,0x3
  1026b6:	75 2e                	jne    1026e6 <_ZN2os3hal14device_manager7installEPNS0_8device_tEb+0x146>
  1026b8:	83 ec 0c             	sub    esp,0xc
  1026bb:	53                   	push   ebx
  1026bc:	ff 16                	call   DWORD PTR [esi]
  1026be:	83 c4 10             	add    esp,0x10
  1026c1:	e9 f5 fe ff ff       	jmp    1025bb <_ZN2os3hal14device_manager7installEPNS0_8device_tEb+0x1b>
  1026c6:	8d 76 00             	lea    esi,[esi+0x0]
  1026c9:	8d bc 27 00 00 00 00 	lea    edi,[edi+eiz*1+0x0]
  1026d0:	83 ec 0c             	sub    esp,0xc
  1026d3:	68 04 a0 12 00       	push   0x12a004
  1026d8:	e8 23 9e 01 00       	call   11c500 <perror>
  1026dd:	83 c4 10             	add    esp,0x10
  1026e0:	31 c0                	xor    eax,eax
  1026e2:	5b                   	pop    ebx
  1026e3:	5e                   	pop    esi
  1026e4:	5f                   	pop    edi
  1026e5:	c3                   	ret    
  1026e6:	57                   	push   edi
  1026e7:	57                   	push   edi
  1026e8:	56                   	push   esi
  1026e9:	68 7c e0 13 00       	push   0x13e07c
  1026ee:	e8 bd 35 02 00       	call   125cb0 <__ubsan_handle_type_mismatch>
  1026f3:	83 c4 10             	add    esp,0x10
  1026f6:	eb c0                	jmp    1026b8 <_ZN2os3hal14device_manager7installEPNS0_8device_tEb+0x118>
  1026f8:	50                   	push   eax
  1026f9:	50                   	push   eax
  1026fa:	53                   	push   ebx
  1026fb:	68 1c e0 13 00       	push   0x13e01c
  102700:	e8 ab 35 02 00       	call   125cb0 <__ubsan_handle_type_mismatch>
  102705:	83 c4 10             	add    esp,0x10
  102708:	e9 58 ff ff ff       	jmp    102665 <_ZN2os3hal14device_manager7installEPNS0_8device_tEb+0xc5>
  10270d:	52                   	push   edx
  10270e:	52                   	push   edx
  10270f:	53                   	push   ebx
  102710:	68 34 e0 13 00       	push   0x13e034
  102715:	e8 96 35 02 00       	call   125cb0 <__ubsan_handle_type_mismatch>
  10271a:	83 c4 10             	add    esp,0x10
  10271d:	e9 24 ff ff ff       	jmp    102646 <_ZN2os3hal14device_manager7installEPNS0_8device_tEb+0xa6>
  102722:	51                   	push   ecx
  102723:	51                   	push   ecx
  102724:	57                   	push   edi
  102725:	68 4c e0 13 00       	push   0x13e04c
  10272a:	e8 81 35 02 00       	call   125cb0 <__ubsan_handle_type_mismatch>
  10272f:	83 c4 10             	add    esp,0x10
  102732:	e9 f3 fe ff ff       	jmp    10262a <_ZN2os3hal14device_manager7installEPNS0_8device_tEb+0x8a>
  102737:	50                   	push   eax
  102738:	50                   	push   eax
  102739:	53                   	push   ebx
  10273a:	68 c0 e0 13 00       	push   0x13e0c0
  10273f:	e8 6c 35 02 00       	call   125cb0 <__ubsan_handle_type_mismatch>
  102744:	83 c4 10             	add    esp,0x10
  102747:	e9 4d ff ff ff       	jmp    102699 <_ZN2os3hal14device_manager7installEPNS0_8device_tEb+0xf9>
  10274c:	50                   	push   eax
  10274d:	50                   	push   eax
  10274e:	53                   	push   ebx
  10274f:	68 a8 e0 13 00       	push   0x13e0a8
  102754:	e8 57 35 02 00       	call   125cb0 <__ubsan_handle_type_mismatch>
  102759:	83 c4 10             	add    esp,0x10
  10275c:	e9 49 ff ff ff       	jmp    1026aa <_ZN2os3hal14device_manager7installEPNS0_8device_tEb+0x10a>
  102761:	90                   	nop
  102762:	8d b4 26 00 00 00 00 	lea    esi,[esi+eiz*1+0x0]
  102769:	8d bc 27 00 00 00 00 	lea    edi,[edi+eiz*1+0x0]

00102770 <_ZN2os3hal14device_manager5probeEv>:
  102770:	57                   	push   edi
  102771:	56                   	push   esi
  102772:	53                   	push   ebx
  102773:	83 ec 08             	sub    esp,0x8
  102776:	68 d7 9f 12 00       	push   0x129fd7
  10277b:	68 38 ad 12 00       	push   0x12ad38
  102780:	e8 db 84 01 00       	call   11ac60 <printf>
  102785:	e8 a6 2c 01 00       	call   115430 <_ZN2os3hal3pit4initEv>
  10278a:	e8 91 38 01 00       	call   116020 <_ZN2os3hal3rtc4initEv>
  10278f:	c7 04 24 8c 00 00 00 	mov    DWORD PTR [esp],0x8c
  102796:	e8 15 2c 01 00       	call   1153b0 <_Znwm>
  10279b:	83 c4 10             	add    esp,0x10
  10279e:	85 c0                	test   eax,eax
  1027a0:	89 c3                	mov    ebx,eax
  1027a2:	0f 84 9a 01 00 00    	je     102942 <_ZN2os3hal14device_manager5probeEv+0x1d2>
  1027a8:	a8 03                	test   al,0x3
  1027aa:	0f 85 92 01 00 00    	jne    102942 <_ZN2os3hal14device_manager5probeEv+0x1d2>
  1027b0:	31 c0                	xor    eax,eax
  1027b2:	b9 23 00 00 00       	mov    ecx,0x23
  1027b7:	89 df                	mov    edi,ebx
  1027b9:	85 db                	test   ebx,ebx
  1027bb:	f3 ab                	rep stos DWORD PTR es:[edi],eax
  1027bd:	0f 84 8a 02 00 00    	je     102a4d <_ZN2os3hal14device_manager5probeEv+0x2dd>
  1027c3:	f6 c3 03             	test   bl,0x3
  1027c6:	0f 85 81 02 00 00    	jne    102a4d <_ZN2os3hal14device_manager5probeEv+0x2dd>
  1027cc:	85 db                	test   ebx,ebx
  1027ce:	0f 84 64 02 00 00    	je     102a38 <_ZN2os3hal14device_manager5probeEv+0x2c8>
  1027d4:	f6 c3 03             	test   bl,0x3
  1027d7:	0f 85 5b 02 00 00    	jne    102a38 <_ZN2os3hal14device_manager5probeEv+0x2c8>
  1027dd:	85 db                	test   ebx,ebx
  1027df:	c7 03 5c c9 13 00    	mov    DWORD PTR [ebx],0x13c95c
  1027e5:	0f 84 38 02 00 00    	je     102a23 <_ZN2os3hal14device_manager5probeEv+0x2b3>
  1027eb:	f6 c3 03             	test   bl,0x3
  1027ee:	0f 85 2f 02 00 00    	jne    102a23 <_ZN2os3hal14device_manager5probeEv+0x2b3>
  1027f4:	83 ec 08             	sub    esp,0x8
  1027f7:	c7 03 84 c9 13 00    	mov    DWORD PTR [ebx],0x13c984
  1027fd:	89 1d 44 04 1d 00    	mov    DWORD PTR ds:0x1d0444,ebx
  102803:	6a 01                	push   0x1
  102805:	53                   	push   ebx
  102806:	e8 95 fd ff ff       	call   1025a0 <_ZN2os3hal14device_manager7installEPNS0_8device_tEb>
  10280b:	8b 1d 44 04 1d 00    	mov    ebx,DWORD PTR ds:0x1d0444
  102811:	83 c4 10             	add    esp,0x10
  102814:	85 db                	test   ebx,ebx
  102816:	0f 84 f2 01 00 00    	je     102a0e <_ZN2os3hal14device_manager5probeEv+0x29e>
  10281c:	f6 c3 03             	test   bl,0x3
  10281f:	0f 85 e9 01 00 00    	jne    102a0e <_ZN2os3hal14device_manager5probeEv+0x29e>
  102825:	8b 35 cc d0 1c 00    	mov    esi,DWORD PTR ds:0x1cd0cc
  10282b:	85 f6                	test   esi,esi
  10282d:	0f 84 c6 01 00 00    	je     1029f9 <_ZN2os3hal14device_manager5probeEv+0x289>
  102833:	f7 c6 03 00 00 00    	test   esi,0x3
  102839:	0f 85 ba 01 00 00    	jne    1029f9 <_ZN2os3hal14device_manager5probeEv+0x289>
  10283f:	83 ec 0c             	sub    esp,0xc
  102842:	56                   	push   esi
  102843:	e8 d8 7f 01 00       	call   11a820 <_ZN2os3hal17serial_controller4portEv>
  102848:	5a                   	pop    edx
  102849:	59                   	pop    ecx
  10284a:	50                   	push   eax
  10284b:	53                   	push   ebx
  10284c:	e8 9f 80 01 00       	call   11a8f0 <_ZN2os3hal17serial_controller5startENS0_11serial_portE>
  102851:	a1 44 04 1d 00       	mov    eax,ds:0x1d0444
  102856:	c7 04 24 8c 00 00 00 	mov    DWORD PTR [esp],0x8c
  10285d:	a3 cc d0 1c 00       	mov    ds:0x1cd0cc,eax
  102862:	e8 49 2b 01 00       	call   1153b0 <_Znwm>
  102867:	83 c4 10             	add    esp,0x10
  10286a:	85 c0                	test   eax,eax
  10286c:	89 c3                	mov    ebx,eax
  10286e:	0f 84 70 01 00 00    	je     1029e4 <_ZN2os3hal14device_manager5probeEv+0x274>
  102874:	a8 03                	test   al,0x3
  102876:	0f 85 68 01 00 00    	jne    1029e4 <_ZN2os3hal14device_manager5probeEv+0x274>
  10287c:	31 c0                	xor    eax,eax
  10287e:	b9 23 00 00 00       	mov    ecx,0x23
  102883:	89 df                	mov    edi,ebx
  102885:	85 db                	test   ebx,ebx
  102887:	f3 ab                	rep stos DWORD PTR es:[edi],eax
  102889:	0f 84 40 01 00 00    	je     1029cf <_ZN2os3hal14device_manager5probeEv+0x25f>
  10288f:	f6 c3 03             	test   bl,0x3
  102892:	0f 85 37 01 00 00    	jne    1029cf <_ZN2os3hal14device_manager5probeEv+0x25f>
  102898:	85 db                	test   ebx,ebx
  10289a:	0f 84 1a 01 00 00    	je     1029ba <_ZN2os3hal14device_manager5probeEv+0x24a>
  1028a0:	f6 c3 03             	test   bl,0x3
  1028a3:	0f 85 11 01 00 00    	jne    1029ba <_ZN2os3hal14device_manager5probeEv+0x24a>
  1028a9:	85 db                	test   ebx,ebx
  1028ab:	c7 03 5c c9 13 00    	mov    DWORD PTR [ebx],0x13c95c
  1028b1:	0f 84 ee 00 00 00    	je     1029a5 <_ZN2os3hal14device_manager5probeEv+0x235>
  1028b7:	f6 c3 03             	test   bl,0x3
  1028ba:	0f 85 e5 00 00 00    	jne    1029a5 <_ZN2os3hal14device_manager5probeEv+0x235>
  1028c0:	83 ec 08             	sub    esp,0x8
  1028c3:	c7 03 d0 bd 12 00    	mov    DWORD PTR [ebx],0x12bdd0
  1028c9:	89 1d 00 d0 1c 00    	mov    DWORD PTR ds:0x1cd000,ebx
  1028cf:	6a 01                	push   0x1
  1028d1:	53                   	push   ebx
  1028d2:	e8 c9 fc ff ff       	call   1025a0 <_ZN2os3hal14device_manager7installEPNS0_8device_tEb>
  1028d7:	c7 04 24 d4 00 00 00 	mov    DWORD PTR [esp],0xd4
  1028de:	e8 cd 2a 01 00       	call   1153b0 <_Znwm>
  1028e3:	83 c4 10             	add    esp,0x10
  1028e6:	85 c0                	test   eax,eax
  1028e8:	89 c3                	mov    ebx,eax
  1028ea:	0f 84 a0 00 00 00    	je     102990 <_ZN2os3hal14device_manager5probeEv+0x220>
  1028f0:	a8 03                	test   al,0x3
  1028f2:	0f 85 98 00 00 00    	jne    102990 <_ZN2os3hal14device_manager5probeEv+0x220>
  1028f8:	31 c0                	xor    eax,eax
  1028fa:	b9 35 00 00 00       	mov    ecx,0x35
  1028ff:	89 df                	mov    edi,ebx
  102901:	85 db                	test   ebx,ebx
  102903:	f3 ab                	rep stos DWORD PTR es:[edi],eax
  102905:	74 74                	je     10297b <_ZN2os3hal14device_manager5probeEv+0x20b>
  102907:	f6 c3 03             	test   bl,0x3
  10290a:	75 6f                	jne    10297b <_ZN2os3hal14device_manager5probeEv+0x20b>
  10290c:	85 db                	test   ebx,ebx
  10290e:	74 59                	je     102969 <_ZN2os3hal14device_manager5probeEv+0x1f9>
  102910:	f6 c3 03             	test   bl,0x3
  102913:	75 54                	jne    102969 <_ZN2os3hal14device_manager5probeEv+0x1f9>
  102915:	85 db                	test   ebx,ebx
  102917:	c7 03 5c c9 13 00    	mov    DWORD PTR [ebx],0x13c95c
  10291d:	74 38                	je     102957 <_ZN2os3hal14device_manager5probeEv+0x1e7>
  10291f:	f6 c3 03             	test   bl,0x3
  102922:	75 33                	jne    102957 <_ZN2os3hal14device_manager5probeEv+0x1e7>
  102924:	83 ec 08             	sub    esp,0x8
  102927:	c7 03 98 c9 13 00    	mov    DWORD PTR [ebx],0x13c998
  10292d:	89 1d 5c 04 1d 00    	mov    DWORD PTR ds:0x1d045c,ebx
  102933:	6a 01                	push   0x1
  102935:	53                   	push   ebx
  102936:	e8 65 fc ff ff       	call   1025a0 <_ZN2os3hal14device_manager7installEPNS0_8device_tEb>
  10293b:	83 c4 10             	add    esp,0x10
  10293e:	5b                   	pop    ebx
  10293f:	5e                   	pop    esi
  102940:	5f                   	pop    edi
  102941:	c3                   	ret    
  102942:	50                   	push   eax
  102943:	50                   	push   eax
  102944:	53                   	push   ebx
  102945:	68 e4 df 13 00       	push   0x13dfe4
  10294a:	e8 61 33 02 00       	call   125cb0 <__ubsan_handle_type_mismatch>
  10294f:	83 c4 10             	add    esp,0x10
  102952:	e9 59 fe ff ff       	jmp    1027b0 <_ZN2os3hal14device_manager5probeEv+0x40>
  102957:	50                   	push   eax
  102958:	50                   	push   eax
  102959:	53                   	push   ebx
  10295a:	68 74 de 13 00       	push   0x13de74
  10295f:	e8 4c 33 02 00       	call   125cb0 <__ubsan_handle_type_mismatch>
  102964:	83 c4 10             	add    esp,0x10
  102967:	eb bb                	jmp    102924 <_ZN2os3hal14device_manager5probeEv+0x1b4>
  102969:	52                   	push   edx
  10296a:	52                   	push   edx
  10296b:	53                   	push   ebx
  10296c:	68 8c de 13 00       	push   0x13de8c
  102971:	e8 3a 33 02 00       	call   125cb0 <__ubsan_handle_type_mismatch>
  102976:	83 c4 10             	add    esp,0x10
  102979:	eb 9a                	jmp    102915 <_ZN2os3hal14device_manager5probeEv+0x1a5>
  10297b:	51                   	push   ecx
  10297c:	51                   	push   ecx
  10297d:	53                   	push   ebx
  10297e:	68 a4 de 13 00       	push   0x13dea4
  102983:	e8 28 33 02 00       	call   125cb0 <__ubsan_handle_type_mismatch>
  102988:	83 c4 10             	add    esp,0x10
  10298b:	e9 7c ff ff ff       	jmp    10290c <_ZN2os3hal14device_manager5probeEv+0x19c>
  102990:	56                   	push   esi
  102991:	56                   	push   esi
  102992:	53                   	push   ebx
  102993:	68 bc de 13 00       	push   0x13debc
  102998:	e8 13 33 02 00       	call   125cb0 <__ubsan_handle_type_mismatch>
  10299d:	83 c4 10             	add    esp,0x10
  1029a0:	e9 53 ff ff ff       	jmp    1028f8 <_ZN2os3hal14device_manager5probeEv+0x188>
  1029a5:	57                   	push   edi
  1029a6:	57                   	push   edi
  1029a7:	53                   	push   ebx
  1029a8:	68 f0 de 13 00       	push   0x13def0
  1029ad:	e8 fe 32 02 00       	call   125cb0 <__ubsan_handle_type_mismatch>
  1029b2:	83 c4 10             	add    esp,0x10
  1029b5:	e9 06 ff ff ff       	jmp    1028c0 <_ZN2os3hal14device_manager5probeEv+0x150>
  1029ba:	50                   	push   eax
  1029bb:	50                   	push   eax
  1029bc:	53                   	push   ebx
  1029bd:	68 08 df 13 00       	push   0x13df08
  1029c2:	e8 e9 32 02 00       	call   125cb0 <__ubsan_handle_type_mismatch>
  1029c7:	83 c4 10             	add    esp,0x10
  1029ca:	e9 da fe ff ff       	jmp    1028a9 <_ZN2os3hal14device_manager5probeEv+0x139>
  1029cf:	50                   	push   eax
  1029d0:	50                   	push   eax
  1029d1:	53                   	push   ebx
  1029d2:	68 20 df 13 00       	push   0x13df20
  1029d7:	e8 d4 32 02 00       	call   125cb0 <__ubsan_handle_type_mismatch>
  1029dc:	83 c4 10             	add    esp,0x10
  1029df:	e9 b4 fe ff ff       	jmp    102898 <_ZN2os3hal14device_manager5probeEv+0x128>
  1029e4:	50                   	push   eax
  1029e5:	50                   	push   eax
  1029e6:	53                   	push   ebx
  1029e7:	68 38 df 13 00       	push   0x13df38
  1029ec:	e8 bf 32 02 00       	call   125cb0 <__ubsan_handle_type_mismatch>
  1029f1:	83 c4 10             	add    esp,0x10
  1029f4:	e9 83 fe ff ff       	jmp    10287c <_ZN2os3hal14device_manager5probeEv+0x10c>
  1029f9:	57                   	push   edi
  1029fa:	57                   	push   edi
  1029fb:	56                   	push   esi
  1029fc:	68 6c df 13 00       	push   0x13df6c
  102a01:	e8 aa 32 02 00       	call   125cb0 <__ubsan_handle_type_mismatch>
  102a06:	83 c4 10             	add    esp,0x10
  102a09:	e9 31 fe ff ff       	jmp    10283f <_ZN2os3hal14device_manager5probeEv+0xcf>
  102a0e:	50                   	push   eax
  102a0f:	50                   	push   eax
  102a10:	53                   	push   ebx
  102a11:	68 84 df 13 00       	push   0x13df84
  102a16:	e8 95 32 02 00       	call   125cb0 <__ubsan_handle_type_mismatch>
  102a1b:	83 c4 10             	add    esp,0x10
  102a1e:	e9 02 fe ff ff       	jmp    102825 <_ZN2os3hal14device_manager5probeEv+0xb5>
  102a23:	50                   	push   eax
  102a24:	50                   	push   eax
  102a25:	53                   	push   ebx
  102a26:	68 9c df 13 00       	push   0x13df9c
  102a2b:	e8 80 32 02 00       	call   125cb0 <__ubsan_handle_type_mismatch>
  102a30:	83 c4 10             	add    esp,0x10
  102a33:	e9 bc fd ff ff       	jmp    1027f4 <_ZN2os3hal14device_manager5probeEv+0x84>
  102a38:	50                   	push   eax
  102a39:	50                   	push   eax
  102a3a:	53                   	push   ebx
  102a3b:	68 b4 df 13 00       	push   0x13dfb4
  102a40:	e8 6b 32 02 00       	call   125cb0 <__ubsan_handle_type_mismatch>
  102a45:	83 c4 10             	add    esp,0x10
  102a48:	e9 90 fd ff ff       	jmp    1027dd <_ZN2os3hal14device_manager5probeEv+0x6d>
  102a4d:	50                   	push   eax
  102a4e:	50                   	push   eax
  102a4f:	53                   	push   ebx
  102a50:	68 cc df 13 00       	push   0x13dfcc
  102a55:	e8 56 32 02 00       	call   125cb0 <__ubsan_handle_type_mismatch>
  102a5a:	83 c4 10             	add    esp,0x10
  102a5d:	e9 6a fd ff ff       	jmp    1027cc <_ZN2os3hal14device_manager5probeEv+0x5c>
  102a62:	8d b4 26 00 00 00 00 	lea    esi,[esi+eiz*1+0x0]
  102a69:	8d bc 27 00 00 00 00 	lea    edi,[edi+eiz*1+0x0]

00102a70 <_ZN2os3hal14device_manager4initEv>:
  102a70:	57                   	push   edi
  102a71:	56                   	push   esi
  102a72:	53                   	push   ebx
  102a73:	83 ec 10             	sub    esp,0x10
  102a76:	c7 05 d0 d0 1c 00 00 00 00 00 	mov    DWORD PTR ds:0x1cd0d0,0x0
  102a80:	c7 05 d4 d0 1c 00 00 00 00 00 	mov    DWORD PTR ds:0x1cd0d4,0x0
  102a8a:	8b 44 24 0c          	mov    eax,DWORD PTR [esp+0xc]
  102a8e:	c7 44 24 04 00 00 00 00 	mov    DWORD PTR [esp+0x4],0x0
  102a96:	c7 44 24 08 00 00 00 00 	mov    DWORD PTR [esp+0x8],0x0
  102a9e:	a3 d8 d0 1c 00       	mov    ds:0x1cd0d8,eax
  102aa3:	e8 c8 fc ff ff       	call   102770 <_ZN2os3hal14device_manager5probeEv>
  102aa8:	83 ec 08             	sub    esp,0x8
  102aab:	68 d7 9f 12 00       	push   0x129fd7
  102ab0:	68 e9 9f 12 00       	push   0x129fe9
  102ab5:	e8 a6 81 01 00       	call   11ac60 <printf>
  102aba:	a1 d4 d0 1c 00       	mov    eax,ds:0x1cd0d4
  102abf:	83 c4 10             	add    esp,0x10
  102ac2:	85 c0                	test   eax,eax
  102ac4:	0f 84 b6 00 00 00    	je     102b80 <_ZN2os3hal14device_manager4initEv+0x110>
  102aca:	31 f6                	xor    esi,esi
  102acc:	eb 76                	jmp    102b44 <_ZN2os3hal14device_manager4initEv+0xd4>
  102ace:	66 90                	xchg   ax,ax
  102ad0:	8d 1c b2             	lea    ebx,[edx+esi*4]
  102ad3:	85 db                	test   ebx,ebx
  102ad5:	0f 84 e4 00 00 00    	je     102bbf <_ZN2os3hal14device_manager4initEv+0x14f>
  102adb:	f6 c3 03             	test   bl,0x3
  102ade:	0f 85 db 00 00 00    	jne    102bbf <_ZN2os3hal14device_manager4initEv+0x14f>
  102ae4:	85 db                	test   ebx,ebx
  102ae6:	0f 84 27 01 00 00    	je     102c13 <_ZN2os3hal14device_manager4initEv+0x1a3>
  102aec:	f6 c3 03             	test   bl,0x3
  102aef:	0f 85 1e 01 00 00    	jne    102c13 <_ZN2os3hal14device_manager4initEv+0x1a3>
  102af5:	8b 1b                	mov    ebx,DWORD PTR [ebx]
  102af7:	85 db                	test   ebx,ebx
  102af9:	0f 84 ff 00 00 00    	je     102bfe <_ZN2os3hal14device_manager4initEv+0x18e>
  102aff:	f6 c3 03             	test   bl,0x3
  102b02:	0f 85 f6 00 00 00    	jne    102bfe <_ZN2os3hal14device_manager4initEv+0x18e>
  102b08:	85 db                	test   ebx,ebx
  102b0a:	0f 84 d9 00 00 00    	je     102be9 <_ZN2os3hal14device_manager4initEv+0x179>
  102b10:	f6 c3 03             	test   bl,0x3
  102b13:	0f 85 d0 00 00 00    	jne    102be9 <_ZN2os3hal14device_manager4initEv+0x179>
  102b19:	8b 3b                	mov    edi,DWORD PTR [ebx]
  102b1b:	89 f8                	mov    eax,edi
  102b1d:	83 c0 04             	add    eax,0x4
  102b20:	0f 84 ae 00 00 00    	je     102bd4 <_ZN2os3hal14device_manager4initEv+0x164>
  102b26:	a8 03                	test   al,0x3
  102b28:	0f 85 a6 00 00 00    	jne    102bd4 <_ZN2os3hal14device_manager4initEv+0x164>
  102b2e:	83 ec 0c             	sub    esp,0xc
  102b31:	83 c6 01             	add    esi,0x1
  102b34:	53                   	push   ebx
  102b35:	ff 57 04             	call   DWORD PTR [edi+0x4]
  102b38:	a1 d4 d0 1c 00       	mov    eax,ds:0x1cd0d4
  102b3d:	83 c4 10             	add    esp,0x10
  102b40:	39 c6                	cmp    esi,eax
  102b42:	73 3c                	jae    102b80 <_ZN2os3hal14device_manager4initEv+0x110>
  102b44:	8b 15 d0 d0 1c 00    	mov    edx,DWORD PTR ds:0x1cd0d0
  102b4a:	85 d2                	test   edx,edx
  102b4c:	74 52                	je     102ba0 <_ZN2os3hal14device_manager4initEv+0x130>
  102b4e:	85 f6                	test   esi,esi
  102b50:	78 08                	js     102b5a <_ZN2os3hal14device_manager4initEv+0xea>
  102b52:	39 c6                	cmp    esi,eax
  102b54:	0f 8c 76 ff ff ff    	jl     102ad0 <_ZN2os3hal14device_manager4initEv+0x60>
  102b5a:	50                   	push   eax
  102b5b:	56                   	push   esi
  102b5c:	bb d8 d0 1c 00       	mov    ebx,0x1cd0d8
  102b61:	68 d0 d0 1c 00       	push   0x1cd0d0
  102b66:	68 7c ad 12 00       	push   0x12ad7c
  102b6b:	e8 90 99 01 00       	call   11c500 <perror>
  102b70:	83 c4 10             	add    esp,0x10
  102b73:	e9 6c ff ff ff       	jmp    102ae4 <_ZN2os3hal14device_manager4initEv+0x74>
  102b78:	90                   	nop
  102b79:	8d b4 26 00 00 00 00 	lea    esi,[esi+eiz*1+0x0]
  102b80:	83 ec 04             	sub    esp,0x4
  102b83:	50                   	push   eax
  102b84:	68 d7 9f 12 00       	push   0x129fd7
  102b89:	68 bc ad 12 00       	push   0x12adbc
  102b8e:	e8 cd 80 01 00       	call   11ac60 <printf>
  102b93:	83 c4 20             	add    esp,0x20
  102b96:	5b                   	pop    ebx
  102b97:	5e                   	pop    esi
  102b98:	5f                   	pop    edi
  102b99:	c3                   	ret    
  102b9a:	8d b6 00 00 00 00    	lea    esi,[esi+0x0]
  102ba0:	83 ec 08             	sub    esp,0x8
  102ba3:	bb d8 d0 1c 00       	mov    ebx,0x1cd0d8
  102ba8:	68 d0 d0 1c 00       	push   0x1cd0d0
  102bad:	68 58 ad 12 00       	push   0x12ad58
  102bb2:	e8 49 99 01 00       	call   11c500 <perror>
  102bb7:	83 c4 10             	add    esp,0x10
  102bba:	e9 25 ff ff ff       	jmp    102ae4 <_ZN2os3hal14device_manager4initEv+0x74>
  102bbf:	50                   	push   eax
  102bc0:	50                   	push   eax
  102bc1:	53                   	push   ebx
  102bc2:	68 5c de 13 00       	push   0x13de5c
  102bc7:	e8 e4 30 02 00       	call   125cb0 <__ubsan_handle_type_mismatch>
  102bcc:	83 c4 10             	add    esp,0x10
  102bcf:	e9 10 ff ff ff       	jmp    102ae4 <_ZN2os3hal14device_manager4initEv+0x74>
  102bd4:	52                   	push   edx
  102bd5:	52                   	push   edx
  102bd6:	50                   	push   eax
  102bd7:	68 fc dd 13 00       	push   0x13ddfc
  102bdc:	e8 cf 30 02 00       	call   125cb0 <__ubsan_handle_type_mismatch>
  102be1:	83 c4 10             	add    esp,0x10
  102be4:	e9 45 ff ff ff       	jmp    102b2e <_ZN2os3hal14device_manager4initEv+0xbe>
  102be9:	51                   	push   ecx
  102bea:	51                   	push   ecx
  102beb:	53                   	push   ebx
  102bec:	68 14 de 13 00       	push   0x13de14
  102bf1:	e8 ba 30 02 00       	call   125cb0 <__ubsan_handle_type_mismatch>
  102bf6:	83 c4 10             	add    esp,0x10
  102bf9:	e9 1b ff ff ff       	jmp    102b19 <_ZN2os3hal14device_manager4initEv+0xa9>
  102bfe:	57                   	push   edi
  102bff:	57                   	push   edi
  102c00:	53                   	push   ebx
  102c01:	68 2c de 13 00       	push   0x13de2c
  102c06:	e8 a5 30 02 00       	call   125cb0 <__ubsan_handle_type_mismatch>
  102c0b:	83 c4 10             	add    esp,0x10
  102c0e:	e9 f5 fe ff ff       	jmp    102b08 <_ZN2os3hal14device_manager4initEv+0x98>
  102c13:	50                   	push   eax
  102c14:	50                   	push   eax
  102c15:	53                   	push   ebx
  102c16:	68 44 de 13 00       	push   0x13de44
  102c1b:	e8 90 30 02 00       	call   125cb0 <__ubsan_handle_type_mismatch>
  102c20:	83 c4 10             	add    esp,0x10
  102c23:	e9 cd fe ff ff       	jmp    102af5 <_ZN2os3hal14device_manager4initEv+0x85>
  102c28:	90                   	nop
  102c29:	8d b4 26 00 00 00 00 	lea    esi,[esi+eiz*1+0x0]

00102c30 <_ZN2os3hal14device_manager9uninstallEPNS0_8device_tE>:
  102c30:	55                   	push   ebp
  102c31:	57                   	push   edi
  102c32:	31 c0                	xor    eax,eax
  102c34:	56                   	push   esi
  102c35:	53                   	push   ebx
  102c36:	83 ec 2c             	sub    esp,0x2c
  102c39:	8b 7c 24 40          	mov    edi,DWORD PTR [esp+0x40]
  102c3d:	85 ff                	test   edi,edi
  102c3f:	0f 84 ba 01 00 00    	je     102dff <_ZN2os3hal14device_manager9uninstallEPNS0_8device_tE+0x1cf>
  102c45:	a1 d4 d0 1c 00       	mov    eax,ds:0x1cd0d4
  102c4a:	85 c0                	test   eax,eax
  102c4c:	0f 84 de 01 00 00    	je     102e30 <_ZN2os3hal14device_manager9uninstallEPNS0_8device_tE+0x200>
  102c52:	31 db                	xor    ebx,ebx
  102c54:	eb 4b                	jmp    102ca1 <_ZN2os3hal14device_manager9uninstallEPNS0_8device_tE+0x71>
  102c56:	8d 76 00             	lea    esi,[esi+0x0]
  102c59:	8d bc 27 00 00 00 00 	lea    edi,[edi+eiz*1+0x0]
  102c60:	8d 34 9a             	lea    esi,[edx+ebx*4]
  102c63:	85 f6                	test   esi,esi
  102c65:	0f 84 44 02 00 00    	je     102eaf <_ZN2os3hal14device_manager9uninstallEPNS0_8device_tE+0x27f>
  102c6b:	f7 c6 03 00 00 00    	test   esi,0x3
  102c71:	0f 85 38 02 00 00    	jne    102eaf <_ZN2os3hal14device_manager9uninstallEPNS0_8device_tE+0x27f>
  102c77:	85 f6                	test   esi,esi
  102c79:	0f 84 1b 02 00 00    	je     102e9a <_ZN2os3hal14device_manager9uninstallEPNS0_8device_tE+0x26a>
  102c7f:	f7 c6 03 00 00 00    	test   esi,0x3
  102c85:	0f 85 0f 02 00 00    	jne    102e9a <_ZN2os3hal14device_manager9uninstallEPNS0_8device_tE+0x26a>
  102c8b:	8b 36                	mov    esi,DWORD PTR [esi]
  102c8d:	a1 d4 d0 1c 00       	mov    eax,ds:0x1cd0d4
  102c92:	39 fe                	cmp    esi,edi
  102c94:	74 4a                	je     102ce0 <_ZN2os3hal14device_manager9uninstallEPNS0_8device_tE+0xb0>
  102c96:	83 c3 01             	add    ebx,0x1
  102c99:	39 c3                	cmp    ebx,eax
  102c9b:	0f 83 8f 01 00 00    	jae    102e30 <_ZN2os3hal14device_manager9uninstallEPNS0_8device_tE+0x200>
  102ca1:	8b 15 d0 d0 1c 00    	mov    edx,DWORD PTR ds:0x1cd0d0
  102ca7:	85 d2                	test   edx,edx
  102ca9:	0f 84 61 01 00 00    	je     102e10 <_ZN2os3hal14device_manager9uninstallEPNS0_8device_tE+0x1e0>
  102caf:	85 db                	test   ebx,ebx
  102cb1:	78 04                	js     102cb7 <_ZN2os3hal14device_manager9uninstallEPNS0_8device_tE+0x87>
  102cb3:	39 c3                	cmp    ebx,eax
  102cb5:	7c a9                	jl     102c60 <_ZN2os3hal14device_manager9uninstallEPNS0_8device_tE+0x30>
  102cb7:	50                   	push   eax
  102cb8:	53                   	push   ebx
  102cb9:	be d8 d0 1c 00       	mov    esi,0x1cd0d8
  102cbe:	68 d0 d0 1c 00       	push   0x1cd0d0
  102cc3:	68 7c ad 12 00       	push   0x12ad7c
  102cc8:	e8 33 98 01 00       	call   11c500 <perror>
  102ccd:	83 c4 10             	add    esp,0x10
  102cd0:	eb a5                	jmp    102c77 <_ZN2os3hal14device_manager9uninstallEPNS0_8device_tE+0x47>
  102cd2:	8d b4 26 00 00 00 00 	lea    esi,[esi+eiz*1+0x0]
  102cd9:	8d bc 27 00 00 00 00 	lea    edi,[edi+eiz*1+0x0]
  102ce0:	85 c0                	test   eax,eax
  102ce2:	0f 84 bc 00 00 00    	je     102da4 <_ZN2os3hal14device_manager9uninstallEPNS0_8device_tE+0x174>
  102ce8:	8b 15 d0 d0 1c 00    	mov    edx,DWORD PTR ds:0x1cd0d0
  102cee:	85 d2                	test   edx,edx
  102cf0:	0f 84 ae 00 00 00    	je     102da4 <_ZN2os3hal14device_manager9uninstallEPNS0_8device_tE+0x174>
  102cf6:	85 db                	test   ebx,ebx
  102cf8:	75 09                	jne    102d03 <_ZN2os3hal14device_manager9uninstallEPNS0_8device_tE+0xd3>
  102cfa:	83 f8 01             	cmp    eax,0x1
  102cfd:	0f 84 48 01 00 00    	je     102e4b <_ZN2os3hal14device_manager9uninstallEPNS0_8device_tE+0x21b>
  102d03:	8d 04 85 fc ff ff ff 	lea    eax,[eax*4-0x4]
  102d0a:	83 ec 08             	sub    esp,0x8
  102d0d:	6a 04                	push   0x4
  102d0f:	50                   	push   eax
  102d10:	e8 6b 7f 01 00       	call   11ac80 <tmalloc>
  102d15:	8b 15 d4 d0 1c 00    	mov    edx,DWORD PTR ds:0x1cd0d4
  102d1b:	89 44 24 1c          	mov    DWORD PTR [esp+0x1c],eax
  102d1f:	83 c4 10             	add    esp,0x10
  102d22:	8b 0d d0 d0 1c 00    	mov    ecx,DWORD PTR ds:0x1cd0d0
  102d28:	85 d2                	test   edx,edx
  102d2a:	74 5c                	je     102d88 <_ZN2os3hal14device_manager9uninstallEPNS0_8device_tE+0x158>
  102d2c:	89 74 24 10          	mov    DWORD PTR [esp+0x10],esi
  102d30:	31 c0                	xor    eax,eax
  102d32:	31 ff                	xor    edi,edi
  102d34:	89 d6                	mov    esi,edx
  102d36:	8d 76 00             	lea    esi,[esi+0x0]
  102d39:	8d bc 27 00 00 00 00 	lea    edi,[edi+eiz*1+0x0]
  102d40:	39 df                	cmp    edi,ebx
  102d42:	74 39                	je     102d7d <_ZN2os3hal14device_manager9uninstallEPNS0_8device_tE+0x14d>
  102d44:	8d 14 b9             	lea    edx,[ecx+edi*4]
  102d47:	8b 6c 24 0c          	mov    ebp,DWORD PTR [esp+0xc]
  102d4b:	85 d2                	test   edx,edx
  102d4d:	8d 6c 85 00          	lea    ebp,[ebp+eax*4+0x0]
  102d51:	0f 84 9a 01 00 00    	je     102ef1 <_ZN2os3hal14device_manager9uninstallEPNS0_8device_tE+0x2c1>
  102d57:	f6 c2 03             	test   dl,0x3
  102d5a:	0f 85 91 01 00 00    	jne    102ef1 <_ZN2os3hal14device_manager9uninstallEPNS0_8device_tE+0x2c1>
  102d60:	85 ed                	test   ebp,ebp
  102d62:	8b 14 b9             	mov    edx,DWORD PTR [ecx+edi*4]
  102d65:	0f 84 59 01 00 00    	je     102ec4 <_ZN2os3hal14device_manager9uninstallEPNS0_8device_tE+0x294>
  102d6b:	f7 c5 03 00 00 00    	test   ebp,0x3
  102d71:	0f 85 4d 01 00 00    	jne    102ec4 <_ZN2os3hal14device_manager9uninstallEPNS0_8device_tE+0x294>
  102d77:	89 55 00             	mov    DWORD PTR [ebp+0x0],edx
  102d7a:	83 c0 01             	add    eax,0x1
  102d7d:	83 c7 01             	add    edi,0x1
  102d80:	39 fe                	cmp    esi,edi
  102d82:	75 bc                	jne    102d40 <_ZN2os3hal14device_manager9uninstallEPNS0_8device_tE+0x110>
  102d84:	8b 74 24 10          	mov    esi,DWORD PTR [esp+0x10]
  102d88:	83 ec 0c             	sub    esp,0xc
  102d8b:	51                   	push   ecx
  102d8c:	e8 6f 7f 01 00       	call   11ad00 <free>
  102d91:	8b 44 24 1c          	mov    eax,DWORD PTR [esp+0x1c]
  102d95:	83 2d d4 d0 1c 00 01 	sub    DWORD PTR ds:0x1cd0d4,0x1
  102d9c:	83 c4 10             	add    esp,0x10
  102d9f:	a3 d0 d0 1c 00       	mov    ds:0x1cd0d0,eax
  102da4:	85 f6                	test   esi,esi
  102da6:	0f 84 c4 00 00 00    	je     102e70 <_ZN2os3hal14device_manager9uninstallEPNS0_8device_tE+0x240>
  102dac:	f7 c6 03 00 00 00    	test   esi,0x3
  102db2:	0f 85 b8 00 00 00    	jne    102e70 <_ZN2os3hal14device_manager9uninstallEPNS0_8device_tE+0x240>
  102db8:	83 ec 0c             	sub    esp,0xc
  102dbb:	56                   	push   esi
  102dbc:	e8 4f f7 ff ff       	call   102510 <_ZN2os3hal8device_t4nameEv>
  102dc1:	83 c4 10             	add    esp,0x10
  102dc4:	85 f6                	test   esi,esi
  102dc6:	89 c3                	mov    ebx,eax
  102dc8:	0f 84 b7 00 00 00    	je     102e85 <_ZN2os3hal14device_manager9uninstallEPNS0_8device_tE+0x255>
  102dce:	f7 c6 03 00 00 00    	test   esi,0x3
  102dd4:	0f 85 ab 00 00 00    	jne    102e85 <_ZN2os3hal14device_manager9uninstallEPNS0_8device_tE+0x255>
  102dda:	83 ec 0c             	sub    esp,0xc
  102ddd:	56                   	push   esi
  102dde:	e8 fd f6 ff ff       	call   1024e0 <_ZN2os3hal8device_t2idEv>
  102de3:	89 1c 24             	mov    DWORD PTR [esp],ebx
  102de6:	50                   	push   eax
  102de7:	56                   	push   esi
  102de8:	68 d7 9f 12 00       	push   0x129fd7
  102ded:	68 f4 ad 12 00       	push   0x12adf4
  102df2:	e8 69 7e 01 00       	call   11ac60 <printf>
  102df7:	83 c4 20             	add    esp,0x20
  102dfa:	b8 01 00 00 00       	mov    eax,0x1
  102dff:	83 c4 2c             	add    esp,0x2c
  102e02:	5b                   	pop    ebx
  102e03:	5e                   	pop    esi
  102e04:	5f                   	pop    edi
  102e05:	5d                   	pop    ebp
  102e06:	c3                   	ret    
  102e07:	89 f6                	mov    esi,esi
  102e09:	8d bc 27 00 00 00 00 	lea    edi,[edi+eiz*1+0x0]
  102e10:	83 ec 08             	sub    esp,0x8
  102e13:	be d8 d0 1c 00       	mov    esi,0x1cd0d8
  102e18:	68 d0 d0 1c 00       	push   0x1cd0d0
  102e1d:	68 58 ad 12 00       	push   0x12ad58
  102e22:	e8 d9 96 01 00       	call   11c500 <perror>
  102e27:	83 c4 10             	add    esp,0x10
  102e2a:	e9 48 fe ff ff       	jmp    102c77 <_ZN2os3hal14device_manager9uninstallEPNS0_8device_tE+0x47>
  102e2f:	90                   	nop
  102e30:	83 ec 08             	sub    esp,0x8
  102e33:	57                   	push   edi
  102e34:	68 28 ae 12 00       	push   0x12ae28
  102e39:	e8 c2 96 01 00       	call   11c500 <perror>
  102e3e:	83 c4 10             	add    esp,0x10
  102e41:	31 c0                	xor    eax,eax
  102e43:	83 c4 2c             	add    esp,0x2c
  102e46:	5b                   	pop    ebx
  102e47:	5e                   	pop    esi
  102e48:	5f                   	pop    edi
  102e49:	5d                   	pop    ebp
  102e4a:	c3                   	ret    
  102e4b:	83 ec 0c             	sub    esp,0xc
  102e4e:	52                   	push   edx
  102e4f:	e8 ac 7e 01 00       	call   11ad00 <free>
  102e54:	c7 05 d0 d0 1c 00 00 00 00 00 	mov    DWORD PTR ds:0x1cd0d0,0x0
  102e5e:	c7 05 d4 d0 1c 00 00 00 00 00 	mov    DWORD PTR ds:0x1cd0d4,0x0
  102e68:	83 c4 10             	add    esp,0x10
  102e6b:	e9 34 ff ff ff       	jmp    102da4 <_ZN2os3hal14device_manager9uninstallEPNS0_8device_tE+0x174>
  102e70:	52                   	push   edx
  102e71:	52                   	push   edx
  102e72:	56                   	push   esi
  102e73:	68 84 dd 13 00       	push   0x13dd84
  102e78:	e8 33 2e 02 00       	call   125cb0 <__ubsan_handle_type_mismatch>
  102e7d:	83 c4 10             	add    esp,0x10
  102e80:	e9 33 ff ff ff       	jmp    102db8 <_ZN2os3hal14device_manager9uninstallEPNS0_8device_tE+0x188>
  102e85:	50                   	push   eax
  102e86:	50                   	push   eax
  102e87:	56                   	push   esi
  102e88:	68 6c dd 13 00       	push   0x13dd6c
  102e8d:	e8 1e 2e 02 00       	call   125cb0 <__ubsan_handle_type_mismatch>
  102e92:	83 c4 10             	add    esp,0x10
  102e95:	e9 40 ff ff ff       	jmp    102dda <_ZN2os3hal14device_manager9uninstallEPNS0_8device_tE+0x1aa>
  102e9a:	50                   	push   eax
  102e9b:	50                   	push   eax
  102e9c:	56                   	push   esi
  102e9d:	68 cc dd 13 00       	push   0x13ddcc
  102ea2:	e8 09 2e 02 00       	call   125cb0 <__ubsan_handle_type_mismatch>
  102ea7:	83 c4 10             	add    esp,0x10
