
bin/kernel.bin:     file format elf32-i386
bin/kernel.bin
architecture: i386, flags 0x00000112:
EXEC_P, HAS_SYMS, D_PAGED
start address 0x00100030

SYMBOL TABLE:
00100000 l    d  .text	00000000 .text
0010ce20 l    d  .text.startup	00000000 .text.startup
0010d000 l    d  .rodata	00000000 .rodata
0010d018 l    d  .eh_frame	00000000 .eh_frame
00111074 l    d  .rodata.str1.1	00000000 .rodata.str1.1
00111568 l    d  .rodata.str1.4	00000000 .rodata.str1.4
00111888 l    d  .rodata.cst4	00000000 .rodata.cst4
00112000 l    d  .data	00000000 .data
00117000 l    d  .bss	00000000 .bss
00000000 l    df *ABS*	00000000 kernel/src/asm/boot.asm
00000001 l       *ABS*	00000000 MBOOT_PAGE_ALIGN
00000002 l       *ABS*	00000000 MBOOT_MEM_INFO
00000004 l       *ABS*	00000000 MBOOT_VID_INFO
1badb002 l       *ABS*	00000000 MBOOT_HEADER_MAGIC
00000007 l       *ABS*	00000000 MBOOT_HEADER_FLAGS
e4524ff7 l       *ABS*	00000000 MBOOT_CHECKSUM
00000000 l    df *ABS*	00000000 ctype.cpp
00000000 l    df *ABS*	00000000 debug.cpp
00000000 l    df *ABS*	00000000 gdt.cpp
0010d000 l     O .rodata	00000001 _ZL15KERNEL_CS_FLAGS
0010d002 l     O .rodata	00000001 _ZL16KERNEL_CS_ACCESS
0010d000 l     O .rodata	00000001 _ZL15KERNEL_DS_FLAGS
0010d001 l     O .rodata	00000001 _ZL16KERNEL_DS_ACCESS
00000000 l    df *ABS*	00000000 idt.cpp
00114cc0 l     O .data	00000074 _ZN2os3halL14EXCEPTION_MSGSE
00000000 l    df *ABS*	00000000 kernel/src/asm/irqs.asm
00107f20 l       .text	00000000 exception_stub
00107f4e l       .text	00000000 irq_stub
00000000 l    df *ABS*	00000000 kernel.cpp
00000000 l    df *ABS*	00000000 math.cpp
00000000 l    df *ABS*	00000000 kernel/src/asm/registers.asm
0010848e l       .text	00000000 _gdt_flush.done
001084ab l       .text	00000000 _idt_flush.done
00000000 l    df *ABS*	00000000 serial.cpp
00000000 l    df *ABS*	00000000 stdio.cpp
00000000 l    df *ABS*	00000000 stdlib.cpp
0010d004 l     O .rodata	00000011 _ZL10HEX_VALUES
00000000 l    df *ABS*	00000000 string.cpp
00000000 l    df *ABS*	00000000 ubsan.cpp
0010ca70 g     F .text	000000df __ubsan_handle_type_mismatch
0010c080 g     F .text	000000cf strcpy
0010a300 g     F .text	00000015 _ZN2os3hal17serial_controller9print_fmtEPcz
00107db0 g     F .text	00000088 _ZN2os3hal3idt12register_irqENS0_3IRQEPFvPNS0_15idt_registers_tEE
001084c2 g       .text	00000000 _read_cr3
0010a540 g     F .text	00000015 printf
00108750 g     F .text	0000002d _ZN2os3hal17serial_controller3endEv
00107a40 g     F .text	000000f5 _ZN2os3hal3idt4initEv
0010cb50 g     F .text	0000004c __ubsan_handle_add_overflow
0010c310 g     F .text	00000403 strsplit
00108170 g     F .text	0000009d _ZN2os6kernel4bootEv
00108155 g       .text	00000000 irq128
0010b890 g     F .text	0000000d strerror
00197200 g     O .bss	00000006 _gdt_reg
0010aad0 g     F .text	000000ce _itoa_rev
00107fa9 g       .text	00000000 isr4
0010bad0 g     F .text	00000003 memmove
00108083 g       .text	00000000 isr27
00107ffb g       .text	00000000 isr13
0010a760 g     F .text	000001b6 atol
0010c8f0 g     F .text	000000aa strlower
0010812d g       .text	00000000 irq12
00108051 g       .text	00000000 isr22
001082b0 g     F .text	0000005e ceil
0010800b g       .text	00000000 isr15
00108310 g     F .text	000000e8 floor
00108119 g       .text	00000000 irq10
00108780 g     F .text	00000167 _ZN2os3hal17serial_controller4readEv
00197f20 g     O .bss	00000060 _ZN2os6kernel9multibootE
00197f00 g     O .bss	00000006 _idt_reg
00108141 g       .text	00000000 irq14
001007f0 g     F .text	00000063 _ZN2os3hal3gdt4initEv
00107fd9 g       .text	00000000 isr9
00108105 g       .text	00000000 irq8
0010ba10 g     F .text	00000053 memcpy
0010805b g       .text	00000000 isr23
0010ae50 g     F .text	000002f2 _ultoa
0010b8a0 g     F .text	00000034 perror
00112000 g       .data	00000000 start_ctors
00108097 g       .text	00000000 isr29
001000f0 g     F .text	00000011 islower
001001d0 g     F .text	00000011 tolower
0010b880 g     F .text	00000003 system
0010a920 g     F .text	0000011c atox
0010a560 g     F .text	00000003 malloc
00107b40 g     F .text	00000263 _ZN2os3hal3idt14set_descriptorEhjNS0_11idt_flags_tEt
001084f0 g     F .text	00000254 _ZN2os3hal17serial_controller5beginENS0_11serial_portE
001080ab g       .text	00000000 isr31
00100ae0 g     F .text	00004606 _ZN2os3hal3idt15init_exceptionsEv
0010cdd0 g     F .text	0000004c __ubsan_handle_vla_bound_not_positive
0010aba0 g     F .text	000002a4 itoa
00108047 g       .text	00000000 isr21
00100130 g     F .text	0000002e ispunct
00108e20 g     F .text	000001d7 _ZN2os3hal17serial_controller7printlnEPc
00197002 g     O .bss	00000002 _ZN2os3sys5debug6serialE
00108123 g       .text	00000000 irq11
00100160 g     F .text	0000001b isspace
0010808d g       .text	00000000 isr28
0010c290 g     F .text	00000080 stradd
00107fd1 g       .text	00000000 isr8
001080e7 g       .text	00000000 irq5
00197100 g     O .bss	00000018 _gdt_entries
00100860 g     F .text	00000002 default_handler
00100210 g     F .text	0000003d _ZN2os3sys5debug4initENS_3hal11serial_portE
001001a0 g     F .text	00000026 isxdigit
0010803d g       .text	00000000 isr20
00198000 g       .bss	00000000 _kernel_end
00108003 g       .text	00000000 isr14
00107fb3 g       .text	00000000 isr5
0010c240 g     F .text	00000003 strrchr
00100790 g     F .text	00000052 _ZN2os3hal3gdt16init_descriptorsEv
00100250 g     F .text	00000531 _ZN2os3hal3gdt14set_descriptorEhjjNS0_12gdt_access_tENS0_11gdt_flags_tE
001084c6 g       .text	00000000 _read_cr4
001050f0 g     F .text	00002946 _ZN2os3hal3idt9init_irqsEv
00108210 g     F .text	00000036 kernel_main
0010ca20 g     F .text	0000004c __ubsan_handle_out_of_bounds
00197000 g       .bss	00000000 _stack_top
0010a360 g     F .text	00000032 _ZN2os3hal17serial_controller8has_recvEv
00114cb6 g     O .data	00000001 IDT_EXCEPTION_ATTRS
0010aa40 g     F .text	00000003 atof
0010849d g       .text	00000000 _idt_flush
0010c720 g     F .text	00000119 strwhite
0010bae0 g     F .text	00000172 strcat
00107ee0 g     F .text	00000040 _ZN2os3hal3idt7ack_irqEPNS0_15idt_registers_tE
001080f1 g       .text	00000000 irq6
0010a4f0 g     F .text	00000047 vprintf
001080bf g       .text	00000000 irq1
00100000 g       .text	00000000 _mboot
0010cc40 g     F .text	0000004c __ubsan_handle_negate_overflow
0010b8e0 g     F .text	0000006a memchr
001084be g       .text	00000000 _read_cr2
00100030 g       .text	00000000 _start
0010c260 g     F .text	00000003 strstr
0010aa50 g     F .text	00000003 rand
00107f91 g       .text	00000000 isr1
0010ce20 g     F .text.startup	00000017 _ZN2os6kernel4mainEv
0010810f g       .text	00000000 irq9
00100180 g     F .text	00000011 isupper
0010bf30 g     F .text	0000014f strncmp
00108400 g     F .text	00000078 pow
00108079 g       .text	00000000 isr26
0010c150 g     F .text	0000007d strncpy
00107feb g       .text	00000000 isr11
0010aa70 g     F .text	00000054 _itoa_swap
0010cbf0 g     F .text	0000004c __ubsan_handle_mul_overflow
0010c270 g     F .text	00000003 strtok
001084da g       .text	00000000 _write_cr4
0010b950 g     F .text	000000b4 memcmp
0010a590 g     F .text	00000002 freearray
00100070 g     F .text	00000014 isalpha
0010a3a0 g     F .text	000000b6 _ZN2os3hal17serial_controller8validateEv
0010bc60 g     F .text	0000012c strncat
0010cc90 g     F .text	0000004c __ubsan_handle_divrem_overflow
0010a570 g     F .text	00000003 tmalloc
00108137 g       .text	00000000 irq13
00107ff3 g       .text	00000000 isr12
0010cce0 g     F .text	0000004c __ubsan_handle_missing_return
00112000 g       .data	00000000 end_ctors
0010ba70 g     F .text	00000052 memset
00197000 g     O .bss	00000001 _ZN2os3sys5debug14stdout_enabledE
00197300 g     O .bss	00000400 _idt_handlers
0010c9a0 g     F .text	00000079 strback
0010c280 g     F .text	00000003 strxfrm
00107f8a g       .text	00000000 isr0
001080c9 g       .text	00000000 irq2
001000d0 g     F .text	00000011 isgraph
00100040 g     F .text	00000026 isalnum
00100110 g     F .text	0000001c isprint
00108065 g       .text	00000000 isr24
00108015 g       .text	00000000 isr16
0010bdf0 g     F .text	00000131 strcmp
00107f9f g       .text	00000000 isr3
0010c1d0 g     F .text	00000003 strcspn
0010cd80 g     F .text	0000004c __ubsan_handle_shift_out_of_bounds
0010b150 g     F .text	0000001d ltoa
0010a320 g     F .text	00000035 _ZN2os3hal17serial_controller8can_sendEv
0010cba0 g     F .text	0000004c __ubsan_handle_sub_overflow
00107fbd g       .text	00000000 isr6
001080fb g       .text	00000000 irq7
00100990 g     F .text	00000145 irq_handler
00108029 g       .text	00000000 isr18
00117000 g       .bss	00000000 _stack_bottom
001000b0 g     F .text	00000011 isdigit
0010b170 g     F .text	00000709 strhex
001080b5 g       .text	00000000 irq0
00107fe3 g       .text	00000000 isr10
0010aa60 g     F .text	00000002 exit
0010c840 g     F .text	000000aa strupper
001084ca g       .text	00000000 _write_cr0
0010a5a0 g     F .text	000001b6 atoi
00100090 g     F .text	00000016 iscntrl
00197700 g     O .bss	00000800 _idt_entries
0010801f g       .text	00000000 isr17
00108290 g     F .text	00000017 clamp
00107f98 g       .text	00000000 isr2
00108033 g       .text	00000000 isr19
0010a4c0 g     F .text	0000002b _ZN2os3hal17serial_controller4portEv
0010c250 g     F .text	00000003 strspn
001080a1 g       .text	00000000 isr30
0010cd30 g     F .text	0000004c __ubsan_handle_load_invalid_value
0010c1e0 g     F .text	00000042 strlen
00100000 g       .text	00000000 _kernel_start
001001f0 g     F .text	00000011 toupper
00108480 g       .text	00000000 _gdt_flush
00107e40 g     F .text	0000009d _ZN2os3hal3idt14unregister_irqENS0_3IRQE
00108250 g     F .text	00000032 abs
0010a460 g     F .text	00000056 _ZN2os3hal17serial_controller7portstrENS0_11serial_portE
0010814b g       .text	00000000 irq15
0010bd90 g     F .text	00000052 strchr
00107fc7 g       .text	00000000 isr7
001088f0 g     F .text	00000183 _ZN2os3hal17serial_controller5writeEc
0010806f g       .text	00000000 isr25
00109000 g     F .text	000012f3 _ZN2os3hal17serial_controller10vprint_fmtEPcS2_
001084d2 g       .text	00000000 _write_cr3
001084ba g       .text	00000000 _read_cr0
00114cb5 g     O .data	00000001 IDT_IRQ_ATTRS
00108a80 g     F .text	0000039e _ZN2os3hal17serial_controller5printEPc
001080dd g       .text	00000000 irq4
0010c230 g     F .text	00000003 strpbrk
001080d3 g       .text	00000000 irq3
00100870 g     F .text	0000011d exception_handler
0010a580 g     F .text	00000002 free



Disassembly of section .text:

00100000 <_kernel_start>:
  100000:	02 b0 ad 1b 07 00    	add    dh,BYTE PTR [eax+0x71bad]
  100006:	00 00                	add    BYTE PTR [eax],al
  100008:	f7 4f 52 e4 00 00 10 	test   DWORD PTR [edi+0x52],0x100000e4
	...
  10001b:	00 30                	add    BYTE PTR [eax],dh
  10001d:	00 10                	add    BYTE PTR [eax],dl
  10001f:	00 00                	add    BYTE PTR [eax],al
  100021:	00 00                	add    BYTE PTR [eax],al
  100023:	00 80 02 00 00 e0    	add    BYTE PTR [eax-0x1ffffffe],al
  100029:	01 00                	add    DWORD PTR [eax],eax
  10002b:	00 20                	add    BYTE PTR [eax],ah
  10002d:	00 00                	add    BYTE PTR [eax],al
	...

00100030 <_start>:
  100030:	fa                   	cli    
  100031:	bd 00 70 19 00       	mov    ebp,0x197000
  100036:	89 ec                	mov    esp,ebp
  100038:	53                   	push   ebx
  100039:	e8 d2 81 00 00       	call   108210 <kernel_main>
  10003e:	fa                   	cli    
  10003f:	f4                   	hlt    

00100040 <isalnum>:
  100040:	8b 54 24 04          	mov    edx,DWORD PTR [esp+0x4]
  100044:	b8 01 00 00 00       	mov    eax,0x1
  100049:	83 e2 df             	and    edx,0xffffffdf
  10004c:	83 ea 41             	sub    edx,0x41
  10004f:	83 fa 19             	cmp    edx,0x19
  100052:	76 10                	jbe    100064 <isalnum+0x24>
  100054:	8b 44 24 04          	mov    eax,DWORD PTR [esp+0x4]
  100058:	83 e8 30             	sub    eax,0x30
  10005b:	83 f8 09             	cmp    eax,0x9
  10005e:	0f 96 c0             	setbe  al
  100061:	0f b6 c0             	movzx  eax,al
  100064:	f3 c3                	repz ret 
  100066:	8d 76 00             	lea    esi,[esi+0x0]
  100069:	8d bc 27 00 00 00 00 	lea    edi,[edi+eiz*1+0x0]

00100070 <isalpha>:
  100070:	8b 44 24 04          	mov    eax,DWORD PTR [esp+0x4]
  100074:	83 e0 df             	and    eax,0xffffffdf
  100077:	83 e8 41             	sub    eax,0x41
  10007a:	83 f8 19             	cmp    eax,0x19
  10007d:	0f 96 c0             	setbe  al
  100080:	0f b6 c0             	movzx  eax,al
  100083:	c3                   	ret    
  100084:	8d b6 00 00 00 00    	lea    esi,[esi+0x0]
  10008a:	8d bf 00 00 00 00    	lea    edi,[edi+0x0]

00100090 <iscntrl>:
  100090:	8b 54 24 04          	mov    edx,DWORD PTR [esp+0x4]
  100094:	83 fa 7f             	cmp    edx,0x7f
  100097:	0f 94 c0             	sete   al
  10009a:	83 fa 1f             	cmp    edx,0x1f
  10009d:	0f 9e c2             	setle  dl
  1000a0:	09 d0                	or     eax,edx
  1000a2:	0f b6 c0             	movzx  eax,al
  1000a5:	c3                   	ret    
  1000a6:	8d 76 00             	lea    esi,[esi+0x0]
  1000a9:	8d bc 27 00 00 00 00 	lea    edi,[edi+eiz*1+0x0]

001000b0 <isdigit>:
  1000b0:	8b 44 24 04          	mov    eax,DWORD PTR [esp+0x4]
  1000b4:	83 e8 30             	sub    eax,0x30
  1000b7:	83 f8 09             	cmp    eax,0x9
  1000ba:	0f 96 c0             	setbe  al
  1000bd:	0f b6 c0             	movzx  eax,al
  1000c0:	c3                   	ret    
  1000c1:	eb 0d                	jmp    1000d0 <isgraph>
  1000c3:	90                   	nop
  1000c4:	90                   	nop
  1000c5:	90                   	nop
  1000c6:	90                   	nop
  1000c7:	90                   	nop
  1000c8:	90                   	nop
  1000c9:	90                   	nop
  1000ca:	90                   	nop
  1000cb:	90                   	nop
  1000cc:	90                   	nop
  1000cd:	90                   	nop
  1000ce:	90                   	nop
  1000cf:	90                   	nop

001000d0 <isgraph>:
  1000d0:	8b 44 24 04          	mov    eax,DWORD PTR [esp+0x4]
  1000d4:	83 e8 21             	sub    eax,0x21
  1000d7:	83 f8 5d             	cmp    eax,0x5d
  1000da:	0f 96 c0             	setbe  al
  1000dd:	0f b6 c0             	movzx  eax,al
  1000e0:	c3                   	ret    
  1000e1:	eb 0d                	jmp    1000f0 <islower>
  1000e3:	90                   	nop
  1000e4:	90                   	nop
  1000e5:	90                   	nop
  1000e6:	90                   	nop
  1000e7:	90                   	nop
  1000e8:	90                   	nop
  1000e9:	90                   	nop
  1000ea:	90                   	nop
  1000eb:	90                   	nop
  1000ec:	90                   	nop
  1000ed:	90                   	nop
  1000ee:	90                   	nop
  1000ef:	90                   	nop

001000f0 <islower>:
  1000f0:	8b 44 24 04          	mov    eax,DWORD PTR [esp+0x4]
  1000f4:	83 e8 61             	sub    eax,0x61
  1000f7:	83 f8 19             	cmp    eax,0x19
  1000fa:	0f 96 c0             	setbe  al
  1000fd:	0f b6 c0             	movzx  eax,al
  100100:	c3                   	ret    
  100101:	eb 0d                	jmp    100110 <isprint>
  100103:	90                   	nop
  100104:	90                   	nop
  100105:	90                   	nop
  100106:	90                   	nop
  100107:	90                   	nop
  100108:	90                   	nop
  100109:	90                   	nop
  10010a:	90                   	nop
  10010b:	90                   	nop
  10010c:	90                   	nop
  10010d:	90                   	nop
  10010e:	90                   	nop
  10010f:	90                   	nop

00100110 <isprint>:
  100110:	8b 54 24 04          	mov    edx,DWORD PTR [esp+0x4]
  100114:	52                   	push   edx
  100115:	e8 b6 ff ff ff       	call   1000d0 <isgraph>
  10011a:	83 fa 20             	cmp    edx,0x20
  10011d:	0f 94 c2             	sete   dl
  100120:	85 c0                	test   eax,eax
  100122:	0f 95 c0             	setne  al
  100125:	09 d0                	or     eax,edx
  100127:	59                   	pop    ecx
  100128:	0f b6 c0             	movzx  eax,al
  10012b:	c3                   	ret    
  10012c:	8d 74 26 00          	lea    esi,[esi+eiz*1+0x0]

00100130 <ispunct>:
  100130:	8b 54 24 04          	mov    edx,DWORD PTR [esp+0x4]
  100134:	b8 01 00 00 00       	mov    eax,0x1
  100139:	8d 4a df             	lea    ecx,[edx-0x21]
  10013c:	83 f9 0e             	cmp    ecx,0xe
  10013f:	76 1b                	jbe    10015c <ispunct+0x2c>
  100141:	8d 4a c6             	lea    ecx,[edx-0x3a]
  100144:	83 f9 06             	cmp    ecx,0x6
  100147:	76 13                	jbe    10015c <ispunct+0x2c>
  100149:	8d 4a a5             	lea    ecx,[edx-0x5b]
  10014c:	83 f9 05             	cmp    ecx,0x5
  10014f:	76 0b                	jbe    10015c <ispunct+0x2c>
  100151:	83 ea 7b             	sub    edx,0x7b
  100154:	31 c0                	xor    eax,eax
  100156:	83 fa 03             	cmp    edx,0x3
  100159:	0f 96 c0             	setbe  al
  10015c:	f3 c3                	repz ret 
  10015e:	66 90                	xchg   ax,ax

00100160 <isspace>:
  100160:	8b 54 24 04          	mov    edx,DWORD PTR [esp+0x4]
  100164:	b8 01 00 00 00       	mov    eax,0x1
  100169:	83 fa 20             	cmp    edx,0x20
  10016c:	74 0b                	je     100179 <isspace+0x19>
  10016e:	83 ea 0c             	sub    edx,0xc
  100171:	31 c0                	xor    eax,eax
  100173:	83 fa 03             	cmp    edx,0x3
  100176:	0f 96 c0             	setbe  al
  100179:	f3 c3                	repz ret 
  10017b:	90                   	nop
  10017c:	8d 74 26 00          	lea    esi,[esi+eiz*1+0x0]

00100180 <isupper>:
  100180:	8b 44 24 04          	mov    eax,DWORD PTR [esp+0x4]
  100184:	83 e8 41             	sub    eax,0x41
  100187:	83 f8 19             	cmp    eax,0x19
  10018a:	0f 96 c0             	setbe  al
  10018d:	0f b6 c0             	movzx  eax,al
  100190:	c3                   	ret    
  100191:	eb 0d                	jmp    1001a0 <isxdigit>
  100193:	90                   	nop
  100194:	90                   	nop
  100195:	90                   	nop
  100196:	90                   	nop
  100197:	90                   	nop
  100198:	90                   	nop
  100199:	90                   	nop
  10019a:	90                   	nop
  10019b:	90                   	nop
  10019c:	90                   	nop
  10019d:	90                   	nop
  10019e:	90                   	nop
  10019f:	90                   	nop

001001a0 <isxdigit>:
  1001a0:	8b 54 24 04          	mov    edx,DWORD PTR [esp+0x4]
  1001a4:	b8 01 00 00 00       	mov    eax,0x1
  1001a9:	8d 4a d0             	lea    ecx,[edx-0x30]
  1001ac:	83 f9 09             	cmp    ecx,0x9
  1001af:	76 13                	jbe    1001c4 <isxdigit+0x24>
  1001b1:	8d 4a bf             	lea    ecx,[edx-0x41]
  1001b4:	83 f9 05             	cmp    ecx,0x5
  1001b7:	76 0b                	jbe    1001c4 <isxdigit+0x24>
  1001b9:	83 ea 61             	sub    edx,0x61
  1001bc:	31 c0                	xor    eax,eax
  1001be:	83 fa 04             	cmp    edx,0x4
  1001c1:	0f 96 c0             	setbe  al
  1001c4:	f3 c3                	repz ret 
  1001c6:	8d 76 00             	lea    esi,[esi+0x0]
  1001c9:	8d bc 27 00 00 00 00 	lea    edi,[edi+eiz*1+0x0]

001001d0 <tolower>:
  1001d0:	8b 54 24 04          	mov    edx,DWORD PTR [esp+0x4]
  1001d4:	8d 4a bf             	lea    ecx,[edx-0x41]
  1001d7:	8d 42 20             	lea    eax,[edx+0x20]
  1001da:	83 f9 1a             	cmp    ecx,0x1a
  1001dd:	0f 43 c2             	cmovae eax,edx
  1001e0:	c3                   	ret    
  1001e1:	eb 0d                	jmp    1001f0 <toupper>
  1001e3:	90                   	nop
  1001e4:	90                   	nop
  1001e5:	90                   	nop
  1001e6:	90                   	nop
  1001e7:	90                   	nop
  1001e8:	90                   	nop
  1001e9:	90                   	nop
  1001ea:	90                   	nop
  1001eb:	90                   	nop
  1001ec:	90                   	nop
  1001ed:	90                   	nop
  1001ee:	90                   	nop
  1001ef:	90                   	nop

001001f0 <toupper>:
  1001f0:	8b 54 24 04          	mov    edx,DWORD PTR [esp+0x4]
  1001f4:	8d 4a 9f             	lea    ecx,[edx-0x61]
  1001f7:	8d 42 e0             	lea    eax,[edx-0x20]
  1001fa:	83 f9 1a             	cmp    ecx,0x1a
  1001fd:	0f 43 c2             	cmovae eax,edx
  100200:	c3                   	ret    
  100201:	66 90                	xchg   ax,ax
  100203:	66 90                	xchg   ax,ax
  100205:	66 90                	xchg   ax,ax
  100207:	66 90                	xchg   ax,ax
  100209:	66 90                	xchg   ax,ax
  10020b:	66 90                	xchg   ax,ax
  10020d:	66 90                	xchg   ax,ax
  10020f:	90                   	nop

00100210 <_ZN2os3sys5debug4initENS_3hal11serial_portE>:
  100210:	53                   	push   ebx
  100211:	83 ec 10             	sub    esp,0x10
  100214:	c6 05 00 70 19 00 01 	mov    BYTE PTR ds:0x197000,0x1
  10021b:	8b 5c 24 18          	mov    ebx,DWORD PTR [esp+0x18]
  10021f:	53                   	push   ebx
  100220:	68 02 70 19 00       	push   0x197002
  100225:	e8 c6 82 00 00       	call   1084f0 <_ZN2os3hal17serial_controller5beginENS0_11serial_portE>
  10022a:	66 89 1c 24          	mov    WORD PTR [esp],bx
  10022e:	e8 2d a2 00 00       	call   10a460 <_ZN2os3hal17serial_controller7portstrENS0_11serial_portE>
  100233:	50                   	push   eax
  100234:	68 74 10 11 00       	push   0x111074
  100239:	68 68 15 11 00       	push   0x111568
  10023e:	68 02 70 19 00       	push   0x197002
  100243:	e8 b8 a0 00 00       	call   10a300 <_ZN2os3hal17serial_controller9print_fmtEPcz>
  100248:	83 c4 28             	add    esp,0x28
  10024b:	5b                   	pop    ebx
  10024c:	c3                   	ret    
  10024d:	66 90                	xchg   ax,ax
  10024f:	90                   	nop

00100250 <_ZN2os3hal3gdt14set_descriptorEhjjNS0_12gdt_access_tENS0_11gdt_flags_tE>:
  100250:	55                   	push   ebp
  100251:	57                   	push   edi
  100252:	56                   	push   esi
  100253:	53                   	push   ebx
  100254:	83 ec 1c             	sub    esp,0x1c
  100257:	0f b6 5c 24 30       	movzx  ebx,BYTE PTR [esp+0x30]
  10025c:	8b 6c 24 34          	mov    ebp,DWORD PTR [esp+0x34]
  100260:	0f b6 44 24 3c       	movzx  eax,BYTE PTR [esp+0x3c]
  100265:	83 fb 02             	cmp    ebx,0x2
  100268:	0f 87 6e 02 00 00    	ja     1004dc <_ZN2os3hal3gdt14set_descriptorEhjjNS0_12gdt_access_tENS0_11gdt_flags_tE+0x28c>
  10026e:	8d 34 dd 00 00 00 00 	lea    esi,[ebx*8+0x0]
  100275:	b9 02 00 00 00       	mov    ecx,0x2
  10027a:	81 e9 00 71 19 00    	sub    ecx,0x197100
  100280:	8d 96 02 71 19 00    	lea    edx,[esi+0x197102]
  100286:	89 4c 24 08          	mov    DWORD PTR [esp+0x8],ecx
  10028a:	01 d1                	add    ecx,edx
  10028c:	83 f9 18             	cmp    ecx,0x18
  10028f:	0f 87 c6 04 00 00    	ja     10075b <_ZN2os3hal3gdt14set_descriptorEhjjNS0_12gdt_access_tENS0_11gdt_flags_tE+0x50b>
  100295:	89 ef                	mov    edi,ebp
  100297:	66 89 2c dd 02 71 19 00 	mov    WORD PTR [ebx*8+0x197102],bp
  10029f:	c1 ef 10             	shr    edi,0x10
  1002a2:	83 fb 02             	cmp    ebx,0x2
  1002a5:	89 7c 24 04          	mov    DWORD PTR [esp+0x4],edi
  1002a9:	0f 87 8e 04 00 00    	ja     10073d <_ZN2os3hal3gdt14set_descriptorEhjjNS0_12gdt_access_tENS0_11gdt_flags_tE+0x4ed>
  1002af:	8d 96 04 71 19 00    	lea    edx,[esi+0x197104]
  1002b5:	bf 01 00 00 00       	mov    edi,0x1
  1002ba:	81 ef 00 71 19 00    	sub    edi,0x197100
  1002c0:	8d 0c 3a             	lea    ecx,[edx+edi*1]
  1002c3:	83 f9 18             	cmp    ecx,0x18
  1002c6:	0f 87 4b 04 00 00    	ja     100717 <_ZN2os3hal3gdt14set_descriptorEhjjNS0_12gdt_access_tENS0_11gdt_flags_tE+0x4c7>
  1002cc:	0f b6 4c 24 04       	movzx  ecx,BYTE PTR [esp+0x4]
  1002d1:	88 0c dd 04 71 19 00 	mov    BYTE PTR [ebx*8+0x197104],cl
  1002d8:	89 e9                	mov    ecx,ebp
  1002da:	c1 e9 18             	shr    ecx,0x18
  1002dd:	83 fb 02             	cmp    ebx,0x2
  1002e0:	0f 87 0b 04 00 00    	ja     1006f1 <_ZN2os3hal3gdt14set_descriptorEhjjNS0_12gdt_access_tENS0_11gdt_flags_tE+0x4a1>
  1002e6:	8d 96 07 71 19 00    	lea    edx,[esi+0x197107]
  1002ec:	01 d7                	add    edi,edx
  1002ee:	83 ff 18             	cmp    edi,0x18
  1002f1:	0f 87 cc 03 00 00    	ja     1006c3 <_ZN2os3hal3gdt14set_descriptorEhjjNS0_12gdt_access_tENS0_11gdt_flags_tE+0x473>
  1002f7:	83 fb 02             	cmp    ebx,0x2
  1002fa:	88 0c dd 07 71 19 00 	mov    BYTE PTR [ebx*8+0x197107],cl
  100301:	0f 87 9e 03 00 00    	ja     1006a5 <_ZN2os3hal3gdt14set_descriptorEhjjNS0_12gdt_access_tENS0_11gdt_flags_tE+0x455>
  100307:	8b 54 24 08          	mov    edx,DWORD PTR [esp+0x8]
  10030b:	81 c6 00 71 19 00    	add    esi,0x197100
  100311:	01 f2                	add    edx,esi
  100313:	83 fa 18             	cmp    edx,0x18
  100316:	0f 87 63 03 00 00    	ja     10067f <_ZN2os3hal3gdt14set_descriptorEhjjNS0_12gdt_access_tENS0_11gdt_flags_tE+0x42f>
  10031c:	0f b7 74 24 38       	movzx  esi,WORD PTR [esp+0x38]
  100321:	8b 4c 24 38          	mov    ecx,DWORD PTR [esp+0x38]
  100325:	c1 e9 10             	shr    ecx,0x10
  100328:	83 fb 02             	cmp    ebx,0x2
  10032b:	66 89 34 dd 00 71 19 00 	mov    WORD PTR [ebx*8+0x197100],si
  100333:	0f 87 20 03 00 00    	ja     100659 <_ZN2os3hal3gdt14set_descriptorEhjjNS0_12gdt_access_tENS0_11gdt_flags_tE+0x409>
  100339:	0f b6 14 dd 06 71 19 00 	movzx  edx,BYTE PTR [ebx*8+0x197106]
  100341:	83 e1 0f             	and    ecx,0xf
  100344:	83 e2 f0             	and    edx,0xfffffff0
  100347:	09 ca                	or     edx,ecx
  100349:	83 fb 02             	cmp    ebx,0x2
  10034c:	88 14 dd 06 71 19 00 	mov    BYTE PTR [ebx*8+0x197106],dl
  100353:	0f 87 e2 02 00 00    	ja     10063b <_ZN2os3hal3gdt14set_descriptorEhjjNS0_12gdt_access_tENS0_11gdt_flags_tE+0x3eb>
  100359:	0f b6 14 dd 05 71 19 00 	movzx  edx,BYTE PTR [ebx*8+0x197105]
  100361:	89 c1                	mov    ecx,eax
  100363:	83 e1 01             	and    ecx,0x1
  100366:	83 e2 fe             	and    edx,0xfffffffe
  100369:	09 ca                	or     edx,ecx
  10036b:	83 fb 02             	cmp    ebx,0x2
  10036e:	88 14 dd 05 71 19 00 	mov    BYTE PTR [ebx*8+0x197105],dl
  100375:	0f 87 a2 02 00 00    	ja     10061d <_ZN2os3hal3gdt14set_descriptorEhjjNS0_12gdt_access_tENS0_11gdt_flags_tE+0x3cd>
  10037b:	0f b6 14 dd 05 71 19 00 	movzx  edx,BYTE PTR [ebx*8+0x197105]
  100383:	89 c1                	mov    ecx,eax
  100385:	83 e1 02             	and    ecx,0x2
  100388:	83 e2 fd             	and    edx,0xfffffffd
  10038b:	09 ca                	or     edx,ecx
  10038d:	83 fb 02             	cmp    ebx,0x2
  100390:	88 14 dd 05 71 19 00 	mov    BYTE PTR [ebx*8+0x197105],dl
  100397:	0f 87 62 02 00 00    	ja     1005ff <_ZN2os3hal3gdt14set_descriptorEhjjNS0_12gdt_access_tENS0_11gdt_flags_tE+0x3af>
  10039d:	0f b6 14 dd 05 71 19 00 	movzx  edx,BYTE PTR [ebx*8+0x197105]
  1003a5:	89 c1                	mov    ecx,eax
  1003a7:	83 e1 04             	and    ecx,0x4
  1003aa:	83 e2 fb             	and    edx,0xfffffffb
  1003ad:	09 ca                	or     edx,ecx
  1003af:	83 fb 02             	cmp    ebx,0x2
  1003b2:	88 14 dd 05 71 19 00 	mov    BYTE PTR [ebx*8+0x197105],dl
  1003b9:	0f 87 22 02 00 00    	ja     1005e1 <_ZN2os3hal3gdt14set_descriptorEhjjNS0_12gdt_access_tENS0_11gdt_flags_tE+0x391>
  1003bf:	0f b6 14 dd 05 71 19 00 	movzx  edx,BYTE PTR [ebx*8+0x197105]
  1003c7:	89 c1                	mov    ecx,eax
  1003c9:	83 e1 08             	and    ecx,0x8
  1003cc:	83 e2 f7             	and    edx,0xfffffff7
  1003cf:	09 ca                	or     edx,ecx
  1003d1:	83 fb 02             	cmp    ebx,0x2
  1003d4:	88 14 dd 05 71 19 00 	mov    BYTE PTR [ebx*8+0x197105],dl
  1003db:	0f 87 e2 01 00 00    	ja     1005c3 <_ZN2os3hal3gdt14set_descriptorEhjjNS0_12gdt_access_tENS0_11gdt_flags_tE+0x373>
  1003e1:	0f b6 14 dd 05 71 19 00 	movzx  edx,BYTE PTR [ebx*8+0x197105]
  1003e9:	89 c1                	mov    ecx,eax
  1003eb:	83 e1 10             	and    ecx,0x10
  1003ee:	83 e2 ef             	and    edx,0xffffffef
  1003f1:	09 ca                	or     edx,ecx
  1003f3:	83 fb 02             	cmp    ebx,0x2
  1003f6:	88 14 dd 05 71 19 00 	mov    BYTE PTR [ebx*8+0x197105],dl
  1003fd:	0f 87 a2 01 00 00    	ja     1005a5 <_ZN2os3hal3gdt14set_descriptorEhjjNS0_12gdt_access_tENS0_11gdt_flags_tE+0x355>
  100403:	0f b6 14 dd 05 71 19 00 	movzx  edx,BYTE PTR [ebx*8+0x197105]
  10040b:	89 c1                	mov    ecx,eax
  10040d:	83 e1 60             	and    ecx,0x60
  100410:	83 e2 9f             	and    edx,0xffffff9f
  100413:	09 ca                	or     edx,ecx
  100415:	83 fb 02             	cmp    ebx,0x2
  100418:	88 14 dd 05 71 19 00 	mov    BYTE PTR [ebx*8+0x197105],dl
  10041f:	0f 87 62 01 00 00    	ja     100587 <_ZN2os3hal3gdt14set_descriptorEhjjNS0_12gdt_access_tENS0_11gdt_flags_tE+0x337>
  100425:	0f b6 14 dd 05 71 19 00 	movzx  edx,BYTE PTR [ebx*8+0x197105]
  10042d:	89 c1                	mov    ecx,eax
  10042f:	83 e1 80             	and    ecx,0xffffff80
  100432:	83 e2 7f             	and    edx,0x7f
  100435:	09 ca                	or     edx,ecx
  100437:	83 fb 02             	cmp    ebx,0x2
  10043a:	88 14 dd 05 71 19 00 	mov    BYTE PTR [ebx*8+0x197105],dl
  100441:	0f 87 22 01 00 00    	ja     100569 <_ZN2os3hal3gdt14set_descriptorEhjjNS0_12gdt_access_tENS0_11gdt_flags_tE+0x319>
  100447:	0f b6 14 dd 06 71 19 00 	movzx  edx,BYTE PTR [ebx*8+0x197106]
  10044f:	83 e2 ef             	and    edx,0xffffffef
  100452:	83 fb 02             	cmp    ebx,0x2
  100455:	88 14 dd 06 71 19 00 	mov    BYTE PTR [ebx*8+0x197106],dl
  10045c:	0f 87 e1 00 00 00    	ja     100543 <_ZN2os3hal3gdt14set_descriptorEhjjNS0_12gdt_access_tENS0_11gdt_flags_tE+0x2f3>
  100462:	0f b6 4c 24 40       	movzx  ecx,BYTE PTR [esp+0x40]
  100467:	83 e2 df             	and    edx,0xffffffdf
  10046a:	c1 e1 04             	shl    ecx,0x4
  10046d:	83 e1 20             	and    ecx,0x20
  100470:	09 ca                	or     edx,ecx
  100472:	83 fb 02             	cmp    ebx,0x2
  100475:	88 14 dd 06 71 19 00 	mov    BYTE PTR [ebx*8+0x197106],dl
  10047c:	0f 87 9b 00 00 00    	ja     10051d <_ZN2os3hal3gdt14set_descriptorEhjjNS0_12gdt_access_tENS0_11gdt_flags_tE+0x2cd>
  100482:	0f b6 4c 24 40       	movzx  ecx,BYTE PTR [esp+0x40]
  100487:	83 e2 bf             	and    edx,0xffffffbf
  10048a:	c1 e1 04             	shl    ecx,0x4
  10048d:	83 e1 40             	and    ecx,0x40
  100490:	09 ca                	or     edx,ecx
  100492:	83 fb 02             	cmp    ebx,0x2
  100495:	88 14 dd 06 71 19 00 	mov    BYTE PTR [ebx*8+0x197106],dl
  10049c:	77 5c                	ja     1004fa <_ZN2os3hal3gdt14set_descriptorEhjjNS0_12gdt_access_tENS0_11gdt_flags_tE+0x2aa>
  10049e:	0f b6 4c 24 40       	movzx  ecx,BYTE PTR [esp+0x40]
  1004a3:	83 ec 04             	sub    esp,0x4
  1004a6:	83 e2 7f             	and    edx,0x7f
  1004a9:	0f b6 74 24 44       	movzx  esi,BYTE PTR [esp+0x44]
  1004ae:	c0 e9 03             	shr    cl,0x3
  1004b1:	56                   	push   esi
  1004b2:	c1 e1 07             	shl    ecx,0x7
  1004b5:	50                   	push   eax
  1004b6:	ff 74 24 44          	push   DWORD PTR [esp+0x44]
  1004ba:	55                   	push   ebp
  1004bb:	09 ca                	or     edx,ecx
  1004bd:	53                   	push   ebx
  1004be:	68 86 10 11 00       	push   0x111086
  1004c3:	68 8c 15 11 00       	push   0x11158c
  1004c8:	88 14 dd 06 71 19 00 	mov    BYTE PTR [ebx*8+0x197106],dl
  1004cf:	e8 6c a0 00 00       	call   10a540 <printf>
  1004d4:	83 c4 3c             	add    esp,0x3c
  1004d7:	5b                   	pop    ebx
  1004d8:	5e                   	pop    esi
  1004d9:	5f                   	pop    edi
  1004da:	5d                   	pop    ebp
  1004db:	c3                   	ret    
  1004dc:	88 44 24 04          	mov    BYTE PTR [esp+0x4],al
  1004e0:	50                   	push   eax
  1004e1:	50                   	push   eax
  1004e2:	53                   	push   ebx
  1004e3:	68 14 23 11 00       	push   0x112314
  1004e8:	e8 33 c5 00 00       	call   10ca20 <__ubsan_handle_out_of_bounds>
  1004ed:	83 c4 10             	add    esp,0x10
  1004f0:	0f b6 44 24 04       	movzx  eax,BYTE PTR [esp+0x4]
  1004f5:	e9 74 fd ff ff       	jmp    10026e <_ZN2os3hal3gdt14set_descriptorEhjjNS0_12gdt_access_tENS0_11gdt_flags_tE+0x1e>
  1004fa:	88 44 24 04          	mov    BYTE PTR [esp+0x4],al
  1004fe:	50                   	push   eax
  1004ff:	50                   	push   eax
  100500:	53                   	push   ebx
  100501:	68 00 20 11 00       	push   0x112000
  100506:	e8 15 c5 00 00       	call   10ca20 <__ubsan_handle_out_of_bounds>
  10050b:	83 c4 10             	add    esp,0x10
  10050e:	0f b6 14 dd 06 71 19 00 	movzx  edx,BYTE PTR [ebx*8+0x197106]
  100516:	0f b6 44 24 04       	movzx  eax,BYTE PTR [esp+0x4]
  10051b:	eb 81                	jmp    10049e <_ZN2os3hal3gdt14set_descriptorEhjjNS0_12gdt_access_tENS0_11gdt_flags_tE+0x24e>
  10051d:	88 44 24 04          	mov    BYTE PTR [esp+0x4],al
  100521:	52                   	push   edx
  100522:	52                   	push   edx
  100523:	53                   	push   ebx
  100524:	68 2c 20 11 00       	push   0x11202c
  100529:	e8 f2 c4 00 00       	call   10ca20 <__ubsan_handle_out_of_bounds>
  10052e:	83 c4 10             	add    esp,0x10
  100531:	0f b6 14 dd 06 71 19 00 	movzx  edx,BYTE PTR [ebx*8+0x197106]
  100539:	0f b6 44 24 04       	movzx  eax,BYTE PTR [esp+0x4]
  10053e:	e9 3f ff ff ff       	jmp    100482 <_ZN2os3hal3gdt14set_descriptorEhjjNS0_12gdt_access_tENS0_11gdt_flags_tE+0x232>
  100543:	88 44 24 04          	mov    BYTE PTR [esp+0x4],al
  100547:	51                   	push   ecx
  100548:	51                   	push   ecx
  100549:	53                   	push   ebx
  10054a:	68 58 20 11 00       	push   0x112058
  10054f:	e8 cc c4 00 00       	call   10ca20 <__ubsan_handle_out_of_bounds>
  100554:	83 c4 10             	add    esp,0x10
  100557:	0f b6 14 dd 06 71 19 00 	movzx  edx,BYTE PTR [ebx*8+0x197106]
  10055f:	0f b6 44 24 04       	movzx  eax,BYTE PTR [esp+0x4]
  100564:	e9 f9 fe ff ff       	jmp    100462 <_ZN2os3hal3gdt14set_descriptorEhjjNS0_12gdt_access_tENS0_11gdt_flags_tE+0x212>
  100569:	88 44 24 04          	mov    BYTE PTR [esp+0x4],al
  10056d:	56                   	push   esi
  10056e:	56                   	push   esi
  10056f:	53                   	push   ebx
  100570:	68 84 20 11 00       	push   0x112084
  100575:	e8 a6 c4 00 00       	call   10ca20 <__ubsan_handle_out_of_bounds>
  10057a:	83 c4 10             	add    esp,0x10
  10057d:	0f b6 44 24 04       	movzx  eax,BYTE PTR [esp+0x4]
  100582:	e9 c0 fe ff ff       	jmp    100447 <_ZN2os3hal3gdt14set_descriptorEhjjNS0_12gdt_access_tENS0_11gdt_flags_tE+0x1f7>
  100587:	88 44 24 04          	mov    BYTE PTR [esp+0x4],al
  10058b:	57                   	push   edi
  10058c:	57                   	push   edi
  10058d:	53                   	push   ebx
  10058e:	68 b0 20 11 00       	push   0x1120b0
  100593:	e8 88 c4 00 00       	call   10ca20 <__ubsan_handle_out_of_bounds>
  100598:	83 c4 10             	add    esp,0x10
  10059b:	0f b6 44 24 04       	movzx  eax,BYTE PTR [esp+0x4]
  1005a0:	e9 80 fe ff ff       	jmp    100425 <_ZN2os3hal3gdt14set_descriptorEhjjNS0_12gdt_access_tENS0_11gdt_flags_tE+0x1d5>
  1005a5:	88 44 24 04          	mov    BYTE PTR [esp+0x4],al
  1005a9:	50                   	push   eax
  1005aa:	50                   	push   eax
  1005ab:	53                   	push   ebx
  1005ac:	68 dc 20 11 00       	push   0x1120dc
  1005b1:	e8 6a c4 00 00       	call   10ca20 <__ubsan_handle_out_of_bounds>
  1005b6:	83 c4 10             	add    esp,0x10
  1005b9:	0f b6 44 24 04       	movzx  eax,BYTE PTR [esp+0x4]
  1005be:	e9 40 fe ff ff       	jmp    100403 <_ZN2os3hal3gdt14set_descriptorEhjjNS0_12gdt_access_tENS0_11gdt_flags_tE+0x1b3>
  1005c3:	88 44 24 04          	mov    BYTE PTR [esp+0x4],al
  1005c7:	50                   	push   eax
  1005c8:	50                   	push   eax
  1005c9:	53                   	push   ebx
  1005ca:	68 08 21 11 00       	push   0x112108
  1005cf:	e8 4c c4 00 00       	call   10ca20 <__ubsan_handle_out_of_bounds>
  1005d4:	83 c4 10             	add    esp,0x10
  1005d7:	0f b6 44 24 04       	movzx  eax,BYTE PTR [esp+0x4]
  1005dc:	e9 00 fe ff ff       	jmp    1003e1 <_ZN2os3hal3gdt14set_descriptorEhjjNS0_12gdt_access_tENS0_11gdt_flags_tE+0x191>
  1005e1:	88 44 24 04          	mov    BYTE PTR [esp+0x4],al
  1005e5:	50                   	push   eax
  1005e6:	50                   	push   eax
  1005e7:	53                   	push   ebx
  1005e8:	68 34 21 11 00       	push   0x112134
  1005ed:	e8 2e c4 00 00       	call   10ca20 <__ubsan_handle_out_of_bounds>
  1005f2:	83 c4 10             	add    esp,0x10
  1005f5:	0f b6 44 24 04       	movzx  eax,BYTE PTR [esp+0x4]
  1005fa:	e9 c0 fd ff ff       	jmp    1003bf <_ZN2os3hal3gdt14set_descriptorEhjjNS0_12gdt_access_tENS0_11gdt_flags_tE+0x16f>
  1005ff:	88 44 24 04          	mov    BYTE PTR [esp+0x4],al
  100603:	50                   	push   eax
  100604:	50                   	push   eax
  100605:	53                   	push   ebx
  100606:	68 60 21 11 00       	push   0x112160
  10060b:	e8 10 c4 00 00       	call   10ca20 <__ubsan_handle_out_of_bounds>
  100610:	83 c4 10             	add    esp,0x10
  100613:	0f b6 44 24 04       	movzx  eax,BYTE PTR [esp+0x4]
  100618:	e9 80 fd ff ff       	jmp    10039d <_ZN2os3hal3gdt14set_descriptorEhjjNS0_12gdt_access_tENS0_11gdt_flags_tE+0x14d>
  10061d:	88 44 24 04          	mov    BYTE PTR [esp+0x4],al
  100621:	50                   	push   eax
  100622:	50                   	push   eax
  100623:	53                   	push   ebx
  100624:	68 8c 21 11 00       	push   0x11218c
  100629:	e8 f2 c3 00 00       	call   10ca20 <__ubsan_handle_out_of_bounds>
  10062e:	83 c4 10             	add    esp,0x10
  100631:	0f b6 44 24 04       	movzx  eax,BYTE PTR [esp+0x4]
  100636:	e9 40 fd ff ff       	jmp    10037b <_ZN2os3hal3gdt14set_descriptorEhjjNS0_12gdt_access_tENS0_11gdt_flags_tE+0x12b>
  10063b:	88 44 24 04          	mov    BYTE PTR [esp+0x4],al
  10063f:	50                   	push   eax
  100640:	50                   	push   eax
  100641:	53                   	push   ebx
  100642:	68 b8 21 11 00       	push   0x1121b8
  100647:	e8 d4 c3 00 00       	call   10ca20 <__ubsan_handle_out_of_bounds>
  10064c:	83 c4 10             	add    esp,0x10
  10064f:	0f b6 44 24 04       	movzx  eax,BYTE PTR [esp+0x4]
  100654:	e9 00 fd ff ff       	jmp    100359 <_ZN2os3hal3gdt14set_descriptorEhjjNS0_12gdt_access_tENS0_11gdt_flags_tE+0x109>
  100659:	88 44 24 08          	mov    BYTE PTR [esp+0x8],al
  10065d:	89 4c 24 04          	mov    DWORD PTR [esp+0x4],ecx
  100661:	52                   	push   edx
  100662:	52                   	push   edx
  100663:	53                   	push   ebx
  100664:	68 e4 21 11 00       	push   0x1121e4
  100669:	e8 b2 c3 00 00       	call   10ca20 <__ubsan_handle_out_of_bounds>
  10066e:	83 c4 10             	add    esp,0x10
  100671:	0f b6 44 24 08       	movzx  eax,BYTE PTR [esp+0x8]
  100676:	8b 4c 24 04          	mov    ecx,DWORD PTR [esp+0x4]
  10067a:	e9 ba fc ff ff       	jmp    100339 <_ZN2os3hal3gdt14set_descriptorEhjjNS0_12gdt_access_tENS0_11gdt_flags_tE+0xe9>
  10067f:	01 f2                	add    edx,esi
  100681:	0f 82 95 fc ff ff    	jb     10031c <_ZN2os3hal3gdt14set_descriptorEhjjNS0_12gdt_access_tENS0_11gdt_flags_tE+0xcc>
  100687:	88 44 24 04          	mov    BYTE PTR [esp+0x4],al
  10068b:	51                   	push   ecx
  10068c:	51                   	push   ecx
  10068d:	56                   	push   esi
  10068e:	68 10 22 11 00       	push   0x112210
  100693:	e8 d8 c3 00 00       	call   10ca70 <__ubsan_handle_type_mismatch>
  100698:	83 c4 10             	add    esp,0x10
  10069b:	0f b6 44 24 04       	movzx  eax,BYTE PTR [esp+0x4]
  1006a0:	e9 77 fc ff ff       	jmp    10031c <_ZN2os3hal3gdt14set_descriptorEhjjNS0_12gdt_access_tENS0_11gdt_flags_tE+0xcc>
  1006a5:	88 44 24 04          	mov    BYTE PTR [esp+0x4],al
  1006a9:	57                   	push   edi
  1006aa:	57                   	push   edi
  1006ab:	53                   	push   ebx
  1006ac:	68 28 22 11 00       	push   0x112228
  1006b1:	e8 6a c3 00 00       	call   10ca20 <__ubsan_handle_out_of_bounds>
  1006b6:	83 c4 10             	add    esp,0x10
  1006b9:	0f b6 44 24 04       	movzx  eax,BYTE PTR [esp+0x4]
  1006be:	e9 44 fc ff ff       	jmp    100307 <_ZN2os3hal3gdt14set_descriptorEhjjNS0_12gdt_access_tENS0_11gdt_flags_tE+0xb7>
  1006c3:	01 d7                	add    edi,edx
  1006c5:	0f 82 2c fc ff ff    	jb     1002f7 <_ZN2os3hal3gdt14set_descriptorEhjjNS0_12gdt_access_tENS0_11gdt_flags_tE+0xa7>
  1006cb:	88 44 24 0f          	mov    BYTE PTR [esp+0xf],al
  1006cf:	89 4c 24 04          	mov    DWORD PTR [esp+0x4],ecx
  1006d3:	50                   	push   eax
  1006d4:	50                   	push   eax
  1006d5:	52                   	push   edx
  1006d6:	68 54 22 11 00       	push   0x112254
  1006db:	e8 90 c3 00 00       	call   10ca70 <__ubsan_handle_type_mismatch>
  1006e0:	83 c4 10             	add    esp,0x10
  1006e3:	0f b6 44 24 0f       	movzx  eax,BYTE PTR [esp+0xf]
  1006e8:	8b 4c 24 04          	mov    ecx,DWORD PTR [esp+0x4]
  1006ec:	e9 06 fc ff ff       	jmp    1002f7 <_ZN2os3hal3gdt14set_descriptorEhjjNS0_12gdt_access_tENS0_11gdt_flags_tE+0xa7>
  1006f1:	88 44 24 0f          	mov    BYTE PTR [esp+0xf],al
  1006f5:	89 4c 24 04          	mov    DWORD PTR [esp+0x4],ecx
  1006f9:	50                   	push   eax
  1006fa:	50                   	push   eax
  1006fb:	53                   	push   ebx
  1006fc:	68 6c 22 11 00       	push   0x11226c
  100701:	e8 1a c3 00 00       	call   10ca20 <__ubsan_handle_out_of_bounds>
  100706:	83 c4 10             	add    esp,0x10
  100709:	0f b6 44 24 0f       	movzx  eax,BYTE PTR [esp+0xf]
  10070e:	8b 4c 24 04          	mov    ecx,DWORD PTR [esp+0x4]
  100712:	e9 cf fb ff ff       	jmp    1002e6 <_ZN2os3hal3gdt14set_descriptorEhjjNS0_12gdt_access_tENS0_11gdt_flags_tE+0x96>
  100717:	01 d1                	add    ecx,edx
  100719:	0f 82 ad fb ff ff    	jb     1002cc <_ZN2os3hal3gdt14set_descriptorEhjjNS0_12gdt_access_tENS0_11gdt_flags_tE+0x7c>
  10071f:	88 44 24 0f          	mov    BYTE PTR [esp+0xf],al
  100723:	50                   	push   eax
  100724:	50                   	push   eax
  100725:	52                   	push   edx
  100726:	68 98 22 11 00       	push   0x112298
  10072b:	e8 40 c3 00 00       	call   10ca70 <__ubsan_handle_type_mismatch>
  100730:	83 c4 10             	add    esp,0x10
  100733:	0f b6 44 24 0f       	movzx  eax,BYTE PTR [esp+0xf]
  100738:	e9 8f fb ff ff       	jmp    1002cc <_ZN2os3hal3gdt14set_descriptorEhjjNS0_12gdt_access_tENS0_11gdt_flags_tE+0x7c>
  10073d:	88 44 24 0f          	mov    BYTE PTR [esp+0xf],al
  100741:	50                   	push   eax
  100742:	50                   	push   eax
  100743:	53                   	push   ebx
  100744:	68 c0 22 11 00       	push   0x1122c0
  100749:	e8 d2 c2 00 00       	call   10ca20 <__ubsan_handle_out_of_bounds>
  10074e:	83 c4 10             	add    esp,0x10
  100751:	0f b6 44 24 0f       	movzx  eax,BYTE PTR [esp+0xf]
  100756:	e9 54 fb ff ff       	jmp    1002af <_ZN2os3hal3gdt14set_descriptorEhjjNS0_12gdt_access_tENS0_11gdt_flags_tE+0x5f>
  10075b:	01 d1                	add    ecx,edx
  10075d:	0f 82 32 fb ff ff    	jb     100295 <_ZN2os3hal3gdt14set_descriptorEhjjNS0_12gdt_access_tENS0_11gdt_flags_tE+0x45>
  100763:	88 44 24 04          	mov    BYTE PTR [esp+0x4],al
  100767:	50                   	push   eax
  100768:	50                   	push   eax
  100769:	52                   	push   edx
  10076a:	68 ec 22 11 00       	push   0x1122ec
  10076f:	e8 fc c2 00 00       	call   10ca70 <__ubsan_handle_type_mismatch>
  100774:	83 c4 10             	add    esp,0x10
  100777:	0f b6 44 24 04       	movzx  eax,BYTE PTR [esp+0x4]
  10077c:	e9 14 fb ff ff       	jmp    100295 <_ZN2os3hal3gdt14set_descriptorEhjjNS0_12gdt_access_tENS0_11gdt_flags_tE+0x45>
  100781:	eb 0d                	jmp    100790 <_ZN2os3hal3gdt16init_descriptorsEv>
  100783:	90                   	nop
  100784:	90                   	nop
  100785:	90                   	nop
  100786:	90                   	nop
  100787:	90                   	nop
  100788:	90                   	nop
  100789:	90                   	nop
  10078a:	90                   	nop
  10078b:	90                   	nop
  10078c:	90                   	nop
  10078d:	90                   	nop
  10078e:	90                   	nop
  10078f:	90                   	nop

00100790 <_ZN2os3hal3gdt16init_descriptorsEv>:
  100790:	83 ec 18             	sub    esp,0x18
  100793:	6a 00                	push   0x0
  100795:	6a 00                	push   0x0
  100797:	6a 00                	push   0x0
  100799:	6a 00                	push   0x0
  10079b:	6a 00                	push   0x0
  10079d:	e8 ae fa ff ff       	call   100250 <_ZN2os3hal3gdt14set_descriptorEhjjNS0_12gdt_access_tENS0_11gdt_flags_tE>
  1007a2:	0f b6 05 00 d0 10 00 	movzx  eax,BYTE PTR ds:0x10d000
  1007a9:	83 c4 14             	add    esp,0x14
  1007ac:	50                   	push   eax
  1007ad:	0f b6 05 02 d0 10 00 	movzx  eax,BYTE PTR ds:0x10d002
  1007b4:	50                   	push   eax
  1007b5:	6a ff                	push   0xffffffff
  1007b7:	6a 00                	push   0x0
  1007b9:	6a 01                	push   0x1
  1007bb:	e8 90 fa ff ff       	call   100250 <_ZN2os3hal3gdt14set_descriptorEhjjNS0_12gdt_access_tENS0_11gdt_flags_tE>
  1007c0:	0f b6 05 00 d0 10 00 	movzx  eax,BYTE PTR ds:0x10d000
  1007c7:	83 c4 14             	add    esp,0x14
  1007ca:	50                   	push   eax
  1007cb:	0f b6 05 01 d0 10 00 	movzx  eax,BYTE PTR ds:0x10d001
  1007d2:	50                   	push   eax
  1007d3:	6a ff                	push   0xffffffff
  1007d5:	6a 00                	push   0x0
  1007d7:	6a 02                	push   0x2
  1007d9:	e8 72 fa ff ff       	call   100250 <_ZN2os3hal3gdt14set_descriptorEhjjNS0_12gdt_access_tENS0_11gdt_flags_tE>
  1007de:	83 c4 2c             	add    esp,0x2c
  1007e1:	c3                   	ret    
  1007e2:	8d b4 26 00 00 00 00 	lea    esi,[esi+eiz*1+0x0]
  1007e9:	8d bc 27 00 00 00 00 	lea    edi,[edi+eiz*1+0x0]

001007f0 <_ZN2os3hal3gdt4initEv>:
  1007f0:	83 ec 10             	sub    esp,0x10
  1007f3:	6a 18                	push   0x18
  1007f5:	6a 00                	push   0x0
  1007f7:	68 00 71 19 00       	push   0x197100
  1007fc:	e8 6f b2 00 00       	call   10ba70 <memset>
  100801:	5a                   	pop    edx
  100802:	59                   	pop    ecx
  100803:	68 86 10 11 00       	push   0x111086
  100808:	68 98 10 11 00       	push   0x111098
  10080d:	b8 17 00 00 00       	mov    eax,0x17
  100812:	66 a3 00 72 19 00    	mov    ds:0x197200,ax
  100818:	c7 05 02 72 19 00 00 71 19 00 	mov    DWORD PTR ds:0x197202,0x197100
  100822:	e8 19 9d 00 00       	call   10a540 <printf>
  100827:	e8 64 ff ff ff       	call   100790 <_ZN2os3hal3gdt16init_descriptorsEv>
  10082c:	c7 04 24 00 72 19 00 	mov    DWORD PTR [esp],0x197200
  100833:	e8 48 7c 00 00       	call   108480 <_gdt_flush>
  100838:	83 c4 0c             	add    esp,0xc
  10083b:	68 00 72 19 00       	push   0x197200
  100840:	68 74 10 11 00       	push   0x111074
  100845:	68 d0 15 11 00       	push   0x1115d0
  10084a:	e8 f1 9c 00 00       	call   10a540 <printf>
  10084f:	83 c4 1c             	add    esp,0x1c
  100852:	c3                   	ret    
  100853:	66 90                	xchg   ax,ax
  100855:	66 90                	xchg   ax,ax
  100857:	66 90                	xchg   ax,ax
  100859:	66 90                	xchg   ax,ax
  10085b:	66 90                	xchg   ax,ax
  10085d:	66 90                	xchg   ax,ax
  10085f:	90                   	nop

00100860 <default_handler>:
  100860:	f3 c3                	repz ret 
  100862:	8d b4 26 00 00 00 00 	lea    esi,[esi+eiz*1+0x0]
  100869:	8d bc 27 00 00 00 00 	lea    edi,[edi+eiz*1+0x0]

00100870 <exception_handler>:
  100870:	57                   	push   edi
  100871:	56                   	push   esi
  100872:	53                   	push   ebx
  100873:	8b 5c 24 10          	mov    ebx,DWORD PTR [esp+0x10]
  100877:	fa                   	cli    
  100878:	85 db                	test   ebx,ebx
  10087a:	0f 84 da 00 00 00    	je     10095a <exception_handler+0xea>
  100880:	8b 73 20             	mov    esi,DWORD PTR [ebx+0x20]
  100883:	83 fe 1c             	cmp    esi,0x1c
  100886:	0f 87 b4 00 00 00    	ja     100940 <exception_handler+0xd0>
  10088c:	8d 04 b5 c0 4c 11 00 	lea    eax,[esi*4+0x114cc0]
  100893:	89 c2                	mov    edx,eax
  100895:	81 ea bc 4c 11 00    	sub    edx,0x114cbc
  10089b:	83 fa 74             	cmp    edx,0x74
  10089e:	0f 87 cc 00 00 00    	ja     100970 <exception_handler+0x100>
  1008a4:	83 ec 04             	sub    esp,0x4
  1008a7:	ff 34 b5 c0 4c 11 00 	push   DWORD PTR [esi*4+0x114cc0]
  1008ae:	68 b4 10 11 00       	push   0x1110b4
  1008b3:	68 dc 10 11 00       	push   0x1110dc
  1008b8:	e8 83 9c 00 00       	call   10a540 <printf>
  1008bd:	83 c4 10             	add    esp,0x10
  1008c0:	83 ec 0c             	sub    esp,0xc
  1008c3:	ff 73 14             	push   DWORD PTR [ebx+0x14]
  1008c6:	ff 73 18             	push   DWORD PTR [ebx+0x18]
  1008c9:	ff 73 10             	push   DWORD PTR [ebx+0x10]
  1008cc:	ff 73 1c             	push   DWORD PTR [ebx+0x1c]
  1008cf:	68 1c 16 11 00       	push   0x11161c
  1008d4:	e8 67 9c 00 00       	call   10a540 <printf>
  1008d9:	83 c4 14             	add    esp,0x14
  1008dc:	ff 73 0c             	push   DWORD PTR [ebx+0xc]
  1008df:	ff 73 08             	push   DWORD PTR [ebx+0x8]
  1008e2:	ff 33                	push   DWORD PTR [ebx]
  1008e4:	ff 73 04             	push   DWORD PTR [ebx+0x4]
  1008e7:	68 4c 16 11 00       	push   0x11164c
  1008ec:	e8 4f 9c 00 00       	call   10a540 <printf>
  1008f1:	83 c4 14             	add    esp,0x14
  1008f4:	ff 73 38             	push   DWORD PTR [ebx+0x38]
  1008f7:	ff 73 2c             	push   DWORD PTR [ebx+0x2c]
  1008fa:	ff 73 30             	push   DWORD PTR [ebx+0x30]
  1008fd:	ff 73 28             	push   DWORD PTR [ebx+0x28]
  100900:	68 7c 16 11 00       	push   0x11167c
  100905:	e8 36 9c 00 00       	call   10a540 <printf>
  10090a:	83 c4 20             	add    esp,0x20
  10090d:	e8 b4 7b 00 00       	call   1084c6 <_read_cr4>
  100912:	89 c7                	mov    edi,eax
  100914:	e8 a9 7b 00 00       	call   1084c2 <_read_cr3>
  100919:	89 c6                	mov    esi,eax
  10091b:	e8 9e 7b 00 00       	call   1084be <_read_cr2>
  100920:	89 c3                	mov    ebx,eax
  100922:	e8 93 7b 00 00       	call   1084ba <_read_cr0>
  100927:	83 ec 0c             	sub    esp,0xc
  10092a:	57                   	push   edi
  10092b:	56                   	push   esi
  10092c:	53                   	push   ebx
  10092d:	50                   	push   eax
  10092e:	68 ac 16 11 00       	push   0x1116ac
  100933:	e8 08 9c 00 00       	call   10a540 <printf>
  100938:	f4                   	hlt    
  100939:	83 c4 20             	add    esp,0x20
  10093c:	5b                   	pop    ebx
  10093d:	5e                   	pop    esi
  10093e:	5f                   	pop    edi
  10093f:	c3                   	ret    
  100940:	83 ec 08             	sub    esp,0x8
  100943:	68 b4 10 11 00       	push   0x1110b4
  100948:	68 c6 10 11 00       	push   0x1110c6
  10094d:	e8 ee 9b 00 00       	call   10a540 <printf>
  100952:	83 c4 10             	add    esp,0x10
  100955:	e9 66 ff ff ff       	jmp    1008c0 <exception_handler+0x50>
  10095a:	51                   	push   ecx
  10095b:	51                   	push   ecx
  10095c:	6a 00                	push   0x0
  10095e:	68 80 4c 11 00       	push   0x114c80
  100963:	e8 08 c1 00 00       	call   10ca70 <__ubsan_handle_type_mismatch>
  100968:	83 c4 10             	add    esp,0x10
  10096b:	e9 10 ff ff ff       	jmp    100880 <exception_handler+0x10>
  100970:	01 c2                	add    edx,eax
  100972:	0f 82 2c ff ff ff    	jb     1008a4 <exception_handler+0x34>
  100978:	52                   	push   edx
  100979:	52                   	push   edx
  10097a:	50                   	push   eax
  10097b:	68 18 4c 11 00       	push   0x114c18
  100980:	e8 eb c0 00 00       	call   10ca70 <__ubsan_handle_type_mismatch>
  100985:	83 c4 10             	add    esp,0x10
  100988:	e9 17 ff ff ff       	jmp    1008a4 <exception_handler+0x34>
  10098d:	8d 76 00             	lea    esi,[esi+0x0]

00100990 <irq_handler>:
  100990:	55                   	push   ebp
  100991:	57                   	push   edi
  100992:	56                   	push   esi
  100993:	53                   	push   ebx
  100994:	83 ec 1c             	sub    esp,0x1c
  100997:	8b 74 24 30          	mov    esi,DWORD PTR [esp+0x30]
  10099b:	85 f6                	test   esi,esi
  10099d:	0f 84 da 00 00 00    	je     100a7d <irq_handler+0xed>
  1009a3:	8b 5e 20             	mov    ebx,DWORD PTR [esi+0x20]
  1009a6:	81 fb ff 00 00 00    	cmp    ebx,0xff
  1009ac:	0f 87 b6 00 00 00    	ja     100a68 <irq_handler+0xd8>
  1009b2:	8d 2c 9d 00 73 19 00 	lea    ebp,[ebx*4+0x197300]
  1009b9:	89 ef                	mov    edi,ebp
  1009bb:	81 ef fc 72 19 00    	sub    edi,0x1972fc
  1009c1:	81 ff 00 04 00 00    	cmp    edi,0x400
  1009c7:	0f 87 7c 00 00 00    	ja     100a49 <irq_handler+0xb9>
  1009cd:	8b 04 9d 00 73 19 00 	mov    eax,DWORD PTR [ebx*4+0x197300]
  1009d4:	85 c0                	test   eax,eax
  1009d6:	74 28                	je     100a00 <irq_handler+0x70>
  1009d8:	81 fb ff 00 00 00    	cmp    ebx,0xff
  1009de:	0f 87 d4 00 00 00    	ja     100ab8 <irq_handler+0x128>
  1009e4:	81 ff 00 04 00 00    	cmp    edi,0x400
  1009ea:	0f 87 a3 00 00 00    	ja     100a93 <irq_handler+0x103>
  1009f0:	89 74 24 30          	mov    DWORD PTR [esp+0x30],esi
  1009f4:	83 c4 1c             	add    esp,0x1c
  1009f7:	5b                   	pop    ebx
  1009f8:	5e                   	pop    esi
  1009f9:	5f                   	pop    edi
  1009fa:	5d                   	pop    ebp
  1009fb:	ff e0                	jmp    eax
  1009fd:	8d 76 00             	lea    esi,[esi+0x0]
  100a00:	83 fb 20             	cmp    ebx,0x20
  100a03:	75 1b                	jne    100a20 <irq_handler+0x90>
  100a05:	b8 20 00 00 00       	mov    eax,0x20
  100a0a:	ba 20 00 00 00       	mov    edx,0x20
  100a0f:	ee                   	out    dx,al
  100a10:	83 c4 1c             	add    esp,0x1c
  100a13:	5b                   	pop    ebx
  100a14:	5e                   	pop    esi
  100a15:	5f                   	pop    edi
  100a16:	5d                   	pop    ebp
  100a17:	c3                   	ret    
  100a18:	90                   	nop
  100a19:	8d b4 26 00 00 00 00 	lea    esi,[esi+eiz*1+0x0]
  100a20:	83 ec 04             	sub    esp,0x4
  100a23:	53                   	push   ebx
  100a24:	68 ed 10 11 00       	push   0x1110ed
  100a29:	68 ff 10 11 00       	push   0x1110ff
  100a2e:	e8 0d 9b 00 00       	call   10a540 <printf>
  100a33:	83 c4 10             	add    esp,0x10
  100a36:	83 7e 20 27          	cmp    DWORD PTR [esi+0x20],0x27
  100a3a:	76 c9                	jbe    100a05 <irq_handler+0x75>
  100a3c:	b8 20 00 00 00       	mov    eax,0x20
  100a41:	ba a0 00 00 00       	mov    edx,0xa0
  100a46:	ee                   	out    dx,al
  100a47:	eb bc                	jmp    100a05 <irq_handler+0x75>
  100a49:	89 e8                	mov    eax,ebp
  100a4b:	01 f8                	add    eax,edi
  100a4d:	0f 82 7a ff ff ff    	jb     1009cd <irq_handler+0x3d>
  100a53:	51                   	push   ecx
  100a54:	51                   	push   ecx
  100a55:	55                   	push   ebp
  100a56:	68 a8 4b 11 00       	push   0x114ba8
  100a5b:	e8 10 c0 00 00       	call   10ca70 <__ubsan_handle_type_mismatch>
  100a60:	83 c4 10             	add    esp,0x10
  100a63:	e9 65 ff ff ff       	jmp    1009cd <irq_handler+0x3d>
  100a68:	57                   	push   edi
  100a69:	57                   	push   edi
  100a6a:	53                   	push   ebx
  100a6b:	68 d4 4b 11 00       	push   0x114bd4
  100a70:	e8 ab bf 00 00       	call   10ca20 <__ubsan_handle_out_of_bounds>
  100a75:	83 c4 10             	add    esp,0x10
  100a78:	e9 35 ff ff ff       	jmp    1009b2 <irq_handler+0x22>
  100a7d:	55                   	push   ebp
  100a7e:	55                   	push   ebp
  100a7f:	6a 00                	push   0x0
  100a81:	68 00 4c 11 00       	push   0x114c00
  100a86:	e8 e5 bf 00 00       	call   10ca70 <__ubsan_handle_type_mismatch>
  100a8b:	83 c4 10             	add    esp,0x10
  100a8e:	e9 10 ff ff ff       	jmp    1009a3 <irq_handler+0x13>
  100a93:	01 ef                	add    edi,ebp
  100a95:	0f 82 55 ff ff ff    	jb     1009f0 <irq_handler+0x60>
  100a9b:	89 44 24 0c          	mov    DWORD PTR [esp+0xc],eax
  100a9f:	50                   	push   eax
  100aa0:	50                   	push   eax
  100aa1:	55                   	push   ebp
  100aa2:	68 64 4b 11 00       	push   0x114b64
  100aa7:	e8 c4 bf 00 00       	call   10ca70 <__ubsan_handle_type_mismatch>
  100aac:	83 c4 10             	add    esp,0x10
  100aaf:	8b 44 24 0c          	mov    eax,DWORD PTR [esp+0xc]
  100ab3:	e9 38 ff ff ff       	jmp    1009f0 <irq_handler+0x60>
  100ab8:	89 44 24 0c          	mov    DWORD PTR [esp+0xc],eax
  100abc:	52                   	push   edx
  100abd:	52                   	push   edx
  100abe:	53                   	push   ebx
  100abf:	68 7c 4b 11 00       	push   0x114b7c
  100ac4:	e8 57 bf 00 00       	call   10ca20 <__ubsan_handle_out_of_bounds>
  100ac9:	83 c4 10             	add    esp,0x10
  100acc:	8b 44 24 0c          	mov    eax,DWORD PTR [esp+0xc]
  100ad0:	e9 0f ff ff ff       	jmp    1009e4 <irq_handler+0x54>
  100ad5:	8d 74 26 00          	lea    esi,[esi+eiz*1+0x0]
  100ad9:	8d bc 27 00 00 00 00 	lea    edi,[edi+eiz*1+0x0]

00100ae0 <_ZN2os3hal3idt15init_exceptionsEv>:
  100ae0:	55                   	push   ebp
  100ae1:	57                   	push   edi
  100ae2:	b8 8a 7f 10 00       	mov    eax,0x107f8a
  100ae7:	56                   	push   esi
  100ae8:	53                   	push   ebx
  100ae9:	83 ec 1c             	sub    esp,0x1c
  100aec:	0f b6 15 b6 4c 11 00 	movzx  edx,BYTE PTR ds:0x114cb6
  100af3:	66 a3 00 77 19 00    	mov    ds:0x197700,ax
  100af9:	c1 e8 10             	shr    eax,0x10
  100afc:	89 d3                	mov    ebx,edx
  100afe:	83 e3 0f             	and    ebx,0xf
  100b01:	88 5c 24 0a          	mov    BYTE PTR [esp+0xa],bl
  100b05:	89 d3                	mov    ebx,edx
  100b07:	c0 ea 07             	shr    dl,0x7
  100b0a:	c0 eb 05             	shr    bl,0x5
  100b0d:	88 54 24 0b          	mov    BYTE PTR [esp+0xb],dl
  100b11:	89 df                	mov    edi,ebx
  100b13:	bb 02 00 00 00       	mov    ebx,0x2
  100b18:	81 eb 00 77 19 00    	sub    ebx,0x197700
  100b1e:	83 e7 03             	and    edi,0x3
  100b21:	8d 93 06 77 19 00    	lea    edx,[ebx+0x197706]
  100b27:	81 fa 00 08 00 00    	cmp    edx,0x800
  100b2d:	0f 87 6c 1e 00 00    	ja     10299f <_ZN2os3hal3idt15init_exceptionsEv+0x1ebf>
  100b33:	be 01 00 00 00       	mov    esi,0x1
  100b38:	66 a3 06 77 19 00    	mov    ds:0x197706,ax
  100b3e:	81 ee 00 77 19 00    	sub    esi,0x197700
  100b44:	8d 86 04 77 19 00    	lea    eax,[esi+0x197704]
  100b4a:	3d 00 08 00 00       	cmp    eax,0x800
  100b4f:	0f 87 6d 45 00 00    	ja     1050c2 <_ZN2os3hal3idt15init_exceptionsEv+0x45e2>
  100b55:	8d ae 05 77 19 00    	lea    ebp,[esi+0x197705]
  100b5b:	c6 05 04 77 19 00 00 	mov    BYTE PTR ds:0x197704,0x0
  100b62:	ba 05 77 19 00       	mov    edx,0x197705
  100b67:	81 fd 00 08 00 00    	cmp    ebp,0x800
  100b6d:	0f 87 28 45 00 00    	ja     10509b <_ZN2os3hal3idt15init_exceptionsEv+0x45bb>
  100b73:	0f b6 05 05 77 19 00 	movzx  eax,BYTE PTR ds:0x197705
  100b7a:	83 e0 f0             	and    eax,0xfffffff0
  100b7d:	0a 44 24 0a          	or     al,BYTE PTR [esp+0xa]
  100b81:	81 fd 00 08 00 00    	cmp    ebp,0x800
  100b87:	a2 05 77 19 00       	mov    ds:0x197705,al
  100b8c:	0f 87 da 44 00 00    	ja     10506c <_ZN2os3hal3idt15init_exceptionsEv+0x458c>
  100b92:	0f b6 05 05 77 19 00 	movzx  eax,BYTE PTR ds:0x197705
  100b99:	89 f9                	mov    ecx,edi
  100b9b:	83 e1 03             	and    ecx,0x3
  100b9e:	c1 e1 05             	shl    ecx,0x5
  100ba1:	83 e0 9f             	and    eax,0xffffff9f
  100ba4:	09 c8                	or     eax,ecx
  100ba6:	81 fd 00 08 00 00    	cmp    ebp,0x800
  100bac:	a2 05 77 19 00       	mov    ds:0x197705,al
  100bb1:	0f 87 86 44 00 00    	ja     10503d <_ZN2os3hal3idt15init_exceptionsEv+0x455d>
  100bb7:	0f b6 05 05 77 19 00 	movzx  eax,BYTE PTR ds:0x197705
  100bbe:	0f b6 4c 24 0b       	movzx  ecx,BYTE PTR [esp+0xb]
  100bc3:	83 e0 7f             	and    eax,0x7f
  100bc6:	c1 e1 07             	shl    ecx,0x7
  100bc9:	09 c8                	or     eax,ecx
  100bcb:	81 fd 00 08 00 00    	cmp    ebp,0x800
  100bd1:	a2 05 77 19 00       	mov    ds:0x197705,al
  100bd6:	0f 87 3a 44 00 00    	ja     105016 <_ZN2os3hal3idt15init_exceptionsEv+0x4536>
  100bdc:	8d 83 02 77 19 00    	lea    eax,[ebx+0x197702]
  100be2:	80 25 05 77 19 00 ef 	and    BYTE PTR ds:0x197705,0xef
  100be9:	3d 00 08 00 00       	cmp    eax,0x800
  100bee:	0f 87 fe 43 00 00    	ja     104ff2 <_ZN2os3hal3idt15init_exceptionsEv+0x4512>
  100bf4:	8d 83 08 77 19 00    	lea    eax,[ebx+0x197708]
  100bfa:	ba 08 00 00 00       	mov    edx,0x8
  100bff:	bd 91 7f 10 00       	mov    ebp,0x107f91
  100c04:	66 89 15 02 77 19 00 	mov    WORD PTR ds:0x197702,dx
  100c0b:	3d 00 08 00 00       	cmp    eax,0x800
  100c10:	0f 87 b8 43 00 00    	ja     104fce <_ZN2os3hal3idt15init_exceptionsEv+0x44ee>
  100c16:	8d 83 0e 77 19 00    	lea    eax,[ebx+0x19770e]
  100c1c:	66 89 2d 08 77 19 00 	mov    WORD PTR ds:0x197708,bp
  100c23:	c1 ed 10             	shr    ebp,0x10
  100c26:	3d 00 08 00 00       	cmp    eax,0x800
  100c2b:	0f 87 79 43 00 00    	ja     104faa <_ZN2os3hal3idt15init_exceptionsEv+0x44ca>
  100c31:	8d 86 0c 77 19 00    	lea    eax,[esi+0x19770c]
  100c37:	66 89 2d 0e 77 19 00 	mov    WORD PTR ds:0x19770e,bp
  100c3e:	3d 00 08 00 00       	cmp    eax,0x800
  100c43:	0f 87 3d 43 00 00    	ja     104f86 <_ZN2os3hal3idt15init_exceptionsEv+0x44a6>
  100c49:	8d ae 0d 77 19 00    	lea    ebp,[esi+0x19770d]
  100c4f:	c6 05 0c 77 19 00 00 	mov    BYTE PTR ds:0x19770c,0x0
  100c56:	ba 0d 77 19 00       	mov    edx,0x19770d
  100c5b:	81 fd 00 08 00 00    	cmp    ebp,0x800
  100c61:	0f 87 f8 42 00 00    	ja     104f5f <_ZN2os3hal3idt15init_exceptionsEv+0x447f>
  100c67:	0f b6 05 0d 77 19 00 	movzx  eax,BYTE PTR ds:0x19770d
  100c6e:	83 e0 f0             	and    eax,0xfffffff0
  100c71:	0a 44 24 0a          	or     al,BYTE PTR [esp+0xa]
  100c75:	81 fd 00 08 00 00    	cmp    ebp,0x800
  100c7b:	a2 0d 77 19 00       	mov    ds:0x19770d,al
  100c80:	0f 87 aa 42 00 00    	ja     104f30 <_ZN2os3hal3idt15init_exceptionsEv+0x4450>
  100c86:	0f b6 05 0d 77 19 00 	movzx  eax,BYTE PTR ds:0x19770d
  100c8d:	89 f9                	mov    ecx,edi
  100c8f:	83 e1 03             	and    ecx,0x3
  100c92:	c1 e1 05             	shl    ecx,0x5
  100c95:	83 e0 9f             	and    eax,0xffffff9f
  100c98:	09 c8                	or     eax,ecx
  100c9a:	81 fd 00 08 00 00    	cmp    ebp,0x800
  100ca0:	a2 0d 77 19 00       	mov    ds:0x19770d,al
  100ca5:	0f 87 56 42 00 00    	ja     104f01 <_ZN2os3hal3idt15init_exceptionsEv+0x4421>
  100cab:	0f b6 05 0d 77 19 00 	movzx  eax,BYTE PTR ds:0x19770d
  100cb2:	0f b6 4c 24 0b       	movzx  ecx,BYTE PTR [esp+0xb]
  100cb7:	83 e0 7f             	and    eax,0x7f
  100cba:	c1 e1 07             	shl    ecx,0x7
  100cbd:	09 c8                	or     eax,ecx
  100cbf:	81 fd 00 08 00 00    	cmp    ebp,0x800
  100cc5:	a2 0d 77 19 00       	mov    ds:0x19770d,al
  100cca:	0f 87 0a 42 00 00    	ja     104eda <_ZN2os3hal3idt15init_exceptionsEv+0x43fa>
  100cd0:	8d 83 0a 77 19 00    	lea    eax,[ebx+0x19770a]
  100cd6:	80 25 0d 77 19 00 ef 	and    BYTE PTR ds:0x19770d,0xef
  100cdd:	3d 00 08 00 00       	cmp    eax,0x800
  100ce2:	0f 87 ce 41 00 00    	ja     104eb6 <_ZN2os3hal3idt15init_exceptionsEv+0x43d6>
  100ce8:	8d 83 10 77 19 00    	lea    eax,[ebx+0x197710]
  100cee:	ba 08 00 00 00       	mov    edx,0x8
  100cf3:	bd 98 7f 10 00       	mov    ebp,0x107f98
  100cf8:	66 89 15 0a 77 19 00 	mov    WORD PTR ds:0x19770a,dx
  100cff:	3d 00 08 00 00       	cmp    eax,0x800
  100d04:	0f 87 88 41 00 00    	ja     104e92 <_ZN2os3hal3idt15init_exceptionsEv+0x43b2>
  100d0a:	8d 83 16 77 19 00    	lea    eax,[ebx+0x197716]
  100d10:	66 89 2d 10 77 19 00 	mov    WORD PTR ds:0x197710,bp
  100d17:	c1 ed 10             	shr    ebp,0x10
  100d1a:	3d 00 08 00 00       	cmp    eax,0x800
  100d1f:	0f 87 49 41 00 00    	ja     104e6e <_ZN2os3hal3idt15init_exceptionsEv+0x438e>
  100d25:	8d 86 14 77 19 00    	lea    eax,[esi+0x197714]
  100d2b:	66 89 2d 16 77 19 00 	mov    WORD PTR ds:0x197716,bp
  100d32:	3d 00 08 00 00       	cmp    eax,0x800
  100d37:	0f 87 0d 41 00 00    	ja     104e4a <_ZN2os3hal3idt15init_exceptionsEv+0x436a>
  100d3d:	8d ae 15 77 19 00    	lea    ebp,[esi+0x197715]
  100d43:	c6 05 14 77 19 00 00 	mov    BYTE PTR ds:0x197714,0x0
  100d4a:	ba 15 77 19 00       	mov    edx,0x197715
  100d4f:	81 fd 00 08 00 00    	cmp    ebp,0x800
  100d55:	0f 87 c8 40 00 00    	ja     104e23 <_ZN2os3hal3idt15init_exceptionsEv+0x4343>
  100d5b:	0f b6 05 15 77 19 00 	movzx  eax,BYTE PTR ds:0x197715
  100d62:	83 e0 f0             	and    eax,0xfffffff0
  100d65:	0a 44 24 0a          	or     al,BYTE PTR [esp+0xa]
  100d69:	81 fd 00 08 00 00    	cmp    ebp,0x800
  100d6f:	a2 15 77 19 00       	mov    ds:0x197715,al
  100d74:	0f 87 7a 40 00 00    	ja     104df4 <_ZN2os3hal3idt15init_exceptionsEv+0x4314>
  100d7a:	0f b6 05 15 77 19 00 	movzx  eax,BYTE PTR ds:0x197715
  100d81:	89 f9                	mov    ecx,edi
  100d83:	83 e1 03             	and    ecx,0x3
  100d86:	c1 e1 05             	shl    ecx,0x5
  100d89:	83 e0 9f             	and    eax,0xffffff9f
  100d8c:	09 c8                	or     eax,ecx
  100d8e:	81 fd 00 08 00 00    	cmp    ebp,0x800
  100d94:	a2 15 77 19 00       	mov    ds:0x197715,al
  100d99:	0f 87 26 40 00 00    	ja     104dc5 <_ZN2os3hal3idt15init_exceptionsEv+0x42e5>
  100d9f:	0f b6 05 15 77 19 00 	movzx  eax,BYTE PTR ds:0x197715
  100da6:	0f b6 4c 24 0b       	movzx  ecx,BYTE PTR [esp+0xb]
  100dab:	83 e0 7f             	and    eax,0x7f
  100dae:	c1 e1 07             	shl    ecx,0x7
  100db1:	09 c8                	or     eax,ecx
  100db3:	81 fd 00 08 00 00    	cmp    ebp,0x800
  100db9:	a2 15 77 19 00       	mov    ds:0x197715,al
  100dbe:	0f 87 da 3f 00 00    	ja     104d9e <_ZN2os3hal3idt15init_exceptionsEv+0x42be>
  100dc4:	8d 83 12 77 19 00    	lea    eax,[ebx+0x197712]
  100dca:	80 25 15 77 19 00 ef 	and    BYTE PTR ds:0x197715,0xef
  100dd1:	3d 00 08 00 00       	cmp    eax,0x800
  100dd6:	0f 87 9e 3f 00 00    	ja     104d7a <_ZN2os3hal3idt15init_exceptionsEv+0x429a>
  100ddc:	8d 83 18 77 19 00    	lea    eax,[ebx+0x197718]
  100de2:	ba 08 00 00 00       	mov    edx,0x8
  100de7:	bd 9f 7f 10 00       	mov    ebp,0x107f9f
  100dec:	66 89 15 12 77 19 00 	mov    WORD PTR ds:0x197712,dx
  100df3:	3d 00 08 00 00       	cmp    eax,0x800
  100df8:	0f 87 58 3f 00 00    	ja     104d56 <_ZN2os3hal3idt15init_exceptionsEv+0x4276>
  100dfe:	8d 83 1e 77 19 00    	lea    eax,[ebx+0x19771e]
  100e04:	66 89 2d 18 77 19 00 	mov    WORD PTR ds:0x197718,bp
  100e0b:	c1 ed 10             	shr    ebp,0x10
  100e0e:	3d 00 08 00 00       	cmp    eax,0x800
  100e13:	0f 87 19 3f 00 00    	ja     104d32 <_ZN2os3hal3idt15init_exceptionsEv+0x4252>
  100e19:	8d 86 1c 77 19 00    	lea    eax,[esi+0x19771c]
  100e1f:	66 89 2d 1e 77 19 00 	mov    WORD PTR ds:0x19771e,bp
  100e26:	3d 00 08 00 00       	cmp    eax,0x800
  100e2b:	0f 87 dd 3e 00 00    	ja     104d0e <_ZN2os3hal3idt15init_exceptionsEv+0x422e>
  100e31:	8d ae 1d 77 19 00    	lea    ebp,[esi+0x19771d]
  100e37:	c6 05 1c 77 19 00 00 	mov    BYTE PTR ds:0x19771c,0x0
  100e3e:	ba 1d 77 19 00       	mov    edx,0x19771d
  100e43:	81 fd 00 08 00 00    	cmp    ebp,0x800
  100e49:	0f 87 98 3e 00 00    	ja     104ce7 <_ZN2os3hal3idt15init_exceptionsEv+0x4207>
  100e4f:	0f b6 05 1d 77 19 00 	movzx  eax,BYTE PTR ds:0x19771d
  100e56:	83 e0 f0             	and    eax,0xfffffff0
  100e59:	0a 44 24 0a          	or     al,BYTE PTR [esp+0xa]
  100e5d:	81 fd 00 08 00 00    	cmp    ebp,0x800
  100e63:	a2 1d 77 19 00       	mov    ds:0x19771d,al
  100e68:	0f 87 4a 3e 00 00    	ja     104cb8 <_ZN2os3hal3idt15init_exceptionsEv+0x41d8>
  100e6e:	0f b6 05 1d 77 19 00 	movzx  eax,BYTE PTR ds:0x19771d
  100e75:	89 f9                	mov    ecx,edi
  100e77:	83 e1 03             	and    ecx,0x3
  100e7a:	c1 e1 05             	shl    ecx,0x5
  100e7d:	83 e0 9f             	and    eax,0xffffff9f
  100e80:	09 c8                	or     eax,ecx
  100e82:	81 fd 00 08 00 00    	cmp    ebp,0x800
  100e88:	a2 1d 77 19 00       	mov    ds:0x19771d,al
  100e8d:	0f 87 f6 3d 00 00    	ja     104c89 <_ZN2os3hal3idt15init_exceptionsEv+0x41a9>
  100e93:	0f b6 05 1d 77 19 00 	movzx  eax,BYTE PTR ds:0x19771d
  100e9a:	0f b6 4c 24 0b       	movzx  ecx,BYTE PTR [esp+0xb]
  100e9f:	83 e0 7f             	and    eax,0x7f
  100ea2:	c1 e1 07             	shl    ecx,0x7
  100ea5:	09 c8                	or     eax,ecx
  100ea7:	81 fd 00 08 00 00    	cmp    ebp,0x800
  100ead:	a2 1d 77 19 00       	mov    ds:0x19771d,al
  100eb2:	0f 87 aa 3d 00 00    	ja     104c62 <_ZN2os3hal3idt15init_exceptionsEv+0x4182>
  100eb8:	8d 83 1a 77 19 00    	lea    eax,[ebx+0x19771a]
  100ebe:	80 25 1d 77 19 00 ef 	and    BYTE PTR ds:0x19771d,0xef
  100ec5:	3d 00 08 00 00       	cmp    eax,0x800
  100eca:	0f 87 6e 3d 00 00    	ja     104c3e <_ZN2os3hal3idt15init_exceptionsEv+0x415e>
  100ed0:	8d 83 20 77 19 00    	lea    eax,[ebx+0x197720]
  100ed6:	ba 08 00 00 00       	mov    edx,0x8
  100edb:	bd a9 7f 10 00       	mov    ebp,0x107fa9
  100ee0:	66 89 15 1a 77 19 00 	mov    WORD PTR ds:0x19771a,dx
  100ee7:	3d 00 08 00 00       	cmp    eax,0x800
  100eec:	0f 87 28 3d 00 00    	ja     104c1a <_ZN2os3hal3idt15init_exceptionsEv+0x413a>
  100ef2:	8d 83 26 77 19 00    	lea    eax,[ebx+0x197726]
  100ef8:	66 89 2d 20 77 19 00 	mov    WORD PTR ds:0x197720,bp
  100eff:	c1 ed 10             	shr    ebp,0x10
  100f02:	3d 00 08 00 00       	cmp    eax,0x800
  100f07:	0f 87 e9 3c 00 00    	ja     104bf6 <_ZN2os3hal3idt15init_exceptionsEv+0x4116>
  100f0d:	8d 86 24 77 19 00    	lea    eax,[esi+0x197724]
  100f13:	66 89 2d 26 77 19 00 	mov    WORD PTR ds:0x197726,bp
  100f1a:	3d 00 08 00 00       	cmp    eax,0x800
  100f1f:	0f 87 ad 3c 00 00    	ja     104bd2 <_ZN2os3hal3idt15init_exceptionsEv+0x40f2>
  100f25:	8d ae 25 77 19 00    	lea    ebp,[esi+0x197725]
  100f2b:	c6 05 24 77 19 00 00 	mov    BYTE PTR ds:0x197724,0x0
  100f32:	ba 25 77 19 00       	mov    edx,0x197725
  100f37:	81 fd 00 08 00 00    	cmp    ebp,0x800
  100f3d:	0f 87 68 3c 00 00    	ja     104bab <_ZN2os3hal3idt15init_exceptionsEv+0x40cb>
  100f43:	0f b6 05 25 77 19 00 	movzx  eax,BYTE PTR ds:0x197725
  100f4a:	83 e0 f0             	and    eax,0xfffffff0
  100f4d:	0a 44 24 0a          	or     al,BYTE PTR [esp+0xa]
  100f51:	81 fd 00 08 00 00    	cmp    ebp,0x800
  100f57:	a2 25 77 19 00       	mov    ds:0x197725,al
  100f5c:	0f 87 1a 3c 00 00    	ja     104b7c <_ZN2os3hal3idt15init_exceptionsEv+0x409c>
  100f62:	0f b6 05 25 77 19 00 	movzx  eax,BYTE PTR ds:0x197725
  100f69:	89 f9                	mov    ecx,edi
  100f6b:	83 e1 03             	and    ecx,0x3
  100f6e:	c1 e1 05             	shl    ecx,0x5
  100f71:	83 e0 9f             	and    eax,0xffffff9f
  100f74:	09 c8                	or     eax,ecx
  100f76:	81 fd 00 08 00 00    	cmp    ebp,0x800
  100f7c:	a2 25 77 19 00       	mov    ds:0x197725,al
  100f81:	0f 87 c6 3b 00 00    	ja     104b4d <_ZN2os3hal3idt15init_exceptionsEv+0x406d>
  100f87:	0f b6 05 25 77 19 00 	movzx  eax,BYTE PTR ds:0x197725
  100f8e:	0f b6 4c 24 0b       	movzx  ecx,BYTE PTR [esp+0xb]
  100f93:	83 e0 7f             	and    eax,0x7f
  100f96:	c1 e1 07             	shl    ecx,0x7
  100f99:	09 c8                	or     eax,ecx
  100f9b:	81 fd 00 08 00 00    	cmp    ebp,0x800
  100fa1:	a2 25 77 19 00       	mov    ds:0x197725,al
  100fa6:	0f 87 7a 3b 00 00    	ja     104b26 <_ZN2os3hal3idt15init_exceptionsEv+0x4046>
  100fac:	8d 83 22 77 19 00    	lea    eax,[ebx+0x197722]
  100fb2:	80 25 25 77 19 00 ef 	and    BYTE PTR ds:0x197725,0xef
  100fb9:	3d 00 08 00 00       	cmp    eax,0x800
  100fbe:	0f 87 3e 3b 00 00    	ja     104b02 <_ZN2os3hal3idt15init_exceptionsEv+0x4022>
  100fc4:	8d 83 28 77 19 00    	lea    eax,[ebx+0x197728]
  100fca:	ba 08 00 00 00       	mov    edx,0x8
  100fcf:	bd b3 7f 10 00       	mov    ebp,0x107fb3
  100fd4:	66 89 15 22 77 19 00 	mov    WORD PTR ds:0x197722,dx
  100fdb:	3d 00 08 00 00       	cmp    eax,0x800
  100fe0:	0f 87 f8 3a 00 00    	ja     104ade <_ZN2os3hal3idt15init_exceptionsEv+0x3ffe>
  100fe6:	8d 83 2e 77 19 00    	lea    eax,[ebx+0x19772e]
  100fec:	66 89 2d 28 77 19 00 	mov    WORD PTR ds:0x197728,bp
  100ff3:	c1 ed 10             	shr    ebp,0x10
  100ff6:	3d 00 08 00 00       	cmp    eax,0x800
  100ffb:	0f 87 b9 3a 00 00    	ja     104aba <_ZN2os3hal3idt15init_exceptionsEv+0x3fda>
  101001:	8d 86 2c 77 19 00    	lea    eax,[esi+0x19772c]
  101007:	66 89 2d 2e 77 19 00 	mov    WORD PTR ds:0x19772e,bp
  10100e:	3d 00 08 00 00       	cmp    eax,0x800
  101013:	0f 87 7d 3a 00 00    	ja     104a96 <_ZN2os3hal3idt15init_exceptionsEv+0x3fb6>
  101019:	8d ae 2d 77 19 00    	lea    ebp,[esi+0x19772d]
  10101f:	c6 05 2c 77 19 00 00 	mov    BYTE PTR ds:0x19772c,0x0
  101026:	ba 2d 77 19 00       	mov    edx,0x19772d
  10102b:	81 fd 00 08 00 00    	cmp    ebp,0x800
  101031:	0f 87 38 3a 00 00    	ja     104a6f <_ZN2os3hal3idt15init_exceptionsEv+0x3f8f>
  101037:	0f b6 05 2d 77 19 00 	movzx  eax,BYTE PTR ds:0x19772d
  10103e:	83 e0 f0             	and    eax,0xfffffff0
  101041:	0a 44 24 0a          	or     al,BYTE PTR [esp+0xa]
  101045:	81 fd 00 08 00 00    	cmp    ebp,0x800
  10104b:	a2 2d 77 19 00       	mov    ds:0x19772d,al
  101050:	0f 87 ea 39 00 00    	ja     104a40 <_ZN2os3hal3idt15init_exceptionsEv+0x3f60>
  101056:	0f b6 05 2d 77 19 00 	movzx  eax,BYTE PTR ds:0x19772d
  10105d:	89 f9                	mov    ecx,edi
  10105f:	83 e1 03             	and    ecx,0x3
  101062:	c1 e1 05             	shl    ecx,0x5
  101065:	83 e0 9f             	and    eax,0xffffff9f
  101068:	09 c8                	or     eax,ecx
  10106a:	81 fd 00 08 00 00    	cmp    ebp,0x800
  101070:	a2 2d 77 19 00       	mov    ds:0x19772d,al
  101075:	0f 87 96 39 00 00    	ja     104a11 <_ZN2os3hal3idt15init_exceptionsEv+0x3f31>
  10107b:	0f b6 05 2d 77 19 00 	movzx  eax,BYTE PTR ds:0x19772d
  101082:	0f b6 4c 24 0b       	movzx  ecx,BYTE PTR [esp+0xb]
  101087:	83 e0 7f             	and    eax,0x7f
  10108a:	c1 e1 07             	shl    ecx,0x7
  10108d:	09 c8                	or     eax,ecx
  10108f:	81 fd 00 08 00 00    	cmp    ebp,0x800
  101095:	a2 2d 77 19 00       	mov    ds:0x19772d,al
  10109a:	0f 87 4a 39 00 00    	ja     1049ea <_ZN2os3hal3idt15init_exceptionsEv+0x3f0a>
  1010a0:	8d 83 2a 77 19 00    	lea    eax,[ebx+0x19772a]
  1010a6:	80 25 2d 77 19 00 ef 	and    BYTE PTR ds:0x19772d,0xef
  1010ad:	3d 00 08 00 00       	cmp    eax,0x800
  1010b2:	0f 87 0e 39 00 00    	ja     1049c6 <_ZN2os3hal3idt15init_exceptionsEv+0x3ee6>
  1010b8:	8d 83 30 77 19 00    	lea    eax,[ebx+0x197730]
  1010be:	ba 08 00 00 00       	mov    edx,0x8
  1010c3:	bd bd 7f 10 00       	mov    ebp,0x107fbd
  1010c8:	66 89 15 2a 77 19 00 	mov    WORD PTR ds:0x19772a,dx
  1010cf:	3d 00 08 00 00       	cmp    eax,0x800
  1010d4:	0f 87 c8 38 00 00    	ja     1049a2 <_ZN2os3hal3idt15init_exceptionsEv+0x3ec2>
  1010da:	8d 83 36 77 19 00    	lea    eax,[ebx+0x197736]
  1010e0:	66 89 2d 30 77 19 00 	mov    WORD PTR ds:0x197730,bp
  1010e7:	c1 ed 10             	shr    ebp,0x10
  1010ea:	3d 00 08 00 00       	cmp    eax,0x800
  1010ef:	0f 87 89 38 00 00    	ja     10497e <_ZN2os3hal3idt15init_exceptionsEv+0x3e9e>
  1010f5:	8d 86 34 77 19 00    	lea    eax,[esi+0x197734]
  1010fb:	66 89 2d 36 77 19 00 	mov    WORD PTR ds:0x197736,bp
  101102:	3d 00 08 00 00       	cmp    eax,0x800
  101107:	0f 87 4d 38 00 00    	ja     10495a <_ZN2os3hal3idt15init_exceptionsEv+0x3e7a>
  10110d:	8d ae 35 77 19 00    	lea    ebp,[esi+0x197735]
  101113:	c6 05 34 77 19 00 00 	mov    BYTE PTR ds:0x197734,0x0
  10111a:	ba 35 77 19 00       	mov    edx,0x197735
  10111f:	81 fd 00 08 00 00    	cmp    ebp,0x800
  101125:	0f 87 08 38 00 00    	ja     104933 <_ZN2os3hal3idt15init_exceptionsEv+0x3e53>
  10112b:	0f b6 05 35 77 19 00 	movzx  eax,BYTE PTR ds:0x197735
  101132:	83 e0 f0             	and    eax,0xfffffff0
  101135:	0a 44 24 0a          	or     al,BYTE PTR [esp+0xa]
  101139:	81 fd 00 08 00 00    	cmp    ebp,0x800
  10113f:	a2 35 77 19 00       	mov    ds:0x197735,al
  101144:	0f 87 ba 37 00 00    	ja     104904 <_ZN2os3hal3idt15init_exceptionsEv+0x3e24>
  10114a:	0f b6 05 35 77 19 00 	movzx  eax,BYTE PTR ds:0x197735
  101151:	89 f9                	mov    ecx,edi
  101153:	83 e1 03             	and    ecx,0x3
  101156:	c1 e1 05             	shl    ecx,0x5
  101159:	83 e0 9f             	and    eax,0xffffff9f
  10115c:	09 c8                	or     eax,ecx
  10115e:	81 fd 00 08 00 00    	cmp    ebp,0x800
  101164:	a2 35 77 19 00       	mov    ds:0x197735,al
  101169:	0f 87 66 37 00 00    	ja     1048d5 <_ZN2os3hal3idt15init_exceptionsEv+0x3df5>
  10116f:	0f b6 05 35 77 19 00 	movzx  eax,BYTE PTR ds:0x197735
  101176:	0f b6 4c 24 0b       	movzx  ecx,BYTE PTR [esp+0xb]
  10117b:	83 e0 7f             	and    eax,0x7f
  10117e:	c1 e1 07             	shl    ecx,0x7
  101181:	09 c8                	or     eax,ecx
  101183:	81 fd 00 08 00 00    	cmp    ebp,0x800
  101189:	a2 35 77 19 00       	mov    ds:0x197735,al
  10118e:	0f 87 1a 37 00 00    	ja     1048ae <_ZN2os3hal3idt15init_exceptionsEv+0x3dce>
  101194:	8d 83 32 77 19 00    	lea    eax,[ebx+0x197732]
  10119a:	80 25 35 77 19 00 ef 	and    BYTE PTR ds:0x197735,0xef
  1011a1:	3d 00 08 00 00       	cmp    eax,0x800
  1011a6:	0f 87 de 36 00 00    	ja     10488a <_ZN2os3hal3idt15init_exceptionsEv+0x3daa>
  1011ac:	8d 83 38 77 19 00    	lea    eax,[ebx+0x197738]
  1011b2:	ba 08 00 00 00       	mov    edx,0x8
  1011b7:	bd c7 7f 10 00       	mov    ebp,0x107fc7
  1011bc:	66 89 15 32 77 19 00 	mov    WORD PTR ds:0x197732,dx
  1011c3:	3d 00 08 00 00       	cmp    eax,0x800
  1011c8:	0f 87 98 36 00 00    	ja     104866 <_ZN2os3hal3idt15init_exceptionsEv+0x3d86>
  1011ce:	8d 83 3e 77 19 00    	lea    eax,[ebx+0x19773e]
  1011d4:	66 89 2d 38 77 19 00 	mov    WORD PTR ds:0x197738,bp
  1011db:	c1 ed 10             	shr    ebp,0x10
  1011de:	3d 00 08 00 00       	cmp    eax,0x800
  1011e3:	0f 87 59 36 00 00    	ja     104842 <_ZN2os3hal3idt15init_exceptionsEv+0x3d62>
  1011e9:	8d 86 3c 77 19 00    	lea    eax,[esi+0x19773c]
  1011ef:	66 89 2d 3e 77 19 00 	mov    WORD PTR ds:0x19773e,bp
  1011f6:	3d 00 08 00 00       	cmp    eax,0x800
  1011fb:	0f 87 1d 36 00 00    	ja     10481e <_ZN2os3hal3idt15init_exceptionsEv+0x3d3e>
  101201:	8d ae 3d 77 19 00    	lea    ebp,[esi+0x19773d]
  101207:	c6 05 3c 77 19 00 00 	mov    BYTE PTR ds:0x19773c,0x0
  10120e:	ba 3d 77 19 00       	mov    edx,0x19773d
  101213:	81 fd 00 08 00 00    	cmp    ebp,0x800
  101219:	0f 87 d8 35 00 00    	ja     1047f7 <_ZN2os3hal3idt15init_exceptionsEv+0x3d17>
  10121f:	0f b6 05 3d 77 19 00 	movzx  eax,BYTE PTR ds:0x19773d
  101226:	83 e0 f0             	and    eax,0xfffffff0
  101229:	0a 44 24 0a          	or     al,BYTE PTR [esp+0xa]
  10122d:	81 fd 00 08 00 00    	cmp    ebp,0x800
  101233:	a2 3d 77 19 00       	mov    ds:0x19773d,al
  101238:	0f 87 8a 35 00 00    	ja     1047c8 <_ZN2os3hal3idt15init_exceptionsEv+0x3ce8>
  10123e:	0f b6 05 3d 77 19 00 	movzx  eax,BYTE PTR ds:0x19773d
  101245:	89 f9                	mov    ecx,edi
  101247:	83 e1 03             	and    ecx,0x3
  10124a:	c1 e1 05             	shl    ecx,0x5
  10124d:	83 e0 9f             	and    eax,0xffffff9f
  101250:	09 c8                	or     eax,ecx
  101252:	81 fd 00 08 00 00    	cmp    ebp,0x800
  101258:	a2 3d 77 19 00       	mov    ds:0x19773d,al
  10125d:	0f 87 36 35 00 00    	ja     104799 <_ZN2os3hal3idt15init_exceptionsEv+0x3cb9>
  101263:	0f b6 05 3d 77 19 00 	movzx  eax,BYTE PTR ds:0x19773d
  10126a:	0f b6 4c 24 0b       	movzx  ecx,BYTE PTR [esp+0xb]
  10126f:	83 e0 7f             	and    eax,0x7f
  101272:	c1 e1 07             	shl    ecx,0x7
  101275:	09 c8                	or     eax,ecx
  101277:	81 fd 00 08 00 00    	cmp    ebp,0x800
  10127d:	a2 3d 77 19 00       	mov    ds:0x19773d,al
  101282:	0f 87 ea 34 00 00    	ja     104772 <_ZN2os3hal3idt15init_exceptionsEv+0x3c92>
  101288:	8d 83 3a 77 19 00    	lea    eax,[ebx+0x19773a]
  10128e:	80 25 3d 77 19 00 ef 	and    BYTE PTR ds:0x19773d,0xef
  101295:	3d 00 08 00 00       	cmp    eax,0x800
  10129a:	0f 87 ae 34 00 00    	ja     10474e <_ZN2os3hal3idt15init_exceptionsEv+0x3c6e>
  1012a0:	8d 83 40 77 19 00    	lea    eax,[ebx+0x197740]
  1012a6:	ba 08 00 00 00       	mov    edx,0x8
  1012ab:	bd d1 7f 10 00       	mov    ebp,0x107fd1
  1012b0:	66 89 15 3a 77 19 00 	mov    WORD PTR ds:0x19773a,dx
  1012b7:	3d 00 08 00 00       	cmp    eax,0x800
  1012bc:	0f 87 68 34 00 00    	ja     10472a <_ZN2os3hal3idt15init_exceptionsEv+0x3c4a>
  1012c2:	8d 83 46 77 19 00    	lea    eax,[ebx+0x197746]
  1012c8:	66 89 2d 40 77 19 00 	mov    WORD PTR ds:0x197740,bp
  1012cf:	c1 ed 10             	shr    ebp,0x10
  1012d2:	3d 00 08 00 00       	cmp    eax,0x800
  1012d7:	0f 87 29 34 00 00    	ja     104706 <_ZN2os3hal3idt15init_exceptionsEv+0x3c26>
  1012dd:	8d 86 44 77 19 00    	lea    eax,[esi+0x197744]
  1012e3:	66 89 2d 46 77 19 00 	mov    WORD PTR ds:0x197746,bp
  1012ea:	3d 00 08 00 00       	cmp    eax,0x800
  1012ef:	0f 87 ed 33 00 00    	ja     1046e2 <_ZN2os3hal3idt15init_exceptionsEv+0x3c02>
  1012f5:	8d ae 45 77 19 00    	lea    ebp,[esi+0x197745]
  1012fb:	c6 05 44 77 19 00 00 	mov    BYTE PTR ds:0x197744,0x0
  101302:	ba 45 77 19 00       	mov    edx,0x197745
  101307:	81 fd 00 08 00 00    	cmp    ebp,0x800
  10130d:	0f 87 a8 33 00 00    	ja     1046bb <_ZN2os3hal3idt15init_exceptionsEv+0x3bdb>
  101313:	0f b6 05 45 77 19 00 	movzx  eax,BYTE PTR ds:0x197745
  10131a:	83 e0 f0             	and    eax,0xfffffff0
  10131d:	0a 44 24 0a          	or     al,BYTE PTR [esp+0xa]
  101321:	81 fd 00 08 00 00    	cmp    ebp,0x800
  101327:	a2 45 77 19 00       	mov    ds:0x197745,al
  10132c:	0f 87 5a 33 00 00    	ja     10468c <_ZN2os3hal3idt15init_exceptionsEv+0x3bac>
  101332:	0f b6 05 45 77 19 00 	movzx  eax,BYTE PTR ds:0x197745
  101339:	89 f9                	mov    ecx,edi
  10133b:	83 e1 03             	and    ecx,0x3
  10133e:	c1 e1 05             	shl    ecx,0x5
  101341:	83 e0 9f             	and    eax,0xffffff9f
  101344:	09 c8                	or     eax,ecx
  101346:	81 fd 00 08 00 00    	cmp    ebp,0x800
  10134c:	a2 45 77 19 00       	mov    ds:0x197745,al
  101351:	0f 87 06 33 00 00    	ja     10465d <_ZN2os3hal3idt15init_exceptionsEv+0x3b7d>
  101357:	0f b6 05 45 77 19 00 	movzx  eax,BYTE PTR ds:0x197745
  10135e:	0f b6 4c 24 0b       	movzx  ecx,BYTE PTR [esp+0xb]
  101363:	83 e0 7f             	and    eax,0x7f
  101366:	c1 e1 07             	shl    ecx,0x7
  101369:	09 c8                	or     eax,ecx
  10136b:	81 fd 00 08 00 00    	cmp    ebp,0x800
  101371:	a2 45 77 19 00       	mov    ds:0x197745,al
  101376:	0f 87 ba 32 00 00    	ja     104636 <_ZN2os3hal3idt15init_exceptionsEv+0x3b56>
  10137c:	8d 83 42 77 19 00    	lea    eax,[ebx+0x197742]
  101382:	80 25 45 77 19 00 ef 	and    BYTE PTR ds:0x197745,0xef
  101389:	3d 00 08 00 00       	cmp    eax,0x800
  10138e:	0f 87 7e 32 00 00    	ja     104612 <_ZN2os3hal3idt15init_exceptionsEv+0x3b32>
  101394:	8d 83 48 77 19 00    	lea    eax,[ebx+0x197748]
  10139a:	ba 08 00 00 00       	mov    edx,0x8
  10139f:	bd d9 7f 10 00       	mov    ebp,0x107fd9
  1013a4:	66 89 15 42 77 19 00 	mov    WORD PTR ds:0x197742,dx
  1013ab:	3d 00 08 00 00       	cmp    eax,0x800
  1013b0:	0f 87 38 32 00 00    	ja     1045ee <_ZN2os3hal3idt15init_exceptionsEv+0x3b0e>
  1013b6:	8d 83 4e 77 19 00    	lea    eax,[ebx+0x19774e]
  1013bc:	66 89 2d 48 77 19 00 	mov    WORD PTR ds:0x197748,bp
  1013c3:	c1 ed 10             	shr    ebp,0x10
  1013c6:	3d 00 08 00 00       	cmp    eax,0x800
  1013cb:	0f 87 f9 31 00 00    	ja     1045ca <_ZN2os3hal3idt15init_exceptionsEv+0x3aea>
  1013d1:	8d 86 4c 77 19 00    	lea    eax,[esi+0x19774c]
  1013d7:	66 89 2d 4e 77 19 00 	mov    WORD PTR ds:0x19774e,bp
  1013de:	3d 00 08 00 00       	cmp    eax,0x800
  1013e3:	0f 87 bd 31 00 00    	ja     1045a6 <_ZN2os3hal3idt15init_exceptionsEv+0x3ac6>
  1013e9:	8d ae 4d 77 19 00    	lea    ebp,[esi+0x19774d]
  1013ef:	c6 05 4c 77 19 00 00 	mov    BYTE PTR ds:0x19774c,0x0
  1013f6:	ba 4d 77 19 00       	mov    edx,0x19774d
  1013fb:	81 fd 00 08 00 00    	cmp    ebp,0x800
  101401:	0f 87 78 31 00 00    	ja     10457f <_ZN2os3hal3idt15init_exceptionsEv+0x3a9f>
  101407:	0f b6 05 4d 77 19 00 	movzx  eax,BYTE PTR ds:0x19774d
  10140e:	83 e0 f0             	and    eax,0xfffffff0
  101411:	0a 44 24 0a          	or     al,BYTE PTR [esp+0xa]
  101415:	81 fd 00 08 00 00    	cmp    ebp,0x800
  10141b:	a2 4d 77 19 00       	mov    ds:0x19774d,al
  101420:	0f 87 2a 31 00 00    	ja     104550 <_ZN2os3hal3idt15init_exceptionsEv+0x3a70>
  101426:	0f b6 05 4d 77 19 00 	movzx  eax,BYTE PTR ds:0x19774d
  10142d:	89 f9                	mov    ecx,edi
  10142f:	83 e1 03             	and    ecx,0x3
  101432:	c1 e1 05             	shl    ecx,0x5
  101435:	83 e0 9f             	and    eax,0xffffff9f
  101438:	09 c8                	or     eax,ecx
  10143a:	81 fd 00 08 00 00    	cmp    ebp,0x800
  101440:	a2 4d 77 19 00       	mov    ds:0x19774d,al
  101445:	0f 87 d6 30 00 00    	ja     104521 <_ZN2os3hal3idt15init_exceptionsEv+0x3a41>
  10144b:	0f b6 05 4d 77 19 00 	movzx  eax,BYTE PTR ds:0x19774d
  101452:	0f b6 4c 24 0b       	movzx  ecx,BYTE PTR [esp+0xb]
  101457:	83 e0 7f             	and    eax,0x7f
  10145a:	c1 e1 07             	shl    ecx,0x7
  10145d:	09 c8                	or     eax,ecx
  10145f:	81 fd 00 08 00 00    	cmp    ebp,0x800
  101465:	a2 4d 77 19 00       	mov    ds:0x19774d,al
  10146a:	0f 87 8a 30 00 00    	ja     1044fa <_ZN2os3hal3idt15init_exceptionsEv+0x3a1a>
  101470:	8d 83 4a 77 19 00    	lea    eax,[ebx+0x19774a]
  101476:	80 25 4d 77 19 00 ef 	and    BYTE PTR ds:0x19774d,0xef
  10147d:	3d 00 08 00 00       	cmp    eax,0x800
  101482:	0f 87 4e 30 00 00    	ja     1044d6 <_ZN2os3hal3idt15init_exceptionsEv+0x39f6>
  101488:	8d 83 50 77 19 00    	lea    eax,[ebx+0x197750]
  10148e:	ba 08 00 00 00       	mov    edx,0x8
  101493:	bd e3 7f 10 00       	mov    ebp,0x107fe3
  101498:	66 89 15 4a 77 19 00 	mov    WORD PTR ds:0x19774a,dx
  10149f:	3d 00 08 00 00       	cmp    eax,0x800
  1014a4:	0f 87 08 30 00 00    	ja     1044b2 <_ZN2os3hal3idt15init_exceptionsEv+0x39d2>
  1014aa:	8d 83 56 77 19 00    	lea    eax,[ebx+0x197756]
  1014b0:	66 89 2d 50 77 19 00 	mov    WORD PTR ds:0x197750,bp
  1014b7:	c1 ed 10             	shr    ebp,0x10
  1014ba:	3d 00 08 00 00       	cmp    eax,0x800
  1014bf:	0f 87 c9 2f 00 00    	ja     10448e <_ZN2os3hal3idt15init_exceptionsEv+0x39ae>
  1014c5:	8d 86 54 77 19 00    	lea    eax,[esi+0x197754]
  1014cb:	66 89 2d 56 77 19 00 	mov    WORD PTR ds:0x197756,bp
  1014d2:	3d 00 08 00 00       	cmp    eax,0x800
  1014d7:	0f 87 8d 2f 00 00    	ja     10446a <_ZN2os3hal3idt15init_exceptionsEv+0x398a>
  1014dd:	8d ae 55 77 19 00    	lea    ebp,[esi+0x197755]
  1014e3:	c6 05 54 77 19 00 00 	mov    BYTE PTR ds:0x197754,0x0
  1014ea:	ba 55 77 19 00       	mov    edx,0x197755
  1014ef:	81 fd 00 08 00 00    	cmp    ebp,0x800
  1014f5:	0f 87 48 2f 00 00    	ja     104443 <_ZN2os3hal3idt15init_exceptionsEv+0x3963>
  1014fb:	0f b6 05 55 77 19 00 	movzx  eax,BYTE PTR ds:0x197755
  101502:	83 e0 f0             	and    eax,0xfffffff0
  101505:	0a 44 24 0a          	or     al,BYTE PTR [esp+0xa]
  101509:	81 fd 00 08 00 00    	cmp    ebp,0x800
  10150f:	a2 55 77 19 00       	mov    ds:0x197755,al
  101514:	0f 87 fa 2e 00 00    	ja     104414 <_ZN2os3hal3idt15init_exceptionsEv+0x3934>
  10151a:	0f b6 05 55 77 19 00 	movzx  eax,BYTE PTR ds:0x197755
  101521:	89 f9                	mov    ecx,edi
  101523:	83 e1 03             	and    ecx,0x3
  101526:	c1 e1 05             	shl    ecx,0x5
  101529:	83 e0 9f             	and    eax,0xffffff9f
  10152c:	09 c8                	or     eax,ecx
  10152e:	81 fd 00 08 00 00    	cmp    ebp,0x800
  101534:	a2 55 77 19 00       	mov    ds:0x197755,al
  101539:	0f 87 a6 2e 00 00    	ja     1043e5 <_ZN2os3hal3idt15init_exceptionsEv+0x3905>
  10153f:	0f b6 05 55 77 19 00 	movzx  eax,BYTE PTR ds:0x197755
  101546:	0f b6 4c 24 0b       	movzx  ecx,BYTE PTR [esp+0xb]
  10154b:	83 e0 7f             	and    eax,0x7f
  10154e:	c1 e1 07             	shl    ecx,0x7
  101551:	09 c8                	or     eax,ecx
  101553:	81 fd 00 08 00 00    	cmp    ebp,0x800
  101559:	a2 55 77 19 00       	mov    ds:0x197755,al
  10155e:	0f 87 5a 2e 00 00    	ja     1043be <_ZN2os3hal3idt15init_exceptionsEv+0x38de>
  101564:	8d 83 52 77 19 00    	lea    eax,[ebx+0x197752]
  10156a:	80 25 55 77 19 00 ef 	and    BYTE PTR ds:0x197755,0xef
  101571:	3d 00 08 00 00       	cmp    eax,0x800
  101576:	0f 87 1e 2e 00 00    	ja     10439a <_ZN2os3hal3idt15init_exceptionsEv+0x38ba>
  10157c:	8d 83 58 77 19 00    	lea    eax,[ebx+0x197758]
  101582:	ba 08 00 00 00       	mov    edx,0x8
  101587:	bd eb 7f 10 00       	mov    ebp,0x107feb
  10158c:	66 89 15 52 77 19 00 	mov    WORD PTR ds:0x197752,dx
  101593:	3d 00 08 00 00       	cmp    eax,0x800
  101598:	0f 87 d8 2d 00 00    	ja     104376 <_ZN2os3hal3idt15init_exceptionsEv+0x3896>
  10159e:	8d 83 5e 77 19 00    	lea    eax,[ebx+0x19775e]
  1015a4:	66 89 2d 58 77 19 00 	mov    WORD PTR ds:0x197758,bp
  1015ab:	c1 ed 10             	shr    ebp,0x10
  1015ae:	3d 00 08 00 00       	cmp    eax,0x800
  1015b3:	0f 87 99 2d 00 00    	ja     104352 <_ZN2os3hal3idt15init_exceptionsEv+0x3872>
  1015b9:	8d 86 5c 77 19 00    	lea    eax,[esi+0x19775c]
  1015bf:	66 89 2d 5e 77 19 00 	mov    WORD PTR ds:0x19775e,bp
  1015c6:	3d 00 08 00 00       	cmp    eax,0x800
  1015cb:	0f 87 5d 2d 00 00    	ja     10432e <_ZN2os3hal3idt15init_exceptionsEv+0x384e>
  1015d1:	8d ae 5d 77 19 00    	lea    ebp,[esi+0x19775d]
  1015d7:	c6 05 5c 77 19 00 00 	mov    BYTE PTR ds:0x19775c,0x0
  1015de:	ba 5d 77 19 00       	mov    edx,0x19775d
  1015e3:	81 fd 00 08 00 00    	cmp    ebp,0x800
  1015e9:	0f 87 18 2d 00 00    	ja     104307 <_ZN2os3hal3idt15init_exceptionsEv+0x3827>
  1015ef:	0f b6 05 5d 77 19 00 	movzx  eax,BYTE PTR ds:0x19775d
  1015f6:	83 e0 f0             	and    eax,0xfffffff0
  1015f9:	0a 44 24 0a          	or     al,BYTE PTR [esp+0xa]
  1015fd:	81 fd 00 08 00 00    	cmp    ebp,0x800
  101603:	a2 5d 77 19 00       	mov    ds:0x19775d,al
  101608:	0f 87 ca 2c 00 00    	ja     1042d8 <_ZN2os3hal3idt15init_exceptionsEv+0x37f8>
  10160e:	0f b6 05 5d 77 19 00 	movzx  eax,BYTE PTR ds:0x19775d
  101615:	89 f9                	mov    ecx,edi
  101617:	83 e1 03             	and    ecx,0x3
  10161a:	c1 e1 05             	shl    ecx,0x5
  10161d:	83 e0 9f             	and    eax,0xffffff9f
  101620:	09 c8                	or     eax,ecx
  101622:	81 fd 00 08 00 00    	cmp    ebp,0x800
  101628:	a2 5d 77 19 00       	mov    ds:0x19775d,al
  10162d:	0f 87 76 2c 00 00    	ja     1042a9 <_ZN2os3hal3idt15init_exceptionsEv+0x37c9>
  101633:	0f b6 05 5d 77 19 00 	movzx  eax,BYTE PTR ds:0x19775d
  10163a:	0f b6 4c 24 0b       	movzx  ecx,BYTE PTR [esp+0xb]
  10163f:	83 e0 7f             	and    eax,0x7f
  101642:	c1 e1 07             	shl    ecx,0x7
  101645:	09 c8                	or     eax,ecx
  101647:	81 fd 00 08 00 00    	cmp    ebp,0x800
  10164d:	a2 5d 77 19 00       	mov    ds:0x19775d,al
  101652:	0f 87 2a 2c 00 00    	ja     104282 <_ZN2os3hal3idt15init_exceptionsEv+0x37a2>
  101658:	8d 83 5a 77 19 00    	lea    eax,[ebx+0x19775a]
  10165e:	80 25 5d 77 19 00 ef 	and    BYTE PTR ds:0x19775d,0xef
  101665:	3d 00 08 00 00       	cmp    eax,0x800
  10166a:	0f 87 ee 2b 00 00    	ja     10425e <_ZN2os3hal3idt15init_exceptionsEv+0x377e>
  101670:	8d 83 60 77 19 00    	lea    eax,[ebx+0x197760]
  101676:	ba 08 00 00 00       	mov    edx,0x8
  10167b:	bd f3 7f 10 00       	mov    ebp,0x107ff3
  101680:	66 89 15 5a 77 19 00 	mov    WORD PTR ds:0x19775a,dx
  101687:	3d 00 08 00 00       	cmp    eax,0x800
  10168c:	0f 87 a8 2b 00 00    	ja     10423a <_ZN2os3hal3idt15init_exceptionsEv+0x375a>
  101692:	8d 83 66 77 19 00    	lea    eax,[ebx+0x197766]
  101698:	66 89 2d 60 77 19 00 	mov    WORD PTR ds:0x197760,bp
  10169f:	c1 ed 10             	shr    ebp,0x10
  1016a2:	3d 00 08 00 00       	cmp    eax,0x800
  1016a7:	0f 87 69 2b 00 00    	ja     104216 <_ZN2os3hal3idt15init_exceptionsEv+0x3736>
  1016ad:	8d 86 64 77 19 00    	lea    eax,[esi+0x197764]
  1016b3:	66 89 2d 66 77 19 00 	mov    WORD PTR ds:0x197766,bp
  1016ba:	3d 00 08 00 00       	cmp    eax,0x800
  1016bf:	0f 87 2d 2b 00 00    	ja     1041f2 <_ZN2os3hal3idt15init_exceptionsEv+0x3712>
  1016c5:	8d ae 65 77 19 00    	lea    ebp,[esi+0x197765]
  1016cb:	c6 05 64 77 19 00 00 	mov    BYTE PTR ds:0x197764,0x0
  1016d2:	ba 65 77 19 00       	mov    edx,0x197765
  1016d7:	81 fd 00 08 00 00    	cmp    ebp,0x800
  1016dd:	0f 87 e8 2a 00 00    	ja     1041cb <_ZN2os3hal3idt15init_exceptionsEv+0x36eb>
  1016e3:	0f b6 05 65 77 19 00 	movzx  eax,BYTE PTR ds:0x197765
  1016ea:	83 e0 f0             	and    eax,0xfffffff0
  1016ed:	0a 44 24 0a          	or     al,BYTE PTR [esp+0xa]
  1016f1:	81 fd 00 08 00 00    	cmp    ebp,0x800
  1016f7:	a2 65 77 19 00       	mov    ds:0x197765,al
  1016fc:	0f 87 9a 2a 00 00    	ja     10419c <_ZN2os3hal3idt15init_exceptionsEv+0x36bc>
  101702:	0f b6 05 65 77 19 00 	movzx  eax,BYTE PTR ds:0x197765
  101709:	89 f9                	mov    ecx,edi
  10170b:	83 e1 03             	and    ecx,0x3
  10170e:	c1 e1 05             	shl    ecx,0x5
  101711:	83 e0 9f             	and    eax,0xffffff9f
  101714:	09 c8                	or     eax,ecx
  101716:	81 fd 00 08 00 00    	cmp    ebp,0x800
  10171c:	a2 65 77 19 00       	mov    ds:0x197765,al
  101721:	0f 87 46 2a 00 00    	ja     10416d <_ZN2os3hal3idt15init_exceptionsEv+0x368d>
  101727:	0f b6 05 65 77 19 00 	movzx  eax,BYTE PTR ds:0x197765
  10172e:	0f b6 4c 24 0b       	movzx  ecx,BYTE PTR [esp+0xb]
  101733:	83 e0 7f             	and    eax,0x7f
  101736:	c1 e1 07             	shl    ecx,0x7
  101739:	09 c8                	or     eax,ecx
  10173b:	81 fd 00 08 00 00    	cmp    ebp,0x800
  101741:	a2 65 77 19 00       	mov    ds:0x197765,al
  101746:	0f 87 fa 29 00 00    	ja     104146 <_ZN2os3hal3idt15init_exceptionsEv+0x3666>
  10174c:	8d 83 62 77 19 00    	lea    eax,[ebx+0x197762]
  101752:	80 25 65 77 19 00 ef 	and    BYTE PTR ds:0x197765,0xef
  101759:	3d 00 08 00 00       	cmp    eax,0x800
  10175e:	0f 87 be 29 00 00    	ja     104122 <_ZN2os3hal3idt15init_exceptionsEv+0x3642>
  101764:	8d 83 68 77 19 00    	lea    eax,[ebx+0x197768]
  10176a:	ba 08 00 00 00       	mov    edx,0x8
  10176f:	bd fb 7f 10 00       	mov    ebp,0x107ffb
  101774:	66 89 15 62 77 19 00 	mov    WORD PTR ds:0x197762,dx
  10177b:	3d 00 08 00 00       	cmp    eax,0x800
  101780:	0f 87 78 29 00 00    	ja     1040fe <_ZN2os3hal3idt15init_exceptionsEv+0x361e>
  101786:	8d 83 6e 77 19 00    	lea    eax,[ebx+0x19776e]
  10178c:	66 89 2d 68 77 19 00 	mov    WORD PTR ds:0x197768,bp
  101793:	c1 ed 10             	shr    ebp,0x10
  101796:	3d 00 08 00 00       	cmp    eax,0x800
  10179b:	0f 87 39 29 00 00    	ja     1040da <_ZN2os3hal3idt15init_exceptionsEv+0x35fa>
  1017a1:	8d 86 6c 77 19 00    	lea    eax,[esi+0x19776c]
  1017a7:	66 89 2d 6e 77 19 00 	mov    WORD PTR ds:0x19776e,bp
  1017ae:	3d 00 08 00 00       	cmp    eax,0x800
  1017b3:	0f 87 fd 28 00 00    	ja     1040b6 <_ZN2os3hal3idt15init_exceptionsEv+0x35d6>
  1017b9:	8d ae 6d 77 19 00    	lea    ebp,[esi+0x19776d]
  1017bf:	c6 05 6c 77 19 00 00 	mov    BYTE PTR ds:0x19776c,0x0
  1017c6:	ba 6d 77 19 00       	mov    edx,0x19776d
  1017cb:	81 fd 00 08 00 00    	cmp    ebp,0x800
  1017d1:	0f 87 b8 28 00 00    	ja     10408f <_ZN2os3hal3idt15init_exceptionsEv+0x35af>
  1017d7:	0f b6 05 6d 77 19 00 	movzx  eax,BYTE PTR ds:0x19776d
  1017de:	83 e0 f0             	and    eax,0xfffffff0
  1017e1:	0a 44 24 0a          	or     al,BYTE PTR [esp+0xa]
  1017e5:	81 fd 00 08 00 00    	cmp    ebp,0x800
  1017eb:	a2 6d 77 19 00       	mov    ds:0x19776d,al
  1017f0:	0f 87 6a 28 00 00    	ja     104060 <_ZN2os3hal3idt15init_exceptionsEv+0x3580>
  1017f6:	0f b6 05 6d 77 19 00 	movzx  eax,BYTE PTR ds:0x19776d
  1017fd:	89 f9                	mov    ecx,edi
  1017ff:	83 e1 03             	and    ecx,0x3
  101802:	c1 e1 05             	shl    ecx,0x5
  101805:	83 e0 9f             	and    eax,0xffffff9f
  101808:	09 c8                	or     eax,ecx
  10180a:	81 fd 00 08 00 00    	cmp    ebp,0x800
  101810:	a2 6d 77 19 00       	mov    ds:0x19776d,al
  101815:	0f 87 16 28 00 00    	ja     104031 <_ZN2os3hal3idt15init_exceptionsEv+0x3551>
  10181b:	0f b6 05 6d 77 19 00 	movzx  eax,BYTE PTR ds:0x19776d
  101822:	0f b6 4c 24 0b       	movzx  ecx,BYTE PTR [esp+0xb]
  101827:	83 e0 7f             	and    eax,0x7f
  10182a:	c1 e1 07             	shl    ecx,0x7
  10182d:	09 c8                	or     eax,ecx
  10182f:	81 fd 00 08 00 00    	cmp    ebp,0x800
  101835:	a2 6d 77 19 00       	mov    ds:0x19776d,al
  10183a:	0f 87 ca 27 00 00    	ja     10400a <_ZN2os3hal3idt15init_exceptionsEv+0x352a>
  101840:	8d 83 6a 77 19 00    	lea    eax,[ebx+0x19776a]
  101846:	80 25 6d 77 19 00 ef 	and    BYTE PTR ds:0x19776d,0xef
  10184d:	3d 00 08 00 00       	cmp    eax,0x800
  101852:	0f 87 8e 27 00 00    	ja     103fe6 <_ZN2os3hal3idt15init_exceptionsEv+0x3506>
  101858:	8d 83 70 77 19 00    	lea    eax,[ebx+0x197770]
  10185e:	ba 08 00 00 00       	mov    edx,0x8
  101863:	bd 03 80 10 00       	mov    ebp,0x108003
  101868:	66 89 15 6a 77 19 00 	mov    WORD PTR ds:0x19776a,dx
  10186f:	3d 00 08 00 00       	cmp    eax,0x800
  101874:	0f 87 48 27 00 00    	ja     103fc2 <_ZN2os3hal3idt15init_exceptionsEv+0x34e2>
  10187a:	8d 83 76 77 19 00    	lea    eax,[ebx+0x197776]
  101880:	66 89 2d 70 77 19 00 	mov    WORD PTR ds:0x197770,bp
  101887:	c1 ed 10             	shr    ebp,0x10
  10188a:	3d 00 08 00 00       	cmp    eax,0x800
  10188f:	0f 87 09 27 00 00    	ja     103f9e <_ZN2os3hal3idt15init_exceptionsEv+0x34be>
  101895:	8d 86 74 77 19 00    	lea    eax,[esi+0x197774]
  10189b:	66 89 2d 76 77 19 00 	mov    WORD PTR ds:0x197776,bp
  1018a2:	3d 00 08 00 00       	cmp    eax,0x800
  1018a7:	0f 87 cd 26 00 00    	ja     103f7a <_ZN2os3hal3idt15init_exceptionsEv+0x349a>
  1018ad:	8d ae 75 77 19 00    	lea    ebp,[esi+0x197775]
  1018b3:	c6 05 74 77 19 00 00 	mov    BYTE PTR ds:0x197774,0x0
  1018ba:	ba 75 77 19 00       	mov    edx,0x197775
  1018bf:	81 fd 00 08 00 00    	cmp    ebp,0x800
  1018c5:	0f 87 88 26 00 00    	ja     103f53 <_ZN2os3hal3idt15init_exceptionsEv+0x3473>
  1018cb:	0f b6 05 75 77 19 00 	movzx  eax,BYTE PTR ds:0x197775
  1018d2:	83 e0 f0             	and    eax,0xfffffff0
  1018d5:	0a 44 24 0a          	or     al,BYTE PTR [esp+0xa]
  1018d9:	81 fd 00 08 00 00    	cmp    ebp,0x800
  1018df:	a2 75 77 19 00       	mov    ds:0x197775,al
  1018e4:	0f 87 3a 26 00 00    	ja     103f24 <_ZN2os3hal3idt15init_exceptionsEv+0x3444>
  1018ea:	0f b6 05 75 77 19 00 	movzx  eax,BYTE PTR ds:0x197775
  1018f1:	89 f9                	mov    ecx,edi
  1018f3:	83 e1 03             	and    ecx,0x3
  1018f6:	c1 e1 05             	shl    ecx,0x5
  1018f9:	83 e0 9f             	and    eax,0xffffff9f
  1018fc:	09 c8                	or     eax,ecx
  1018fe:	81 fd 00 08 00 00    	cmp    ebp,0x800
  101904:	a2 75 77 19 00       	mov    ds:0x197775,al
  101909:	0f 87 e6 25 00 00    	ja     103ef5 <_ZN2os3hal3idt15init_exceptionsEv+0x3415>
  10190f:	0f b6 05 75 77 19 00 	movzx  eax,BYTE PTR ds:0x197775
  101916:	0f b6 4c 24 0b       	movzx  ecx,BYTE PTR [esp+0xb]
  10191b:	83 e0 7f             	and    eax,0x7f
  10191e:	c1 e1 07             	shl    ecx,0x7
  101921:	09 c8                	or     eax,ecx
  101923:	81 fd 00 08 00 00    	cmp    ebp,0x800
  101929:	a2 75 77 19 00       	mov    ds:0x197775,al
  10192e:	0f 87 9a 25 00 00    	ja     103ece <_ZN2os3hal3idt15init_exceptionsEv+0x33ee>
  101934:	8d 83 72 77 19 00    	lea    eax,[ebx+0x197772]
  10193a:	80 25 75 77 19 00 ef 	and    BYTE PTR ds:0x197775,0xef
  101941:	3d 00 08 00 00       	cmp    eax,0x800
  101946:	0f 87 5e 25 00 00    	ja     103eaa <_ZN2os3hal3idt15init_exceptionsEv+0x33ca>
  10194c:	8d 83 78 77 19 00    	lea    eax,[ebx+0x197778]
  101952:	ba 08 00 00 00       	mov    edx,0x8
  101957:	bd 0b 80 10 00       	mov    ebp,0x10800b
  10195c:	66 89 15 72 77 19 00 	mov    WORD PTR ds:0x197772,dx
  101963:	3d 00 08 00 00       	cmp    eax,0x800
  101968:	0f 87 18 25 00 00    	ja     103e86 <_ZN2os3hal3idt15init_exceptionsEv+0x33a6>
  10196e:	8d 83 7e 77 19 00    	lea    eax,[ebx+0x19777e]
  101974:	66 89 2d 78 77 19 00 	mov    WORD PTR ds:0x197778,bp
  10197b:	c1 ed 10             	shr    ebp,0x10
  10197e:	3d 00 08 00 00       	cmp    eax,0x800
  101983:	0f 87 d9 24 00 00    	ja     103e62 <_ZN2os3hal3idt15init_exceptionsEv+0x3382>
  101989:	8d 86 7c 77 19 00    	lea    eax,[esi+0x19777c]
  10198f:	66 89 2d 7e 77 19 00 	mov    WORD PTR ds:0x19777e,bp
  101996:	3d 00 08 00 00       	cmp    eax,0x800
  10199b:	0f 87 9d 24 00 00    	ja     103e3e <_ZN2os3hal3idt15init_exceptionsEv+0x335e>
  1019a1:	8d ae 7d 77 19 00    	lea    ebp,[esi+0x19777d]
  1019a7:	c6 05 7c 77 19 00 00 	mov    BYTE PTR ds:0x19777c,0x0
  1019ae:	ba 7d 77 19 00       	mov    edx,0x19777d
  1019b3:	81 fd 00 08 00 00    	cmp    ebp,0x800
  1019b9:	0f 87 58 24 00 00    	ja     103e17 <_ZN2os3hal3idt15init_exceptionsEv+0x3337>
  1019bf:	0f b6 05 7d 77 19 00 	movzx  eax,BYTE PTR ds:0x19777d
  1019c6:	83 e0 f0             	and    eax,0xfffffff0
  1019c9:	0a 44 24 0a          	or     al,BYTE PTR [esp+0xa]
  1019cd:	81 fd 00 08 00 00    	cmp    ebp,0x800
  1019d3:	a2 7d 77 19 00       	mov    ds:0x19777d,al
  1019d8:	0f 87 0a 24 00 00    	ja     103de8 <_ZN2os3hal3idt15init_exceptionsEv+0x3308>
  1019de:	0f b6 05 7d 77 19 00 	movzx  eax,BYTE PTR ds:0x19777d
  1019e5:	89 f9                	mov    ecx,edi
  1019e7:	83 e1 03             	and    ecx,0x3
  1019ea:	c1 e1 05             	shl    ecx,0x5
  1019ed:	83 e0 9f             	and    eax,0xffffff9f
  1019f0:	09 c8                	or     eax,ecx
  1019f2:	81 fd 00 08 00 00    	cmp    ebp,0x800
  1019f8:	a2 7d 77 19 00       	mov    ds:0x19777d,al
  1019fd:	0f 87 b6 23 00 00    	ja     103db9 <_ZN2os3hal3idt15init_exceptionsEv+0x32d9>
  101a03:	0f b6 05 7d 77 19 00 	movzx  eax,BYTE PTR ds:0x19777d
  101a0a:	0f b6 4c 24 0b       	movzx  ecx,BYTE PTR [esp+0xb]
  101a0f:	83 e0 7f             	and    eax,0x7f
  101a12:	c1 e1 07             	shl    ecx,0x7
  101a15:	09 c8                	or     eax,ecx
  101a17:	81 fd 00 08 00 00    	cmp    ebp,0x800
  101a1d:	a2 7d 77 19 00       	mov    ds:0x19777d,al
  101a22:	0f 87 6a 23 00 00    	ja     103d92 <_ZN2os3hal3idt15init_exceptionsEv+0x32b2>
  101a28:	8d 83 7a 77 19 00    	lea    eax,[ebx+0x19777a]
  101a2e:	80 25 7d 77 19 00 ef 	and    BYTE PTR ds:0x19777d,0xef
  101a35:	3d 00 08 00 00       	cmp    eax,0x800
  101a3a:	0f 87 2e 23 00 00    	ja     103d6e <_ZN2os3hal3idt15init_exceptionsEv+0x328e>
  101a40:	8d 83 80 77 19 00    	lea    eax,[ebx+0x197780]
  101a46:	ba 08 00 00 00       	mov    edx,0x8
  101a4b:	bd 15 80 10 00       	mov    ebp,0x108015
  101a50:	66 89 15 7a 77 19 00 	mov    WORD PTR ds:0x19777a,dx
  101a57:	3d 00 08 00 00       	cmp    eax,0x800
  101a5c:	0f 87 e8 22 00 00    	ja     103d4a <_ZN2os3hal3idt15init_exceptionsEv+0x326a>
  101a62:	8d 83 86 77 19 00    	lea    eax,[ebx+0x197786]
  101a68:	66 89 2d 80 77 19 00 	mov    WORD PTR ds:0x197780,bp
  101a6f:	c1 ed 10             	shr    ebp,0x10
  101a72:	3d 00 08 00 00       	cmp    eax,0x800
  101a77:	0f 87 a9 22 00 00    	ja     103d26 <_ZN2os3hal3idt15init_exceptionsEv+0x3246>
  101a7d:	8d 86 84 77 19 00    	lea    eax,[esi+0x197784]
  101a83:	66 89 2d 86 77 19 00 	mov    WORD PTR ds:0x197786,bp
  101a8a:	3d 00 08 00 00       	cmp    eax,0x800
  101a8f:	0f 87 6d 22 00 00    	ja     103d02 <_ZN2os3hal3idt15init_exceptionsEv+0x3222>
  101a95:	8d ae 85 77 19 00    	lea    ebp,[esi+0x197785]
  101a9b:	c6 05 84 77 19 00 00 	mov    BYTE PTR ds:0x197784,0x0
  101aa2:	ba 85 77 19 00       	mov    edx,0x197785
  101aa7:	81 fd 00 08 00 00    	cmp    ebp,0x800
  101aad:	0f 87 28 22 00 00    	ja     103cdb <_ZN2os3hal3idt15init_exceptionsEv+0x31fb>
  101ab3:	0f b6 05 85 77 19 00 	movzx  eax,BYTE PTR ds:0x197785
  101aba:	83 e0 f0             	and    eax,0xfffffff0
  101abd:	0a 44 24 0a          	or     al,BYTE PTR [esp+0xa]
  101ac1:	81 fd 00 08 00 00    	cmp    ebp,0x800
  101ac7:	a2 85 77 19 00       	mov    ds:0x197785,al
  101acc:	0f 87 da 21 00 00    	ja     103cac <_ZN2os3hal3idt15init_exceptionsEv+0x31cc>
  101ad2:	0f b6 05 85 77 19 00 	movzx  eax,BYTE PTR ds:0x197785
  101ad9:	89 f9                	mov    ecx,edi
  101adb:	83 e1 03             	and    ecx,0x3
  101ade:	c1 e1 05             	shl    ecx,0x5
  101ae1:	83 e0 9f             	and    eax,0xffffff9f
  101ae4:	09 c8                	or     eax,ecx
  101ae6:	81 fd 00 08 00 00    	cmp    ebp,0x800
  101aec:	a2 85 77 19 00       	mov    ds:0x197785,al
  101af1:	0f 87 86 21 00 00    	ja     103c7d <_ZN2os3hal3idt15init_exceptionsEv+0x319d>
  101af7:	0f b6 05 85 77 19 00 	movzx  eax,BYTE PTR ds:0x197785
  101afe:	0f b6 4c 24 0b       	movzx  ecx,BYTE PTR [esp+0xb]
  101b03:	83 e0 7f             	and    eax,0x7f
  101b06:	c1 e1 07             	shl    ecx,0x7
  101b09:	09 c8                	or     eax,ecx
  101b0b:	81 fd 00 08 00 00    	cmp    ebp,0x800
  101b11:	a2 85 77 19 00       	mov    ds:0x197785,al
  101b16:	0f 87 3a 21 00 00    	ja     103c56 <_ZN2os3hal3idt15init_exceptionsEv+0x3176>
  101b1c:	8d 83 82 77 19 00    	lea    eax,[ebx+0x197782]
  101b22:	80 25 85 77 19 00 ef 	and    BYTE PTR ds:0x197785,0xef
  101b29:	3d 00 08 00 00       	cmp    eax,0x800
  101b2e:	0f 87 fe 20 00 00    	ja     103c32 <_ZN2os3hal3idt15init_exceptionsEv+0x3152>
  101b34:	8d 83 88 77 19 00    	lea    eax,[ebx+0x197788]
  101b3a:	ba 08 00 00 00       	mov    edx,0x8
  101b3f:	bd 1f 80 10 00       	mov    ebp,0x10801f
  101b44:	66 89 15 82 77 19 00 	mov    WORD PTR ds:0x197782,dx
  101b4b:	3d 00 08 00 00       	cmp    eax,0x800
  101b50:	0f 87 b8 20 00 00    	ja     103c0e <_ZN2os3hal3idt15init_exceptionsEv+0x312e>
  101b56:	8d 83 8e 77 19 00    	lea    eax,[ebx+0x19778e]
  101b5c:	66 89 2d 88 77 19 00 	mov    WORD PTR ds:0x197788,bp
  101b63:	c1 ed 10             	shr    ebp,0x10
  101b66:	3d 00 08 00 00       	cmp    eax,0x800
  101b6b:	0f 87 79 20 00 00    	ja     103bea <_ZN2os3hal3idt15init_exceptionsEv+0x310a>
  101b71:	8d 86 8c 77 19 00    	lea    eax,[esi+0x19778c]
  101b77:	66 89 2d 8e 77 19 00 	mov    WORD PTR ds:0x19778e,bp
  101b7e:	3d 00 08 00 00       	cmp    eax,0x800
  101b83:	0f 87 3d 20 00 00    	ja     103bc6 <_ZN2os3hal3idt15init_exceptionsEv+0x30e6>
  101b89:	8d ae 8d 77 19 00    	lea    ebp,[esi+0x19778d]
  101b8f:	c6 05 8c 77 19 00 00 	mov    BYTE PTR ds:0x19778c,0x0
  101b96:	ba 8d 77 19 00       	mov    edx,0x19778d
  101b9b:	81 fd 00 08 00 00    	cmp    ebp,0x800
  101ba1:	0f 87 f8 1f 00 00    	ja     103b9f <_ZN2os3hal3idt15init_exceptionsEv+0x30bf>
  101ba7:	0f b6 05 8d 77 19 00 	movzx  eax,BYTE PTR ds:0x19778d
  101bae:	83 e0 f0             	and    eax,0xfffffff0
  101bb1:	0a 44 24 0a          	or     al,BYTE PTR [esp+0xa]
  101bb5:	81 fd 00 08 00 00    	cmp    ebp,0x800
  101bbb:	a2 8d 77 19 00       	mov    ds:0x19778d,al
  101bc0:	0f 87 aa 1f 00 00    	ja     103b70 <_ZN2os3hal3idt15init_exceptionsEv+0x3090>
  101bc6:	0f b6 05 8d 77 19 00 	movzx  eax,BYTE PTR ds:0x19778d
  101bcd:	89 f9                	mov    ecx,edi
  101bcf:	83 e1 03             	and    ecx,0x3
  101bd2:	c1 e1 05             	shl    ecx,0x5
  101bd5:	83 e0 9f             	and    eax,0xffffff9f
  101bd8:	09 c8                	or     eax,ecx
  101bda:	81 fd 00 08 00 00    	cmp    ebp,0x800
  101be0:	a2 8d 77 19 00       	mov    ds:0x19778d,al
  101be5:	0f 87 56 1f 00 00    	ja     103b41 <_ZN2os3hal3idt15init_exceptionsEv+0x3061>
  101beb:	0f b6 05 8d 77 19 00 	movzx  eax,BYTE PTR ds:0x19778d
  101bf2:	0f b6 4c 24 0b       	movzx  ecx,BYTE PTR [esp+0xb]
  101bf7:	83 e0 7f             	and    eax,0x7f
  101bfa:	c1 e1 07             	shl    ecx,0x7
  101bfd:	09 c8                	or     eax,ecx
  101bff:	81 fd 00 08 00 00    	cmp    ebp,0x800
  101c05:	a2 8d 77 19 00       	mov    ds:0x19778d,al
  101c0a:	0f 87 0a 1f 00 00    	ja     103b1a <_ZN2os3hal3idt15init_exceptionsEv+0x303a>
  101c10:	8d 83 8a 77 19 00    	lea    eax,[ebx+0x19778a]
  101c16:	80 25 8d 77 19 00 ef 	and    BYTE PTR ds:0x19778d,0xef
  101c1d:	3d 00 08 00 00       	cmp    eax,0x800
  101c22:	0f 87 ce 1e 00 00    	ja     103af6 <_ZN2os3hal3idt15init_exceptionsEv+0x3016>
  101c28:	8d 83 90 77 19 00    	lea    eax,[ebx+0x197790]
  101c2e:	ba 08 00 00 00       	mov    edx,0x8
  101c33:	bd 29 80 10 00       	mov    ebp,0x108029
  101c38:	66 89 15 8a 77 19 00 	mov    WORD PTR ds:0x19778a,dx
  101c3f:	3d 00 08 00 00       	cmp    eax,0x800
  101c44:	0f 87 88 1e 00 00    	ja     103ad2 <_ZN2os3hal3idt15init_exceptionsEv+0x2ff2>
  101c4a:	8d 83 96 77 19 00    	lea    eax,[ebx+0x197796]
  101c50:	66 89 2d 90 77 19 00 	mov    WORD PTR ds:0x197790,bp
  101c57:	c1 ed 10             	shr    ebp,0x10
  101c5a:	3d 00 08 00 00       	cmp    eax,0x800
  101c5f:	0f 87 49 1e 00 00    	ja     103aae <_ZN2os3hal3idt15init_exceptionsEv+0x2fce>
  101c65:	8d 86 94 77 19 00    	lea    eax,[esi+0x197794]
  101c6b:	66 89 2d 96 77 19 00 	mov    WORD PTR ds:0x197796,bp
  101c72:	3d 00 08 00 00       	cmp    eax,0x800
  101c77:	0f 87 0d 1e 00 00    	ja     103a8a <_ZN2os3hal3idt15init_exceptionsEv+0x2faa>
  101c7d:	8d ae 95 77 19 00    	lea    ebp,[esi+0x197795]
  101c83:	c6 05 94 77 19 00 00 	mov    BYTE PTR ds:0x197794,0x0
  101c8a:	ba 95 77 19 00       	mov    edx,0x197795
  101c8f:	81 fd 00 08 00 00    	cmp    ebp,0x800
  101c95:	0f 87 c8 1d 00 00    	ja     103a63 <_ZN2os3hal3idt15init_exceptionsEv+0x2f83>
  101c9b:	0f b6 05 95 77 19 00 	movzx  eax,BYTE PTR ds:0x197795
  101ca2:	83 e0 f0             	and    eax,0xfffffff0
  101ca5:	0a 44 24 0a          	or     al,BYTE PTR [esp+0xa]
  101ca9:	81 fd 00 08 00 00    	cmp    ebp,0x800
  101caf:	a2 95 77 19 00       	mov    ds:0x197795,al
  101cb4:	0f 87 7a 1d 00 00    	ja     103a34 <_ZN2os3hal3idt15init_exceptionsEv+0x2f54>
  101cba:	0f b6 05 95 77 19 00 	movzx  eax,BYTE PTR ds:0x197795
  101cc1:	89 f9                	mov    ecx,edi
  101cc3:	83 e1 03             	and    ecx,0x3
  101cc6:	c1 e1 05             	shl    ecx,0x5
  101cc9:	83 e0 9f             	and    eax,0xffffff9f
  101ccc:	09 c8                	or     eax,ecx
  101cce:	81 fd 00 08 00 00    	cmp    ebp,0x800
  101cd4:	a2 95 77 19 00       	mov    ds:0x197795,al
  101cd9:	0f 87 26 1d 00 00    	ja     103a05 <_ZN2os3hal3idt15init_exceptionsEv+0x2f25>
  101cdf:	0f b6 05 95 77 19 00 	movzx  eax,BYTE PTR ds:0x197795
  101ce6:	0f b6 4c 24 0b       	movzx  ecx,BYTE PTR [esp+0xb]
  101ceb:	83 e0 7f             	and    eax,0x7f
  101cee:	c1 e1 07             	shl    ecx,0x7
  101cf1:	09 c8                	or     eax,ecx
  101cf3:	81 fd 00 08 00 00    	cmp    ebp,0x800
  101cf9:	a2 95 77 19 00       	mov    ds:0x197795,al
  101cfe:	0f 87 da 1c 00 00    	ja     1039de <_ZN2os3hal3idt15init_exceptionsEv+0x2efe>
  101d04:	8d 83 92 77 19 00    	lea    eax,[ebx+0x197792]
  101d0a:	80 25 95 77 19 00 ef 	and    BYTE PTR ds:0x197795,0xef
  101d11:	3d 00 08 00 00       	cmp    eax,0x800
  101d16:	0f 87 9e 1c 00 00    	ja     1039ba <_ZN2os3hal3idt15init_exceptionsEv+0x2eda>
  101d1c:	8d 83 98 77 19 00    	lea    eax,[ebx+0x197798]
  101d22:	ba 08 00 00 00       	mov    edx,0x8
  101d27:	bd 33 80 10 00       	mov    ebp,0x108033
  101d2c:	66 89 15 92 77 19 00 	mov    WORD PTR ds:0x197792,dx
  101d33:	3d 00 08 00 00       	cmp    eax,0x800
  101d38:	0f 87 58 1c 00 00    	ja     103996 <_ZN2os3hal3idt15init_exceptionsEv+0x2eb6>
  101d3e:	8d 83 9e 77 19 00    	lea    eax,[ebx+0x19779e]
  101d44:	66 89 2d 98 77 19 00 	mov    WORD PTR ds:0x197798,bp
  101d4b:	c1 ed 10             	shr    ebp,0x10
  101d4e:	3d 00 08 00 00       	cmp    eax,0x800
  101d53:	0f 87 19 1c 00 00    	ja     103972 <_ZN2os3hal3idt15init_exceptionsEv+0x2e92>
  101d59:	8d 86 9c 77 19 00    	lea    eax,[esi+0x19779c]
  101d5f:	66 89 2d 9e 77 19 00 	mov    WORD PTR ds:0x19779e,bp
  101d66:	3d 00 08 00 00       	cmp    eax,0x800
  101d6b:	0f 87 dd 1b 00 00    	ja     10394e <_ZN2os3hal3idt15init_exceptionsEv+0x2e6e>
  101d71:	8d ae 9d 77 19 00    	lea    ebp,[esi+0x19779d]
  101d77:	c6 05 9c 77 19 00 00 	mov    BYTE PTR ds:0x19779c,0x0
  101d7e:	ba 9d 77 19 00       	mov    edx,0x19779d
  101d83:	81 fd 00 08 00 00    	cmp    ebp,0x800
  101d89:	0f 87 98 1b 00 00    	ja     103927 <_ZN2os3hal3idt15init_exceptionsEv+0x2e47>
  101d8f:	0f b6 05 9d 77 19 00 	movzx  eax,BYTE PTR ds:0x19779d
  101d96:	83 e0 f0             	and    eax,0xfffffff0
  101d99:	0a 44 24 0a          	or     al,BYTE PTR [esp+0xa]
  101d9d:	81 fd 00 08 00 00    	cmp    ebp,0x800
  101da3:	a2 9d 77 19 00       	mov    ds:0x19779d,al
  101da8:	0f 87 4a 1b 00 00    	ja     1038f8 <_ZN2os3hal3idt15init_exceptionsEv+0x2e18>
  101dae:	0f b6 05 9d 77 19 00 	movzx  eax,BYTE PTR ds:0x19779d
  101db5:	89 f9                	mov    ecx,edi
  101db7:	83 e1 03             	and    ecx,0x3
  101dba:	c1 e1 05             	shl    ecx,0x5
  101dbd:	83 e0 9f             	and    eax,0xffffff9f
  101dc0:	09 c8                	or     eax,ecx
  101dc2:	81 fd 00 08 00 00    	cmp    ebp,0x800
  101dc8:	a2 9d 77 19 00       	mov    ds:0x19779d,al
  101dcd:	0f 87 f6 1a 00 00    	ja     1038c9 <_ZN2os3hal3idt15init_exceptionsEv+0x2de9>
  101dd3:	0f b6 05 9d 77 19 00 	movzx  eax,BYTE PTR ds:0x19779d
  101dda:	0f b6 4c 24 0b       	movzx  ecx,BYTE PTR [esp+0xb]
  101ddf:	83 e0 7f             	and    eax,0x7f
  101de2:	c1 e1 07             	shl    ecx,0x7
  101de5:	09 c8                	or     eax,ecx
  101de7:	81 fd 00 08 00 00    	cmp    ebp,0x800
  101ded:	a2 9d 77 19 00       	mov    ds:0x19779d,al
  101df2:	0f 87 aa 1a 00 00    	ja     1038a2 <_ZN2os3hal3idt15init_exceptionsEv+0x2dc2>
  101df8:	8d 83 9a 77 19 00    	lea    eax,[ebx+0x19779a]
  101dfe:	80 25 9d 77 19 00 ef 	and    BYTE PTR ds:0x19779d,0xef
  101e05:	3d 00 08 00 00       	cmp    eax,0x800
  101e0a:	0f 87 6e 1a 00 00    	ja     10387e <_ZN2os3hal3idt15init_exceptionsEv+0x2d9e>
  101e10:	8d 83 a0 77 19 00    	lea    eax,[ebx+0x1977a0]
  101e16:	ba 08 00 00 00       	mov    edx,0x8
  101e1b:	bd 3d 80 10 00       	mov    ebp,0x10803d
  101e20:	66 89 15 9a 77 19 00 	mov    WORD PTR ds:0x19779a,dx
  101e27:	3d 00 08 00 00       	cmp    eax,0x800
  101e2c:	0f 87 28 1a 00 00    	ja     10385a <_ZN2os3hal3idt15init_exceptionsEv+0x2d7a>
  101e32:	8d 83 a6 77 19 00    	lea    eax,[ebx+0x1977a6]
  101e38:	66 89 2d a0 77 19 00 	mov    WORD PTR ds:0x1977a0,bp
  101e3f:	c1 ed 10             	shr    ebp,0x10
  101e42:	3d 00 08 00 00       	cmp    eax,0x800
  101e47:	0f 87 e9 19 00 00    	ja     103836 <_ZN2os3hal3idt15init_exceptionsEv+0x2d56>
  101e4d:	8d 86 a4 77 19 00    	lea    eax,[esi+0x1977a4]
  101e53:	66 89 2d a6 77 19 00 	mov    WORD PTR ds:0x1977a6,bp
  101e5a:	3d 00 08 00 00       	cmp    eax,0x800
  101e5f:	0f 87 ad 19 00 00    	ja     103812 <_ZN2os3hal3idt15init_exceptionsEv+0x2d32>
  101e65:	8d ae a5 77 19 00    	lea    ebp,[esi+0x1977a5]
  101e6b:	c6 05 a4 77 19 00 00 	mov    BYTE PTR ds:0x1977a4,0x0
  101e72:	ba a5 77 19 00       	mov    edx,0x1977a5
  101e77:	81 fd 00 08 00 00    	cmp    ebp,0x800
  101e7d:	0f 87 68 19 00 00    	ja     1037eb <_ZN2os3hal3idt15init_exceptionsEv+0x2d0b>
  101e83:	0f b6 05 a5 77 19 00 	movzx  eax,BYTE PTR ds:0x1977a5
  101e8a:	83 e0 f0             	and    eax,0xfffffff0
  101e8d:	0a 44 24 0a          	or     al,BYTE PTR [esp+0xa]
  101e91:	81 fd 00 08 00 00    	cmp    ebp,0x800
  101e97:	a2 a5 77 19 00       	mov    ds:0x1977a5,al
  101e9c:	0f 87 1a 19 00 00    	ja     1037bc <_ZN2os3hal3idt15init_exceptionsEv+0x2cdc>
  101ea2:	0f b6 05 a5 77 19 00 	movzx  eax,BYTE PTR ds:0x1977a5
  101ea9:	89 f9                	mov    ecx,edi
  101eab:	83 e1 03             	and    ecx,0x3
  101eae:	c1 e1 05             	shl    ecx,0x5
  101eb1:	83 e0 9f             	and    eax,0xffffff9f
  101eb4:	09 c8                	or     eax,ecx
  101eb6:	81 fd 00 08 00 00    	cmp    ebp,0x800
  101ebc:	a2 a5 77 19 00       	mov    ds:0x1977a5,al
  101ec1:	0f 87 c6 18 00 00    	ja     10378d <_ZN2os3hal3idt15init_exceptionsEv+0x2cad>
  101ec7:	0f b6 05 a5 77 19 00 	movzx  eax,BYTE PTR ds:0x1977a5
  101ece:	0f b6 4c 24 0b       	movzx  ecx,BYTE PTR [esp+0xb]
  101ed3:	83 e0 7f             	and    eax,0x7f
  101ed6:	c1 e1 07             	shl    ecx,0x7
  101ed9:	09 c8                	or     eax,ecx
  101edb:	81 fd 00 08 00 00    	cmp    ebp,0x800
  101ee1:	a2 a5 77 19 00       	mov    ds:0x1977a5,al
  101ee6:	0f 87 7a 18 00 00    	ja     103766 <_ZN2os3hal3idt15init_exceptionsEv+0x2c86>
  101eec:	8d 83 a2 77 19 00    	lea    eax,[ebx+0x1977a2]
  101ef2:	80 25 a5 77 19 00 ef 	and    BYTE PTR ds:0x1977a5,0xef
  101ef9:	3d 00 08 00 00       	cmp    eax,0x800
  101efe:	0f 87 3e 18 00 00    	ja     103742 <_ZN2os3hal3idt15init_exceptionsEv+0x2c62>
  101f04:	8d 83 a8 77 19 00    	lea    eax,[ebx+0x1977a8]
  101f0a:	ba 08 00 00 00       	mov    edx,0x8
  101f0f:	bd 47 80 10 00       	mov    ebp,0x108047
  101f14:	66 89 15 a2 77 19 00 	mov    WORD PTR ds:0x1977a2,dx
  101f1b:	3d 00 08 00 00       	cmp    eax,0x800
  101f20:	0f 87 f8 17 00 00    	ja     10371e <_ZN2os3hal3idt15init_exceptionsEv+0x2c3e>
  101f26:	8d 83 ae 77 19 00    	lea    eax,[ebx+0x1977ae]
  101f2c:	66 89 2d a8 77 19 00 	mov    WORD PTR ds:0x1977a8,bp
  101f33:	c1 ed 10             	shr    ebp,0x10
  101f36:	3d 00 08 00 00       	cmp    eax,0x800
  101f3b:	0f 87 b9 17 00 00    	ja     1036fa <_ZN2os3hal3idt15init_exceptionsEv+0x2c1a>
  101f41:	8d 86 ac 77 19 00    	lea    eax,[esi+0x1977ac]
  101f47:	66 89 2d ae 77 19 00 	mov    WORD PTR ds:0x1977ae,bp
  101f4e:	3d 00 08 00 00       	cmp    eax,0x800
  101f53:	0f 87 7d 17 00 00    	ja     1036d6 <_ZN2os3hal3idt15init_exceptionsEv+0x2bf6>
  101f59:	8d ae ad 77 19 00    	lea    ebp,[esi+0x1977ad]
  101f5f:	c6 05 ac 77 19 00 00 	mov    BYTE PTR ds:0x1977ac,0x0
  101f66:	ba ad 77 19 00       	mov    edx,0x1977ad
  101f6b:	81 fd 00 08 00 00    	cmp    ebp,0x800
  101f71:	0f 87 38 17 00 00    	ja     1036af <_ZN2os3hal3idt15init_exceptionsEv+0x2bcf>
  101f77:	0f b6 05 ad 77 19 00 	movzx  eax,BYTE PTR ds:0x1977ad
  101f7e:	83 e0 f0             	and    eax,0xfffffff0
  101f81:	0a 44 24 0a          	or     al,BYTE PTR [esp+0xa]
  101f85:	81 fd 00 08 00 00    	cmp    ebp,0x800
  101f8b:	a2 ad 77 19 00       	mov    ds:0x1977ad,al
  101f90:	0f 87 ea 16 00 00    	ja     103680 <_ZN2os3hal3idt15init_exceptionsEv+0x2ba0>
  101f96:	0f b6 05 ad 77 19 00 	movzx  eax,BYTE PTR ds:0x1977ad
  101f9d:	89 f9                	mov    ecx,edi
  101f9f:	83 e1 03             	and    ecx,0x3
  101fa2:	c1 e1 05             	shl    ecx,0x5
  101fa5:	83 e0 9f             	and    eax,0xffffff9f
  101fa8:	09 c8                	or     eax,ecx
  101faa:	81 fd 00 08 00 00    	cmp    ebp,0x800
  101fb0:	a2 ad 77 19 00       	mov    ds:0x1977ad,al
  101fb5:	0f 87 96 16 00 00    	ja     103651 <_ZN2os3hal3idt15init_exceptionsEv+0x2b71>
  101fbb:	0f b6 05 ad 77 19 00 	movzx  eax,BYTE PTR ds:0x1977ad
  101fc2:	0f b6 4c 24 0b       	movzx  ecx,BYTE PTR [esp+0xb]
  101fc7:	83 e0 7f             	and    eax,0x7f
  101fca:	c1 e1 07             	shl    ecx,0x7
  101fcd:	09 c8                	or     eax,ecx
  101fcf:	81 fd 00 08 00 00    	cmp    ebp,0x800
  101fd5:	a2 ad 77 19 00       	mov    ds:0x1977ad,al
  101fda:	0f 87 4a 16 00 00    	ja     10362a <_ZN2os3hal3idt15init_exceptionsEv+0x2b4a>
  101fe0:	8d 83 aa 77 19 00    	lea    eax,[ebx+0x1977aa]
  101fe6:	80 25 ad 77 19 00 ef 	and    BYTE PTR ds:0x1977ad,0xef
  101fed:	3d 00 08 00 00       	cmp    eax,0x800
  101ff2:	0f 87 0e 16 00 00    	ja     103606 <_ZN2os3hal3idt15init_exceptionsEv+0x2b26>
  101ff8:	8d 83 b0 77 19 00    	lea    eax,[ebx+0x1977b0]
  101ffe:	ba 08 00 00 00       	mov    edx,0x8
  102003:	bd 51 80 10 00       	mov    ebp,0x108051
  102008:	66 89 15 aa 77 19 00 	mov    WORD PTR ds:0x1977aa,dx
  10200f:	3d 00 08 00 00       	cmp    eax,0x800
  102014:	0f 87 c8 15 00 00    	ja     1035e2 <_ZN2os3hal3idt15init_exceptionsEv+0x2b02>
  10201a:	8d 83 b6 77 19 00    	lea    eax,[ebx+0x1977b6]
  102020:	66 89 2d b0 77 19 00 	mov    WORD PTR ds:0x1977b0,bp
  102027:	c1 ed 10             	shr    ebp,0x10
  10202a:	3d 00 08 00 00       	cmp    eax,0x800
  10202f:	0f 87 89 15 00 00    	ja     1035be <_ZN2os3hal3idt15init_exceptionsEv+0x2ade>
  102035:	8d 86 b4 77 19 00    	lea    eax,[esi+0x1977b4]
  10203b:	66 89 2d b6 77 19 00 	mov    WORD PTR ds:0x1977b6,bp
  102042:	3d 00 08 00 00       	cmp    eax,0x800
  102047:	0f 87 4d 15 00 00    	ja     10359a <_ZN2os3hal3idt15init_exceptionsEv+0x2aba>
  10204d:	8d ae b5 77 19 00    	lea    ebp,[esi+0x1977b5]
  102053:	c6 05 b4 77 19 00 00 	mov    BYTE PTR ds:0x1977b4,0x0
  10205a:	ba b5 77 19 00       	mov    edx,0x1977b5
  10205f:	81 fd 00 08 00 00    	cmp    ebp,0x800
  102065:	0f 87 08 15 00 00    	ja     103573 <_ZN2os3hal3idt15init_exceptionsEv+0x2a93>
  10206b:	0f b6 05 b5 77 19 00 	movzx  eax,BYTE PTR ds:0x1977b5
  102072:	83 e0 f0             	and    eax,0xfffffff0
  102075:	0a 44 24 0a          	or     al,BYTE PTR [esp+0xa]
  102079:	81 fd 00 08 00 00    	cmp    ebp,0x800
  10207f:	a2 b5 77 19 00       	mov    ds:0x1977b5,al
  102084:	0f 87 ba 14 00 00    	ja     103544 <_ZN2os3hal3idt15init_exceptionsEv+0x2a64>
  10208a:	0f b6 05 b5 77 19 00 	movzx  eax,BYTE PTR ds:0x1977b5
  102091:	89 f9                	mov    ecx,edi
  102093:	83 e1 03             	and    ecx,0x3
  102096:	c1 e1 05             	shl    ecx,0x5
  102099:	83 e0 9f             	and    eax,0xffffff9f
  10209c:	09 c8                	or     eax,ecx
  10209e:	81 fd 00 08 00 00    	cmp    ebp,0x800
  1020a4:	a2 b5 77 19 00       	mov    ds:0x1977b5,al
  1020a9:	0f 87 66 14 00 00    	ja     103515 <_ZN2os3hal3idt15init_exceptionsEv+0x2a35>
  1020af:	0f b6 05 b5 77 19 00 	movzx  eax,BYTE PTR ds:0x1977b5
  1020b6:	0f b6 4c 24 0b       	movzx  ecx,BYTE PTR [esp+0xb]
  1020bb:	83 e0 7f             	and    eax,0x7f
  1020be:	c1 e1 07             	shl    ecx,0x7
  1020c1:	09 c8                	or     eax,ecx
  1020c3:	81 fd 00 08 00 00    	cmp    ebp,0x800
  1020c9:	a2 b5 77 19 00       	mov    ds:0x1977b5,al
  1020ce:	0f 87 1a 14 00 00    	ja     1034ee <_ZN2os3hal3idt15init_exceptionsEv+0x2a0e>
  1020d4:	8d 83 b2 77 19 00    	lea    eax,[ebx+0x1977b2]
  1020da:	80 25 b5 77 19 00 ef 	and    BYTE PTR ds:0x1977b5,0xef
  1020e1:	3d 00 08 00 00       	cmp    eax,0x800
  1020e6:	0f 87 de 13 00 00    	ja     1034ca <_ZN2os3hal3idt15init_exceptionsEv+0x29ea>
  1020ec:	8d 83 b8 77 19 00    	lea    eax,[ebx+0x1977b8]
  1020f2:	ba 08 00 00 00       	mov    edx,0x8
  1020f7:	bd 5b 80 10 00       	mov    ebp,0x10805b
  1020fc:	66 89 15 b2 77 19 00 	mov    WORD PTR ds:0x1977b2,dx
  102103:	3d 00 08 00 00       	cmp    eax,0x800
  102108:	0f 87 98 13 00 00    	ja     1034a6 <_ZN2os3hal3idt15init_exceptionsEv+0x29c6>
  10210e:	8d 83 be 77 19 00    	lea    eax,[ebx+0x1977be]
  102114:	66 89 2d b8 77 19 00 	mov    WORD PTR ds:0x1977b8,bp
  10211b:	c1 ed 10             	shr    ebp,0x10
  10211e:	3d 00 08 00 00       	cmp    eax,0x800
  102123:	0f 87 59 13 00 00    	ja     103482 <_ZN2os3hal3idt15init_exceptionsEv+0x29a2>
  102129:	8d 86 bc 77 19 00    	lea    eax,[esi+0x1977bc]
  10212f:	66 89 2d be 77 19 00 	mov    WORD PTR ds:0x1977be,bp
  102136:	3d 00 08 00 00       	cmp    eax,0x800
  10213b:	0f 87 1d 13 00 00    	ja     10345e <_ZN2os3hal3idt15init_exceptionsEv+0x297e>
  102141:	8d ae bd 77 19 00    	lea    ebp,[esi+0x1977bd]
  102147:	c6 05 bc 77 19 00 00 	mov    BYTE PTR ds:0x1977bc,0x0
  10214e:	ba bd 77 19 00       	mov    edx,0x1977bd
  102153:	81 fd 00 08 00 00    	cmp    ebp,0x800
  102159:	0f 87 d8 12 00 00    	ja     103437 <_ZN2os3hal3idt15init_exceptionsEv+0x2957>
  10215f:	0f b6 05 bd 77 19 00 	movzx  eax,BYTE PTR ds:0x1977bd
  102166:	83 e0 f0             	and    eax,0xfffffff0
  102169:	0a 44 24 0a          	or     al,BYTE PTR [esp+0xa]
  10216d:	81 fd 00 08 00 00    	cmp    ebp,0x800
  102173:	a2 bd 77 19 00       	mov    ds:0x1977bd,al
  102178:	0f 87 8a 12 00 00    	ja     103408 <_ZN2os3hal3idt15init_exceptionsEv+0x2928>
  10217e:	0f b6 05 bd 77 19 00 	movzx  eax,BYTE PTR ds:0x1977bd
  102185:	89 f9                	mov    ecx,edi
  102187:	83 e1 03             	and    ecx,0x3
  10218a:	c1 e1 05             	shl    ecx,0x5
  10218d:	83 e0 9f             	and    eax,0xffffff9f
  102190:	09 c8                	or     eax,ecx
  102192:	81 fd 00 08 00 00    	cmp    ebp,0x800
  102198:	a2 bd 77 19 00       	mov    ds:0x1977bd,al
  10219d:	0f 87 36 12 00 00    	ja     1033d9 <_ZN2os3hal3idt15init_exceptionsEv+0x28f9>
  1021a3:	0f b6 05 bd 77 19 00 	movzx  eax,BYTE PTR ds:0x1977bd
  1021aa:	0f b6 4c 24 0b       	movzx  ecx,BYTE PTR [esp+0xb]
  1021af:	83 e0 7f             	and    eax,0x7f
  1021b2:	c1 e1 07             	shl    ecx,0x7
  1021b5:	09 c8                	or     eax,ecx
  1021b7:	81 fd 00 08 00 00    	cmp    ebp,0x800
  1021bd:	a2 bd 77 19 00       	mov    ds:0x1977bd,al
  1021c2:	0f 87 ea 11 00 00    	ja     1033b2 <_ZN2os3hal3idt15init_exceptionsEv+0x28d2>
  1021c8:	8d 83 ba 77 19 00    	lea    eax,[ebx+0x1977ba]
  1021ce:	80 25 bd 77 19 00 ef 	and    BYTE PTR ds:0x1977bd,0xef
  1021d5:	3d 00 08 00 00       	cmp    eax,0x800
  1021da:	0f 87 ae 11 00 00    	ja     10338e <_ZN2os3hal3idt15init_exceptionsEv+0x28ae>
  1021e0:	8d 83 c0 77 19 00    	lea    eax,[ebx+0x1977c0]
  1021e6:	ba 08 00 00 00       	mov    edx,0x8
  1021eb:	bd 65 80 10 00       	mov    ebp,0x108065
  1021f0:	66 89 15 ba 77 19 00 	mov    WORD PTR ds:0x1977ba,dx
  1021f7:	3d 00 08 00 00       	cmp    eax,0x800
  1021fc:	0f 87 68 11 00 00    	ja     10336a <_ZN2os3hal3idt15init_exceptionsEv+0x288a>
  102202:	8d 83 c6 77 19 00    	lea    eax,[ebx+0x1977c6]
  102208:	66 89 2d c0 77 19 00 	mov    WORD PTR ds:0x1977c0,bp
  10220f:	c1 ed 10             	shr    ebp,0x10
  102212:	3d 00 08 00 00       	cmp    eax,0x800
  102217:	0f 87 29 11 00 00    	ja     103346 <_ZN2os3hal3idt15init_exceptionsEv+0x2866>
  10221d:	8d 86 c4 77 19 00    	lea    eax,[esi+0x1977c4]
  102223:	66 89 2d c6 77 19 00 	mov    WORD PTR ds:0x1977c6,bp
  10222a:	3d 00 08 00 00       	cmp    eax,0x800
  10222f:	0f 87 ed 10 00 00    	ja     103322 <_ZN2os3hal3idt15init_exceptionsEv+0x2842>
  102235:	8d ae c5 77 19 00    	lea    ebp,[esi+0x1977c5]
  10223b:	c6 05 c4 77 19 00 00 	mov    BYTE PTR ds:0x1977c4,0x0
  102242:	ba c5 77 19 00       	mov    edx,0x1977c5
  102247:	81 fd 00 08 00 00    	cmp    ebp,0x800
  10224d:	0f 87 a8 10 00 00    	ja     1032fb <_ZN2os3hal3idt15init_exceptionsEv+0x281b>
  102253:	0f b6 05 c5 77 19 00 	movzx  eax,BYTE PTR ds:0x1977c5
  10225a:	83 e0 f0             	and    eax,0xfffffff0
  10225d:	0a 44 24 0a          	or     al,BYTE PTR [esp+0xa]
  102261:	81 fd 00 08 00 00    	cmp    ebp,0x800
  102267:	a2 c5 77 19 00       	mov    ds:0x1977c5,al
  10226c:	0f 87 5a 10 00 00    	ja     1032cc <_ZN2os3hal3idt15init_exceptionsEv+0x27ec>
  102272:	0f b6 05 c5 77 19 00 	movzx  eax,BYTE PTR ds:0x1977c5
  102279:	89 f9                	mov    ecx,edi
  10227b:	83 e1 03             	and    ecx,0x3
  10227e:	c1 e1 05             	shl    ecx,0x5
  102281:	83 e0 9f             	and    eax,0xffffff9f
  102284:	09 c8                	or     eax,ecx
  102286:	81 fd 00 08 00 00    	cmp    ebp,0x800
  10228c:	a2 c5 77 19 00       	mov    ds:0x1977c5,al
  102291:	0f 87 06 10 00 00    	ja     10329d <_ZN2os3hal3idt15init_exceptionsEv+0x27bd>
  102297:	0f b6 05 c5 77 19 00 	movzx  eax,BYTE PTR ds:0x1977c5
  10229e:	0f b6 4c 24 0b       	movzx  ecx,BYTE PTR [esp+0xb]
  1022a3:	83 e0 7f             	and    eax,0x7f
  1022a6:	c1 e1 07             	shl    ecx,0x7
  1022a9:	09 c8                	or     eax,ecx
  1022ab:	81 fd 00 08 00 00    	cmp    ebp,0x800
  1022b1:	a2 c5 77 19 00       	mov    ds:0x1977c5,al
  1022b6:	0f 87 ba 0f 00 00    	ja     103276 <_ZN2os3hal3idt15init_exceptionsEv+0x2796>
  1022bc:	8d 83 c2 77 19 00    	lea    eax,[ebx+0x1977c2]
  1022c2:	80 25 c5 77 19 00 ef 	and    BYTE PTR ds:0x1977c5,0xef
  1022c9:	3d 00 08 00 00       	cmp    eax,0x800
  1022ce:	0f 87 7e 0f 00 00    	ja     103252 <_ZN2os3hal3idt15init_exceptionsEv+0x2772>
  1022d4:	8d 83 c8 77 19 00    	lea    eax,[ebx+0x1977c8]
  1022da:	ba 08 00 00 00       	mov    edx,0x8
  1022df:	bd 6f 80 10 00       	mov    ebp,0x10806f
  1022e4:	66 89 15 c2 77 19 00 	mov    WORD PTR ds:0x1977c2,dx
  1022eb:	3d 00 08 00 00       	cmp    eax,0x800
  1022f0:	0f 87 38 0f 00 00    	ja     10322e <_ZN2os3hal3idt15init_exceptionsEv+0x274e>
  1022f6:	8d 83 ce 77 19 00    	lea    eax,[ebx+0x1977ce]
  1022fc:	66 89 2d c8 77 19 00 	mov    WORD PTR ds:0x1977c8,bp
  102303:	c1 ed 10             	shr    ebp,0x10
  102306:	3d 00 08 00 00       	cmp    eax,0x800
  10230b:	0f 87 f9 0e 00 00    	ja     10320a <_ZN2os3hal3idt15init_exceptionsEv+0x272a>
  102311:	8d 86 cc 77 19 00    	lea    eax,[esi+0x1977cc]
  102317:	66 89 2d ce 77 19 00 	mov    WORD PTR ds:0x1977ce,bp
  10231e:	3d 00 08 00 00       	cmp    eax,0x800
  102323:	0f 87 bd 0e 00 00    	ja     1031e6 <_ZN2os3hal3idt15init_exceptionsEv+0x2706>
  102329:	8d ae cd 77 19 00    	lea    ebp,[esi+0x1977cd]
  10232f:	c6 05 cc 77 19 00 00 	mov    BYTE PTR ds:0x1977cc,0x0
  102336:	ba cd 77 19 00       	mov    edx,0x1977cd
  10233b:	81 fd 00 08 00 00    	cmp    ebp,0x800
  102341:	0f 87 78 0e 00 00    	ja     1031bf <_ZN2os3hal3idt15init_exceptionsEv+0x26df>
  102347:	0f b6 05 cd 77 19 00 	movzx  eax,BYTE PTR ds:0x1977cd
  10234e:	83 e0 f0             	and    eax,0xfffffff0
  102351:	0a 44 24 0a          	or     al,BYTE PTR [esp+0xa]
  102355:	81 fd 00 08 00 00    	cmp    ebp,0x800
  10235b:	a2 cd 77 19 00       	mov    ds:0x1977cd,al
  102360:	0f 87 2a 0e 00 00    	ja     103190 <_ZN2os3hal3idt15init_exceptionsEv+0x26b0>
  102366:	0f b6 05 cd 77 19 00 	movzx  eax,BYTE PTR ds:0x1977cd
  10236d:	89 f9                	mov    ecx,edi
  10236f:	83 e1 03             	and    ecx,0x3
  102372:	c1 e1 05             	shl    ecx,0x5
  102375:	83 e0 9f             	and    eax,0xffffff9f
  102378:	09 c8                	or     eax,ecx
  10237a:	81 fd 00 08 00 00    	cmp    ebp,0x800
  102380:	a2 cd 77 19 00       	mov    ds:0x1977cd,al
  102385:	0f 87 d6 0d 00 00    	ja     103161 <_ZN2os3hal3idt15init_exceptionsEv+0x2681>
  10238b:	0f b6 05 cd 77 19 00 	movzx  eax,BYTE PTR ds:0x1977cd
  102392:	0f b6 4c 24 0b       	movzx  ecx,BYTE PTR [esp+0xb]
  102397:	83 e0 7f             	and    eax,0x7f
  10239a:	c1 e1 07             	shl    ecx,0x7
  10239d:	09 c8                	or     eax,ecx
  10239f:	81 fd 00 08 00 00    	cmp    ebp,0x800
  1023a5:	a2 cd 77 19 00       	mov    ds:0x1977cd,al
  1023aa:	0f 87 8a 0d 00 00    	ja     10313a <_ZN2os3hal3idt15init_exceptionsEv+0x265a>
  1023b0:	8d 83 ca 77 19 00    	lea    eax,[ebx+0x1977ca]
  1023b6:	80 25 cd 77 19 00 ef 	and    BYTE PTR ds:0x1977cd,0xef
  1023bd:	3d 00 08 00 00       	cmp    eax,0x800
  1023c2:	0f 87 4e 0d 00 00    	ja     103116 <_ZN2os3hal3idt15init_exceptionsEv+0x2636>
  1023c8:	8d 83 d0 77 19 00    	lea    eax,[ebx+0x1977d0]
  1023ce:	ba 08 00 00 00       	mov    edx,0x8
  1023d3:	bd 79 80 10 00       	mov    ebp,0x108079
  1023d8:	66 89 15 ca 77 19 00 	mov    WORD PTR ds:0x1977ca,dx
  1023df:	3d 00 08 00 00       	cmp    eax,0x800
  1023e4:	0f 87 08 0d 00 00    	ja     1030f2 <_ZN2os3hal3idt15init_exceptionsEv+0x2612>
  1023ea:	8d 83 d6 77 19 00    	lea    eax,[ebx+0x1977d6]
  1023f0:	66 89 2d d0 77 19 00 	mov    WORD PTR ds:0x1977d0,bp
  1023f7:	c1 ed 10             	shr    ebp,0x10
  1023fa:	3d 00 08 00 00       	cmp    eax,0x800
  1023ff:	0f 87 c9 0c 00 00    	ja     1030ce <_ZN2os3hal3idt15init_exceptionsEv+0x25ee>
  102405:	8d 86 d4 77 19 00    	lea    eax,[esi+0x1977d4]
  10240b:	66 89 2d d6 77 19 00 	mov    WORD PTR ds:0x1977d6,bp
  102412:	3d 00 08 00 00       	cmp    eax,0x800
  102417:	0f 87 8d 0c 00 00    	ja     1030aa <_ZN2os3hal3idt15init_exceptionsEv+0x25ca>
  10241d:	8d ae d5 77 19 00    	lea    ebp,[esi+0x1977d5]
  102423:	c6 05 d4 77 19 00 00 	mov    BYTE PTR ds:0x1977d4,0x0
  10242a:	ba d5 77 19 00       	mov    edx,0x1977d5
  10242f:	81 fd 00 08 00 00    	cmp    ebp,0x800
  102435:	0f 87 48 0c 00 00    	ja     103083 <_ZN2os3hal3idt15init_exceptionsEv+0x25a3>
  10243b:	0f b6 05 d5 77 19 00 	movzx  eax,BYTE PTR ds:0x1977d5
  102442:	83 e0 f0             	and    eax,0xfffffff0
  102445:	0a 44 24 0a          	or     al,BYTE PTR [esp+0xa]
  102449:	81 fd 00 08 00 00    	cmp    ebp,0x800
  10244f:	a2 d5 77 19 00       	mov    ds:0x1977d5,al
  102454:	0f 87 fa 0b 00 00    	ja     103054 <_ZN2os3hal3idt15init_exceptionsEv+0x2574>
  10245a:	0f b6 05 d5 77 19 00 	movzx  eax,BYTE PTR ds:0x1977d5
  102461:	89 f9                	mov    ecx,edi
  102463:	83 e1 03             	and    ecx,0x3
  102466:	c1 e1 05             	shl    ecx,0x5
  102469:	83 e0 9f             	and    eax,0xffffff9f
  10246c:	09 c8                	or     eax,ecx
  10246e:	81 fd 00 08 00 00    	cmp    ebp,0x800
  102474:	a2 d5 77 19 00       	mov    ds:0x1977d5,al
  102479:	0f 87 a6 0b 00 00    	ja     103025 <_ZN2os3hal3idt15init_exceptionsEv+0x2545>
  10247f:	0f b6 05 d5 77 19 00 	movzx  eax,BYTE PTR ds:0x1977d5
  102486:	0f b6 4c 24 0b       	movzx  ecx,BYTE PTR [esp+0xb]
  10248b:	83 e0 7f             	and    eax,0x7f
  10248e:	c1 e1 07             	shl    ecx,0x7
  102491:	09 c8                	or     eax,ecx
  102493:	81 fd 00 08 00 00    	cmp    ebp,0x800
  102499:	a2 d5 77 19 00       	mov    ds:0x1977d5,al
  10249e:	0f 87 5a 0b 00 00    	ja     102ffe <_ZN2os3hal3idt15init_exceptionsEv+0x251e>
  1024a4:	8d 83 d2 77 19 00    	lea    eax,[ebx+0x1977d2]
  1024aa:	80 25 d5 77 19 00 ef 	and    BYTE PTR ds:0x1977d5,0xef
  1024b1:	3d 00 08 00 00       	cmp    eax,0x800
  1024b6:	0f 87 1e 0b 00 00    	ja     102fda <_ZN2os3hal3idt15init_exceptionsEv+0x24fa>
  1024bc:	8d 83 d8 77 19 00    	lea    eax,[ebx+0x1977d8]
  1024c2:	ba 08 00 00 00       	mov    edx,0x8
  1024c7:	bd 83 80 10 00       	mov    ebp,0x108083
  1024cc:	66 89 15 d2 77 19 00 	mov    WORD PTR ds:0x1977d2,dx
  1024d3:	3d 00 08 00 00       	cmp    eax,0x800
  1024d8:	0f 87 d8 0a 00 00    	ja     102fb6 <_ZN2os3hal3idt15init_exceptionsEv+0x24d6>
  1024de:	8d 83 de 77 19 00    	lea    eax,[ebx+0x1977de]
  1024e4:	66 89 2d d8 77 19 00 	mov    WORD PTR ds:0x1977d8,bp
  1024eb:	c1 ed 10             	shr    ebp,0x10
  1024ee:	3d 00 08 00 00       	cmp    eax,0x800
  1024f3:	0f 87 99 0a 00 00    	ja     102f92 <_ZN2os3hal3idt15init_exceptionsEv+0x24b2>
  1024f9:	8d 86 dc 77 19 00    	lea    eax,[esi+0x1977dc]
  1024ff:	66 89 2d de 77 19 00 	mov    WORD PTR ds:0x1977de,bp
  102506:	3d 00 08 00 00       	cmp    eax,0x800
  10250b:	0f 87 5d 0a 00 00    	ja     102f6e <_ZN2os3hal3idt15init_exceptionsEv+0x248e>
  102511:	8d ae dd 77 19 00    	lea    ebp,[esi+0x1977dd]
  102517:	c6 05 dc 77 19 00 00 	mov    BYTE PTR ds:0x1977dc,0x0
  10251e:	ba dd 77 19 00       	mov    edx,0x1977dd
  102523:	81 fd 00 08 00 00    	cmp    ebp,0x800
  102529:	0f 87 18 0a 00 00    	ja     102f47 <_ZN2os3hal3idt15init_exceptionsEv+0x2467>
  10252f:	0f b6 05 dd 77 19 00 	movzx  eax,BYTE PTR ds:0x1977dd
  102536:	83 e0 f0             	and    eax,0xfffffff0
  102539:	0a 44 24 0a          	or     al,BYTE PTR [esp+0xa]
  10253d:	81 fd 00 08 00 00    	cmp    ebp,0x800
  102543:	a2 dd 77 19 00       	mov    ds:0x1977dd,al
  102548:	0f 87 ca 09 00 00    	ja     102f18 <_ZN2os3hal3idt15init_exceptionsEv+0x2438>
  10254e:	0f b6 05 dd 77 19 00 	movzx  eax,BYTE PTR ds:0x1977dd
  102555:	89 f9                	mov    ecx,edi
  102557:	83 e1 03             	and    ecx,0x3
  10255a:	c1 e1 05             	shl    ecx,0x5
  10255d:	83 e0 9f             	and    eax,0xffffff9f
  102560:	09 c8                	or     eax,ecx
  102562:	81 fd 00 08 00 00    	cmp    ebp,0x800
  102568:	a2 dd 77 19 00       	mov    ds:0x1977dd,al
  10256d:	0f 87 76 09 00 00    	ja     102ee9 <_ZN2os3hal3idt15init_exceptionsEv+0x2409>
  102573:	0f b6 05 dd 77 19 00 	movzx  eax,BYTE PTR ds:0x1977dd
  10257a:	0f b6 4c 24 0b       	movzx  ecx,BYTE PTR [esp+0xb]
  10257f:	83 e0 7f             	and    eax,0x7f
  102582:	c1 e1 07             	shl    ecx,0x7
  102585:	09 c8                	or     eax,ecx
  102587:	81 fd 00 08 00 00    	cmp    ebp,0x800
  10258d:	a2 dd 77 19 00       	mov    ds:0x1977dd,al
  102592:	0f 87 2a 09 00 00    	ja     102ec2 <_ZN2os3hal3idt15init_exceptionsEv+0x23e2>
  102598:	8d 83 da 77 19 00    	lea    eax,[ebx+0x1977da]
  10259e:	80 25 dd 77 19 00 ef 	and    BYTE PTR ds:0x1977dd,0xef
  1025a5:	3d 00 08 00 00       	cmp    eax,0x800
  1025aa:	0f 87 ee 08 00 00    	ja     102e9e <_ZN2os3hal3idt15init_exceptionsEv+0x23be>
  1025b0:	8d 83 e0 77 19 00    	lea    eax,[ebx+0x1977e0]
  1025b6:	ba 08 00 00 00       	mov    edx,0x8
  1025bb:	bd 8d 80 10 00       	mov    ebp,0x10808d
  1025c0:	66 89 15 da 77 19 00 	mov    WORD PTR ds:0x1977da,dx
  1025c7:	3d 00 08 00 00       	cmp    eax,0x800
  1025cc:	0f 87 a8 08 00 00    	ja     102e7a <_ZN2os3hal3idt15init_exceptionsEv+0x239a>
  1025d2:	8d 83 e6 77 19 00    	lea    eax,[ebx+0x1977e6]
  1025d8:	66 89 2d e0 77 19 00 	mov    WORD PTR ds:0x1977e0,bp
  1025df:	c1 ed 10             	shr    ebp,0x10
  1025e2:	3d 00 08 00 00       	cmp    eax,0x800
  1025e7:	0f 87 69 08 00 00    	ja     102e56 <_ZN2os3hal3idt15init_exceptionsEv+0x2376>
  1025ed:	8d 86 e4 77 19 00    	lea    eax,[esi+0x1977e4]
  1025f3:	66 89 2d e6 77 19 00 	mov    WORD PTR ds:0x1977e6,bp
  1025fa:	3d 00 08 00 00       	cmp    eax,0x800
  1025ff:	0f 87 2d 08 00 00    	ja     102e32 <_ZN2os3hal3idt15init_exceptionsEv+0x2352>
  102605:	8d ae e5 77 19 00    	lea    ebp,[esi+0x1977e5]
  10260b:	c6 05 e4 77 19 00 00 	mov    BYTE PTR ds:0x1977e4,0x0
  102612:	ba e5 77 19 00       	mov    edx,0x1977e5
  102617:	81 fd 00 08 00 00    	cmp    ebp,0x800
  10261d:	0f 87 e8 07 00 00    	ja     102e0b <_ZN2os3hal3idt15init_exceptionsEv+0x232b>
  102623:	0f b6 05 e5 77 19 00 	movzx  eax,BYTE PTR ds:0x1977e5
  10262a:	83 e0 f0             	and    eax,0xfffffff0
  10262d:	0a 44 24 0a          	or     al,BYTE PTR [esp+0xa]
  102631:	81 fd 00 08 00 00    	cmp    ebp,0x800
  102637:	a2 e5 77 19 00       	mov    ds:0x1977e5,al
  10263c:	0f 87 9a 07 00 00    	ja     102ddc <_ZN2os3hal3idt15init_exceptionsEv+0x22fc>
  102642:	0f b6 05 e5 77 19 00 	movzx  eax,BYTE PTR ds:0x1977e5
  102649:	89 f9                	mov    ecx,edi
  10264b:	83 e1 03             	and    ecx,0x3
  10264e:	c1 e1 05             	shl    ecx,0x5
  102651:	83 e0 9f             	and    eax,0xffffff9f
  102654:	09 c8                	or     eax,ecx
  102656:	81 fd 00 08 00 00    	cmp    ebp,0x800
  10265c:	a2 e5 77 19 00       	mov    ds:0x1977e5,al
  102661:	0f 87 46 07 00 00    	ja     102dad <_ZN2os3hal3idt15init_exceptionsEv+0x22cd>
  102667:	0f b6 05 e5 77 19 00 	movzx  eax,BYTE PTR ds:0x1977e5
  10266e:	0f b6 4c 24 0b       	movzx  ecx,BYTE PTR [esp+0xb]
  102673:	83 e0 7f             	and    eax,0x7f
  102676:	c1 e1 07             	shl    ecx,0x7
  102679:	09 c8                	or     eax,ecx
  10267b:	81 fd 00 08 00 00    	cmp    ebp,0x800
  102681:	a2 e5 77 19 00       	mov    ds:0x1977e5,al
  102686:	0f 87 fa 06 00 00    	ja     102d86 <_ZN2os3hal3idt15init_exceptionsEv+0x22a6>
  10268c:	8d 83 e2 77 19 00    	lea    eax,[ebx+0x1977e2]
  102692:	80 25 e5 77 19 00 ef 	and    BYTE PTR ds:0x1977e5,0xef
  102699:	3d 00 08 00 00       	cmp    eax,0x800
  10269e:	0f 87 be 06 00 00    	ja     102d62 <_ZN2os3hal3idt15init_exceptionsEv+0x2282>
  1026a4:	8d 83 e8 77 19 00    	lea    eax,[ebx+0x1977e8]
  1026aa:	ba 08 00 00 00       	mov    edx,0x8
  1026af:	bd 97 80 10 00       	mov    ebp,0x108097
  1026b4:	66 89 15 e2 77 19 00 	mov    WORD PTR ds:0x1977e2,dx
  1026bb:	3d 00 08 00 00       	cmp    eax,0x800
  1026c0:	0f 87 78 06 00 00    	ja     102d3e <_ZN2os3hal3idt15init_exceptionsEv+0x225e>
  1026c6:	8d 83 ee 77 19 00    	lea    eax,[ebx+0x1977ee]
  1026cc:	66 89 2d e8 77 19 00 	mov    WORD PTR ds:0x1977e8,bp
  1026d3:	c1 ed 10             	shr    ebp,0x10
  1026d6:	3d 00 08 00 00       	cmp    eax,0x800
  1026db:	0f 87 39 06 00 00    	ja     102d1a <_ZN2os3hal3idt15init_exceptionsEv+0x223a>
  1026e1:	8d 86 ec 77 19 00    	lea    eax,[esi+0x1977ec]
  1026e7:	66 89 2d ee 77 19 00 	mov    WORD PTR ds:0x1977ee,bp
  1026ee:	3d 00 08 00 00       	cmp    eax,0x800
  1026f3:	0f 87 fd 05 00 00    	ja     102cf6 <_ZN2os3hal3idt15init_exceptionsEv+0x2216>
  1026f9:	8d ae ed 77 19 00    	lea    ebp,[esi+0x1977ed]
  1026ff:	c6 05 ec 77 19 00 00 	mov    BYTE PTR ds:0x1977ec,0x0
  102706:	ba ed 77 19 00       	mov    edx,0x1977ed
  10270b:	81 fd 00 08 00 00    	cmp    ebp,0x800
  102711:	0f 87 b8 05 00 00    	ja     102ccf <_ZN2os3hal3idt15init_exceptionsEv+0x21ef>
  102717:	0f b6 05 ed 77 19 00 	movzx  eax,BYTE PTR ds:0x1977ed
  10271e:	83 e0 f0             	and    eax,0xfffffff0
  102721:	0a 44 24 0a          	or     al,BYTE PTR [esp+0xa]
  102725:	81 fd 00 08 00 00    	cmp    ebp,0x800
  10272b:	a2 ed 77 19 00       	mov    ds:0x1977ed,al
  102730:	0f 87 6a 05 00 00    	ja     102ca0 <_ZN2os3hal3idt15init_exceptionsEv+0x21c0>
  102736:	0f b6 05 ed 77 19 00 	movzx  eax,BYTE PTR ds:0x1977ed
  10273d:	89 f9                	mov    ecx,edi
  10273f:	83 e1 03             	and    ecx,0x3
  102742:	c1 e1 05             	shl    ecx,0x5
  102745:	83 e0 9f             	and    eax,0xffffff9f
  102748:	09 c8                	or     eax,ecx
  10274a:	81 fd 00 08 00 00    	cmp    ebp,0x800
  102750:	a2 ed 77 19 00       	mov    ds:0x1977ed,al
  102755:	0f 87 16 05 00 00    	ja     102c71 <_ZN2os3hal3idt15init_exceptionsEv+0x2191>
  10275b:	0f b6 05 ed 77 19 00 	movzx  eax,BYTE PTR ds:0x1977ed
  102762:	0f b6 4c 24 0b       	movzx  ecx,BYTE PTR [esp+0xb]
  102767:	83 e0 7f             	and    eax,0x7f
  10276a:	c1 e1 07             	shl    ecx,0x7
  10276d:	09 c8                	or     eax,ecx
  10276f:	81 fd 00 08 00 00    	cmp    ebp,0x800
  102775:	a2 ed 77 19 00       	mov    ds:0x1977ed,al
  10277a:	0f 87 ca 04 00 00    	ja     102c4a <_ZN2os3hal3idt15init_exceptionsEv+0x216a>
  102780:	8d 83 ea 77 19 00    	lea    eax,[ebx+0x1977ea]
  102786:	80 25 ed 77 19 00 ef 	and    BYTE PTR ds:0x1977ed,0xef
  10278d:	3d 00 08 00 00       	cmp    eax,0x800
  102792:	0f 87 8e 04 00 00    	ja     102c26 <_ZN2os3hal3idt15init_exceptionsEv+0x2146>
  102798:	8d 83 f0 77 19 00    	lea    eax,[ebx+0x1977f0]
  10279e:	ba 08 00 00 00       	mov    edx,0x8
  1027a3:	bd a1 80 10 00       	mov    ebp,0x1080a1
  1027a8:	66 89 15 ea 77 19 00 	mov    WORD PTR ds:0x1977ea,dx
  1027af:	3d 00 08 00 00       	cmp    eax,0x800
  1027b4:	0f 87 48 04 00 00    	ja     102c02 <_ZN2os3hal3idt15init_exceptionsEv+0x2122>
  1027ba:	8d 83 f6 77 19 00    	lea    eax,[ebx+0x1977f6]
  1027c0:	66 89 2d f0 77 19 00 	mov    WORD PTR ds:0x1977f0,bp
  1027c7:	c1 ed 10             	shr    ebp,0x10
  1027ca:	3d 00 08 00 00       	cmp    eax,0x800
  1027cf:	0f 87 09 04 00 00    	ja     102bde <_ZN2os3hal3idt15init_exceptionsEv+0x20fe>
  1027d5:	8d 86 f4 77 19 00    	lea    eax,[esi+0x1977f4]
  1027db:	66 89 2d f6 77 19 00 	mov    WORD PTR ds:0x1977f6,bp
  1027e2:	3d 00 08 00 00       	cmp    eax,0x800
  1027e7:	0f 87 cd 03 00 00    	ja     102bba <_ZN2os3hal3idt15init_exceptionsEv+0x20da>
  1027ed:	8d ae f5 77 19 00    	lea    ebp,[esi+0x1977f5]
  1027f3:	c6 05 f4 77 19 00 00 	mov    BYTE PTR ds:0x1977f4,0x0
  1027fa:	ba f5 77 19 00       	mov    edx,0x1977f5
  1027ff:	81 fd 00 08 00 00    	cmp    ebp,0x800
  102805:	0f 87 88 03 00 00    	ja     102b93 <_ZN2os3hal3idt15init_exceptionsEv+0x20b3>
  10280b:	0f b6 05 f5 77 19 00 	movzx  eax,BYTE PTR ds:0x1977f5
  102812:	83 e0 f0             	and    eax,0xfffffff0
  102815:	0a 44 24 0a          	or     al,BYTE PTR [esp+0xa]
  102819:	81 fd 00 08 00 00    	cmp    ebp,0x800
  10281f:	a2 f5 77 19 00       	mov    ds:0x1977f5,al
  102824:	0f 87 3a 03 00 00    	ja     102b64 <_ZN2os3hal3idt15init_exceptionsEv+0x2084>
  10282a:	0f b6 05 f5 77 19 00 	movzx  eax,BYTE PTR ds:0x1977f5
  102831:	89 f9                	mov    ecx,edi
  102833:	83 e1 03             	and    ecx,0x3
  102836:	c1 e1 05             	shl    ecx,0x5
  102839:	83 e0 9f             	and    eax,0xffffff9f
  10283c:	09 c8                	or     eax,ecx
  10283e:	81 fd 00 08 00 00    	cmp    ebp,0x800
  102844:	a2 f5 77 19 00       	mov    ds:0x1977f5,al
  102849:	0f 87 e6 02 00 00    	ja     102b35 <_ZN2os3hal3idt15init_exceptionsEv+0x2055>
  10284f:	0f b6 05 f5 77 19 00 	movzx  eax,BYTE PTR ds:0x1977f5
  102856:	0f b6 4c 24 0b       	movzx  ecx,BYTE PTR [esp+0xb]
  10285b:	83 e0 7f             	and    eax,0x7f
  10285e:	c1 e1 07             	shl    ecx,0x7
  102861:	09 c8                	or     eax,ecx
  102863:	81 fd 00 08 00 00    	cmp    ebp,0x800
  102869:	a2 f5 77 19 00       	mov    ds:0x1977f5,al
  10286e:	0f 87 9a 02 00 00    	ja     102b0e <_ZN2os3hal3idt15init_exceptionsEv+0x202e>
  102874:	8d 83 f2 77 19 00    	lea    eax,[ebx+0x1977f2]
  10287a:	80 25 f5 77 19 00 ef 	and    BYTE PTR ds:0x1977f5,0xef
  102881:	3d 00 08 00 00       	cmp    eax,0x800
  102886:	0f 87 5e 02 00 00    	ja     102aea <_ZN2os3hal3idt15init_exceptionsEv+0x200a>
  10288c:	b8 08 00 00 00       	mov    eax,0x8
  102891:	bd ab 80 10 00       	mov    ebp,0x1080ab
  102896:	66 a3 f2 77 19 00    	mov    ds:0x1977f2,ax
  10289c:	8d 83 f8 77 19 00    	lea    eax,[ebx+0x1977f8]
  1028a2:	3d 00 08 00 00       	cmp    eax,0x800
  1028a7:	0f 87 19 02 00 00    	ja     102ac6 <_ZN2os3hal3idt15init_exceptionsEv+0x1fe6>
  1028ad:	8d 83 fe 77 19 00    	lea    eax,[ebx+0x1977fe]
  1028b3:	66 89 2d f8 77 19 00 	mov    WORD PTR ds:0x1977f8,bp
  1028ba:	c1 ed 10             	shr    ebp,0x10
  1028bd:	3d 00 08 00 00       	cmp    eax,0x800
  1028c2:	0f 87 da 01 00 00    	ja     102aa2 <_ZN2os3hal3idt15init_exceptionsEv+0x1fc2>
  1028c8:	8d 86 fc 77 19 00    	lea    eax,[esi+0x1977fc]
  1028ce:	66 89 2d fe 77 19 00 	mov    WORD PTR ds:0x1977fe,bp
  1028d5:	3d 00 08 00 00       	cmp    eax,0x800
  1028da:	0f 87 9e 01 00 00    	ja     102a7e <_ZN2os3hal3idt15init_exceptionsEv+0x1f9e>
  1028e0:	81 c6 fd 77 19 00    	add    esi,0x1977fd
  1028e6:	c6 05 fc 77 19 00 00 	mov    BYTE PTR ds:0x1977fc,0x0
  1028ed:	bd fd 77 19 00       	mov    ebp,0x1977fd
  1028f2:	81 fe 00 08 00 00    	cmp    esi,0x800
  1028f8:	0f 87 61 01 00 00    	ja     102a5f <_ZN2os3hal3idt15init_exceptionsEv+0x1f7f>
  1028fe:	0f b6 05 fd 77 19 00 	movzx  eax,BYTE PTR ds:0x1977fd
  102905:	83 e0 f0             	and    eax,0xfffffff0
  102908:	0a 44 24 0a          	or     al,BYTE PTR [esp+0xa]
  10290c:	81 fe 00 08 00 00    	cmp    esi,0x800
  102912:	a2 fd 77 19 00       	mov    ds:0x1977fd,al
  102917:	0f 87 1b 01 00 00    	ja     102a38 <_ZN2os3hal3idt15init_exceptionsEv+0x1f58>
  10291d:	0f b6 05 fd 77 19 00 	movzx  eax,BYTE PTR ds:0x1977fd
  102924:	83 e7 03             	and    edi,0x3
  102927:	c1 e7 05             	shl    edi,0x5
  10292a:	83 e0 9f             	and    eax,0xffffff9f
  10292d:	09 f8                	or     eax,edi
  10292f:	81 fe 00 08 00 00    	cmp    esi,0x800
  102935:	a2 fd 77 19 00       	mov    ds:0x1977fd,al
  10293a:	0f 87 d1 00 00 00    	ja     102a11 <_ZN2os3hal3idt15init_exceptionsEv+0x1f31>
  102940:	0f b6 15 fd 77 19 00 	movzx  edx,BYTE PTR ds:0x1977fd
  102947:	0f b6 44 24 0b       	movzx  eax,BYTE PTR [esp+0xb]
  10294c:	83 e2 7f             	and    edx,0x7f
  10294f:	c1 e0 07             	shl    eax,0x7
  102952:	09 d0                	or     eax,edx
  102954:	81 fe 00 08 00 00    	cmp    esi,0x800
  10295a:	a2 fd 77 19 00       	mov    ds:0x1977fd,al
  10295f:	0f 87 85 00 00 00    	ja     1029ea <_ZN2os3hal3idt15init_exceptionsEv+0x1f0a>
  102965:	81 c3 fa 77 19 00    	add    ebx,0x1977fa
  10296b:	80 25 fd 77 19 00 ef 	and    BYTE PTR ds:0x1977fd,0xef
  102972:	81 fb 00 08 00 00    	cmp    ebx,0x800
  102978:	77 52                	ja     1029cc <_ZN2os3hal3idt15init_exceptionsEv+0x1eec>
  10297a:	83 ec 08             	sub    esp,0x8
  10297d:	b8 08 00 00 00       	mov    eax,0x8
  102982:	68 86 10 11 00       	push   0x111086
  102987:	68 dc 16 11 00       	push   0x1116dc
  10298c:	66 a3 fa 77 19 00    	mov    ds:0x1977fa,ax
  102992:	e8 a9 7b 00 00       	call   10a540 <printf>
  102997:	83 c4 2c             	add    esp,0x2c
  10299a:	5b                   	pop    ebx
  10299b:	5e                   	pop    esi
  10299c:	5f                   	pop    edi
  10299d:	5d                   	pop    ebp
  10299e:	c3                   	ret    
  10299f:	81 c2 06 77 19 00    	add    edx,0x197706
  1029a5:	0f 82 88 e1 ff ff    	jb     100b33 <_ZN2os3hal3idt15init_exceptionsEv+0x53>
  1029ab:	89 44 24 0c          	mov    DWORD PTR [esp+0xc],eax
  1029af:	50                   	push   eax
  1029b0:	50                   	push   eax
  1029b1:	68 06 77 19 00       	push   0x197706
  1029b6:	68 30 4b 11 00       	push   0x114b30
  1029bb:	e8 b0 a0 00 00       	call   10ca70 <__ubsan_handle_type_mismatch>
  1029c0:	83 c4 10             	add    esp,0x10
  1029c3:	8b 44 24 0c          	mov    eax,DWORD PTR [esp+0xc]
  1029c7:	e9 67 e1 ff ff       	jmp    100b33 <_ZN2os3hal3idt15init_exceptionsEv+0x53>
  1029cc:	81 c3 fa 77 19 00    	add    ebx,0x1977fa
  1029d2:	72 a6                	jb     10297a <_ZN2os3hal3idt15init_exceptionsEv+0x1e9a>
  1029d4:	52                   	push   edx
  1029d5:	52                   	push   edx
  1029d6:	68 fa 77 19 00       	push   0x1977fa
  1029db:	68 3c 33 11 00       	push   0x11333c
  1029e0:	e8 8b a0 00 00       	call   10ca70 <__ubsan_handle_type_mismatch>
  1029e5:	83 c4 10             	add    esp,0x10
  1029e8:	eb 90                	jmp    10297a <_ZN2os3hal3idt15init_exceptionsEv+0x1e9a>
  1029ea:	81 c6 fd 77 19 00    	add    esi,0x1977fd
  1029f0:	39 f5                	cmp    ebp,esi
  1029f2:	0f 87 6d ff ff ff    	ja     102965 <_ZN2os3hal3idt15init_exceptionsEv+0x1e85>
  1029f8:	51                   	push   ecx
  1029f9:	51                   	push   ecx
  1029fa:	68 fd 77 19 00       	push   0x1977fd
  1029ff:	68 54 33 11 00       	push   0x113354
  102a04:	e8 67 a0 00 00       	call   10ca70 <__ubsan_handle_type_mismatch>
  102a09:	83 c4 10             	add    esp,0x10
  102a0c:	e9 54 ff ff ff       	jmp    102965 <_ZN2os3hal3idt15init_exceptionsEv+0x1e85>
  102a11:	8d 86 fd 77 19 00    	lea    eax,[esi+0x1977fd]
  102a17:	39 c5                	cmp    ebp,eax
  102a19:	0f 87 21 ff ff ff    	ja     102940 <_ZN2os3hal3idt15init_exceptionsEv+0x1e60>
  102a1f:	57                   	push   edi
  102a20:	57                   	push   edi
  102a21:	68 fd 77 19 00       	push   0x1977fd
  102a26:	68 6c 33 11 00       	push   0x11336c
  102a2b:	e8 40 a0 00 00       	call   10ca70 <__ubsan_handle_type_mismatch>
  102a30:	83 c4 10             	add    esp,0x10
  102a33:	e9 08 ff ff ff       	jmp    102940 <_ZN2os3hal3idt15init_exceptionsEv+0x1e60>
  102a38:	8d 86 fd 77 19 00    	lea    eax,[esi+0x1977fd]
  102a3e:	39 c5                	cmp    ebp,eax
  102a40:	0f 87 d7 fe ff ff    	ja     10291d <_ZN2os3hal3idt15init_exceptionsEv+0x1e3d>
  102a46:	50                   	push   eax
  102a47:	50                   	push   eax
  102a48:	68 fd 77 19 00       	push   0x1977fd
  102a4d:	68 84 33 11 00       	push   0x113384
  102a52:	e8 19 a0 00 00       	call   10ca70 <__ubsan_handle_type_mismatch>
  102a57:	83 c4 10             	add    esp,0x10
  102a5a:	e9 be fe ff ff       	jmp    10291d <_ZN2os3hal3idt15init_exceptionsEv+0x1e3d>
  102a5f:	89 f0                	mov    eax,esi
  102a61:	01 e8                	add    eax,ebp
  102a63:	0f 82 95 fe ff ff    	jb     1028fe <_ZN2os3hal3idt15init_exceptionsEv+0x1e1e>
  102a69:	50                   	push   eax
  102a6a:	50                   	push   eax
  102a6b:	55                   	push   ebp
  102a6c:	68 9c 33 11 00       	push   0x11339c
  102a71:	e8 fa 9f 00 00       	call   10ca70 <__ubsan_handle_type_mismatch>
  102a76:	83 c4 10             	add    esp,0x10
  102a79:	e9 80 fe ff ff       	jmp    1028fe <_ZN2os3hal3idt15init_exceptionsEv+0x1e1e>
  102a7e:	05 fc 77 19 00       	add    eax,0x1977fc
  102a83:	0f 82 57 fe ff ff    	jb     1028e0 <_ZN2os3hal3idt15init_exceptionsEv+0x1e00>
  102a89:	50                   	push   eax
  102a8a:	50                   	push   eax
  102a8b:	68 fc 77 19 00       	push   0x1977fc
  102a90:	68 b4 33 11 00       	push   0x1133b4
  102a95:	e8 d6 9f 00 00       	call   10ca70 <__ubsan_handle_type_mismatch>
  102a9a:	83 c4 10             	add    esp,0x10
  102a9d:	e9 3e fe ff ff       	jmp    1028e0 <_ZN2os3hal3idt15init_exceptionsEv+0x1e00>
  102aa2:	05 fe 77 19 00       	add    eax,0x1977fe
  102aa7:	0f 82 1b fe ff ff    	jb     1028c8 <_ZN2os3hal3idt15init_exceptionsEv+0x1de8>
  102aad:	50                   	push   eax
  102aae:	50                   	push   eax
  102aaf:	68 fe 77 19 00       	push   0x1977fe
  102ab4:	68 cc 33 11 00       	push   0x1133cc
  102ab9:	e8 b2 9f 00 00       	call   10ca70 <__ubsan_handle_type_mismatch>
  102abe:	83 c4 10             	add    esp,0x10
  102ac1:	e9 02 fe ff ff       	jmp    1028c8 <_ZN2os3hal3idt15init_exceptionsEv+0x1de8>
  102ac6:	05 f8 77 19 00       	add    eax,0x1977f8
  102acb:	0f 82 dc fd ff ff    	jb     1028ad <_ZN2os3hal3idt15init_exceptionsEv+0x1dcd>
  102ad1:	50                   	push   eax
  102ad2:	50                   	push   eax
  102ad3:	68 f8 77 19 00       	push   0x1977f8
  102ad8:	68 e4 33 11 00       	push   0x1133e4
  102add:	e8 8e 9f 00 00       	call   10ca70 <__ubsan_handle_type_mismatch>
  102ae2:	83 c4 10             	add    esp,0x10
  102ae5:	e9 c3 fd ff ff       	jmp    1028ad <_ZN2os3hal3idt15init_exceptionsEv+0x1dcd>
  102aea:	05 f2 77 19 00       	add    eax,0x1977f2
  102aef:	0f 82 97 fd ff ff    	jb     10288c <_ZN2os3hal3idt15init_exceptionsEv+0x1dac>
  102af5:	52                   	push   edx
  102af6:	52                   	push   edx
  102af7:	68 f2 77 19 00       	push   0x1977f2
  102afc:	68 fc 33 11 00       	push   0x1133fc
  102b01:	e8 6a 9f 00 00       	call   10ca70 <__ubsan_handle_type_mismatch>
  102b06:	83 c4 10             	add    esp,0x10
  102b09:	e9 7e fd ff ff       	jmp    10288c <_ZN2os3hal3idt15init_exceptionsEv+0x1dac>
  102b0e:	81 c5 f5 77 19 00    	add    ebp,0x1977f5
  102b14:	39 ea                	cmp    edx,ebp
  102b16:	0f 87 58 fd ff ff    	ja     102874 <_ZN2os3hal3idt15init_exceptionsEv+0x1d94>
  102b1c:	51                   	push   ecx
  102b1d:	51                   	push   ecx
  102b1e:	68 f5 77 19 00       	push   0x1977f5
  102b23:	68 14 34 11 00       	push   0x113414
  102b28:	e8 43 9f 00 00       	call   10ca70 <__ubsan_handle_type_mismatch>
  102b2d:	83 c4 10             	add    esp,0x10
  102b30:	e9 3f fd ff ff       	jmp    102874 <_ZN2os3hal3idt15init_exceptionsEv+0x1d94>
  102b35:	8d 85 f5 77 19 00    	lea    eax,[ebp+0x1977f5]
  102b3b:	39 c2                	cmp    edx,eax
  102b3d:	0f 87 0c fd ff ff    	ja     10284f <_ZN2os3hal3idt15init_exceptionsEv+0x1d6f>
  102b43:	89 54 24 0c          	mov    DWORD PTR [esp+0xc],edx
  102b47:	50                   	push   eax
  102b48:	50                   	push   eax
  102b49:	68 f5 77 19 00       	push   0x1977f5
  102b4e:	68 2c 34 11 00       	push   0x11342c
  102b53:	e8 18 9f 00 00       	call   10ca70 <__ubsan_handle_type_mismatch>
  102b58:	83 c4 10             	add    esp,0x10
  102b5b:	8b 54 24 0c          	mov    edx,DWORD PTR [esp+0xc]
  102b5f:	e9 eb fc ff ff       	jmp    10284f <_ZN2os3hal3idt15init_exceptionsEv+0x1d6f>
  102b64:	8d 85 f5 77 19 00    	lea    eax,[ebp+0x1977f5]
  102b6a:	39 c2                	cmp    edx,eax
  102b6c:	0f 87 b8 fc ff ff    	ja     10282a <_ZN2os3hal3idt15init_exceptionsEv+0x1d4a>
  102b72:	89 54 24 0c          	mov    DWORD PTR [esp+0xc],edx
  102b76:	50                   	push   eax
  102b77:	50                   	push   eax
  102b78:	68 f5 77 19 00       	push   0x1977f5
  102b7d:	68 44 34 11 00       	push   0x113444
  102b82:	e8 e9 9e 00 00       	call   10ca70 <__ubsan_handle_type_mismatch>
  102b87:	83 c4 10             	add    esp,0x10
  102b8a:	8b 54 24 0c          	mov    edx,DWORD PTR [esp+0xc]
  102b8e:	e9 97 fc ff ff       	jmp    10282a <_ZN2os3hal3idt15init_exceptionsEv+0x1d4a>
  102b93:	89 e8                	mov    eax,ebp
  102b95:	01 d0                	add    eax,edx
  102b97:	0f 82 6e fc ff ff    	jb     10280b <_ZN2os3hal3idt15init_exceptionsEv+0x1d2b>
  102b9d:	89 54 24 0c          	mov    DWORD PTR [esp+0xc],edx
  102ba1:	50                   	push   eax
  102ba2:	50                   	push   eax
  102ba3:	52                   	push   edx
  102ba4:	68 5c 34 11 00       	push   0x11345c
  102ba9:	e8 c2 9e 00 00       	call   10ca70 <__ubsan_handle_type_mismatch>
  102bae:	83 c4 10             	add    esp,0x10
  102bb1:	8b 54 24 0c          	mov    edx,DWORD PTR [esp+0xc]
  102bb5:	e9 51 fc ff ff       	jmp    10280b <_ZN2os3hal3idt15init_exceptionsEv+0x1d2b>
  102bba:	05 f4 77 19 00       	add    eax,0x1977f4
  102bbf:	0f 82 28 fc ff ff    	jb     1027ed <_ZN2os3hal3idt15init_exceptionsEv+0x1d0d>
  102bc5:	50                   	push   eax
  102bc6:	50                   	push   eax
  102bc7:	68 f4 77 19 00       	push   0x1977f4
  102bcc:	68 74 34 11 00       	push   0x113474
  102bd1:	e8 9a 9e 00 00       	call   10ca70 <__ubsan_handle_type_mismatch>
  102bd6:	83 c4 10             	add    esp,0x10
  102bd9:	e9 0f fc ff ff       	jmp    1027ed <_ZN2os3hal3idt15init_exceptionsEv+0x1d0d>
  102bde:	05 f6 77 19 00       	add    eax,0x1977f6
  102be3:	0f 82 ec fb ff ff    	jb     1027d5 <_ZN2os3hal3idt15init_exceptionsEv+0x1cf5>
  102be9:	50                   	push   eax
  102bea:	50                   	push   eax
  102beb:	68 f6 77 19 00       	push   0x1977f6
  102bf0:	68 8c 34 11 00       	push   0x11348c
  102bf5:	e8 76 9e 00 00       	call   10ca70 <__ubsan_handle_type_mismatch>
  102bfa:	83 c4 10             	add    esp,0x10
  102bfd:	e9 d3 fb ff ff       	jmp    1027d5 <_ZN2os3hal3idt15init_exceptionsEv+0x1cf5>
  102c02:	05 f0 77 19 00       	add    eax,0x1977f0
  102c07:	0f 82 ad fb ff ff    	jb     1027ba <_ZN2os3hal3idt15init_exceptionsEv+0x1cda>
  102c0d:	50                   	push   eax
  102c0e:	50                   	push   eax
  102c0f:	68 f0 77 19 00       	push   0x1977f0
  102c14:	68 a4 34 11 00       	push   0x1134a4
  102c19:	e8 52 9e 00 00       	call   10ca70 <__ubsan_handle_type_mismatch>
  102c1e:	83 c4 10             	add    esp,0x10
  102c21:	e9 94 fb ff ff       	jmp    1027ba <_ZN2os3hal3idt15init_exceptionsEv+0x1cda>
  102c26:	05 ea 77 19 00       	add    eax,0x1977ea
  102c2b:	0f 82 67 fb ff ff    	jb     102798 <_ZN2os3hal3idt15init_exceptionsEv+0x1cb8>
  102c31:	51                   	push   ecx
  102c32:	51                   	push   ecx
  102c33:	68 ea 77 19 00       	push   0x1977ea
  102c38:	68 bc 34 11 00       	push   0x1134bc
  102c3d:	e8 2e 9e 00 00       	call   10ca70 <__ubsan_handle_type_mismatch>
  102c42:	83 c4 10             	add    esp,0x10
  102c45:	e9 4e fb ff ff       	jmp    102798 <_ZN2os3hal3idt15init_exceptionsEv+0x1cb8>
  102c4a:	81 c5 ed 77 19 00    	add    ebp,0x1977ed
  102c50:	39 ea                	cmp    edx,ebp
  102c52:	0f 87 28 fb ff ff    	ja     102780 <_ZN2os3hal3idt15init_exceptionsEv+0x1ca0>
  102c58:	55                   	push   ebp
  102c59:	55                   	push   ebp
  102c5a:	68 ed 77 19 00       	push   0x1977ed
  102c5f:	68 d4 34 11 00       	push   0x1134d4
  102c64:	e8 07 9e 00 00       	call   10ca70 <__ubsan_handle_type_mismatch>
  102c69:	83 c4 10             	add    esp,0x10
  102c6c:	e9 0f fb ff ff       	jmp    102780 <_ZN2os3hal3idt15init_exceptionsEv+0x1ca0>
  102c71:	8d 85 ed 77 19 00    	lea    eax,[ebp+0x1977ed]
  102c77:	39 c2                	cmp    edx,eax
  102c79:	0f 87 dc fa ff ff    	ja     10275b <_ZN2os3hal3idt15init_exceptionsEv+0x1c7b>
  102c7f:	89 54 24 0c          	mov    DWORD PTR [esp+0xc],edx
  102c83:	50                   	push   eax
  102c84:	50                   	push   eax
  102c85:	68 ed 77 19 00       	push   0x1977ed
  102c8a:	68 ec 34 11 00       	push   0x1134ec
  102c8f:	e8 dc 9d 00 00       	call   10ca70 <__ubsan_handle_type_mismatch>
  102c94:	83 c4 10             	add    esp,0x10
  102c97:	8b 54 24 0c          	mov    edx,DWORD PTR [esp+0xc]
  102c9b:	e9 bb fa ff ff       	jmp    10275b <_ZN2os3hal3idt15init_exceptionsEv+0x1c7b>
  102ca0:	8d 85 ed 77 19 00    	lea    eax,[ebp+0x1977ed]
  102ca6:	39 c2                	cmp    edx,eax
  102ca8:	0f 87 88 fa ff ff    	ja     102736 <_ZN2os3hal3idt15init_exceptionsEv+0x1c56>
  102cae:	89 54 24 0c          	mov    DWORD PTR [esp+0xc],edx
  102cb2:	50                   	push   eax
  102cb3:	50                   	push   eax
  102cb4:	68 ed 77 19 00       	push   0x1977ed
  102cb9:	68 04 35 11 00       	push   0x113504
  102cbe:	e8 ad 9d 00 00       	call   10ca70 <__ubsan_handle_type_mismatch>
  102cc3:	83 c4 10             	add    esp,0x10
  102cc6:	8b 54 24 0c          	mov    edx,DWORD PTR [esp+0xc]
  102cca:	e9 67 fa ff ff       	jmp    102736 <_ZN2os3hal3idt15init_exceptionsEv+0x1c56>
  102ccf:	89 e8                	mov    eax,ebp
  102cd1:	01 d0                	add    eax,edx
  102cd3:	0f 82 3e fa ff ff    	jb     102717 <_ZN2os3hal3idt15init_exceptionsEv+0x1c37>
  102cd9:	89 54 24 0c          	mov    DWORD PTR [esp+0xc],edx
  102cdd:	50                   	push   eax
  102cde:	50                   	push   eax
  102cdf:	52                   	push   edx
  102ce0:	68 1c 35 11 00       	push   0x11351c
  102ce5:	e8 86 9d 00 00       	call   10ca70 <__ubsan_handle_type_mismatch>
  102cea:	83 c4 10             	add    esp,0x10
  102ced:	8b 54 24 0c          	mov    edx,DWORD PTR [esp+0xc]
  102cf1:	e9 21 fa ff ff       	jmp    102717 <_ZN2os3hal3idt15init_exceptionsEv+0x1c37>
  102cf6:	05 ec 77 19 00       	add    eax,0x1977ec
  102cfb:	0f 82 f8 f9 ff ff    	jb     1026f9 <_ZN2os3hal3idt15init_exceptionsEv+0x1c19>
  102d01:	50                   	push   eax
  102d02:	50                   	push   eax
  102d03:	68 ec 77 19 00       	push   0x1977ec
  102d08:	68 34 35 11 00       	push   0x113534
  102d0d:	e8 5e 9d 00 00       	call   10ca70 <__ubsan_handle_type_mismatch>
  102d12:	83 c4 10             	add    esp,0x10
  102d15:	e9 df f9 ff ff       	jmp    1026f9 <_ZN2os3hal3idt15init_exceptionsEv+0x1c19>
  102d1a:	05 ee 77 19 00       	add    eax,0x1977ee
  102d1f:	0f 82 bc f9 ff ff    	jb     1026e1 <_ZN2os3hal3idt15init_exceptionsEv+0x1c01>
  102d25:	50                   	push   eax
  102d26:	50                   	push   eax
  102d27:	68 ee 77 19 00       	push   0x1977ee
  102d2c:	68 4c 35 11 00       	push   0x11354c
  102d31:	e8 3a 9d 00 00       	call   10ca70 <__ubsan_handle_type_mismatch>
  102d36:	83 c4 10             	add    esp,0x10
  102d39:	e9 a3 f9 ff ff       	jmp    1026e1 <_ZN2os3hal3idt15init_exceptionsEv+0x1c01>
  102d3e:	05 e8 77 19 00       	add    eax,0x1977e8
  102d43:	0f 82 7d f9 ff ff    	jb     1026c6 <_ZN2os3hal3idt15init_exceptionsEv+0x1be6>
  102d49:	50                   	push   eax
  102d4a:	50                   	push   eax
  102d4b:	68 e8 77 19 00       	push   0x1977e8
  102d50:	68 64 35 11 00       	push   0x113564
  102d55:	e8 16 9d 00 00       	call   10ca70 <__ubsan_handle_type_mismatch>
  102d5a:	83 c4 10             	add    esp,0x10
  102d5d:	e9 64 f9 ff ff       	jmp    1026c6 <_ZN2os3hal3idt15init_exceptionsEv+0x1be6>
  102d62:	05 e2 77 19 00       	add    eax,0x1977e2
  102d67:	0f 82 37 f9 ff ff    	jb     1026a4 <_ZN2os3hal3idt15init_exceptionsEv+0x1bc4>
  102d6d:	51                   	push   ecx
  102d6e:	51                   	push   ecx
  102d6f:	68 e2 77 19 00       	push   0x1977e2
  102d74:	68 7c 35 11 00       	push   0x11357c
  102d79:	e8 f2 9c 00 00       	call   10ca70 <__ubsan_handle_type_mismatch>
  102d7e:	83 c4 10             	add    esp,0x10
  102d81:	e9 1e f9 ff ff       	jmp    1026a4 <_ZN2os3hal3idt15init_exceptionsEv+0x1bc4>
  102d86:	81 c5 e5 77 19 00    	add    ebp,0x1977e5
  102d8c:	39 ea                	cmp    edx,ebp
  102d8e:	0f 87 f8 f8 ff ff    	ja     10268c <_ZN2os3hal3idt15init_exceptionsEv+0x1bac>
  102d94:	55                   	push   ebp
  102d95:	55                   	push   ebp
  102d96:	68 e5 77 19 00       	push   0x1977e5
  102d9b:	68 94 35 11 00       	push   0x113594
  102da0:	e8 cb 9c 00 00       	call   10ca70 <__ubsan_handle_type_mismatch>
  102da5:	83 c4 10             	add    esp,0x10
  102da8:	e9 df f8 ff ff       	jmp    10268c <_ZN2os3hal3idt15init_exceptionsEv+0x1bac>
  102dad:	8d 85 e5 77 19 00    	lea    eax,[ebp+0x1977e5]
  102db3:	39 c2                	cmp    edx,eax
  102db5:	0f 87 ac f8 ff ff    	ja     102667 <_ZN2os3hal3idt15init_exceptionsEv+0x1b87>
  102dbb:	89 54 24 0c          	mov    DWORD PTR [esp+0xc],edx
  102dbf:	50                   	push   eax
  102dc0:	50                   	push   eax
  102dc1:	68 e5 77 19 00       	push   0x1977e5
  102dc6:	68 ac 35 11 00       	push   0x1135ac
  102dcb:	e8 a0 9c 00 00       	call   10ca70 <__ubsan_handle_type_mismatch>
  102dd0:	83 c4 10             	add    esp,0x10
  102dd3:	8b 54 24 0c          	mov    edx,DWORD PTR [esp+0xc]
  102dd7:	e9 8b f8 ff ff       	jmp    102667 <_ZN2os3hal3idt15init_exceptionsEv+0x1b87>
  102ddc:	8d 85 e5 77 19 00    	lea    eax,[ebp+0x1977e5]
  102de2:	39 c2                	cmp    edx,eax
  102de4:	0f 87 58 f8 ff ff    	ja     102642 <_ZN2os3hal3idt15init_exceptionsEv+0x1b62>
  102dea:	89 54 24 0c          	mov    DWORD PTR [esp+0xc],edx
  102dee:	50                   	push   eax
  102def:	50                   	push   eax
  102df0:	68 e5 77 19 00       	push   0x1977e5
  102df5:	68 c4 35 11 00       	push   0x1135c4
  102dfa:	e8 71 9c 00 00       	call   10ca70 <__ubsan_handle_type_mismatch>
  102dff:	83 c4 10             	add    esp,0x10
  102e02:	8b 54 24 0c          	mov    edx,DWORD PTR [esp+0xc]
  102e06:	e9 37 f8 ff ff       	jmp    102642 <_ZN2os3hal3idt15init_exceptionsEv+0x1b62>
  102e0b:	89 e8                	mov    eax,ebp
  102e0d:	01 d0                	add    eax,edx
  102e0f:	0f 82 0e f8 ff ff    	jb     102623 <_ZN2os3hal3idt15init_exceptionsEv+0x1b43>
  102e15:	89 54 24 0c          	mov    DWORD PTR [esp+0xc],edx
  102e19:	50                   	push   eax
  102e1a:	50                   	push   eax
  102e1b:	52                   	push   edx
  102e1c:	68 dc 35 11 00       	push   0x1135dc
  102e21:	e8 4a 9c 00 00       	call   10ca70 <__ubsan_handle_type_mismatch>
  102e26:	83 c4 10             	add    esp,0x10
  102e29:	8b 54 24 0c          	mov    edx,DWORD PTR [esp+0xc]
  102e2d:	e9 f1 f7 ff ff       	jmp    102623 <_ZN2os3hal3idt15init_exceptionsEv+0x1b43>
  102e32:	05 e4 77 19 00       	add    eax,0x1977e4
  102e37:	0f 82 c8 f7 ff ff    	jb     102605 <_ZN2os3hal3idt15init_exceptionsEv+0x1b25>
  102e3d:	50                   	push   eax
  102e3e:	50                   	push   eax
  102e3f:	68 e4 77 19 00       	push   0x1977e4
  102e44:	68 f4 35 11 00       	push   0x1135f4
  102e49:	e8 22 9c 00 00       	call   10ca70 <__ubsan_handle_type_mismatch>
  102e4e:	83 c4 10             	add    esp,0x10
  102e51:	e9 af f7 ff ff       	jmp    102605 <_ZN2os3hal3idt15init_exceptionsEv+0x1b25>
  102e56:	05 e6 77 19 00       	add    eax,0x1977e6
  102e5b:	0f 82 8c f7 ff ff    	jb     1025ed <_ZN2os3hal3idt15init_exceptionsEv+0x1b0d>
  102e61:	50                   	push   eax
  102e62:	50                   	push   eax
  102e63:	68 e6 77 19 00       	push   0x1977e6
  102e68:	68 0c 36 11 00       	push   0x11360c
  102e6d:	e8 fe 9b 00 00       	call   10ca70 <__ubsan_handle_type_mismatch>
  102e72:	83 c4 10             	add    esp,0x10
  102e75:	e9 73 f7 ff ff       	jmp    1025ed <_ZN2os3hal3idt15init_exceptionsEv+0x1b0d>
  102e7a:	05 e0 77 19 00       	add    eax,0x1977e0
  102e7f:	0f 82 4d f7 ff ff    	jb     1025d2 <_ZN2os3hal3idt15init_exceptionsEv+0x1af2>
  102e85:	50                   	push   eax
  102e86:	50                   	push   eax
  102e87:	68 e0 77 19 00       	push   0x1977e0
  102e8c:	68 24 36 11 00       	push   0x113624
  102e91:	e8 da 9b 00 00       	call   10ca70 <__ubsan_handle_type_mismatch>
  102e96:	83 c4 10             	add    esp,0x10
  102e99:	e9 34 f7 ff ff       	jmp    1025d2 <_ZN2os3hal3idt15init_exceptionsEv+0x1af2>
  102e9e:	05 da 77 19 00       	add    eax,0x1977da
  102ea3:	0f 82 07 f7 ff ff    	jb     1025b0 <_ZN2os3hal3idt15init_exceptionsEv+0x1ad0>
  102ea9:	51                   	push   ecx
  102eaa:	51                   	push   ecx
  102eab:	68 da 77 19 00       	push   0x1977da
  102eb0:	68 3c 36 11 00       	push   0x11363c
  102eb5:	e8 b6 9b 00 00       	call   10ca70 <__ubsan_handle_type_mismatch>
  102eba:	83 c4 10             	add    esp,0x10
  102ebd:	e9 ee f6 ff ff       	jmp    1025b0 <_ZN2os3hal3idt15init_exceptionsEv+0x1ad0>
  102ec2:	81 c5 dd 77 19 00    	add    ebp,0x1977dd
  102ec8:	39 ea                	cmp    edx,ebp
  102eca:	0f 87 c8 f6 ff ff    	ja     102598 <_ZN2os3hal3idt15init_exceptionsEv+0x1ab8>
  102ed0:	55                   	push   ebp
  102ed1:	55                   	push   ebp
  102ed2:	68 dd 77 19 00       	push   0x1977dd
  102ed7:	68 54 36 11 00       	push   0x113654
  102edc:	e8 8f 9b 00 00       	call   10ca70 <__ubsan_handle_type_mismatch>
  102ee1:	83 c4 10             	add    esp,0x10
  102ee4:	e9 af f6 ff ff       	jmp    102598 <_ZN2os3hal3idt15init_exceptionsEv+0x1ab8>
  102ee9:	8d 85 dd 77 19 00    	lea    eax,[ebp+0x1977dd]
  102eef:	39 c2                	cmp    edx,eax
  102ef1:	0f 87 7c f6 ff ff    	ja     102573 <_ZN2os3hal3idt15init_exceptionsEv+0x1a93>
  102ef7:	89 54 24 0c          	mov    DWORD PTR [esp+0xc],edx
  102efb:	50                   	push   eax
  102efc:	50                   	push   eax
  102efd:	68 dd 77 19 00       	push   0x1977dd
  102f02:	68 6c 36 11 00       	push   0x11366c
  102f07:	e8 64 9b 00 00       	call   10ca70 <__ubsan_handle_type_mismatch>
  102f0c:	83 c4 10             	add    esp,0x10
  102f0f:	8b 54 24 0c          	mov    edx,DWORD PTR [esp+0xc]
  102f13:	e9 5b f6 ff ff       	jmp    102573 <_ZN2os3hal3idt15init_exceptionsEv+0x1a93>
  102f18:	8d 85 dd 77 19 00    	lea    eax,[ebp+0x1977dd]
  102f1e:	39 c2                	cmp    edx,eax
  102f20:	0f 87 28 f6 ff ff    	ja     10254e <_ZN2os3hal3idt15init_exceptionsEv+0x1a6e>
  102f26:	89 54 24 0c          	mov    DWORD PTR [esp+0xc],edx
  102f2a:	50                   	push   eax
  102f2b:	50                   	push   eax
  102f2c:	68 dd 77 19 00       	push   0x1977dd
  102f31:	68 84 36 11 00       	push   0x113684
  102f36:	e8 35 9b 00 00       	call   10ca70 <__ubsan_handle_type_mismatch>
  102f3b:	83 c4 10             	add    esp,0x10
  102f3e:	8b 54 24 0c          	mov    edx,DWORD PTR [esp+0xc]
  102f42:	e9 07 f6 ff ff       	jmp    10254e <_ZN2os3hal3idt15init_exceptionsEv+0x1a6e>
  102f47:	89 e8                	mov    eax,ebp
  102f49:	01 d0                	add    eax,edx
  102f4b:	0f 82 de f5 ff ff    	jb     10252f <_ZN2os3hal3idt15init_exceptionsEv+0x1a4f>
  102f51:	89 54 24 0c          	mov    DWORD PTR [esp+0xc],edx
  102f55:	50                   	push   eax
  102f56:	50                   	push   eax
  102f57:	52                   	push   edx
  102f58:	68 9c 36 11 00       	push   0x11369c
  102f5d:	e8 0e 9b 00 00       	call   10ca70 <__ubsan_handle_type_mismatch>
  102f62:	83 c4 10             	add    esp,0x10
  102f65:	8b 54 24 0c          	mov    edx,DWORD PTR [esp+0xc]
  102f69:	e9 c1 f5 ff ff       	jmp    10252f <_ZN2os3hal3idt15init_exceptionsEv+0x1a4f>
  102f6e:	05 dc 77 19 00       	add    eax,0x1977dc
  102f73:	0f 82 98 f5 ff ff    	jb     102511 <_ZN2os3hal3idt15init_exceptionsEv+0x1a31>
  102f79:	50                   	push   eax
  102f7a:	50                   	push   eax
  102f7b:	68 dc 77 19 00       	push   0x1977dc
  102f80:	68 b4 36 11 00       	push   0x1136b4
  102f85:	e8 e6 9a 00 00       	call   10ca70 <__ubsan_handle_type_mismatch>
  102f8a:	83 c4 10             	add    esp,0x10
  102f8d:	e9 7f f5 ff ff       	jmp    102511 <_ZN2os3hal3idt15init_exceptionsEv+0x1a31>
  102f92:	05 de 77 19 00       	add    eax,0x1977de
  102f97:	0f 82 5c f5 ff ff    	jb     1024f9 <_ZN2os3hal3idt15init_exceptionsEv+0x1a19>
  102f9d:	50                   	push   eax
  102f9e:	50                   	push   eax
  102f9f:	68 de 77 19 00       	push   0x1977de
  102fa4:	68 cc 36 11 00       	push   0x1136cc
  102fa9:	e8 c2 9a 00 00       	call   10ca70 <__ubsan_handle_type_mismatch>
  102fae:	83 c4 10             	add    esp,0x10
  102fb1:	e9 43 f5 ff ff       	jmp    1024f9 <_ZN2os3hal3idt15init_exceptionsEv+0x1a19>
  102fb6:	05 d8 77 19 00       	add    eax,0x1977d8
  102fbb:	0f 82 1d f5 ff ff    	jb     1024de <_ZN2os3hal3idt15init_exceptionsEv+0x19fe>
  102fc1:	50                   	push   eax
  102fc2:	50                   	push   eax
  102fc3:	68 d8 77 19 00       	push   0x1977d8
  102fc8:	68 e4 36 11 00       	push   0x1136e4
  102fcd:	e8 9e 9a 00 00       	call   10ca70 <__ubsan_handle_type_mismatch>
  102fd2:	83 c4 10             	add    esp,0x10
  102fd5:	e9 04 f5 ff ff       	jmp    1024de <_ZN2os3hal3idt15init_exceptionsEv+0x19fe>
  102fda:	05 d2 77 19 00       	add    eax,0x1977d2
  102fdf:	0f 82 d7 f4 ff ff    	jb     1024bc <_ZN2os3hal3idt15init_exceptionsEv+0x19dc>
  102fe5:	51                   	push   ecx
  102fe6:	51                   	push   ecx
  102fe7:	68 d2 77 19 00       	push   0x1977d2
  102fec:	68 fc 36 11 00       	push   0x1136fc
  102ff1:	e8 7a 9a 00 00       	call   10ca70 <__ubsan_handle_type_mismatch>
  102ff6:	83 c4 10             	add    esp,0x10
  102ff9:	e9 be f4 ff ff       	jmp    1024bc <_ZN2os3hal3idt15init_exceptionsEv+0x19dc>
  102ffe:	81 c5 d5 77 19 00    	add    ebp,0x1977d5
  103004:	39 ea                	cmp    edx,ebp
  103006:	0f 87 98 f4 ff ff    	ja     1024a4 <_ZN2os3hal3idt15init_exceptionsEv+0x19c4>
  10300c:	55                   	push   ebp
  10300d:	55                   	push   ebp
  10300e:	68 d5 77 19 00       	push   0x1977d5
  103013:	68 14 37 11 00       	push   0x113714
  103018:	e8 53 9a 00 00       	call   10ca70 <__ubsan_handle_type_mismatch>
  10301d:	83 c4 10             	add    esp,0x10
  103020:	e9 7f f4 ff ff       	jmp    1024a4 <_ZN2os3hal3idt15init_exceptionsEv+0x19c4>
  103025:	8d 85 d5 77 19 00    	lea    eax,[ebp+0x1977d5]
  10302b:	39 c2                	cmp    edx,eax
  10302d:	0f 87 4c f4 ff ff    	ja     10247f <_ZN2os3hal3idt15init_exceptionsEv+0x199f>
  103033:	89 54 24 0c          	mov    DWORD PTR [esp+0xc],edx
  103037:	50                   	push   eax
  103038:	50                   	push   eax
  103039:	68 d5 77 19 00       	push   0x1977d5
  10303e:	68 2c 37 11 00       	push   0x11372c
  103043:	e8 28 9a 00 00       	call   10ca70 <__ubsan_handle_type_mismatch>
  103048:	83 c4 10             	add    esp,0x10
  10304b:	8b 54 24 0c          	mov    edx,DWORD PTR [esp+0xc]
  10304f:	e9 2b f4 ff ff       	jmp    10247f <_ZN2os3hal3idt15init_exceptionsEv+0x199f>
  103054:	8d 85 d5 77 19 00    	lea    eax,[ebp+0x1977d5]
  10305a:	39 c2                	cmp    edx,eax
  10305c:	0f 87 f8 f3 ff ff    	ja     10245a <_ZN2os3hal3idt15init_exceptionsEv+0x197a>
  103062:	89 54 24 0c          	mov    DWORD PTR [esp+0xc],edx
  103066:	50                   	push   eax
  103067:	50                   	push   eax
  103068:	68 d5 77 19 00       	push   0x1977d5
  10306d:	68 44 37 11 00       	push   0x113744
  103072:	e8 f9 99 00 00       	call   10ca70 <__ubsan_handle_type_mismatch>
  103077:	83 c4 10             	add    esp,0x10
  10307a:	8b 54 24 0c          	mov    edx,DWORD PTR [esp+0xc]
  10307e:	e9 d7 f3 ff ff       	jmp    10245a <_ZN2os3hal3idt15init_exceptionsEv+0x197a>
  103083:	89 e8                	mov    eax,ebp
  103085:	01 d0                	add    eax,edx
  103087:	0f 82 ae f3 ff ff    	jb     10243b <_ZN2os3hal3idt15init_exceptionsEv+0x195b>
  10308d:	89 54 24 0c          	mov    DWORD PTR [esp+0xc],edx
  103091:	50                   	push   eax
  103092:	50                   	push   eax
  103093:	52                   	push   edx
  103094:	68 5c 37 11 00       	push   0x11375c
  103099:	e8 d2 99 00 00       	call   10ca70 <__ubsan_handle_type_mismatch>
  10309e:	83 c4 10             	add    esp,0x10
  1030a1:	8b 54 24 0c          	mov    edx,DWORD PTR [esp+0xc]
  1030a5:	e9 91 f3 ff ff       	jmp    10243b <_ZN2os3hal3idt15init_exceptionsEv+0x195b>
  1030aa:	05 d4 77 19 00       	add    eax,0x1977d4
  1030af:	0f 82 68 f3 ff ff    	jb     10241d <_ZN2os3hal3idt15init_exceptionsEv+0x193d>
  1030b5:	50                   	push   eax
  1030b6:	50                   	push   eax
  1030b7:	68 d4 77 19 00       	push   0x1977d4
  1030bc:	68 74 37 11 00       	push   0x113774
  1030c1:	e8 aa 99 00 00       	call   10ca70 <__ubsan_handle_type_mismatch>
  1030c6:	83 c4 10             	add    esp,0x10
  1030c9:	e9 4f f3 ff ff       	jmp    10241d <_ZN2os3hal3idt15init_exceptionsEv+0x193d>
  1030ce:	05 d6 77 19 00       	add    eax,0x1977d6
  1030d3:	0f 82 2c f3 ff ff    	jb     102405 <_ZN2os3hal3idt15init_exceptionsEv+0x1925>
  1030d9:	50                   	push   eax
  1030da:	50                   	push   eax
  1030db:	68 d6 77 19 00       	push   0x1977d6
  1030e0:	68 8c 37 11 00       	push   0x11378c
  1030e5:	e8 86 99 00 00       	call   10ca70 <__ubsan_handle_type_mismatch>
  1030ea:	83 c4 10             	add    esp,0x10
  1030ed:	e9 13 f3 ff ff       	jmp    102405 <_ZN2os3hal3idt15init_exceptionsEv+0x1925>
  1030f2:	05 d0 77 19 00       	add    eax,0x1977d0
  1030f7:	0f 82 ed f2 ff ff    	jb     1023ea <_ZN2os3hal3idt15init_exceptionsEv+0x190a>
  1030fd:	50                   	push   eax
  1030fe:	50                   	push   eax
  1030ff:	68 d0 77 19 00       	push   0x1977d0
  103104:	68 a4 37 11 00       	push   0x1137a4
  103109:	e8 62 99 00 00       	call   10ca70 <__ubsan_handle_type_mismatch>
  10310e:	83 c4 10             	add    esp,0x10
  103111:	e9 d4 f2 ff ff       	jmp    1023ea <_ZN2os3hal3idt15init_exceptionsEv+0x190a>
  103116:	05 ca 77 19 00       	add    eax,0x1977ca
  10311b:	0f 82 a7 f2 ff ff    	jb     1023c8 <_ZN2os3hal3idt15init_exceptionsEv+0x18e8>
  103121:	51                   	push   ecx
  103122:	51                   	push   ecx
  103123:	68 ca 77 19 00       	push   0x1977ca
  103128:	68 bc 37 11 00       	push   0x1137bc
  10312d:	e8 3e 99 00 00       	call   10ca70 <__ubsan_handle_type_mismatch>
  103132:	83 c4 10             	add    esp,0x10
  103135:	e9 8e f2 ff ff       	jmp    1023c8 <_ZN2os3hal3idt15init_exceptionsEv+0x18e8>
  10313a:	81 c5 cd 77 19 00    	add    ebp,0x1977cd
  103140:	39 ea                	cmp    edx,ebp
  103142:	0f 87 68 f2 ff ff    	ja     1023b0 <_ZN2os3hal3idt15init_exceptionsEv+0x18d0>
  103148:	55                   	push   ebp
  103149:	55                   	push   ebp
  10314a:	68 cd 77 19 00       	push   0x1977cd
  10314f:	68 d4 37 11 00       	push   0x1137d4
  103154:	e8 17 99 00 00       	call   10ca70 <__ubsan_handle_type_mismatch>
  103159:	83 c4 10             	add    esp,0x10
  10315c:	e9 4f f2 ff ff       	jmp    1023b0 <_ZN2os3hal3idt15init_exceptionsEv+0x18d0>
  103161:	8d 85 cd 77 19 00    	lea    eax,[ebp+0x1977cd]
  103167:	39 c2                	cmp    edx,eax
  103169:	0f 87 1c f2 ff ff    	ja     10238b <_ZN2os3hal3idt15init_exceptionsEv+0x18ab>
  10316f:	89 54 24 0c          	mov    DWORD PTR [esp+0xc],edx
  103173:	50                   	push   eax
  103174:	50                   	push   eax
  103175:	68 cd 77 19 00       	push   0x1977cd
  10317a:	68 ec 37 11 00       	push   0x1137ec
  10317f:	e8 ec 98 00 00       	call   10ca70 <__ubsan_handle_type_mismatch>
  103184:	83 c4 10             	add    esp,0x10
  103187:	8b 54 24 0c          	mov    edx,DWORD PTR [esp+0xc]
  10318b:	e9 fb f1 ff ff       	jmp    10238b <_ZN2os3hal3idt15init_exceptionsEv+0x18ab>
  103190:	8d 85 cd 77 19 00    	lea    eax,[ebp+0x1977cd]
  103196:	39 c2                	cmp    edx,eax
  103198:	0f 87 c8 f1 ff ff    	ja     102366 <_ZN2os3hal3idt15init_exceptionsEv+0x1886>
  10319e:	89 54 24 0c          	mov    DWORD PTR [esp+0xc],edx
  1031a2:	50                   	push   eax
  1031a3:	50                   	push   eax
  1031a4:	68 cd 77 19 00       	push   0x1977cd
  1031a9:	68 04 38 11 00       	push   0x113804
  1031ae:	e8 bd 98 00 00       	call   10ca70 <__ubsan_handle_type_mismatch>
  1031b3:	83 c4 10             	add    esp,0x10
  1031b6:	8b 54 24 0c          	mov    edx,DWORD PTR [esp+0xc]
  1031ba:	e9 a7 f1 ff ff       	jmp    102366 <_ZN2os3hal3idt15init_exceptionsEv+0x1886>
  1031bf:	89 e8                	mov    eax,ebp
  1031c1:	01 d0                	add    eax,edx
  1031c3:	0f 82 7e f1 ff ff    	jb     102347 <_ZN2os3hal3idt15init_exceptionsEv+0x1867>
  1031c9:	89 54 24 0c          	mov    DWORD PTR [esp+0xc],edx
  1031cd:	50                   	push   eax
  1031ce:	50                   	push   eax
  1031cf:	52                   	push   edx
  1031d0:	68 1c 38 11 00       	push   0x11381c
  1031d5:	e8 96 98 00 00       	call   10ca70 <__ubsan_handle_type_mismatch>
  1031da:	83 c4 10             	add    esp,0x10
  1031dd:	8b 54 24 0c          	mov    edx,DWORD PTR [esp+0xc]
  1031e1:	e9 61 f1 ff ff       	jmp    102347 <_ZN2os3hal3idt15init_exceptionsEv+0x1867>
  1031e6:	05 cc 77 19 00       	add    eax,0x1977cc
  1031eb:	0f 82 38 f1 ff ff    	jb     102329 <_ZN2os3hal3idt15init_exceptionsEv+0x1849>
  1031f1:	50                   	push   eax
  1031f2:	50                   	push   eax
  1031f3:	68 cc 77 19 00       	push   0x1977cc
  1031f8:	68 34 38 11 00       	push   0x113834
  1031fd:	e8 6e 98 00 00       	call   10ca70 <__ubsan_handle_type_mismatch>
  103202:	83 c4 10             	add    esp,0x10
  103205:	e9 1f f1 ff ff       	jmp    102329 <_ZN2os3hal3idt15init_exceptionsEv+0x1849>
  10320a:	05 ce 77 19 00       	add    eax,0x1977ce
  10320f:	0f 82 fc f0 ff ff    	jb     102311 <_ZN2os3hal3idt15init_exceptionsEv+0x1831>
  103215:	50                   	push   eax
  103216:	50                   	push   eax
  103217:	68 ce 77 19 00       	push   0x1977ce
  10321c:	68 4c 38 11 00       	push   0x11384c
  103221:	e8 4a 98 00 00       	call   10ca70 <__ubsan_handle_type_mismatch>
  103226:	83 c4 10             	add    esp,0x10
  103229:	e9 e3 f0 ff ff       	jmp    102311 <_ZN2os3hal3idt15init_exceptionsEv+0x1831>
  10322e:	05 c8 77 19 00       	add    eax,0x1977c8
  103233:	0f 82 bd f0 ff ff    	jb     1022f6 <_ZN2os3hal3idt15init_exceptionsEv+0x1816>
  103239:	50                   	push   eax
  10323a:	50                   	push   eax
  10323b:	68 c8 77 19 00       	push   0x1977c8
  103240:	68 64 38 11 00       	push   0x113864
  103245:	e8 26 98 00 00       	call   10ca70 <__ubsan_handle_type_mismatch>
  10324a:	83 c4 10             	add    esp,0x10
  10324d:	e9 a4 f0 ff ff       	jmp    1022f6 <_ZN2os3hal3idt15init_exceptionsEv+0x1816>
  103252:	05 c2 77 19 00       	add    eax,0x1977c2
  103257:	0f 82 77 f0 ff ff    	jb     1022d4 <_ZN2os3hal3idt15init_exceptionsEv+0x17f4>
  10325d:	51                   	push   ecx
  10325e:	51                   	push   ecx
  10325f:	68 c2 77 19 00       	push   0x1977c2
  103264:	68 7c 38 11 00       	push   0x11387c
  103269:	e8 02 98 00 00       	call   10ca70 <__ubsan_handle_type_mismatch>
  10326e:	83 c4 10             	add    esp,0x10
  103271:	e9 5e f0 ff ff       	jmp    1022d4 <_ZN2os3hal3idt15init_exceptionsEv+0x17f4>
  103276:	81 c5 c5 77 19 00    	add    ebp,0x1977c5
  10327c:	39 ea                	cmp    edx,ebp
  10327e:	0f 87 38 f0 ff ff    	ja     1022bc <_ZN2os3hal3idt15init_exceptionsEv+0x17dc>
  103284:	55                   	push   ebp
  103285:	55                   	push   ebp
  103286:	68 c5 77 19 00       	push   0x1977c5
  10328b:	68 94 38 11 00       	push   0x113894
  103290:	e8 db 97 00 00       	call   10ca70 <__ubsan_handle_type_mismatch>
  103295:	83 c4 10             	add    esp,0x10
  103298:	e9 1f f0 ff ff       	jmp    1022bc <_ZN2os3hal3idt15init_exceptionsEv+0x17dc>
  10329d:	8d 85 c5 77 19 00    	lea    eax,[ebp+0x1977c5]
  1032a3:	39 c2                	cmp    edx,eax
  1032a5:	0f 87 ec ef ff ff    	ja     102297 <_ZN2os3hal3idt15init_exceptionsEv+0x17b7>
  1032ab:	89 54 24 0c          	mov    DWORD PTR [esp+0xc],edx
  1032af:	50                   	push   eax
  1032b0:	50                   	push   eax
  1032b1:	68 c5 77 19 00       	push   0x1977c5
  1032b6:	68 ac 38 11 00       	push   0x1138ac
  1032bb:	e8 b0 97 00 00       	call   10ca70 <__ubsan_handle_type_mismatch>
  1032c0:	83 c4 10             	add    esp,0x10
  1032c3:	8b 54 24 0c          	mov    edx,DWORD PTR [esp+0xc]
  1032c7:	e9 cb ef ff ff       	jmp    102297 <_ZN2os3hal3idt15init_exceptionsEv+0x17b7>
  1032cc:	8d 85 c5 77 19 00    	lea    eax,[ebp+0x1977c5]
  1032d2:	39 c2                	cmp    edx,eax
  1032d4:	0f 87 98 ef ff ff    	ja     102272 <_ZN2os3hal3idt15init_exceptionsEv+0x1792>
  1032da:	89 54 24 0c          	mov    DWORD PTR [esp+0xc],edx
  1032de:	50                   	push   eax
  1032df:	50                   	push   eax
  1032e0:	68 c5 77 19 00       	push   0x1977c5
  1032e5:	68 c4 38 11 00       	push   0x1138c4
  1032ea:	e8 81 97 00 00       	call   10ca70 <__ubsan_handle_type_mismatch>
  1032ef:	83 c4 10             	add    esp,0x10
  1032f2:	8b 54 24 0c          	mov    edx,DWORD PTR [esp+0xc]
  1032f6:	e9 77 ef ff ff       	jmp    102272 <_ZN2os3hal3idt15init_exceptionsEv+0x1792>
  1032fb:	89 e8                	mov    eax,ebp
  1032fd:	01 d0                	add    eax,edx
  1032ff:	0f 82 4e ef ff ff    	jb     102253 <_ZN2os3hal3idt15init_exceptionsEv+0x1773>
  103305:	89 54 24 0c          	mov    DWORD PTR [esp+0xc],edx
  103309:	50                   	push   eax
  10330a:	50                   	push   eax
  10330b:	52                   	push   edx
  10330c:	68 dc 38 11 00       	push   0x1138dc
  103311:	e8 5a 97 00 00       	call   10ca70 <__ubsan_handle_type_mismatch>
  103316:	83 c4 10             	add    esp,0x10
  103319:	8b 54 24 0c          	mov    edx,DWORD PTR [esp+0xc]
  10331d:	e9 31 ef ff ff       	jmp    102253 <_ZN2os3hal3idt15init_exceptionsEv+0x1773>
  103322:	05 c4 77 19 00       	add    eax,0x1977c4
  103327:	0f 82 08 ef ff ff    	jb     102235 <_ZN2os3hal3idt15init_exceptionsEv+0x1755>
  10332d:	50                   	push   eax
  10332e:	50                   	push   eax
  10332f:	68 c4 77 19 00       	push   0x1977c4
  103334:	68 f4 38 11 00       	push   0x1138f4
  103339:	e8 32 97 00 00       	call   10ca70 <__ubsan_handle_type_mismatch>
  10333e:	83 c4 10             	add    esp,0x10
  103341:	e9 ef ee ff ff       	jmp    102235 <_ZN2os3hal3idt15init_exceptionsEv+0x1755>
  103346:	05 c6 77 19 00       	add    eax,0x1977c6
  10334b:	0f 82 cc ee ff ff    	jb     10221d <_ZN2os3hal3idt15init_exceptionsEv+0x173d>
  103351:	50                   	push   eax
  103352:	50                   	push   eax
  103353:	68 c6 77 19 00       	push   0x1977c6
  103358:	68 0c 39 11 00       	push   0x11390c
  10335d:	e8 0e 97 00 00       	call   10ca70 <__ubsan_handle_type_mismatch>
  103362:	83 c4 10             	add    esp,0x10
  103365:	e9 b3 ee ff ff       	jmp    10221d <_ZN2os3hal3idt15init_exceptionsEv+0x173d>
  10336a:	05 c0 77 19 00       	add    eax,0x1977c0
  10336f:	0f 82 8d ee ff ff    	jb     102202 <_ZN2os3hal3idt15init_exceptionsEv+0x1722>
  103375:	50                   	push   eax
  103376:	50                   	push   eax
  103377:	68 c0 77 19 00       	push   0x1977c0
  10337c:	68 24 39 11 00       	push   0x113924
  103381:	e8 ea 96 00 00       	call   10ca70 <__ubsan_handle_type_mismatch>
  103386:	83 c4 10             	add    esp,0x10
  103389:	e9 74 ee ff ff       	jmp    102202 <_ZN2os3hal3idt15init_exceptionsEv+0x1722>
  10338e:	05 ba 77 19 00       	add    eax,0x1977ba
  103393:	0f 82 47 ee ff ff    	jb     1021e0 <_ZN2os3hal3idt15init_exceptionsEv+0x1700>
  103399:	51                   	push   ecx
  10339a:	51                   	push   ecx
  10339b:	68 ba 77 19 00       	push   0x1977ba
  1033a0:	68 3c 39 11 00       	push   0x11393c
  1033a5:	e8 c6 96 00 00       	call   10ca70 <__ubsan_handle_type_mismatch>
  1033aa:	83 c4 10             	add    esp,0x10
  1033ad:	e9 2e ee ff ff       	jmp    1021e0 <_ZN2os3hal3idt15init_exceptionsEv+0x1700>
  1033b2:	81 c5 bd 77 19 00    	add    ebp,0x1977bd
  1033b8:	39 ea                	cmp    edx,ebp
  1033ba:	0f 87 08 ee ff ff    	ja     1021c8 <_ZN2os3hal3idt15init_exceptionsEv+0x16e8>
  1033c0:	55                   	push   ebp
  1033c1:	55                   	push   ebp
  1033c2:	68 bd 77 19 00       	push   0x1977bd
  1033c7:	68 54 39 11 00       	push   0x113954
  1033cc:	e8 9f 96 00 00       	call   10ca70 <__ubsan_handle_type_mismatch>
  1033d1:	83 c4 10             	add    esp,0x10
  1033d4:	e9 ef ed ff ff       	jmp    1021c8 <_ZN2os3hal3idt15init_exceptionsEv+0x16e8>
  1033d9:	8d 85 bd 77 19 00    	lea    eax,[ebp+0x1977bd]
  1033df:	39 c2                	cmp    edx,eax
  1033e1:	0f 87 bc ed ff ff    	ja     1021a3 <_ZN2os3hal3idt15init_exceptionsEv+0x16c3>
  1033e7:	89 54 24 0c          	mov    DWORD PTR [esp+0xc],edx
  1033eb:	50                   	push   eax
  1033ec:	50                   	push   eax
  1033ed:	68 bd 77 19 00       	push   0x1977bd
  1033f2:	68 6c 39 11 00       	push   0x11396c
  1033f7:	e8 74 96 00 00       	call   10ca70 <__ubsan_handle_type_mismatch>
  1033fc:	83 c4 10             	add    esp,0x10
  1033ff:	8b 54 24 0c          	mov    edx,DWORD PTR [esp+0xc]
  103403:	e9 9b ed ff ff       	jmp    1021a3 <_ZN2os3hal3idt15init_exceptionsEv+0x16c3>
  103408:	8d 85 bd 77 19 00    	lea    eax,[ebp+0x1977bd]
  10340e:	39 c2                	cmp    edx,eax
  103410:	0f 87 68 ed ff ff    	ja     10217e <_ZN2os3hal3idt15init_exceptionsEv+0x169e>
  103416:	89 54 24 0c          	mov    DWORD PTR [esp+0xc],edx
  10341a:	50                   	push   eax
  10341b:	50                   	push   eax
  10341c:	68 bd 77 19 00       	push   0x1977bd
  103421:	68 84 39 11 00       	push   0x113984
  103426:	e8 45 96 00 00       	call   10ca70 <__ubsan_handle_type_mismatch>
  10342b:	83 c4 10             	add    esp,0x10
  10342e:	8b 54 24 0c          	mov    edx,DWORD PTR [esp+0xc]
  103432:	e9 47 ed ff ff       	jmp    10217e <_ZN2os3hal3idt15init_exceptionsEv+0x169e>
  103437:	89 e8                	mov    eax,ebp
  103439:	01 d0                	add    eax,edx
  10343b:	0f 82 1e ed ff ff    	jb     10215f <_ZN2os3hal3idt15init_exceptionsEv+0x167f>
  103441:	89 54 24 0c          	mov    DWORD PTR [esp+0xc],edx
  103445:	50                   	push   eax
  103446:	50                   	push   eax
  103447:	52                   	push   edx
  103448:	68 9c 39 11 00       	push   0x11399c
  10344d:	e8 1e 96 00 00       	call   10ca70 <__ubsan_handle_type_mismatch>
  103452:	83 c4 10             	add    esp,0x10
  103455:	8b 54 24 0c          	mov    edx,DWORD PTR [esp+0xc]
  103459:	e9 01 ed ff ff       	jmp    10215f <_ZN2os3hal3idt15init_exceptionsEv+0x167f>
  10345e:	05 bc 77 19 00       	add    eax,0x1977bc
  103463:	0f 82 d8 ec ff ff    	jb     102141 <_ZN2os3hal3idt15init_exceptionsEv+0x1661>
  103469:	50                   	push   eax
  10346a:	50                   	push   eax
  10346b:	68 bc 77 19 00       	push   0x1977bc
  103470:	68 b4 39 11 00       	push   0x1139b4
  103475:	e8 f6 95 00 00       	call   10ca70 <__ubsan_handle_type_mismatch>
  10347a:	83 c4 10             	add    esp,0x10
  10347d:	e9 bf ec ff ff       	jmp    102141 <_ZN2os3hal3idt15init_exceptionsEv+0x1661>
  103482:	05 be 77 19 00       	add    eax,0x1977be
  103487:	0f 82 9c ec ff ff    	jb     102129 <_ZN2os3hal3idt15init_exceptionsEv+0x1649>
  10348d:	50                   	push   eax
  10348e:	50                   	push   eax
  10348f:	68 be 77 19 00       	push   0x1977be
  103494:	68 cc 39 11 00       	push   0x1139cc
  103499:	e8 d2 95 00 00       	call   10ca70 <__ubsan_handle_type_mismatch>
  10349e:	83 c4 10             	add    esp,0x10
  1034a1:	e9 83 ec ff ff       	jmp    102129 <_ZN2os3hal3idt15init_exceptionsEv+0x1649>
  1034a6:	05 b8 77 19 00       	add    eax,0x1977b8
  1034ab:	0f 82 5d ec ff ff    	jb     10210e <_ZN2os3hal3idt15init_exceptionsEv+0x162e>
  1034b1:	50                   	push   eax
  1034b2:	50                   	push   eax
  1034b3:	68 b8 77 19 00       	push   0x1977b8
  1034b8:	68 e4 39 11 00       	push   0x1139e4
  1034bd:	e8 ae 95 00 00       	call   10ca70 <__ubsan_handle_type_mismatch>
  1034c2:	83 c4 10             	add    esp,0x10
  1034c5:	e9 44 ec ff ff       	jmp    10210e <_ZN2os3hal3idt15init_exceptionsEv+0x162e>
  1034ca:	05 b2 77 19 00       	add    eax,0x1977b2
  1034cf:	0f 82 17 ec ff ff    	jb     1020ec <_ZN2os3hal3idt15init_exceptionsEv+0x160c>
  1034d5:	51                   	push   ecx
  1034d6:	51                   	push   ecx
  1034d7:	68 b2 77 19 00       	push   0x1977b2
  1034dc:	68 fc 39 11 00       	push   0x1139fc
  1034e1:	e8 8a 95 00 00       	call   10ca70 <__ubsan_handle_type_mismatch>
  1034e6:	83 c4 10             	add    esp,0x10
  1034e9:	e9 fe eb ff ff       	jmp    1020ec <_ZN2os3hal3idt15init_exceptionsEv+0x160c>
  1034ee:	81 c5 b5 77 19 00    	add    ebp,0x1977b5
  1034f4:	39 ea                	cmp    edx,ebp
  1034f6:	0f 87 d8 eb ff ff    	ja     1020d4 <_ZN2os3hal3idt15init_exceptionsEv+0x15f4>
  1034fc:	55                   	push   ebp
  1034fd:	55                   	push   ebp
  1034fe:	68 b5 77 19 00       	push   0x1977b5
  103503:	68 14 3a 11 00       	push   0x113a14
  103508:	e8 63 95 00 00       	call   10ca70 <__ubsan_handle_type_mismatch>
  10350d:	83 c4 10             	add    esp,0x10
  103510:	e9 bf eb ff ff       	jmp    1020d4 <_ZN2os3hal3idt15init_exceptionsEv+0x15f4>
  103515:	8d 85 b5 77 19 00    	lea    eax,[ebp+0x1977b5]
  10351b:	39 c2                	cmp    edx,eax
  10351d:	0f 87 8c eb ff ff    	ja     1020af <_ZN2os3hal3idt15init_exceptionsEv+0x15cf>
  103523:	89 54 24 0c          	mov    DWORD PTR [esp+0xc],edx
  103527:	50                   	push   eax
  103528:	50                   	push   eax
  103529:	68 b5 77 19 00       	push   0x1977b5
  10352e:	68 2c 3a 11 00       	push   0x113a2c
  103533:	e8 38 95 00 00       	call   10ca70 <__ubsan_handle_type_mismatch>
  103538:	83 c4 10             	add    esp,0x10
  10353b:	8b 54 24 0c          	mov    edx,DWORD PTR [esp+0xc]
  10353f:	e9 6b eb ff ff       	jmp    1020af <_ZN2os3hal3idt15init_exceptionsEv+0x15cf>
  103544:	8d 85 b5 77 19 00    	lea    eax,[ebp+0x1977b5]
  10354a:	39 c2                	cmp    edx,eax
  10354c:	0f 87 38 eb ff ff    	ja     10208a <_ZN2os3hal3idt15init_exceptionsEv+0x15aa>
  103552:	89 54 24 0c          	mov    DWORD PTR [esp+0xc],edx
  103556:	50                   	push   eax
  103557:	50                   	push   eax
  103558:	68 b5 77 19 00       	push   0x1977b5
  10355d:	68 44 3a 11 00       	push   0x113a44
  103562:	e8 09 95 00 00       	call   10ca70 <__ubsan_handle_type_mismatch>
  103567:	83 c4 10             	add    esp,0x10
  10356a:	8b 54 24 0c          	mov    edx,DWORD PTR [esp+0xc]
  10356e:	e9 17 eb ff ff       	jmp    10208a <_ZN2os3hal3idt15init_exceptionsEv+0x15aa>
  103573:	89 e8                	mov    eax,ebp
  103575:	01 d0                	add    eax,edx
  103577:	0f 82 ee ea ff ff    	jb     10206b <_ZN2os3hal3idt15init_exceptionsEv+0x158b>
  10357d:	89 54 24 0c          	mov    DWORD PTR [esp+0xc],edx
  103581:	50                   	push   eax
  103582:	50                   	push   eax
  103583:	52                   	push   edx
  103584:	68 5c 3a 11 00       	push   0x113a5c
  103589:	e8 e2 94 00 00       	call   10ca70 <__ubsan_handle_type_mismatch>
  10358e:	83 c4 10             	add    esp,0x10
  103591:	8b 54 24 0c          	mov    edx,DWORD PTR [esp+0xc]
  103595:	e9 d1 ea ff ff       	jmp    10206b <_ZN2os3hal3idt15init_exceptionsEv+0x158b>
  10359a:	05 b4 77 19 00       	add    eax,0x1977b4
  10359f:	0f 82 a8 ea ff ff    	jb     10204d <_ZN2os3hal3idt15init_exceptionsEv+0x156d>
  1035a5:	50                   	push   eax
  1035a6:	50                   	push   eax
  1035a7:	68 b4 77 19 00       	push   0x1977b4
  1035ac:	68 74 3a 11 00       	push   0x113a74
  1035b1:	e8 ba 94 00 00       	call   10ca70 <__ubsan_handle_type_mismatch>
  1035b6:	83 c4 10             	add    esp,0x10
  1035b9:	e9 8f ea ff ff       	jmp    10204d <_ZN2os3hal3idt15init_exceptionsEv+0x156d>
  1035be:	05 b6 77 19 00       	add    eax,0x1977b6
  1035c3:	0f 82 6c ea ff ff    	jb     102035 <_ZN2os3hal3idt15init_exceptionsEv+0x1555>
  1035c9:	50                   	push   eax
  1035ca:	50                   	push   eax
  1035cb:	68 b6 77 19 00       	push   0x1977b6
  1035d0:	68 8c 3a 11 00       	push   0x113a8c
  1035d5:	e8 96 94 00 00       	call   10ca70 <__ubsan_handle_type_mismatch>
  1035da:	83 c4 10             	add    esp,0x10
  1035dd:	e9 53 ea ff ff       	jmp    102035 <_ZN2os3hal3idt15init_exceptionsEv+0x1555>
  1035e2:	05 b0 77 19 00       	add    eax,0x1977b0
  1035e7:	0f 82 2d ea ff ff    	jb     10201a <_ZN2os3hal3idt15init_exceptionsEv+0x153a>
  1035ed:	50                   	push   eax
  1035ee:	50                   	push   eax
  1035ef:	68 b0 77 19 00       	push   0x1977b0
  1035f4:	68 a4 3a 11 00       	push   0x113aa4
  1035f9:	e8 72 94 00 00       	call   10ca70 <__ubsan_handle_type_mismatch>
  1035fe:	83 c4 10             	add    esp,0x10
  103601:	e9 14 ea ff ff       	jmp    10201a <_ZN2os3hal3idt15init_exceptionsEv+0x153a>
  103606:	05 aa 77 19 00       	add    eax,0x1977aa
  10360b:	0f 82 e7 e9 ff ff    	jb     101ff8 <_ZN2os3hal3idt15init_exceptionsEv+0x1518>
  103611:	51                   	push   ecx
  103612:	51                   	push   ecx
  103613:	68 aa 77 19 00       	push   0x1977aa
  103618:	68 bc 3a 11 00       	push   0x113abc
  10361d:	e8 4e 94 00 00       	call   10ca70 <__ubsan_handle_type_mismatch>
  103622:	83 c4 10             	add    esp,0x10
  103625:	e9 ce e9 ff ff       	jmp    101ff8 <_ZN2os3hal3idt15init_exceptionsEv+0x1518>
  10362a:	81 c5 ad 77 19 00    	add    ebp,0x1977ad
  103630:	39 ea                	cmp    edx,ebp
  103632:	0f 87 a8 e9 ff ff    	ja     101fe0 <_ZN2os3hal3idt15init_exceptionsEv+0x1500>
  103638:	55                   	push   ebp
  103639:	55                   	push   ebp
  10363a:	68 ad 77 19 00       	push   0x1977ad
  10363f:	68 d4 3a 11 00       	push   0x113ad4
  103644:	e8 27 94 00 00       	call   10ca70 <__ubsan_handle_type_mismatch>
  103649:	83 c4 10             	add    esp,0x10
  10364c:	e9 8f e9 ff ff       	jmp    101fe0 <_ZN2os3hal3idt15init_exceptionsEv+0x1500>
  103651:	8d 85 ad 77 19 00    	lea    eax,[ebp+0x1977ad]
  103657:	39 c2                	cmp    edx,eax
  103659:	0f 87 5c e9 ff ff    	ja     101fbb <_ZN2os3hal3idt15init_exceptionsEv+0x14db>
  10365f:	89 54 24 0c          	mov    DWORD PTR [esp+0xc],edx
  103663:	50                   	push   eax
  103664:	50                   	push   eax
  103665:	68 ad 77 19 00       	push   0x1977ad
  10366a:	68 ec 3a 11 00       	push   0x113aec
  10366f:	e8 fc 93 00 00       	call   10ca70 <__ubsan_handle_type_mismatch>
  103674:	83 c4 10             	add    esp,0x10
  103677:	8b 54 24 0c          	mov    edx,DWORD PTR [esp+0xc]
  10367b:	e9 3b e9 ff ff       	jmp    101fbb <_ZN2os3hal3idt15init_exceptionsEv+0x14db>
  103680:	8d 85 ad 77 19 00    	lea    eax,[ebp+0x1977ad]
  103686:	39 c2                	cmp    edx,eax
  103688:	0f 87 08 e9 ff ff    	ja     101f96 <_ZN2os3hal3idt15init_exceptionsEv+0x14b6>
  10368e:	89 54 24 0c          	mov    DWORD PTR [esp+0xc],edx
  103692:	50                   	push   eax
  103693:	50                   	push   eax
  103694:	68 ad 77 19 00       	push   0x1977ad
  103699:	68 04 3b 11 00       	push   0x113b04
  10369e:	e8 cd 93 00 00       	call   10ca70 <__ubsan_handle_type_mismatch>
  1036a3:	83 c4 10             	add    esp,0x10
  1036a6:	8b 54 24 0c          	mov    edx,DWORD PTR [esp+0xc]
  1036aa:	e9 e7 e8 ff ff       	jmp    101f96 <_ZN2os3hal3idt15init_exceptionsEv+0x14b6>
  1036af:	89 e8                	mov    eax,ebp
  1036b1:	01 d0                	add    eax,edx
  1036b3:	0f 82 be e8 ff ff    	jb     101f77 <_ZN2os3hal3idt15init_exceptionsEv+0x1497>
  1036b9:	89 54 24 0c          	mov    DWORD PTR [esp+0xc],edx
  1036bd:	50                   	push   eax
  1036be:	50                   	push   eax
  1036bf:	52                   	push   edx
  1036c0:	68 1c 3b 11 00       	push   0x113b1c
  1036c5:	e8 a6 93 00 00       	call   10ca70 <__ubsan_handle_type_mismatch>
  1036ca:	83 c4 10             	add    esp,0x10
  1036cd:	8b 54 24 0c          	mov    edx,DWORD PTR [esp+0xc]
  1036d1:	e9 a1 e8 ff ff       	jmp    101f77 <_ZN2os3hal3idt15init_exceptionsEv+0x1497>
  1036d6:	05 ac 77 19 00       	add    eax,0x1977ac
  1036db:	0f 82 78 e8 ff ff    	jb     101f59 <_ZN2os3hal3idt15init_exceptionsEv+0x1479>
  1036e1:	50                   	push   eax
  1036e2:	50                   	push   eax
  1036e3:	68 ac 77 19 00       	push   0x1977ac
  1036e8:	68 34 3b 11 00       	push   0x113b34
  1036ed:	e8 7e 93 00 00       	call   10ca70 <__ubsan_handle_type_mismatch>
  1036f2:	83 c4 10             	add    esp,0x10
  1036f5:	e9 5f e8 ff ff       	jmp    101f59 <_ZN2os3hal3idt15init_exceptionsEv+0x1479>
  1036fa:	05 ae 77 19 00       	add    eax,0x1977ae
  1036ff:	0f 82 3c e8 ff ff    	jb     101f41 <_ZN2os3hal3idt15init_exceptionsEv+0x1461>
  103705:	50                   	push   eax
  103706:	50                   	push   eax
  103707:	68 ae 77 19 00       	push   0x1977ae
  10370c:	68 4c 3b 11 00       	push   0x113b4c
  103711:	e8 5a 93 00 00       	call   10ca70 <__ubsan_handle_type_mismatch>
  103716:	83 c4 10             	add    esp,0x10
  103719:	e9 23 e8 ff ff       	jmp    101f41 <_ZN2os3hal3idt15init_exceptionsEv+0x1461>
  10371e:	05 a8 77 19 00       	add    eax,0x1977a8
  103723:	0f 82 fd e7 ff ff    	jb     101f26 <_ZN2os3hal3idt15init_exceptionsEv+0x1446>
  103729:	50                   	push   eax
  10372a:	50                   	push   eax
  10372b:	68 a8 77 19 00       	push   0x1977a8
  103730:	68 64 3b 11 00       	push   0x113b64
  103735:	e8 36 93 00 00       	call   10ca70 <__ubsan_handle_type_mismatch>
  10373a:	83 c4 10             	add    esp,0x10
  10373d:	e9 e4 e7 ff ff       	jmp    101f26 <_ZN2os3hal3idt15init_exceptionsEv+0x1446>
  103742:	05 a2 77 19 00       	add    eax,0x1977a2
  103747:	0f 82 b7 e7 ff ff    	jb     101f04 <_ZN2os3hal3idt15init_exceptionsEv+0x1424>
  10374d:	51                   	push   ecx
  10374e:	51                   	push   ecx
  10374f:	68 a2 77 19 00       	push   0x1977a2
  103754:	68 7c 3b 11 00       	push   0x113b7c
  103759:	e8 12 93 00 00       	call   10ca70 <__ubsan_handle_type_mismatch>
  10375e:	83 c4 10             	add    esp,0x10
  103761:	e9 9e e7 ff ff       	jmp    101f04 <_ZN2os3hal3idt15init_exceptionsEv+0x1424>
  103766:	81 c5 a5 77 19 00    	add    ebp,0x1977a5
  10376c:	39 ea                	cmp    edx,ebp
  10376e:	0f 87 78 e7 ff ff    	ja     101eec <_ZN2os3hal3idt15init_exceptionsEv+0x140c>
  103774:	55                   	push   ebp
  103775:	55                   	push   ebp
  103776:	68 a5 77 19 00       	push   0x1977a5
  10377b:	68 94 3b 11 00       	push   0x113b94
  103780:	e8 eb 92 00 00       	call   10ca70 <__ubsan_handle_type_mismatch>
  103785:	83 c4 10             	add    esp,0x10
  103788:	e9 5f e7 ff ff       	jmp    101eec <_ZN2os3hal3idt15init_exceptionsEv+0x140c>
  10378d:	8d 85 a5 77 19 00    	lea    eax,[ebp+0x1977a5]
  103793:	39 c2                	cmp    edx,eax
  103795:	0f 87 2c e7 ff ff    	ja     101ec7 <_ZN2os3hal3idt15init_exceptionsEv+0x13e7>
  10379b:	89 54 24 0c          	mov    DWORD PTR [esp+0xc],edx
  10379f:	50                   	push   eax
  1037a0:	50                   	push   eax
  1037a1:	68 a5 77 19 00       	push   0x1977a5
  1037a6:	68 ac 3b 11 00       	push   0x113bac
  1037ab:	e8 c0 92 00 00       	call   10ca70 <__ubsan_handle_type_mismatch>
  1037b0:	83 c4 10             	add    esp,0x10
  1037b3:	8b 54 24 0c          	mov    edx,DWORD PTR [esp+0xc]
  1037b7:	e9 0b e7 ff ff       	jmp    101ec7 <_ZN2os3hal3idt15init_exceptionsEv+0x13e7>
  1037bc:	8d 85 a5 77 19 00    	lea    eax,[ebp+0x1977a5]
  1037c2:	39 c2                	cmp    edx,eax
  1037c4:	0f 87 d8 e6 ff ff    	ja     101ea2 <_ZN2os3hal3idt15init_exceptionsEv+0x13c2>
  1037ca:	89 54 24 0c          	mov    DWORD PTR [esp+0xc],edx
  1037ce:	50                   	push   eax
  1037cf:	50                   	push   eax
  1037d0:	68 a5 77 19 00       	push   0x1977a5
  1037d5:	68 c4 3b 11 00       	push   0x113bc4
  1037da:	e8 91 92 00 00       	call   10ca70 <__ubsan_handle_type_mismatch>
  1037df:	83 c4 10             	add    esp,0x10
  1037e2:	8b 54 24 0c          	mov    edx,DWORD PTR [esp+0xc]
  1037e6:	e9 b7 e6 ff ff       	jmp    101ea2 <_ZN2os3hal3idt15init_exceptionsEv+0x13c2>
  1037eb:	89 e8                	mov    eax,ebp
  1037ed:	01 d0                	add    eax,edx
  1037ef:	0f 82 8e e6 ff ff    	jb     101e83 <_ZN2os3hal3idt15init_exceptionsEv+0x13a3>
  1037f5:	89 54 24 0c          	mov    DWORD PTR [esp+0xc],edx
  1037f9:	50                   	push   eax
  1037fa:	50                   	push   eax
  1037fb:	52                   	push   edx
  1037fc:	68 dc 3b 11 00       	push   0x113bdc
  103801:	e8 6a 92 00 00       	call   10ca70 <__ubsan_handle_type_mismatch>
  103806:	83 c4 10             	add    esp,0x10
  103809:	8b 54 24 0c          	mov    edx,DWORD PTR [esp+0xc]
  10380d:	e9 71 e6 ff ff       	jmp    101e83 <_ZN2os3hal3idt15init_exceptionsEv+0x13a3>
  103812:	05 a4 77 19 00       	add    eax,0x1977a4
  103817:	0f 82 48 e6 ff ff    	jb     101e65 <_ZN2os3hal3idt15init_exceptionsEv+0x1385>
  10381d:	50                   	push   eax
  10381e:	50                   	push   eax
  10381f:	68 a4 77 19 00       	push   0x1977a4
  103824:	68 f4 3b 11 00       	push   0x113bf4
  103829:	e8 42 92 00 00       	call   10ca70 <__ubsan_handle_type_mismatch>
  10382e:	83 c4 10             	add    esp,0x10
  103831:	e9 2f e6 ff ff       	jmp    101e65 <_ZN2os3hal3idt15init_exceptionsEv+0x1385>
  103836:	05 a6 77 19 00       	add    eax,0x1977a6
  10383b:	0f 82 0c e6 ff ff    	jb     101e4d <_ZN2os3hal3idt15init_exceptionsEv+0x136d>
  103841:	50                   	push   eax
  103842:	50                   	push   eax
  103843:	68 a6 77 19 00       	push   0x1977a6
  103848:	68 0c 3c 11 00       	push   0x113c0c
  10384d:	e8 1e 92 00 00       	call   10ca70 <__ubsan_handle_type_mismatch>
  103852:	83 c4 10             	add    esp,0x10
  103855:	e9 f3 e5 ff ff       	jmp    101e4d <_ZN2os3hal3idt15init_exceptionsEv+0x136d>
  10385a:	05 a0 77 19 00       	add    eax,0x1977a0
  10385f:	0f 82 cd e5 ff ff    	jb     101e32 <_ZN2os3hal3idt15init_exceptionsEv+0x1352>
  103865:	50                   	push   eax
  103866:	50                   	push   eax
  103867:	68 a0 77 19 00       	push   0x1977a0
  10386c:	68 24 3c 11 00       	push   0x113c24
  103871:	e8 fa 91 00 00       	call   10ca70 <__ubsan_handle_type_mismatch>
  103876:	83 c4 10             	add    esp,0x10
  103879:	e9 b4 e5 ff ff       	jmp    101e32 <_ZN2os3hal3idt15init_exceptionsEv+0x1352>
  10387e:	05 9a 77 19 00       	add    eax,0x19779a
  103883:	0f 82 87 e5 ff ff    	jb     101e10 <_ZN2os3hal3idt15init_exceptionsEv+0x1330>
  103889:	51                   	push   ecx
  10388a:	51                   	push   ecx
  10388b:	68 9a 77 19 00       	push   0x19779a
  103890:	68 3c 3c 11 00       	push   0x113c3c
  103895:	e8 d6 91 00 00       	call   10ca70 <__ubsan_handle_type_mismatch>
  10389a:	83 c4 10             	add    esp,0x10
  10389d:	e9 6e e5 ff ff       	jmp    101e10 <_ZN2os3hal3idt15init_exceptionsEv+0x1330>
  1038a2:	81 c5 9d 77 19 00    	add    ebp,0x19779d
  1038a8:	39 ea                	cmp    edx,ebp
  1038aa:	0f 87 48 e5 ff ff    	ja     101df8 <_ZN2os3hal3idt15init_exceptionsEv+0x1318>
  1038b0:	55                   	push   ebp
  1038b1:	55                   	push   ebp
  1038b2:	68 9d 77 19 00       	push   0x19779d
  1038b7:	68 54 3c 11 00       	push   0x113c54
  1038bc:	e8 af 91 00 00       	call   10ca70 <__ubsan_handle_type_mismatch>
  1038c1:	83 c4 10             	add    esp,0x10
  1038c4:	e9 2f e5 ff ff       	jmp    101df8 <_ZN2os3hal3idt15init_exceptionsEv+0x1318>
  1038c9:	8d 85 9d 77 19 00    	lea    eax,[ebp+0x19779d]
  1038cf:	39 c2                	cmp    edx,eax
  1038d1:	0f 87 fc e4 ff ff    	ja     101dd3 <_ZN2os3hal3idt15init_exceptionsEv+0x12f3>
  1038d7:	89 54 24 0c          	mov    DWORD PTR [esp+0xc],edx
  1038db:	50                   	push   eax
  1038dc:	50                   	push   eax
  1038dd:	68 9d 77 19 00       	push   0x19779d
  1038e2:	68 6c 3c 11 00       	push   0x113c6c
  1038e7:	e8 84 91 00 00       	call   10ca70 <__ubsan_handle_type_mismatch>
  1038ec:	83 c4 10             	add    esp,0x10
  1038ef:	8b 54 24 0c          	mov    edx,DWORD PTR [esp+0xc]
  1038f3:	e9 db e4 ff ff       	jmp    101dd3 <_ZN2os3hal3idt15init_exceptionsEv+0x12f3>
  1038f8:	8d 85 9d 77 19 00    	lea    eax,[ebp+0x19779d]
  1038fe:	39 c2                	cmp    edx,eax
  103900:	0f 87 a8 e4 ff ff    	ja     101dae <_ZN2os3hal3idt15init_exceptionsEv+0x12ce>
  103906:	89 54 24 0c          	mov    DWORD PTR [esp+0xc],edx
  10390a:	50                   	push   eax
  10390b:	50                   	push   eax
  10390c:	68 9d 77 19 00       	push   0x19779d
  103911:	68 84 3c 11 00       	push   0x113c84
  103916:	e8 55 91 00 00       	call   10ca70 <__ubsan_handle_type_mismatch>
  10391b:	83 c4 10             	add    esp,0x10
  10391e:	8b 54 24 0c          	mov    edx,DWORD PTR [esp+0xc]
  103922:	e9 87 e4 ff ff       	jmp    101dae <_ZN2os3hal3idt15init_exceptionsEv+0x12ce>
  103927:	89 e8                	mov    eax,ebp
  103929:	01 d0                	add    eax,edx
  10392b:	0f 82 5e e4 ff ff    	jb     101d8f <_ZN2os3hal3idt15init_exceptionsEv+0x12af>
  103931:	89 54 24 0c          	mov    DWORD PTR [esp+0xc],edx
  103935:	50                   	push   eax
  103936:	50                   	push   eax
  103937:	52                   	push   edx
  103938:	68 9c 3c 11 00       	push   0x113c9c
  10393d:	e8 2e 91 00 00       	call   10ca70 <__ubsan_handle_type_mismatch>
  103942:	83 c4 10             	add    esp,0x10
  103945:	8b 54 24 0c          	mov    edx,DWORD PTR [esp+0xc]
  103949:	e9 41 e4 ff ff       	jmp    101d8f <_ZN2os3hal3idt15init_exceptionsEv+0x12af>
  10394e:	05 9c 77 19 00       	add    eax,0x19779c
  103953:	0f 82 18 e4 ff ff    	jb     101d71 <_ZN2os3hal3idt15init_exceptionsEv+0x1291>
  103959:	50                   	push   eax
  10395a:	50                   	push   eax
  10395b:	68 9c 77 19 00       	push   0x19779c
  103960:	68 b4 3c 11 00       	push   0x113cb4
  103965:	e8 06 91 00 00       	call   10ca70 <__ubsan_handle_type_mismatch>
  10396a:	83 c4 10             	add    esp,0x10
  10396d:	e9 ff e3 ff ff       	jmp    101d71 <_ZN2os3hal3idt15init_exceptionsEv+0x1291>
  103972:	05 9e 77 19 00       	add    eax,0x19779e
  103977:	0f 82 dc e3 ff ff    	jb     101d59 <_ZN2os3hal3idt15init_exceptionsEv+0x1279>
  10397d:	50                   	push   eax
  10397e:	50                   	push   eax
  10397f:	68 9e 77 19 00       	push   0x19779e
  103984:	68 cc 3c 11 00       	push   0x113ccc
  103989:	e8 e2 90 00 00       	call   10ca70 <__ubsan_handle_type_mismatch>
  10398e:	83 c4 10             	add    esp,0x10
  103991:	e9 c3 e3 ff ff       	jmp    101d59 <_ZN2os3hal3idt15init_exceptionsEv+0x1279>
  103996:	05 98 77 19 00       	add    eax,0x197798
  10399b:	0f 82 9d e3 ff ff    	jb     101d3e <_ZN2os3hal3idt15init_exceptionsEv+0x125e>
  1039a1:	50                   	push   eax
  1039a2:	50                   	push   eax
  1039a3:	68 98 77 19 00       	push   0x197798
  1039a8:	68 e4 3c 11 00       	push   0x113ce4
  1039ad:	e8 be 90 00 00       	call   10ca70 <__ubsan_handle_type_mismatch>
  1039b2:	83 c4 10             	add    esp,0x10
  1039b5:	e9 84 e3 ff ff       	jmp    101d3e <_ZN2os3hal3idt15init_exceptionsEv+0x125e>
  1039ba:	05 92 77 19 00       	add    eax,0x197792
  1039bf:	0f 82 57 e3 ff ff    	jb     101d1c <_ZN2os3hal3idt15init_exceptionsEv+0x123c>
  1039c5:	51                   	push   ecx
  1039c6:	51                   	push   ecx
  1039c7:	68 92 77 19 00       	push   0x197792
  1039cc:	68 fc 3c 11 00       	push   0x113cfc
  1039d1:	e8 9a 90 00 00       	call   10ca70 <__ubsan_handle_type_mismatch>
  1039d6:	83 c4 10             	add    esp,0x10
  1039d9:	e9 3e e3 ff ff       	jmp    101d1c <_ZN2os3hal3idt15init_exceptionsEv+0x123c>
  1039de:	81 c5 95 77 19 00    	add    ebp,0x197795
  1039e4:	39 ea                	cmp    edx,ebp
  1039e6:	0f 87 18 e3 ff ff    	ja     101d04 <_ZN2os3hal3idt15init_exceptionsEv+0x1224>
  1039ec:	55                   	push   ebp
  1039ed:	55                   	push   ebp
  1039ee:	68 95 77 19 00       	push   0x197795
  1039f3:	68 14 3d 11 00       	push   0x113d14
  1039f8:	e8 73 90 00 00       	call   10ca70 <__ubsan_handle_type_mismatch>
  1039fd:	83 c4 10             	add    esp,0x10
  103a00:	e9 ff e2 ff ff       	jmp    101d04 <_ZN2os3hal3idt15init_exceptionsEv+0x1224>
  103a05:	8d 85 95 77 19 00    	lea    eax,[ebp+0x197795]
  103a0b:	39 c2                	cmp    edx,eax
  103a0d:	0f 87 cc e2 ff ff    	ja     101cdf <_ZN2os3hal3idt15init_exceptionsEv+0x11ff>
  103a13:	89 54 24 0c          	mov    DWORD PTR [esp+0xc],edx
  103a17:	50                   	push   eax
  103a18:	50                   	push   eax
  103a19:	68 95 77 19 00       	push   0x197795
  103a1e:	68 2c 3d 11 00       	push   0x113d2c
  103a23:	e8 48 90 00 00       	call   10ca70 <__ubsan_handle_type_mismatch>
  103a28:	83 c4 10             	add    esp,0x10
  103a2b:	8b 54 24 0c          	mov    edx,DWORD PTR [esp+0xc]
  103a2f:	e9 ab e2 ff ff       	jmp    101cdf <_ZN2os3hal3idt15init_exceptionsEv+0x11ff>
  103a34:	8d 85 95 77 19 00    	lea    eax,[ebp+0x197795]
  103a3a:	39 c2                	cmp    edx,eax
  103a3c:	0f 87 78 e2 ff ff    	ja     101cba <_ZN2os3hal3idt15init_exceptionsEv+0x11da>
  103a42:	89 54 24 0c          	mov    DWORD PTR [esp+0xc],edx
  103a46:	50                   	push   eax
  103a47:	50                   	push   eax
  103a48:	68 95 77 19 00       	push   0x197795
  103a4d:	68 44 3d 11 00       	push   0x113d44
  103a52:	e8 19 90 00 00       	call   10ca70 <__ubsan_handle_type_mismatch>
  103a57:	83 c4 10             	add    esp,0x10
  103a5a:	8b 54 24 0c          	mov    edx,DWORD PTR [esp+0xc]
  103a5e:	e9 57 e2 ff ff       	jmp    101cba <_ZN2os3hal3idt15init_exceptionsEv+0x11da>
  103a63:	89 e8                	mov    eax,ebp
  103a65:	01 d0                	add    eax,edx
  103a67:	0f 82 2e e2 ff ff    	jb     101c9b <_ZN2os3hal3idt15init_exceptionsEv+0x11bb>
  103a6d:	89 54 24 0c          	mov    DWORD PTR [esp+0xc],edx
  103a71:	50                   	push   eax
  103a72:	50                   	push   eax
  103a73:	52                   	push   edx
  103a74:	68 5c 3d 11 00       	push   0x113d5c
  103a79:	e8 f2 8f 00 00       	call   10ca70 <__ubsan_handle_type_mismatch>
  103a7e:	83 c4 10             	add    esp,0x10
  103a81:	8b 54 24 0c          	mov    edx,DWORD PTR [esp+0xc]
  103a85:	e9 11 e2 ff ff       	jmp    101c9b <_ZN2os3hal3idt15init_exceptionsEv+0x11bb>
  103a8a:	05 94 77 19 00       	add    eax,0x197794
  103a8f:	0f 82 e8 e1 ff ff    	jb     101c7d <_ZN2os3hal3idt15init_exceptionsEv+0x119d>
  103a95:	50                   	push   eax
  103a96:	50                   	push   eax
  103a97:	68 94 77 19 00       	push   0x197794
  103a9c:	68 74 3d 11 00       	push   0x113d74
  103aa1:	e8 ca 8f 00 00       	call   10ca70 <__ubsan_handle_type_mismatch>
  103aa6:	83 c4 10             	add    esp,0x10
  103aa9:	e9 cf e1 ff ff       	jmp    101c7d <_ZN2os3hal3idt15init_exceptionsEv+0x119d>
  103aae:	05 96 77 19 00       	add    eax,0x197796
  103ab3:	0f 82 ac e1 ff ff    	jb     101c65 <_ZN2os3hal3idt15init_exceptionsEv+0x1185>
  103ab9:	50                   	push   eax
  103aba:	50                   	push   eax
  103abb:	68 96 77 19 00       	push   0x197796
  103ac0:	68 8c 3d 11 00       	push   0x113d8c
  103ac5:	e8 a6 8f 00 00       	call   10ca70 <__ubsan_handle_type_mismatch>
  103aca:	83 c4 10             	add    esp,0x10
  103acd:	e9 93 e1 ff ff       	jmp    101c65 <_ZN2os3hal3idt15init_exceptionsEv+0x1185>
  103ad2:	05 90 77 19 00       	add    eax,0x197790
  103ad7:	0f 82 6d e1 ff ff    	jb     101c4a <_ZN2os3hal3idt15init_exceptionsEv+0x116a>
  103add:	50                   	push   eax
  103ade:	50                   	push   eax
  103adf:	68 90 77 19 00       	push   0x197790
  103ae4:	68 a4 3d 11 00       	push   0x113da4
  103ae9:	e8 82 8f 00 00       	call   10ca70 <__ubsan_handle_type_mismatch>
  103aee:	83 c4 10             	add    esp,0x10
  103af1:	e9 54 e1 ff ff       	jmp    101c4a <_ZN2os3hal3idt15init_exceptionsEv+0x116a>
  103af6:	05 8a 77 19 00       	add    eax,0x19778a
  103afb:	0f 82 27 e1 ff ff    	jb     101c28 <_ZN2os3hal3idt15init_exceptionsEv+0x1148>
  103b01:	51                   	push   ecx
  103b02:	51                   	push   ecx
  103b03:	68 8a 77 19 00       	push   0x19778a
  103b08:	68 bc 3d 11 00       	push   0x113dbc
  103b0d:	e8 5e 8f 00 00       	call   10ca70 <__ubsan_handle_type_mismatch>
  103b12:	83 c4 10             	add    esp,0x10
  103b15:	e9 0e e1 ff ff       	jmp    101c28 <_ZN2os3hal3idt15init_exceptionsEv+0x1148>
  103b1a:	81 c5 8d 77 19 00    	add    ebp,0x19778d
  103b20:	39 ea                	cmp    edx,ebp
  103b22:	0f 87 e8 e0 ff ff    	ja     101c10 <_ZN2os3hal3idt15init_exceptionsEv+0x1130>
  103b28:	55                   	push   ebp
  103b29:	55                   	push   ebp
  103b2a:	68 8d 77 19 00       	push   0x19778d
  103b2f:	68 d4 3d 11 00       	push   0x113dd4
  103b34:	e8 37 8f 00 00       	call   10ca70 <__ubsan_handle_type_mismatch>
  103b39:	83 c4 10             	add    esp,0x10
  103b3c:	e9 cf e0 ff ff       	jmp    101c10 <_ZN2os3hal3idt15init_exceptionsEv+0x1130>
  103b41:	8d 85 8d 77 19 00    	lea    eax,[ebp+0x19778d]
  103b47:	39 c2                	cmp    edx,eax
  103b49:	0f 87 9c e0 ff ff    	ja     101beb <_ZN2os3hal3idt15init_exceptionsEv+0x110b>
  103b4f:	89 54 24 0c          	mov    DWORD PTR [esp+0xc],edx
  103b53:	50                   	push   eax
  103b54:	50                   	push   eax
  103b55:	68 8d 77 19 00       	push   0x19778d
  103b5a:	68 ec 3d 11 00       	push   0x113dec
  103b5f:	e8 0c 8f 00 00       	call   10ca70 <__ubsan_handle_type_mismatch>
  103b64:	83 c4 10             	add    esp,0x10
  103b67:	8b 54 24 0c          	mov    edx,DWORD PTR [esp+0xc]
  103b6b:	e9 7b e0 ff ff       	jmp    101beb <_ZN2os3hal3idt15init_exceptionsEv+0x110b>
  103b70:	8d 85 8d 77 19 00    	lea    eax,[ebp+0x19778d]
  103b76:	39 c2                	cmp    edx,eax
  103b78:	0f 87 48 e0 ff ff    	ja     101bc6 <_ZN2os3hal3idt15init_exceptionsEv+0x10e6>
  103b7e:	89 54 24 0c          	mov    DWORD PTR [esp+0xc],edx
  103b82:	50                   	push   eax
  103b83:	50                   	push   eax
  103b84:	68 8d 77 19 00       	push   0x19778d
  103b89:	68 04 3e 11 00       	push   0x113e04
  103b8e:	e8 dd 8e 00 00       	call   10ca70 <__ubsan_handle_type_mismatch>
  103b93:	83 c4 10             	add    esp,0x10
  103b96:	8b 54 24 0c          	mov    edx,DWORD PTR [esp+0xc]
  103b9a:	e9 27 e0 ff ff       	jmp    101bc6 <_ZN2os3hal3idt15init_exceptionsEv+0x10e6>
  103b9f:	89 e8                	mov    eax,ebp
  103ba1:	01 d0                	add    eax,edx
  103ba3:	0f 82 fe df ff ff    	jb     101ba7 <_ZN2os3hal3idt15init_exceptionsEv+0x10c7>
  103ba9:	89 54 24 0c          	mov    DWORD PTR [esp+0xc],edx
  103bad:	50                   	push   eax
  103bae:	50                   	push   eax
  103baf:	52                   	push   edx
  103bb0:	68 1c 3e 11 00       	push   0x113e1c
  103bb5:	e8 b6 8e 00 00       	call   10ca70 <__ubsan_handle_type_mismatch>
  103bba:	83 c4 10             	add    esp,0x10
  103bbd:	8b 54 24 0c          	mov    edx,DWORD PTR [esp+0xc]
  103bc1:	e9 e1 df ff ff       	jmp    101ba7 <_ZN2os3hal3idt15init_exceptionsEv+0x10c7>
  103bc6:	05 8c 77 19 00       	add    eax,0x19778c
  103bcb:	0f 82 b8 df ff ff    	jb     101b89 <_ZN2os3hal3idt15init_exceptionsEv+0x10a9>
  103bd1:	50                   	push   eax
  103bd2:	50                   	push   eax
  103bd3:	68 8c 77 19 00       	push   0x19778c
  103bd8:	68 34 3e 11 00       	push   0x113e34
  103bdd:	e8 8e 8e 00 00       	call   10ca70 <__ubsan_handle_type_mismatch>
  103be2:	83 c4 10             	add    esp,0x10
  103be5:	e9 9f df ff ff       	jmp    101b89 <_ZN2os3hal3idt15init_exceptionsEv+0x10a9>
  103bea:	05 8e 77 19 00       	add    eax,0x19778e
  103bef:	0f 82 7c df ff ff    	jb     101b71 <_ZN2os3hal3idt15init_exceptionsEv+0x1091>
  103bf5:	50                   	push   eax
  103bf6:	50                   	push   eax
  103bf7:	68 8e 77 19 00       	push   0x19778e
  103bfc:	68 4c 3e 11 00       	push   0x113e4c
  103c01:	e8 6a 8e 00 00       	call   10ca70 <__ubsan_handle_type_mismatch>
  103c06:	83 c4 10             	add    esp,0x10
  103c09:	e9 63 df ff ff       	jmp    101b71 <_ZN2os3hal3idt15init_exceptionsEv+0x1091>
  103c0e:	05 88 77 19 00       	add    eax,0x197788
  103c13:	0f 82 3d df ff ff    	jb     101b56 <_ZN2os3hal3idt15init_exceptionsEv+0x1076>
  103c19:	50                   	push   eax
  103c1a:	50                   	push   eax
  103c1b:	68 88 77 19 00       	push   0x197788
  103c20:	68 64 3e 11 00       	push   0x113e64
  103c25:	e8 46 8e 00 00       	call   10ca70 <__ubsan_handle_type_mismatch>
  103c2a:	83 c4 10             	add    esp,0x10
  103c2d:	e9 24 df ff ff       	jmp    101b56 <_ZN2os3hal3idt15init_exceptionsEv+0x1076>
  103c32:	05 82 77 19 00       	add    eax,0x197782
  103c37:	0f 82 f7 de ff ff    	jb     101b34 <_ZN2os3hal3idt15init_exceptionsEv+0x1054>
  103c3d:	51                   	push   ecx
  103c3e:	51                   	push   ecx
  103c3f:	68 82 77 19 00       	push   0x197782
  103c44:	68 7c 3e 11 00       	push   0x113e7c
  103c49:	e8 22 8e 00 00       	call   10ca70 <__ubsan_handle_type_mismatch>
  103c4e:	83 c4 10             	add    esp,0x10
  103c51:	e9 de de ff ff       	jmp    101b34 <_ZN2os3hal3idt15init_exceptionsEv+0x1054>
  103c56:	81 c5 85 77 19 00    	add    ebp,0x197785
  103c5c:	39 ea                	cmp    edx,ebp
  103c5e:	0f 87 b8 de ff ff    	ja     101b1c <_ZN2os3hal3idt15init_exceptionsEv+0x103c>
  103c64:	55                   	push   ebp
  103c65:	55                   	push   ebp
  103c66:	68 85 77 19 00       	push   0x197785
  103c6b:	68 94 3e 11 00       	push   0x113e94
  103c70:	e8 fb 8d 00 00       	call   10ca70 <__ubsan_handle_type_mismatch>
  103c75:	83 c4 10             	add    esp,0x10
  103c78:	e9 9f de ff ff       	jmp    101b1c <_ZN2os3hal3idt15init_exceptionsEv+0x103c>
  103c7d:	8d 85 85 77 19 00    	lea    eax,[ebp+0x197785]
  103c83:	39 c2                	cmp    edx,eax
  103c85:	0f 87 6c de ff ff    	ja     101af7 <_ZN2os3hal3idt15init_exceptionsEv+0x1017>
  103c8b:	89 54 24 0c          	mov    DWORD PTR [esp+0xc],edx
  103c8f:	50                   	push   eax
  103c90:	50                   	push   eax
  103c91:	68 85 77 19 00       	push   0x197785
  103c96:	68 ac 3e 11 00       	push   0x113eac
  103c9b:	e8 d0 8d 00 00       	call   10ca70 <__ubsan_handle_type_mismatch>
  103ca0:	83 c4 10             	add    esp,0x10
  103ca3:	8b 54 24 0c          	mov    edx,DWORD PTR [esp+0xc]
  103ca7:	e9 4b de ff ff       	jmp    101af7 <_ZN2os3hal3idt15init_exceptionsEv+0x1017>
  103cac:	8d 85 85 77 19 00    	lea    eax,[ebp+0x197785]
  103cb2:	39 c2                	cmp    edx,eax
  103cb4:	0f 87 18 de ff ff    	ja     101ad2 <_ZN2os3hal3idt15init_exceptionsEv+0xff2>
  103cba:	89 54 24 0c          	mov    DWORD PTR [esp+0xc],edx
  103cbe:	50                   	push   eax
  103cbf:	50                   	push   eax
  103cc0:	68 85 77 19 00       	push   0x197785
  103cc5:	68 c4 3e 11 00       	push   0x113ec4
  103cca:	e8 a1 8d 00 00       	call   10ca70 <__ubsan_handle_type_mismatch>
  103ccf:	83 c4 10             	add    esp,0x10
  103cd2:	8b 54 24 0c          	mov    edx,DWORD PTR [esp+0xc]
  103cd6:	e9 f7 dd ff ff       	jmp    101ad2 <_ZN2os3hal3idt15init_exceptionsEv+0xff2>
  103cdb:	89 e8                	mov    eax,ebp
  103cdd:	01 d0                	add    eax,edx
  103cdf:	0f 82 ce dd ff ff    	jb     101ab3 <_ZN2os3hal3idt15init_exceptionsEv+0xfd3>
  103ce5:	89 54 24 0c          	mov    DWORD PTR [esp+0xc],edx
  103ce9:	50                   	push   eax
  103cea:	50                   	push   eax
  103ceb:	52                   	push   edx
  103cec:	68 dc 3e 11 00       	push   0x113edc
  103cf1:	e8 7a 8d 00 00       	call   10ca70 <__ubsan_handle_type_mismatch>
  103cf6:	83 c4 10             	add    esp,0x10
  103cf9:	8b 54 24 0c          	mov    edx,DWORD PTR [esp+0xc]
  103cfd:	e9 b1 dd ff ff       	jmp    101ab3 <_ZN2os3hal3idt15init_exceptionsEv+0xfd3>
  103d02:	05 84 77 19 00       	add    eax,0x197784
  103d07:	0f 82 88 dd ff ff    	jb     101a95 <_ZN2os3hal3idt15init_exceptionsEv+0xfb5>
  103d0d:	50                   	push   eax
  103d0e:	50                   	push   eax
  103d0f:	68 84 77 19 00       	push   0x197784
  103d14:	68 f4 3e 11 00       	push   0x113ef4
  103d19:	e8 52 8d 00 00       	call   10ca70 <__ubsan_handle_type_mismatch>
  103d1e:	83 c4 10             	add    esp,0x10
  103d21:	e9 6f dd ff ff       	jmp    101a95 <_ZN2os3hal3idt15init_exceptionsEv+0xfb5>
  103d26:	05 86 77 19 00       	add    eax,0x197786
  103d2b:	0f 82 4c dd ff ff    	jb     101a7d <_ZN2os3hal3idt15init_exceptionsEv+0xf9d>
  103d31:	50                   	push   eax
  103d32:	50                   	push   eax
  103d33:	68 86 77 19 00       	push   0x197786
  103d38:	68 0c 3f 11 00       	push   0x113f0c
  103d3d:	e8 2e 8d 00 00       	call   10ca70 <__ubsan_handle_type_mismatch>
  103d42:	83 c4 10             	add    esp,0x10
  103d45:	e9 33 dd ff ff       	jmp    101a7d <_ZN2os3hal3idt15init_exceptionsEv+0xf9d>
  103d4a:	05 80 77 19 00       	add    eax,0x197780
  103d4f:	0f 82 0d dd ff ff    	jb     101a62 <_ZN2os3hal3idt15init_exceptionsEv+0xf82>
  103d55:	50                   	push   eax
  103d56:	50                   	push   eax
  103d57:	68 80 77 19 00       	push   0x197780
  103d5c:	68 24 3f 11 00       	push   0x113f24
  103d61:	e8 0a 8d 00 00       	call   10ca70 <__ubsan_handle_type_mismatch>
  103d66:	83 c4 10             	add    esp,0x10
  103d69:	e9 f4 dc ff ff       	jmp    101a62 <_ZN2os3hal3idt15init_exceptionsEv+0xf82>
  103d6e:	05 7a 77 19 00       	add    eax,0x19777a
  103d73:	0f 82 c7 dc ff ff    	jb     101a40 <_ZN2os3hal3idt15init_exceptionsEv+0xf60>
  103d79:	51                   	push   ecx
  103d7a:	51                   	push   ecx
  103d7b:	68 7a 77 19 00       	push   0x19777a
  103d80:	68 3c 3f 11 00       	push   0x113f3c
  103d85:	e8 e6 8c 00 00       	call   10ca70 <__ubsan_handle_type_mismatch>
  103d8a:	83 c4 10             	add    esp,0x10
  103d8d:	e9 ae dc ff ff       	jmp    101a40 <_ZN2os3hal3idt15init_exceptionsEv+0xf60>
  103d92:	81 c5 7d 77 19 00    	add    ebp,0x19777d
  103d98:	39 ea                	cmp    edx,ebp
  103d9a:	0f 87 88 dc ff ff    	ja     101a28 <_ZN2os3hal3idt15init_exceptionsEv+0xf48>
  103da0:	55                   	push   ebp
  103da1:	55                   	push   ebp
  103da2:	68 7d 77 19 00       	push   0x19777d
  103da7:	68 54 3f 11 00       	push   0x113f54
  103dac:	e8 bf 8c 00 00       	call   10ca70 <__ubsan_handle_type_mismatch>
  103db1:	83 c4 10             	add    esp,0x10
  103db4:	e9 6f dc ff ff       	jmp    101a28 <_ZN2os3hal3idt15init_exceptionsEv+0xf48>
  103db9:	8d 85 7d 77 19 00    	lea    eax,[ebp+0x19777d]
  103dbf:	39 c2                	cmp    edx,eax
  103dc1:	0f 87 3c dc ff ff    	ja     101a03 <_ZN2os3hal3idt15init_exceptionsEv+0xf23>
  103dc7:	89 54 24 0c          	mov    DWORD PTR [esp+0xc],edx
  103dcb:	50                   	push   eax
  103dcc:	50                   	push   eax
  103dcd:	68 7d 77 19 00       	push   0x19777d
  103dd2:	68 6c 3f 11 00       	push   0x113f6c
  103dd7:	e8 94 8c 00 00       	call   10ca70 <__ubsan_handle_type_mismatch>
  103ddc:	83 c4 10             	add    esp,0x10
  103ddf:	8b 54 24 0c          	mov    edx,DWORD PTR [esp+0xc]
  103de3:	e9 1b dc ff ff       	jmp    101a03 <_ZN2os3hal3idt15init_exceptionsEv+0xf23>
  103de8:	8d 85 7d 77 19 00    	lea    eax,[ebp+0x19777d]
  103dee:	39 c2                	cmp    edx,eax
  103df0:	0f 87 e8 db ff ff    	ja     1019de <_ZN2os3hal3idt15init_exceptionsEv+0xefe>
  103df6:	89 54 24 0c          	mov    DWORD PTR [esp+0xc],edx
  103dfa:	50                   	push   eax
  103dfb:	50                   	push   eax
  103dfc:	68 7d 77 19 00       	push   0x19777d
  103e01:	68 84 3f 11 00       	push   0x113f84
  103e06:	e8 65 8c 00 00       	call   10ca70 <__ubsan_handle_type_mismatch>
  103e0b:	83 c4 10             	add    esp,0x10
  103e0e:	8b 54 24 0c          	mov    edx,DWORD PTR [esp+0xc]
  103e12:	e9 c7 db ff ff       	jmp    1019de <_ZN2os3hal3idt15init_exceptionsEv+0xefe>
  103e17:	89 e8                	mov    eax,ebp
  103e19:	01 d0                	add    eax,edx
  103e1b:	0f 82 9e db ff ff    	jb     1019bf <_ZN2os3hal3idt15init_exceptionsEv+0xedf>
  103e21:	89 54 24 0c          	mov    DWORD PTR [esp+0xc],edx
  103e25:	50                   	push   eax
  103e26:	50                   	push   eax
  103e27:	52                   	push   edx
  103e28:	68 9c 3f 11 00       	push   0x113f9c
  103e2d:	e8 3e 8c 00 00       	call   10ca70 <__ubsan_handle_type_mismatch>
  103e32:	83 c4 10             	add    esp,0x10
  103e35:	8b 54 24 0c          	mov    edx,DWORD PTR [esp+0xc]
  103e39:	e9 81 db ff ff       	jmp    1019bf <_ZN2os3hal3idt15init_exceptionsEv+0xedf>
  103e3e:	05 7c 77 19 00       	add    eax,0x19777c
  103e43:	0f 82 58 db ff ff    	jb     1019a1 <_ZN2os3hal3idt15init_exceptionsEv+0xec1>
  103e49:	50                   	push   eax
  103e4a:	50                   	push   eax
  103e4b:	68 7c 77 19 00       	push   0x19777c
  103e50:	68 b4 3f 11 00       	push   0x113fb4
  103e55:	e8 16 8c 00 00       	call   10ca70 <__ubsan_handle_type_mismatch>
  103e5a:	83 c4 10             	add    esp,0x10
  103e5d:	e9 3f db ff ff       	jmp    1019a1 <_ZN2os3hal3idt15init_exceptionsEv+0xec1>
  103e62:	05 7e 77 19 00       	add    eax,0x19777e
  103e67:	0f 82 1c db ff ff    	jb     101989 <_ZN2os3hal3idt15init_exceptionsEv+0xea9>
  103e6d:	50                   	push   eax
  103e6e:	50                   	push   eax
  103e6f:	68 7e 77 19 00       	push   0x19777e
  103e74:	68 cc 3f 11 00       	push   0x113fcc
  103e79:	e8 f2 8b 00 00       	call   10ca70 <__ubsan_handle_type_mismatch>
  103e7e:	83 c4 10             	add    esp,0x10
  103e81:	e9 03 db ff ff       	jmp    101989 <_ZN2os3hal3idt15init_exceptionsEv+0xea9>
  103e86:	05 78 77 19 00       	add    eax,0x197778
  103e8b:	0f 82 dd da ff ff    	jb     10196e <_ZN2os3hal3idt15init_exceptionsEv+0xe8e>
  103e91:	50                   	push   eax
  103e92:	50                   	push   eax
  103e93:	68 78 77 19 00       	push   0x197778
  103e98:	68 e4 3f 11 00       	push   0x113fe4
  103e9d:	e8 ce 8b 00 00       	call   10ca70 <__ubsan_handle_type_mismatch>
  103ea2:	83 c4 10             	add    esp,0x10
  103ea5:	e9 c4 da ff ff       	jmp    10196e <_ZN2os3hal3idt15init_exceptionsEv+0xe8e>
  103eaa:	05 72 77 19 00       	add    eax,0x197772
  103eaf:	0f 82 97 da ff ff    	jb     10194c <_ZN2os3hal3idt15init_exceptionsEv+0xe6c>
  103eb5:	51                   	push   ecx
  103eb6:	51                   	push   ecx
  103eb7:	68 72 77 19 00       	push   0x197772
  103ebc:	68 fc 3f 11 00       	push   0x113ffc
  103ec1:	e8 aa 8b 00 00       	call   10ca70 <__ubsan_handle_type_mismatch>
  103ec6:	83 c4 10             	add    esp,0x10
  103ec9:	e9 7e da ff ff       	jmp    10194c <_ZN2os3hal3idt15init_exceptionsEv+0xe6c>
  103ece:	81 c5 75 77 19 00    	add    ebp,0x197775
  103ed4:	39 ea                	cmp    edx,ebp
  103ed6:	0f 87 58 da ff ff    	ja     101934 <_ZN2os3hal3idt15init_exceptionsEv+0xe54>
  103edc:	55                   	push   ebp
  103edd:	55                   	push   ebp
  103ede:	68 75 77 19 00       	push   0x197775
  103ee3:	68 14 40 11 00       	push   0x114014
  103ee8:	e8 83 8b 00 00       	call   10ca70 <__ubsan_handle_type_mismatch>
  103eed:	83 c4 10             	add    esp,0x10
  103ef0:	e9 3f da ff ff       	jmp    101934 <_ZN2os3hal3idt15init_exceptionsEv+0xe54>
  103ef5:	8d 85 75 77 19 00    	lea    eax,[ebp+0x197775]
  103efb:	39 c2                	cmp    edx,eax
  103efd:	0f 87 0c da ff ff    	ja     10190f <_ZN2os3hal3idt15init_exceptionsEv+0xe2f>
  103f03:	89 54 24 0c          	mov    DWORD PTR [esp+0xc],edx
  103f07:	50                   	push   eax
  103f08:	50                   	push   eax
  103f09:	68 75 77 19 00       	push   0x197775
  103f0e:	68 2c 40 11 00       	push   0x11402c
  103f13:	e8 58 8b 00 00       	call   10ca70 <__ubsan_handle_type_mismatch>
  103f18:	83 c4 10             	add    esp,0x10
  103f1b:	8b 54 24 0c          	mov    edx,DWORD PTR [esp+0xc]
  103f1f:	e9 eb d9 ff ff       	jmp    10190f <_ZN2os3hal3idt15init_exceptionsEv+0xe2f>
  103f24:	8d 85 75 77 19 00    	lea    eax,[ebp+0x197775]
  103f2a:	39 c2                	cmp    edx,eax
  103f2c:	0f 87 b8 d9 ff ff    	ja     1018ea <_ZN2os3hal3idt15init_exceptionsEv+0xe0a>
  103f32:	89 54 24 0c          	mov    DWORD PTR [esp+0xc],edx
  103f36:	50                   	push   eax
  103f37:	50                   	push   eax
  103f38:	68 75 77 19 00       	push   0x197775
  103f3d:	68 44 40 11 00       	push   0x114044
  103f42:	e8 29 8b 00 00       	call   10ca70 <__ubsan_handle_type_mismatch>
  103f47:	83 c4 10             	add    esp,0x10
  103f4a:	8b 54 24 0c          	mov    edx,DWORD PTR [esp+0xc]
  103f4e:	e9 97 d9 ff ff       	jmp    1018ea <_ZN2os3hal3idt15init_exceptionsEv+0xe0a>
  103f53:	89 e8                	mov    eax,ebp
  103f55:	01 d0                	add    eax,edx
  103f57:	0f 82 6e d9 ff ff    	jb     1018cb <_ZN2os3hal3idt15init_exceptionsEv+0xdeb>
  103f5d:	89 54 24 0c          	mov    DWORD PTR [esp+0xc],edx
  103f61:	50                   	push   eax
  103f62:	50                   	push   eax
  103f63:	52                   	push   edx
  103f64:	68 5c 40 11 00       	push   0x11405c
  103f69:	e8 02 8b 00 00       	call   10ca70 <__ubsan_handle_type_mismatch>
  103f6e:	83 c4 10             	add    esp,0x10
  103f71:	8b 54 24 0c          	mov    edx,DWORD PTR [esp+0xc]
  103f75:	e9 51 d9 ff ff       	jmp    1018cb <_ZN2os3hal3idt15init_exceptionsEv+0xdeb>
  103f7a:	05 74 77 19 00       	add    eax,0x197774
  103f7f:	0f 82 28 d9 ff ff    	jb     1018ad <_ZN2os3hal3idt15init_exceptionsEv+0xdcd>
  103f85:	50                   	push   eax
  103f86:	50                   	push   eax
  103f87:	68 74 77 19 00       	push   0x197774
  103f8c:	68 74 40 11 00       	push   0x114074
  103f91:	e8 da 8a 00 00       	call   10ca70 <__ubsan_handle_type_mismatch>
  103f96:	83 c4 10             	add    esp,0x10
  103f99:	e9 0f d9 ff ff       	jmp    1018ad <_ZN2os3hal3idt15init_exceptionsEv+0xdcd>
  103f9e:	05 76 77 19 00       	add    eax,0x197776
  103fa3:	0f 82 ec d8 ff ff    	jb     101895 <_ZN2os3hal3idt15init_exceptionsEv+0xdb5>
  103fa9:	50                   	push   eax
  103faa:	50                   	push   eax
  103fab:	68 76 77 19 00       	push   0x197776
  103fb0:	68 8c 40 11 00       	push   0x11408c
  103fb5:	e8 b6 8a 00 00       	call   10ca70 <__ubsan_handle_type_mismatch>
  103fba:	83 c4 10             	add    esp,0x10
  103fbd:	e9 d3 d8 ff ff       	jmp    101895 <_ZN2os3hal3idt15init_exceptionsEv+0xdb5>
  103fc2:	05 70 77 19 00       	add    eax,0x197770
  103fc7:	0f 82 ad d8 ff ff    	jb     10187a <_ZN2os3hal3idt15init_exceptionsEv+0xd9a>
  103fcd:	50                   	push   eax
  103fce:	50                   	push   eax
  103fcf:	68 70 77 19 00       	push   0x197770
  103fd4:	68 a4 40 11 00       	push   0x1140a4
  103fd9:	e8 92 8a 00 00       	call   10ca70 <__ubsan_handle_type_mismatch>
  103fde:	83 c4 10             	add    esp,0x10
  103fe1:	e9 94 d8 ff ff       	jmp    10187a <_ZN2os3hal3idt15init_exceptionsEv+0xd9a>
  103fe6:	05 6a 77 19 00       	add    eax,0x19776a
  103feb:	0f 82 67 d8 ff ff    	jb     101858 <_ZN2os3hal3idt15init_exceptionsEv+0xd78>
  103ff1:	51                   	push   ecx
  103ff2:	51                   	push   ecx
  103ff3:	68 6a 77 19 00       	push   0x19776a
  103ff8:	68 bc 40 11 00       	push   0x1140bc
  103ffd:	e8 6e 8a 00 00       	call   10ca70 <__ubsan_handle_type_mismatch>
  104002:	83 c4 10             	add    esp,0x10
  104005:	e9 4e d8 ff ff       	jmp    101858 <_ZN2os3hal3idt15init_exceptionsEv+0xd78>
  10400a:	81 c5 6d 77 19 00    	add    ebp,0x19776d
  104010:	39 ea                	cmp    edx,ebp
  104012:	0f 87 28 d8 ff ff    	ja     101840 <_ZN2os3hal3idt15init_exceptionsEv+0xd60>
  104018:	55                   	push   ebp
  104019:	55                   	push   ebp
  10401a:	68 6d 77 19 00       	push   0x19776d
  10401f:	68 d4 40 11 00       	push   0x1140d4
  104024:	e8 47 8a 00 00       	call   10ca70 <__ubsan_handle_type_mismatch>
  104029:	83 c4 10             	add    esp,0x10
  10402c:	e9 0f d8 ff ff       	jmp    101840 <_ZN2os3hal3idt15init_exceptionsEv+0xd60>
  104031:	8d 85 6d 77 19 00    	lea    eax,[ebp+0x19776d]
  104037:	39 c2                	cmp    edx,eax
  104039:	0f 87 dc d7 ff ff    	ja     10181b <_ZN2os3hal3idt15init_exceptionsEv+0xd3b>
  10403f:	89 54 24 0c          	mov    DWORD PTR [esp+0xc],edx
  104043:	50                   	push   eax
  104044:	50                   	push   eax
  104045:	68 6d 77 19 00       	push   0x19776d
  10404a:	68 ec 40 11 00       	push   0x1140ec
  10404f:	e8 1c 8a 00 00       	call   10ca70 <__ubsan_handle_type_mismatch>
  104054:	83 c4 10             	add    esp,0x10
  104057:	8b 54 24 0c          	mov    edx,DWORD PTR [esp+0xc]
  10405b:	e9 bb d7 ff ff       	jmp    10181b <_ZN2os3hal3idt15init_exceptionsEv+0xd3b>
  104060:	8d 85 6d 77 19 00    	lea    eax,[ebp+0x19776d]
  104066:	39 c2                	cmp    edx,eax
  104068:	0f 87 88 d7 ff ff    	ja     1017f6 <_ZN2os3hal3idt15init_exceptionsEv+0xd16>
  10406e:	89 54 24 0c          	mov    DWORD PTR [esp+0xc],edx
  104072:	50                   	push   eax
  104073:	50                   	push   eax
  104074:	68 6d 77 19 00       	push   0x19776d
  104079:	68 04 41 11 00       	push   0x114104
  10407e:	e8 ed 89 00 00       	call   10ca70 <__ubsan_handle_type_mismatch>
  104083:	83 c4 10             	add    esp,0x10
  104086:	8b 54 24 0c          	mov    edx,DWORD PTR [esp+0xc]
  10408a:	e9 67 d7 ff ff       	jmp    1017f6 <_ZN2os3hal3idt15init_exceptionsEv+0xd16>
  10408f:	89 e8                	mov    eax,ebp
  104091:	01 d0                	add    eax,edx
  104093:	0f 82 3e d7 ff ff    	jb     1017d7 <_ZN2os3hal3idt15init_exceptionsEv+0xcf7>
  104099:	89 54 24 0c          	mov    DWORD PTR [esp+0xc],edx
  10409d:	50                   	push   eax
  10409e:	50                   	push   eax
  10409f:	52                   	push   edx
  1040a0:	68 1c 41 11 00       	push   0x11411c
  1040a5:	e8 c6 89 00 00       	call   10ca70 <__ubsan_handle_type_mismatch>
  1040aa:	83 c4 10             	add    esp,0x10
  1040ad:	8b 54 24 0c          	mov    edx,DWORD PTR [esp+0xc]
  1040b1:	e9 21 d7 ff ff       	jmp    1017d7 <_ZN2os3hal3idt15init_exceptionsEv+0xcf7>
  1040b6:	05 6c 77 19 00       	add    eax,0x19776c
  1040bb:	0f 82 f8 d6 ff ff    	jb     1017b9 <_ZN2os3hal3idt15init_exceptionsEv+0xcd9>
  1040c1:	50                   	push   eax
  1040c2:	50                   	push   eax
  1040c3:	68 6c 77 19 00       	push   0x19776c
  1040c8:	68 34 41 11 00       	push   0x114134
  1040cd:	e8 9e 89 00 00       	call   10ca70 <__ubsan_handle_type_mismatch>
  1040d2:	83 c4 10             	add    esp,0x10
  1040d5:	e9 df d6 ff ff       	jmp    1017b9 <_ZN2os3hal3idt15init_exceptionsEv+0xcd9>
  1040da:	05 6e 77 19 00       	add    eax,0x19776e
  1040df:	0f 82 bc d6 ff ff    	jb     1017a1 <_ZN2os3hal3idt15init_exceptionsEv+0xcc1>
  1040e5:	50                   	push   eax
  1040e6:	50                   	push   eax
  1040e7:	68 6e 77 19 00       	push   0x19776e
  1040ec:	68 4c 41 11 00       	push   0x11414c
  1040f1:	e8 7a 89 00 00       	call   10ca70 <__ubsan_handle_type_mismatch>
  1040f6:	83 c4 10             	add    esp,0x10
  1040f9:	e9 a3 d6 ff ff       	jmp    1017a1 <_ZN2os3hal3idt15init_exceptionsEv+0xcc1>
  1040fe:	05 68 77 19 00       	add    eax,0x197768
  104103:	0f 82 7d d6 ff ff    	jb     101786 <_ZN2os3hal3idt15init_exceptionsEv+0xca6>
  104109:	50                   	push   eax
  10410a:	50                   	push   eax
  10410b:	68 68 77 19 00       	push   0x197768
  104110:	68 64 41 11 00       	push   0x114164
  104115:	e8 56 89 00 00       	call   10ca70 <__ubsan_handle_type_mismatch>
  10411a:	83 c4 10             	add    esp,0x10
  10411d:	e9 64 d6 ff ff       	jmp    101786 <_ZN2os3hal3idt15init_exceptionsEv+0xca6>
  104122:	05 62 77 19 00       	add    eax,0x197762
  104127:	0f 82 37 d6 ff ff    	jb     101764 <_ZN2os3hal3idt15init_exceptionsEv+0xc84>
  10412d:	51                   	push   ecx
  10412e:	51                   	push   ecx
  10412f:	68 62 77 19 00       	push   0x197762
  104134:	68 7c 41 11 00       	push   0x11417c
  104139:	e8 32 89 00 00       	call   10ca70 <__ubsan_handle_type_mismatch>
  10413e:	83 c4 10             	add    esp,0x10
  104141:	e9 1e d6 ff ff       	jmp    101764 <_ZN2os3hal3idt15init_exceptionsEv+0xc84>
  104146:	81 c5 65 77 19 00    	add    ebp,0x197765
  10414c:	39 ea                	cmp    edx,ebp
  10414e:	0f 87 f8 d5 ff ff    	ja     10174c <_ZN2os3hal3idt15init_exceptionsEv+0xc6c>
  104154:	55                   	push   ebp
  104155:	55                   	push   ebp
  104156:	68 65 77 19 00       	push   0x197765
  10415b:	68 94 41 11 00       	push   0x114194
  104160:	e8 0b 89 00 00       	call   10ca70 <__ubsan_handle_type_mismatch>
  104165:	83 c4 10             	add    esp,0x10
  104168:	e9 df d5 ff ff       	jmp    10174c <_ZN2os3hal3idt15init_exceptionsEv+0xc6c>
  10416d:	8d 85 65 77 19 00    	lea    eax,[ebp+0x197765]
  104173:	39 c2                	cmp    edx,eax
  104175:	0f 87 ac d5 ff ff    	ja     101727 <_ZN2os3hal3idt15init_exceptionsEv+0xc47>
  10417b:	89 54 24 0c          	mov    DWORD PTR [esp+0xc],edx
  10417f:	50                   	push   eax
  104180:	50                   	push   eax
  104181:	68 65 77 19 00       	push   0x197765
  104186:	68 ac 41 11 00       	push   0x1141ac
  10418b:	e8 e0 88 00 00       	call   10ca70 <__ubsan_handle_type_mismatch>
  104190:	83 c4 10             	add    esp,0x10
  104193:	8b 54 24 0c          	mov    edx,DWORD PTR [esp+0xc]
  104197:	e9 8b d5 ff ff       	jmp    101727 <_ZN2os3hal3idt15init_exceptionsEv+0xc47>
  10419c:	8d 85 65 77 19 00    	lea    eax,[ebp+0x197765]
  1041a2:	39 c2                	cmp    edx,eax
  1041a4:	0f 87 58 d5 ff ff    	ja     101702 <_ZN2os3hal3idt15init_exceptionsEv+0xc22>
  1041aa:	89 54 24 0c          	mov    DWORD PTR [esp+0xc],edx
  1041ae:	50                   	push   eax
  1041af:	50                   	push   eax
  1041b0:	68 65 77 19 00       	push   0x197765
  1041b5:	68 c4 41 11 00       	push   0x1141c4
  1041ba:	e8 b1 88 00 00       	call   10ca70 <__ubsan_handle_type_mismatch>
  1041bf:	83 c4 10             	add    esp,0x10
  1041c2:	8b 54 24 0c          	mov    edx,DWORD PTR [esp+0xc]
  1041c6:	e9 37 d5 ff ff       	jmp    101702 <_ZN2os3hal3idt15init_exceptionsEv+0xc22>
  1041cb:	89 e8                	mov    eax,ebp
  1041cd:	01 d0                	add    eax,edx
  1041cf:	0f 82 0e d5 ff ff    	jb     1016e3 <_ZN2os3hal3idt15init_exceptionsEv+0xc03>
  1041d5:	89 54 24 0c          	mov    DWORD PTR [esp+0xc],edx
  1041d9:	50                   	push   eax
  1041da:	50                   	push   eax
  1041db:	52                   	push   edx
  1041dc:	68 dc 41 11 00       	push   0x1141dc
  1041e1:	e8 8a 88 00 00       	call   10ca70 <__ubsan_handle_type_mismatch>
  1041e6:	83 c4 10             	add    esp,0x10
  1041e9:	8b 54 24 0c          	mov    edx,DWORD PTR [esp+0xc]
  1041ed:	e9 f1 d4 ff ff       	jmp    1016e3 <_ZN2os3hal3idt15init_exceptionsEv+0xc03>
  1041f2:	05 64 77 19 00       	add    eax,0x197764
  1041f7:	0f 82 c8 d4 ff ff    	jb     1016c5 <_ZN2os3hal3idt15init_exceptionsEv+0xbe5>
  1041fd:	50                   	push   eax
  1041fe:	50                   	push   eax
  1041ff:	68 64 77 19 00       	push   0x197764
  104204:	68 f4 41 11 00       	push   0x1141f4
  104209:	e8 62 88 00 00       	call   10ca70 <__ubsan_handle_type_mismatch>
  10420e:	83 c4 10             	add    esp,0x10
  104211:	e9 af d4 ff ff       	jmp    1016c5 <_ZN2os3hal3idt15init_exceptionsEv+0xbe5>
  104216:	05 66 77 19 00       	add    eax,0x197766
  10421b:	0f 82 8c d4 ff ff    	jb     1016ad <_ZN2os3hal3idt15init_exceptionsEv+0xbcd>
  104221:	50                   	push   eax
  104222:	50                   	push   eax
  104223:	68 66 77 19 00       	push   0x197766
  104228:	68 0c 42 11 00       	push   0x11420c
  10422d:	e8 3e 88 00 00       	call   10ca70 <__ubsan_handle_type_mismatch>
  104232:	83 c4 10             	add    esp,0x10
  104235:	e9 73 d4 ff ff       	jmp    1016ad <_ZN2os3hal3idt15init_exceptionsEv+0xbcd>
  10423a:	05 60 77 19 00       	add    eax,0x197760
  10423f:	0f 82 4d d4 ff ff    	jb     101692 <_ZN2os3hal3idt15init_exceptionsEv+0xbb2>
  104245:	50                   	push   eax
  104246:	50                   	push   eax
  104247:	68 60 77 19 00       	push   0x197760
  10424c:	68 24 42 11 00       	push   0x114224
  104251:	e8 1a 88 00 00       	call   10ca70 <__ubsan_handle_type_mismatch>
  104256:	83 c4 10             	add    esp,0x10
  104259:	e9 34 d4 ff ff       	jmp    101692 <_ZN2os3hal3idt15init_exceptionsEv+0xbb2>
  10425e:	05 5a 77 19 00       	add    eax,0x19775a
  104263:	0f 82 07 d4 ff ff    	jb     101670 <_ZN2os3hal3idt15init_exceptionsEv+0xb90>
  104269:	51                   	push   ecx
  10426a:	51                   	push   ecx
  10426b:	68 5a 77 19 00       	push   0x19775a
  104270:	68 3c 42 11 00       	push   0x11423c
  104275:	e8 f6 87 00 00       	call   10ca70 <__ubsan_handle_type_mismatch>
  10427a:	83 c4 10             	add    esp,0x10
  10427d:	e9 ee d3 ff ff       	jmp    101670 <_ZN2os3hal3idt15init_exceptionsEv+0xb90>
  104282:	81 c5 5d 77 19 00    	add    ebp,0x19775d
  104288:	39 ea                	cmp    edx,ebp
  10428a:	0f 87 c8 d3 ff ff    	ja     101658 <_ZN2os3hal3idt15init_exceptionsEv+0xb78>
  104290:	55                   	push   ebp
  104291:	55                   	push   ebp
  104292:	68 5d 77 19 00       	push   0x19775d
  104297:	68 54 42 11 00       	push   0x114254
  10429c:	e8 cf 87 00 00       	call   10ca70 <__ubsan_handle_type_mismatch>
  1042a1:	83 c4 10             	add    esp,0x10
  1042a4:	e9 af d3 ff ff       	jmp    101658 <_ZN2os3hal3idt15init_exceptionsEv+0xb78>
  1042a9:	8d 85 5d 77 19 00    	lea    eax,[ebp+0x19775d]
  1042af:	39 c2                	cmp    edx,eax
  1042b1:	0f 87 7c d3 ff ff    	ja     101633 <_ZN2os3hal3idt15init_exceptionsEv+0xb53>
  1042b7:	89 54 24 0c          	mov    DWORD PTR [esp+0xc],edx
  1042bb:	50                   	push   eax
  1042bc:	50                   	push   eax
  1042bd:	68 5d 77 19 00       	push   0x19775d
  1042c2:	68 6c 42 11 00       	push   0x11426c
  1042c7:	e8 a4 87 00 00       	call   10ca70 <__ubsan_handle_type_mismatch>
  1042cc:	83 c4 10             	add    esp,0x10
  1042cf:	8b 54 24 0c          	mov    edx,DWORD PTR [esp+0xc]
  1042d3:	e9 5b d3 ff ff       	jmp    101633 <_ZN2os3hal3idt15init_exceptionsEv+0xb53>
  1042d8:	8d 85 5d 77 19 00    	lea    eax,[ebp+0x19775d]
  1042de:	39 c2                	cmp    edx,eax
  1042e0:	0f 87 28 d3 ff ff    	ja     10160e <_ZN2os3hal3idt15init_exceptionsEv+0xb2e>
  1042e6:	89 54 24 0c          	mov    DWORD PTR [esp+0xc],edx
  1042ea:	50                   	push   eax
  1042eb:	50                   	push   eax
  1042ec:	68 5d 77 19 00       	push   0x19775d
  1042f1:	68 84 42 11 00       	push   0x114284
  1042f6:	e8 75 87 00 00       	call   10ca70 <__ubsan_handle_type_mismatch>
  1042fb:	83 c4 10             	add    esp,0x10
  1042fe:	8b 54 24 0c          	mov    edx,DWORD PTR [esp+0xc]
  104302:	e9 07 d3 ff ff       	jmp    10160e <_ZN2os3hal3idt15init_exceptionsEv+0xb2e>
  104307:	89 e8                	mov    eax,ebp
  104309:	01 d0                	add    eax,edx
  10430b:	0f 82 de d2 ff ff    	jb     1015ef <_ZN2os3hal3idt15init_exceptionsEv+0xb0f>
  104311:	89 54 24 0c          	mov    DWORD PTR [esp+0xc],edx
  104315:	50                   	push   eax
  104316:	50                   	push   eax
  104317:	52                   	push   edx
  104318:	68 9c 42 11 00       	push   0x11429c
  10431d:	e8 4e 87 00 00       	call   10ca70 <__ubsan_handle_type_mismatch>
  104322:	83 c4 10             	add    esp,0x10
  104325:	8b 54 24 0c          	mov    edx,DWORD PTR [esp+0xc]
  104329:	e9 c1 d2 ff ff       	jmp    1015ef <_ZN2os3hal3idt15init_exceptionsEv+0xb0f>
  10432e:	05 5c 77 19 00       	add    eax,0x19775c
  104333:	0f 82 98 d2 ff ff    	jb     1015d1 <_ZN2os3hal3idt15init_exceptionsEv+0xaf1>
  104339:	50                   	push   eax
  10433a:	50                   	push   eax
  10433b:	68 5c 77 19 00       	push   0x19775c
  104340:	68 b4 42 11 00       	push   0x1142b4
  104345:	e8 26 87 00 00       	call   10ca70 <__ubsan_handle_type_mismatch>
  10434a:	83 c4 10             	add    esp,0x10
  10434d:	e9 7f d2 ff ff       	jmp    1015d1 <_ZN2os3hal3idt15init_exceptionsEv+0xaf1>
  104352:	05 5e 77 19 00       	add    eax,0x19775e
  104357:	0f 82 5c d2 ff ff    	jb     1015b9 <_ZN2os3hal3idt15init_exceptionsEv+0xad9>
  10435d:	50                   	push   eax
  10435e:	50                   	push   eax
  10435f:	68 5e 77 19 00       	push   0x19775e
  104364:	68 cc 42 11 00       	push   0x1142cc
  104369:	e8 02 87 00 00       	call   10ca70 <__ubsan_handle_type_mismatch>
  10436e:	83 c4 10             	add    esp,0x10
  104371:	e9 43 d2 ff ff       	jmp    1015b9 <_ZN2os3hal3idt15init_exceptionsEv+0xad9>
  104376:	05 58 77 19 00       	add    eax,0x197758
  10437b:	0f 82 1d d2 ff ff    	jb     10159e <_ZN2os3hal3idt15init_exceptionsEv+0xabe>
  104381:	50                   	push   eax
  104382:	50                   	push   eax
  104383:	68 58 77 19 00       	push   0x197758
  104388:	68 e4 42 11 00       	push   0x1142e4
  10438d:	e8 de 86 00 00       	call   10ca70 <__ubsan_handle_type_mismatch>
  104392:	83 c4 10             	add    esp,0x10
  104395:	e9 04 d2 ff ff       	jmp    10159e <_ZN2os3hal3idt15init_exceptionsEv+0xabe>
  10439a:	05 52 77 19 00       	add    eax,0x197752
  10439f:	0f 82 d7 d1 ff ff    	jb     10157c <_ZN2os3hal3idt15init_exceptionsEv+0xa9c>
  1043a5:	51                   	push   ecx
  1043a6:	51                   	push   ecx
  1043a7:	68 52 77 19 00       	push   0x197752
  1043ac:	68 fc 42 11 00       	push   0x1142fc
  1043b1:	e8 ba 86 00 00       	call   10ca70 <__ubsan_handle_type_mismatch>
  1043b6:	83 c4 10             	add    esp,0x10
  1043b9:	e9 be d1 ff ff       	jmp    10157c <_ZN2os3hal3idt15init_exceptionsEv+0xa9c>
  1043be:	81 c5 55 77 19 00    	add    ebp,0x197755
  1043c4:	39 ea                	cmp    edx,ebp
  1043c6:	0f 87 98 d1 ff ff    	ja     101564 <_ZN2os3hal3idt15init_exceptionsEv+0xa84>
  1043cc:	55                   	push   ebp
  1043cd:	55                   	push   ebp
  1043ce:	68 55 77 19 00       	push   0x197755
  1043d3:	68 14 43 11 00       	push   0x114314
  1043d8:	e8 93 86 00 00       	call   10ca70 <__ubsan_handle_type_mismatch>
  1043dd:	83 c4 10             	add    esp,0x10
  1043e0:	e9 7f d1 ff ff       	jmp    101564 <_ZN2os3hal3idt15init_exceptionsEv+0xa84>
  1043e5:	8d 85 55 77 19 00    	lea    eax,[ebp+0x197755]
  1043eb:	39 c2                	cmp    edx,eax
  1043ed:	0f 87 4c d1 ff ff    	ja     10153f <_ZN2os3hal3idt15init_exceptionsEv+0xa5f>
  1043f3:	89 54 24 0c          	mov    DWORD PTR [esp+0xc],edx
  1043f7:	50                   	push   eax
  1043f8:	50                   	push   eax
  1043f9:	68 55 77 19 00       	push   0x197755
  1043fe:	68 2c 43 11 00       	push   0x11432c
  104403:	e8 68 86 00 00       	call   10ca70 <__ubsan_handle_type_mismatch>
  104408:	83 c4 10             	add    esp,0x10
  10440b:	8b 54 24 0c          	mov    edx,DWORD PTR [esp+0xc]
  10440f:	e9 2b d1 ff ff       	jmp    10153f <_ZN2os3hal3idt15init_exceptionsEv+0xa5f>
  104414:	8d 85 55 77 19 00    	lea    eax,[ebp+0x197755]
  10441a:	39 c2                	cmp    edx,eax
  10441c:	0f 87 f8 d0 ff ff    	ja     10151a <_ZN2os3hal3idt15init_exceptionsEv+0xa3a>
  104422:	89 54 24 0c          	mov    DWORD PTR [esp+0xc],edx
  104426:	50                   	push   eax
  104427:	50                   	push   eax
  104428:	68 55 77 19 00       	push   0x197755
  10442d:	68 44 43 11 00       	push   0x114344
  104432:	e8 39 86 00 00       	call   10ca70 <__ubsan_handle_type_mismatch>
  104437:	83 c4 10             	add    esp,0x10
  10443a:	8b 54 24 0c          	mov    edx,DWORD PTR [esp+0xc]
  10443e:	e9 d7 d0 ff ff       	jmp    10151a <_ZN2os3hal3idt15init_exceptionsEv+0xa3a>
  104443:	89 e8                	mov    eax,ebp
  104445:	01 d0                	add    eax,edx
  104447:	0f 82 ae d0 ff ff    	jb     1014fb <_ZN2os3hal3idt15init_exceptionsEv+0xa1b>
  10444d:	89 54 24 0c          	mov    DWORD PTR [esp+0xc],edx
  104451:	50                   	push   eax
  104452:	50                   	push   eax
  104453:	52                   	push   edx
  104454:	68 5c 43 11 00       	push   0x11435c
  104459:	e8 12 86 00 00       	call   10ca70 <__ubsan_handle_type_mismatch>
  10445e:	83 c4 10             	add    esp,0x10
  104461:	8b 54 24 0c          	mov    edx,DWORD PTR [esp+0xc]
  104465:	e9 91 d0 ff ff       	jmp    1014fb <_ZN2os3hal3idt15init_exceptionsEv+0xa1b>
  10446a:	05 54 77 19 00       	add    eax,0x197754
  10446f:	0f 82 68 d0 ff ff    	jb     1014dd <_ZN2os3hal3idt15init_exceptionsEv+0x9fd>
  104475:	50                   	push   eax
  104476:	50                   	push   eax
  104477:	68 54 77 19 00       	push   0x197754
  10447c:	68 74 43 11 00       	push   0x114374
  104481:	e8 ea 85 00 00       	call   10ca70 <__ubsan_handle_type_mismatch>
  104486:	83 c4 10             	add    esp,0x10
  104489:	e9 4f d0 ff ff       	jmp    1014dd <_ZN2os3hal3idt15init_exceptionsEv+0x9fd>
  10448e:	05 56 77 19 00       	add    eax,0x197756
  104493:	0f 82 2c d0 ff ff    	jb     1014c5 <_ZN2os3hal3idt15init_exceptionsEv+0x9e5>
  104499:	50                   	push   eax
  10449a:	50                   	push   eax
  10449b:	68 56 77 19 00       	push   0x197756
  1044a0:	68 8c 43 11 00       	push   0x11438c
  1044a5:	e8 c6 85 00 00       	call   10ca70 <__ubsan_handle_type_mismatch>
  1044aa:	83 c4 10             	add    esp,0x10
  1044ad:	e9 13 d0 ff ff       	jmp    1014c5 <_ZN2os3hal3idt15init_exceptionsEv+0x9e5>
  1044b2:	05 50 77 19 00       	add    eax,0x197750
  1044b7:	0f 82 ed cf ff ff    	jb     1014aa <_ZN2os3hal3idt15init_exceptionsEv+0x9ca>
  1044bd:	50                   	push   eax
  1044be:	50                   	push   eax
  1044bf:	68 50 77 19 00       	push   0x197750
  1044c4:	68 a4 43 11 00       	push   0x1143a4
  1044c9:	e8 a2 85 00 00       	call   10ca70 <__ubsan_handle_type_mismatch>
  1044ce:	83 c4 10             	add    esp,0x10
  1044d1:	e9 d4 cf ff ff       	jmp    1014aa <_ZN2os3hal3idt15init_exceptionsEv+0x9ca>
  1044d6:	05 4a 77 19 00       	add    eax,0x19774a
  1044db:	0f 82 a7 cf ff ff    	jb     101488 <_ZN2os3hal3idt15init_exceptionsEv+0x9a8>
  1044e1:	51                   	push   ecx
  1044e2:	51                   	push   ecx
  1044e3:	68 4a 77 19 00       	push   0x19774a
  1044e8:	68 bc 43 11 00       	push   0x1143bc
  1044ed:	e8 7e 85 00 00       	call   10ca70 <__ubsan_handle_type_mismatch>
  1044f2:	83 c4 10             	add    esp,0x10
  1044f5:	e9 8e cf ff ff       	jmp    101488 <_ZN2os3hal3idt15init_exceptionsEv+0x9a8>
  1044fa:	81 c5 4d 77 19 00    	add    ebp,0x19774d
  104500:	39 ea                	cmp    edx,ebp
  104502:	0f 87 68 cf ff ff    	ja     101470 <_ZN2os3hal3idt15init_exceptionsEv+0x990>
  104508:	55                   	push   ebp
  104509:	55                   	push   ebp
  10450a:	68 4d 77 19 00       	push   0x19774d
  10450f:	68 d4 43 11 00       	push   0x1143d4
  104514:	e8 57 85 00 00       	call   10ca70 <__ubsan_handle_type_mismatch>
  104519:	83 c4 10             	add    esp,0x10
  10451c:	e9 4f cf ff ff       	jmp    101470 <_ZN2os3hal3idt15init_exceptionsEv+0x990>
  104521:	8d 85 4d 77 19 00    	lea    eax,[ebp+0x19774d]
  104527:	39 c2                	cmp    edx,eax
  104529:	0f 87 1c cf ff ff    	ja     10144b <_ZN2os3hal3idt15init_exceptionsEv+0x96b>
  10452f:	89 54 24 0c          	mov    DWORD PTR [esp+0xc],edx
  104533:	50                   	push   eax
  104534:	50                   	push   eax
  104535:	68 4d 77 19 00       	push   0x19774d
  10453a:	68 ec 43 11 00       	push   0x1143ec
  10453f:	e8 2c 85 00 00       	call   10ca70 <__ubsan_handle_type_mismatch>
  104544:	83 c4 10             	add    esp,0x10
  104547:	8b 54 24 0c          	mov    edx,DWORD PTR [esp+0xc]
  10454b:	e9 fb ce ff ff       	jmp    10144b <_ZN2os3hal3idt15init_exceptionsEv+0x96b>
  104550:	8d 85 4d 77 19 00    	lea    eax,[ebp+0x19774d]
  104556:	39 c2                	cmp    edx,eax
  104558:	0f 87 c8 ce ff ff    	ja     101426 <_ZN2os3hal3idt15init_exceptionsEv+0x946>
  10455e:	89 54 24 0c          	mov    DWORD PTR [esp+0xc],edx
  104562:	50                   	push   eax
  104563:	50                   	push   eax
  104564:	68 4d 77 19 00       	push   0x19774d
  104569:	68 04 44 11 00       	push   0x114404
  10456e:	e8 fd 84 00 00       	call   10ca70 <__ubsan_handle_type_mismatch>
  104573:	83 c4 10             	add    esp,0x10
  104576:	8b 54 24 0c          	mov    edx,DWORD PTR [esp+0xc]
  10457a:	e9 a7 ce ff ff       	jmp    101426 <_ZN2os3hal3idt15init_exceptionsEv+0x946>
  10457f:	89 e8                	mov    eax,ebp
  104581:	01 d0                	add    eax,edx
  104583:	0f 82 7e ce ff ff    	jb     101407 <_ZN2os3hal3idt15init_exceptionsEv+0x927>
  104589:	89 54 24 0c          	mov    DWORD PTR [esp+0xc],edx
  10458d:	50                   	push   eax
  10458e:	50                   	push   eax
  10458f:	52                   	push   edx
  104590:	68 1c 44 11 00       	push   0x11441c
  104595:	e8 d6 84 00 00       	call   10ca70 <__ubsan_handle_type_mismatch>
  10459a:	83 c4 10             	add    esp,0x10
  10459d:	8b 54 24 0c          	mov    edx,DWORD PTR [esp+0xc]
  1045a1:	e9 61 ce ff ff       	jmp    101407 <_ZN2os3hal3idt15init_exceptionsEv+0x927>
  1045a6:	05 4c 77 19 00       	add    eax,0x19774c
  1045ab:	0f 82 38 ce ff ff    	jb     1013e9 <_ZN2os3hal3idt15init_exceptionsEv+0x909>
  1045b1:	50                   	push   eax
  1045b2:	50                   	push   eax
  1045b3:	68 4c 77 19 00       	push   0x19774c
  1045b8:	68 34 44 11 00       	push   0x114434
  1045bd:	e8 ae 84 00 00       	call   10ca70 <__ubsan_handle_type_mismatch>
  1045c2:	83 c4 10             	add    esp,0x10
  1045c5:	e9 1f ce ff ff       	jmp    1013e9 <_ZN2os3hal3idt15init_exceptionsEv+0x909>
  1045ca:	05 4e 77 19 00       	add    eax,0x19774e
  1045cf:	0f 82 fc cd ff ff    	jb     1013d1 <_ZN2os3hal3idt15init_exceptionsEv+0x8f1>
  1045d5:	50                   	push   eax
  1045d6:	50                   	push   eax
  1045d7:	68 4e 77 19 00       	push   0x19774e
  1045dc:	68 4c 44 11 00       	push   0x11444c
  1045e1:	e8 8a 84 00 00       	call   10ca70 <__ubsan_handle_type_mismatch>
  1045e6:	83 c4 10             	add    esp,0x10
  1045e9:	e9 e3 cd ff ff       	jmp    1013d1 <_ZN2os3hal3idt15init_exceptionsEv+0x8f1>
  1045ee:	05 48 77 19 00       	add    eax,0x197748
  1045f3:	0f 82 bd cd ff ff    	jb     1013b6 <_ZN2os3hal3idt15init_exceptionsEv+0x8d6>
  1045f9:	50                   	push   eax
  1045fa:	50                   	push   eax
  1045fb:	68 48 77 19 00       	push   0x197748
  104600:	68 64 44 11 00       	push   0x114464
  104605:	e8 66 84 00 00       	call   10ca70 <__ubsan_handle_type_mismatch>
  10460a:	83 c4 10             	add    esp,0x10
  10460d:	e9 a4 cd ff ff       	jmp    1013b6 <_ZN2os3hal3idt15init_exceptionsEv+0x8d6>
  104612:	05 42 77 19 00       	add    eax,0x197742
  104617:	0f 82 77 cd ff ff    	jb     101394 <_ZN2os3hal3idt15init_exceptionsEv+0x8b4>
  10461d:	51                   	push   ecx
  10461e:	51                   	push   ecx
  10461f:	68 42 77 19 00       	push   0x197742
  104624:	68 7c 44 11 00       	push   0x11447c
  104629:	e8 42 84 00 00       	call   10ca70 <__ubsan_handle_type_mismatch>
  10462e:	83 c4 10             	add    esp,0x10
  104631:	e9 5e cd ff ff       	jmp    101394 <_ZN2os3hal3idt15init_exceptionsEv+0x8b4>
  104636:	81 c5 45 77 19 00    	add    ebp,0x197745
  10463c:	39 ea                	cmp    edx,ebp
  10463e:	0f 87 38 cd ff ff    	ja     10137c <_ZN2os3hal3idt15init_exceptionsEv+0x89c>
  104644:	55                   	push   ebp
  104645:	55                   	push   ebp
  104646:	68 45 77 19 00       	push   0x197745
  10464b:	68 94 44 11 00       	push   0x114494
  104650:	e8 1b 84 00 00       	call   10ca70 <__ubsan_handle_type_mismatch>
  104655:	83 c4 10             	add    esp,0x10
  104658:	e9 1f cd ff ff       	jmp    10137c <_ZN2os3hal3idt15init_exceptionsEv+0x89c>
  10465d:	8d 85 45 77 19 00    	lea    eax,[ebp+0x197745]
  104663:	39 c2                	cmp    edx,eax
  104665:	0f 87 ec cc ff ff    	ja     101357 <_ZN2os3hal3idt15init_exceptionsEv+0x877>
  10466b:	89 54 24 0c          	mov    DWORD PTR [esp+0xc],edx
  10466f:	50                   	push   eax
  104670:	50                   	push   eax
  104671:	68 45 77 19 00       	push   0x197745
  104676:	68 ac 44 11 00       	push   0x1144ac
  10467b:	e8 f0 83 00 00       	call   10ca70 <__ubsan_handle_type_mismatch>
  104680:	83 c4 10             	add    esp,0x10
  104683:	8b 54 24 0c          	mov    edx,DWORD PTR [esp+0xc]
  104687:	e9 cb cc ff ff       	jmp    101357 <_ZN2os3hal3idt15init_exceptionsEv+0x877>
  10468c:	8d 85 45 77 19 00    	lea    eax,[ebp+0x197745]
  104692:	39 c2                	cmp    edx,eax
  104694:	0f 87 98 cc ff ff    	ja     101332 <_ZN2os3hal3idt15init_exceptionsEv+0x852>
  10469a:	89 54 24 0c          	mov    DWORD PTR [esp+0xc],edx
  10469e:	50                   	push   eax
  10469f:	50                   	push   eax
  1046a0:	68 45 77 19 00       	push   0x197745
  1046a5:	68 c4 44 11 00       	push   0x1144c4
  1046aa:	e8 c1 83 00 00       	call   10ca70 <__ubsan_handle_type_mismatch>
  1046af:	83 c4 10             	add    esp,0x10
  1046b2:	8b 54 24 0c          	mov    edx,DWORD PTR [esp+0xc]
  1046b6:	e9 77 cc ff ff       	jmp    101332 <_ZN2os3hal3idt15init_exceptionsEv+0x852>
  1046bb:	89 e8                	mov    eax,ebp
  1046bd:	01 d0                	add    eax,edx
  1046bf:	0f 82 4e cc ff ff    	jb     101313 <_ZN2os3hal3idt15init_exceptionsEv+0x833>
  1046c5:	89 54 24 0c          	mov    DWORD PTR [esp+0xc],edx
  1046c9:	50                   	push   eax
  1046ca:	50                   	push   eax
  1046cb:	52                   	push   edx
  1046cc:	68 dc 44 11 00       	push   0x1144dc
  1046d1:	e8 9a 83 00 00       	call   10ca70 <__ubsan_handle_type_mismatch>
  1046d6:	83 c4 10             	add    esp,0x10
  1046d9:	8b 54 24 0c          	mov    edx,DWORD PTR [esp+0xc]
  1046dd:	e9 31 cc ff ff       	jmp    101313 <_ZN2os3hal3idt15init_exceptionsEv+0x833>
  1046e2:	05 44 77 19 00       	add    eax,0x197744
  1046e7:	0f 82 08 cc ff ff    	jb     1012f5 <_ZN2os3hal3idt15init_exceptionsEv+0x815>
  1046ed:	50                   	push   eax
  1046ee:	50                   	push   eax
  1046ef:	68 44 77 19 00       	push   0x197744
  1046f4:	68 f4 44 11 00       	push   0x1144f4
  1046f9:	e8 72 83 00 00       	call   10ca70 <__ubsan_handle_type_mismatch>
  1046fe:	83 c4 10             	add    esp,0x10
  104701:	e9 ef cb ff ff       	jmp    1012f5 <_ZN2os3hal3idt15init_exceptionsEv+0x815>
  104706:	05 46 77 19 00       	add    eax,0x197746
  10470b:	0f 82 cc cb ff ff    	jb     1012dd <_ZN2os3hal3idt15init_exceptionsEv+0x7fd>
  104711:	50                   	push   eax
  104712:	50                   	push   eax
  104713:	68 46 77 19 00       	push   0x197746
  104718:	68 0c 45 11 00       	push   0x11450c
  10471d:	e8 4e 83 00 00       	call   10ca70 <__ubsan_handle_type_mismatch>
  104722:	83 c4 10             	add    esp,0x10
  104725:	e9 b3 cb ff ff       	jmp    1012dd <_ZN2os3hal3idt15init_exceptionsEv+0x7fd>
  10472a:	05 40 77 19 00       	add    eax,0x197740
  10472f:	0f 82 8d cb ff ff    	jb     1012c2 <_ZN2os3hal3idt15init_exceptionsEv+0x7e2>
  104735:	50                   	push   eax
  104736:	50                   	push   eax
  104737:	68 40 77 19 00       	push   0x197740
  10473c:	68 24 45 11 00       	push   0x114524
  104741:	e8 2a 83 00 00       	call   10ca70 <__ubsan_handle_type_mismatch>
  104746:	83 c4 10             	add    esp,0x10
  104749:	e9 74 cb ff ff       	jmp    1012c2 <_ZN2os3hal3idt15init_exceptionsEv+0x7e2>
  10474e:	05 3a 77 19 00       	add    eax,0x19773a
  104753:	0f 82 47 cb ff ff    	jb     1012a0 <_ZN2os3hal3idt15init_exceptionsEv+0x7c0>
  104759:	51                   	push   ecx
  10475a:	51                   	push   ecx
  10475b:	68 3a 77 19 00       	push   0x19773a
  104760:	68 3c 45 11 00       	push   0x11453c
  104765:	e8 06 83 00 00       	call   10ca70 <__ubsan_handle_type_mismatch>
  10476a:	83 c4 10             	add    esp,0x10
  10476d:	e9 2e cb ff ff       	jmp    1012a0 <_ZN2os3hal3idt15init_exceptionsEv+0x7c0>
  104772:	81 c5 3d 77 19 00    	add    ebp,0x19773d
  104778:	39 ea                	cmp    edx,ebp
  10477a:	0f 87 08 cb ff ff    	ja     101288 <_ZN2os3hal3idt15init_exceptionsEv+0x7a8>
  104780:	55                   	push   ebp
  104781:	55                   	push   ebp
  104782:	68 3d 77 19 00       	push   0x19773d
  104787:	68 54 45 11 00       	push   0x114554
  10478c:	e8 df 82 00 00       	call   10ca70 <__ubsan_handle_type_mismatch>
  104791:	83 c4 10             	add    esp,0x10
  104794:	e9 ef ca ff ff       	jmp    101288 <_ZN2os3hal3idt15init_exceptionsEv+0x7a8>
  104799:	8d 85 3d 77 19 00    	lea    eax,[ebp+0x19773d]
  10479f:	39 c2                	cmp    edx,eax
  1047a1:	0f 87 bc ca ff ff    	ja     101263 <_ZN2os3hal3idt15init_exceptionsEv+0x783>
  1047a7:	89 54 24 0c          	mov    DWORD PTR [esp+0xc],edx
  1047ab:	50                   	push   eax
  1047ac:	50                   	push   eax
  1047ad:	68 3d 77 19 00       	push   0x19773d
  1047b2:	68 6c 45 11 00       	push   0x11456c
  1047b7:	e8 b4 82 00 00       	call   10ca70 <__ubsan_handle_type_mismatch>
  1047bc:	83 c4 10             	add    esp,0x10
  1047bf:	8b 54 24 0c          	mov    edx,DWORD PTR [esp+0xc]
  1047c3:	e9 9b ca ff ff       	jmp    101263 <_ZN2os3hal3idt15init_exceptionsEv+0x783>
  1047c8:	8d 85 3d 77 19 00    	lea    eax,[ebp+0x19773d]
  1047ce:	39 c2                	cmp    edx,eax
  1047d0:	0f 87 68 ca ff ff    	ja     10123e <_ZN2os3hal3idt15init_exceptionsEv+0x75e>
  1047d6:	89 54 24 0c          	mov    DWORD PTR [esp+0xc],edx
  1047da:	50                   	push   eax
  1047db:	50                   	push   eax
  1047dc:	68 3d 77 19 00       	push   0x19773d
  1047e1:	68 84 45 11 00       	push   0x114584
  1047e6:	e8 85 82 00 00       	call   10ca70 <__ubsan_handle_type_mismatch>
  1047eb:	83 c4 10             	add    esp,0x10
  1047ee:	8b 54 24 0c          	mov    edx,DWORD PTR [esp+0xc]
  1047f2:	e9 47 ca ff ff       	jmp    10123e <_ZN2os3hal3idt15init_exceptionsEv+0x75e>
  1047f7:	89 e8                	mov    eax,ebp
  1047f9:	01 d0                	add    eax,edx
  1047fb:	0f 82 1e ca ff ff    	jb     10121f <_ZN2os3hal3idt15init_exceptionsEv+0x73f>
  104801:	89 54 24 0c          	mov    DWORD PTR [esp+0xc],edx
  104805:	50                   	push   eax
  104806:	50                   	push   eax
  104807:	52                   	push   edx
  104808:	68 9c 45 11 00       	push   0x11459c
  10480d:	e8 5e 82 00 00       	call   10ca70 <__ubsan_handle_type_mismatch>
  104812:	83 c4 10             	add    esp,0x10
  104815:	8b 54 24 0c          	mov    edx,DWORD PTR [esp+0xc]
  104819:	e9 01 ca ff ff       	jmp    10121f <_ZN2os3hal3idt15init_exceptionsEv+0x73f>
  10481e:	05 3c 77 19 00       	add    eax,0x19773c
  104823:	0f 82 d8 c9 ff ff    	jb     101201 <_ZN2os3hal3idt15init_exceptionsEv+0x721>
  104829:	50                   	push   eax
  10482a:	50                   	push   eax
  10482b:	68 3c 77 19 00       	push   0x19773c
  104830:	68 b4 45 11 00       	push   0x1145b4
  104835:	e8 36 82 00 00       	call   10ca70 <__ubsan_handle_type_mismatch>
  10483a:	83 c4 10             	add    esp,0x10
  10483d:	e9 bf c9 ff ff       	jmp    101201 <_ZN2os3hal3idt15init_exceptionsEv+0x721>
  104842:	05 3e 77 19 00       	add    eax,0x19773e
  104847:	0f 82 9c c9 ff ff    	jb     1011e9 <_ZN2os3hal3idt15init_exceptionsEv+0x709>
  10484d:	50                   	push   eax
  10484e:	50                   	push   eax
  10484f:	68 3e 77 19 00       	push   0x19773e
  104854:	68 cc 45 11 00       	push   0x1145cc
  104859:	e8 12 82 00 00       	call   10ca70 <__ubsan_handle_type_mismatch>
  10485e:	83 c4 10             	add    esp,0x10
  104861:	e9 83 c9 ff ff       	jmp    1011e9 <_ZN2os3hal3idt15init_exceptionsEv+0x709>
  104866:	05 38 77 19 00       	add    eax,0x197738
  10486b:	0f 82 5d c9 ff ff    	jb     1011ce <_ZN2os3hal3idt15init_exceptionsEv+0x6ee>
  104871:	50                   	push   eax
  104872:	50                   	push   eax
  104873:	68 38 77 19 00       	push   0x197738
  104878:	68 e4 45 11 00       	push   0x1145e4
  10487d:	e8 ee 81 00 00       	call   10ca70 <__ubsan_handle_type_mismatch>
  104882:	83 c4 10             	add    esp,0x10
  104885:	e9 44 c9 ff ff       	jmp    1011ce <_ZN2os3hal3idt15init_exceptionsEv+0x6ee>
  10488a:	05 32 77 19 00       	add    eax,0x197732
  10488f:	0f 82 17 c9 ff ff    	jb     1011ac <_ZN2os3hal3idt15init_exceptionsEv+0x6cc>
  104895:	51                   	push   ecx
  104896:	51                   	push   ecx
  104897:	68 32 77 19 00       	push   0x197732
  10489c:	68 fc 45 11 00       	push   0x1145fc
  1048a1:	e8 ca 81 00 00       	call   10ca70 <__ubsan_handle_type_mismatch>
  1048a6:	83 c4 10             	add    esp,0x10
  1048a9:	e9 fe c8 ff ff       	jmp    1011ac <_ZN2os3hal3idt15init_exceptionsEv+0x6cc>
  1048ae:	81 c5 35 77 19 00    	add    ebp,0x197735
  1048b4:	39 ea                	cmp    edx,ebp
  1048b6:	0f 87 d8 c8 ff ff    	ja     101194 <_ZN2os3hal3idt15init_exceptionsEv+0x6b4>
  1048bc:	55                   	push   ebp
  1048bd:	55                   	push   ebp
  1048be:	68 35 77 19 00       	push   0x197735
  1048c3:	68 14 46 11 00       	push   0x114614
  1048c8:	e8 a3 81 00 00       	call   10ca70 <__ubsan_handle_type_mismatch>
  1048cd:	83 c4 10             	add    esp,0x10
  1048d0:	e9 bf c8 ff ff       	jmp    101194 <_ZN2os3hal3idt15init_exceptionsEv+0x6b4>
  1048d5:	8d 85 35 77 19 00    	lea    eax,[ebp+0x197735]
  1048db:	39 c2                	cmp    edx,eax
  1048dd:	0f 87 8c c8 ff ff    	ja     10116f <_ZN2os3hal3idt15init_exceptionsEv+0x68f>
  1048e3:	89 54 24 0c          	mov    DWORD PTR [esp+0xc],edx
  1048e7:	50                   	push   eax
  1048e8:	50                   	push   eax
  1048e9:	68 35 77 19 00       	push   0x197735
  1048ee:	68 2c 46 11 00       	push   0x11462c
  1048f3:	e8 78 81 00 00       	call   10ca70 <__ubsan_handle_type_mismatch>
  1048f8:	83 c4 10             	add    esp,0x10
  1048fb:	8b 54 24 0c          	mov    edx,DWORD PTR [esp+0xc]
  1048ff:	e9 6b c8 ff ff       	jmp    10116f <_ZN2os3hal3idt15init_exceptionsEv+0x68f>
  104904:	8d 85 35 77 19 00    	lea    eax,[ebp+0x197735]
  10490a:	39 c2                	cmp    edx,eax
  10490c:	0f 87 38 c8 ff ff    	ja     10114a <_ZN2os3hal3idt15init_exceptionsEv+0x66a>
  104912:	89 54 24 0c          	mov    DWORD PTR [esp+0xc],edx
  104916:	50                   	push   eax
  104917:	50                   	push   eax
  104918:	68 35 77 19 00       	push   0x197735
  10491d:	68 44 46 11 00       	push   0x114644
  104922:	e8 49 81 00 00       	call   10ca70 <__ubsan_handle_type_mismatch>
  104927:	83 c4 10             	add    esp,0x10
  10492a:	8b 54 24 0c          	mov    edx,DWORD PTR [esp+0xc]
  10492e:	e9 17 c8 ff ff       	jmp    10114a <_ZN2os3hal3idt15init_exceptionsEv+0x66a>
  104933:	89 e8                	mov    eax,ebp
  104935:	01 d0                	add    eax,edx
  104937:	0f 82 ee c7 ff ff    	jb     10112b <_ZN2os3hal3idt15init_exceptionsEv+0x64b>
  10493d:	89 54 24 0c          	mov    DWORD PTR [esp+0xc],edx
  104941:	50                   	push   eax
  104942:	50                   	push   eax
  104943:	52                   	push   edx
  104944:	68 5c 46 11 00       	push   0x11465c
  104949:	e8 22 81 00 00       	call   10ca70 <__ubsan_handle_type_mismatch>
  10494e:	83 c4 10             	add    esp,0x10
  104951:	8b 54 24 0c          	mov    edx,DWORD PTR [esp+0xc]
  104955:	e9 d1 c7 ff ff       	jmp    10112b <_ZN2os3hal3idt15init_exceptionsEv+0x64b>
  10495a:	05 34 77 19 00       	add    eax,0x197734
  10495f:	0f 82 a8 c7 ff ff    	jb     10110d <_ZN2os3hal3idt15init_exceptionsEv+0x62d>
  104965:	50                   	push   eax
  104966:	50                   	push   eax
  104967:	68 34 77 19 00       	push   0x197734
  10496c:	68 74 46 11 00       	push   0x114674
  104971:	e8 fa 80 00 00       	call   10ca70 <__ubsan_handle_type_mismatch>
  104976:	83 c4 10             	add    esp,0x10
  104979:	e9 8f c7 ff ff       	jmp    10110d <_ZN2os3hal3idt15init_exceptionsEv+0x62d>
  10497e:	05 36 77 19 00       	add    eax,0x197736
  104983:	0f 82 6c c7 ff ff    	jb     1010f5 <_ZN2os3hal3idt15init_exceptionsEv+0x615>
  104989:	50                   	push   eax
  10498a:	50                   	push   eax
  10498b:	68 36 77 19 00       	push   0x197736
  104990:	68 8c 46 11 00       	push   0x11468c
  104995:	e8 d6 80 00 00       	call   10ca70 <__ubsan_handle_type_mismatch>
  10499a:	83 c4 10             	add    esp,0x10
  10499d:	e9 53 c7 ff ff       	jmp    1010f5 <_ZN2os3hal3idt15init_exceptionsEv+0x615>
  1049a2:	05 30 77 19 00       	add    eax,0x197730
  1049a7:	0f 82 2d c7 ff ff    	jb     1010da <_ZN2os3hal3idt15init_exceptionsEv+0x5fa>
  1049ad:	50                   	push   eax
  1049ae:	50                   	push   eax
  1049af:	68 30 77 19 00       	push   0x197730
  1049b4:	68 a4 46 11 00       	push   0x1146a4
  1049b9:	e8 b2 80 00 00       	call   10ca70 <__ubsan_handle_type_mismatch>
  1049be:	83 c4 10             	add    esp,0x10
  1049c1:	e9 14 c7 ff ff       	jmp    1010da <_ZN2os3hal3idt15init_exceptionsEv+0x5fa>
  1049c6:	05 2a 77 19 00       	add    eax,0x19772a
  1049cb:	0f 82 e7 c6 ff ff    	jb     1010b8 <_ZN2os3hal3idt15init_exceptionsEv+0x5d8>
  1049d1:	51                   	push   ecx
  1049d2:	51                   	push   ecx
  1049d3:	68 2a 77 19 00       	push   0x19772a
  1049d8:	68 bc 46 11 00       	push   0x1146bc
  1049dd:	e8 8e 80 00 00       	call   10ca70 <__ubsan_handle_type_mismatch>
  1049e2:	83 c4 10             	add    esp,0x10
  1049e5:	e9 ce c6 ff ff       	jmp    1010b8 <_ZN2os3hal3idt15init_exceptionsEv+0x5d8>
  1049ea:	81 c5 2d 77 19 00    	add    ebp,0x19772d
  1049f0:	39 ea                	cmp    edx,ebp
  1049f2:	0f 87 a8 c6 ff ff    	ja     1010a0 <_ZN2os3hal3idt15init_exceptionsEv+0x5c0>
  1049f8:	55                   	push   ebp
  1049f9:	55                   	push   ebp
  1049fa:	68 2d 77 19 00       	push   0x19772d
  1049ff:	68 d4 46 11 00       	push   0x1146d4
  104a04:	e8 67 80 00 00       	call   10ca70 <__ubsan_handle_type_mismatch>
  104a09:	83 c4 10             	add    esp,0x10
  104a0c:	e9 8f c6 ff ff       	jmp    1010a0 <_ZN2os3hal3idt15init_exceptionsEv+0x5c0>
  104a11:	8d 85 2d 77 19 00    	lea    eax,[ebp+0x19772d]
  104a17:	39 c2                	cmp    edx,eax
  104a19:	0f 87 5c c6 ff ff    	ja     10107b <_ZN2os3hal3idt15init_exceptionsEv+0x59b>
  104a1f:	89 54 24 0c          	mov    DWORD PTR [esp+0xc],edx
  104a23:	50                   	push   eax
  104a24:	50                   	push   eax
  104a25:	68 2d 77 19 00       	push   0x19772d
  104a2a:	68 ec 46 11 00       	push   0x1146ec
  104a2f:	e8 3c 80 00 00       	call   10ca70 <__ubsan_handle_type_mismatch>
  104a34:	83 c4 10             	add    esp,0x10
  104a37:	8b 54 24 0c          	mov    edx,DWORD PTR [esp+0xc]
  104a3b:	e9 3b c6 ff ff       	jmp    10107b <_ZN2os3hal3idt15init_exceptionsEv+0x59b>
  104a40:	8d 85 2d 77 19 00    	lea    eax,[ebp+0x19772d]
  104a46:	39 c2                	cmp    edx,eax
  104a48:	0f 87 08 c6 ff ff    	ja     101056 <_ZN2os3hal3idt15init_exceptionsEv+0x576>
  104a4e:	89 54 24 0c          	mov    DWORD PTR [esp+0xc],edx
  104a52:	50                   	push   eax
  104a53:	50                   	push   eax
  104a54:	68 2d 77 19 00       	push   0x19772d
  104a59:	68 04 47 11 00       	push   0x114704
  104a5e:	e8 0d 80 00 00       	call   10ca70 <__ubsan_handle_type_mismatch>
  104a63:	83 c4 10             	add    esp,0x10
  104a66:	8b 54 24 0c          	mov    edx,DWORD PTR [esp+0xc]
  104a6a:	e9 e7 c5 ff ff       	jmp    101056 <_ZN2os3hal3idt15init_exceptionsEv+0x576>
  104a6f:	89 e8                	mov    eax,ebp
  104a71:	01 d0                	add    eax,edx
  104a73:	0f 82 be c5 ff ff    	jb     101037 <_ZN2os3hal3idt15init_exceptionsEv+0x557>
  104a79:	89 54 24 0c          	mov    DWORD PTR [esp+0xc],edx
  104a7d:	50                   	push   eax
  104a7e:	50                   	push   eax
  104a7f:	52                   	push   edx
  104a80:	68 1c 47 11 00       	push   0x11471c
  104a85:	e8 e6 7f 00 00       	call   10ca70 <__ubsan_handle_type_mismatch>
  104a8a:	83 c4 10             	add    esp,0x10
  104a8d:	8b 54 24 0c          	mov    edx,DWORD PTR [esp+0xc]
  104a91:	e9 a1 c5 ff ff       	jmp    101037 <_ZN2os3hal3idt15init_exceptionsEv+0x557>
  104a96:	05 2c 77 19 00       	add    eax,0x19772c
  104a9b:	0f 82 78 c5 ff ff    	jb     101019 <_ZN2os3hal3idt15init_exceptionsEv+0x539>
  104aa1:	50                   	push   eax
  104aa2:	50                   	push   eax
  104aa3:	68 2c 77 19 00       	push   0x19772c
  104aa8:	68 34 47 11 00       	push   0x114734
  104aad:	e8 be 7f 00 00       	call   10ca70 <__ubsan_handle_type_mismatch>
  104ab2:	83 c4 10             	add    esp,0x10
  104ab5:	e9 5f c5 ff ff       	jmp    101019 <_ZN2os3hal3idt15init_exceptionsEv+0x539>
  104aba:	05 2e 77 19 00       	add    eax,0x19772e
  104abf:	0f 82 3c c5 ff ff    	jb     101001 <_ZN2os3hal3idt15init_exceptionsEv+0x521>
  104ac5:	50                   	push   eax
  104ac6:	50                   	push   eax
  104ac7:	68 2e 77 19 00       	push   0x19772e
  104acc:	68 4c 47 11 00       	push   0x11474c
  104ad1:	e8 9a 7f 00 00       	call   10ca70 <__ubsan_handle_type_mismatch>
  104ad6:	83 c4 10             	add    esp,0x10
  104ad9:	e9 23 c5 ff ff       	jmp    101001 <_ZN2os3hal3idt15init_exceptionsEv+0x521>
  104ade:	05 28 77 19 00       	add    eax,0x197728
  104ae3:	0f 82 fd c4 ff ff    	jb     100fe6 <_ZN2os3hal3idt15init_exceptionsEv+0x506>
  104ae9:	50                   	push   eax
  104aea:	50                   	push   eax
  104aeb:	68 28 77 19 00       	push   0x197728
  104af0:	68 64 47 11 00       	push   0x114764
  104af5:	e8 76 7f 00 00       	call   10ca70 <__ubsan_handle_type_mismatch>
  104afa:	83 c4 10             	add    esp,0x10
  104afd:	e9 e4 c4 ff ff       	jmp    100fe6 <_ZN2os3hal3idt15init_exceptionsEv+0x506>
  104b02:	05 22 77 19 00       	add    eax,0x197722
  104b07:	0f 82 b7 c4 ff ff    	jb     100fc4 <_ZN2os3hal3idt15init_exceptionsEv+0x4e4>
  104b0d:	51                   	push   ecx
  104b0e:	51                   	push   ecx
  104b0f:	68 22 77 19 00       	push   0x197722
  104b14:	68 7c 47 11 00       	push   0x11477c
  104b19:	e8 52 7f 00 00       	call   10ca70 <__ubsan_handle_type_mismatch>
  104b1e:	83 c4 10             	add    esp,0x10
  104b21:	e9 9e c4 ff ff       	jmp    100fc4 <_ZN2os3hal3idt15init_exceptionsEv+0x4e4>
  104b26:	81 c5 25 77 19 00    	add    ebp,0x197725
  104b2c:	39 ea                	cmp    edx,ebp
  104b2e:	0f 87 78 c4 ff ff    	ja     100fac <_ZN2os3hal3idt15init_exceptionsEv+0x4cc>
  104b34:	55                   	push   ebp
  104b35:	55                   	push   ebp
  104b36:	68 25 77 19 00       	push   0x197725
  104b3b:	68 94 47 11 00       	push   0x114794
  104b40:	e8 2b 7f 00 00       	call   10ca70 <__ubsan_handle_type_mismatch>
  104b45:	83 c4 10             	add    esp,0x10
  104b48:	e9 5f c4 ff ff       	jmp    100fac <_ZN2os3hal3idt15init_exceptionsEv+0x4cc>
  104b4d:	8d 85 25 77 19 00    	lea    eax,[ebp+0x197725]
  104b53:	39 c2                	cmp    edx,eax
  104b55:	0f 87 2c c4 ff ff    	ja     100f87 <_ZN2os3hal3idt15init_exceptionsEv+0x4a7>
  104b5b:	89 54 24 0c          	mov    DWORD PTR [esp+0xc],edx
  104b5f:	50                   	push   eax
  104b60:	50                   	push   eax
  104b61:	68 25 77 19 00       	push   0x197725
  104b66:	68 ac 47 11 00       	push   0x1147ac
  104b6b:	e8 00 7f 00 00       	call   10ca70 <__ubsan_handle_type_mismatch>
  104b70:	83 c4 10             	add    esp,0x10
  104b73:	8b 54 24 0c          	mov    edx,DWORD PTR [esp+0xc]
  104b77:	e9 0b c4 ff ff       	jmp    100f87 <_ZN2os3hal3idt15init_exceptionsEv+0x4a7>
  104b7c:	8d 85 25 77 19 00    	lea    eax,[ebp+0x197725]
  104b82:	39 c2                	cmp    edx,eax
  104b84:	0f 87 d8 c3 ff ff    	ja     100f62 <_ZN2os3hal3idt15init_exceptionsEv+0x482>
  104b8a:	89 54 24 0c          	mov    DWORD PTR [esp+0xc],edx
  104b8e:	50                   	push   eax
  104b8f:	50                   	push   eax
  104b90:	68 25 77 19 00       	push   0x197725
  104b95:	68 c4 47 11 00       	push   0x1147c4
  104b9a:	e8 d1 7e 00 00       	call   10ca70 <__ubsan_handle_type_mismatch>
  104b9f:	83 c4 10             	add    esp,0x10
  104ba2:	8b 54 24 0c          	mov    edx,DWORD PTR [esp+0xc]
  104ba6:	e9 b7 c3 ff ff       	jmp    100f62 <_ZN2os3hal3idt15init_exceptionsEv+0x482>
  104bab:	89 e8                	mov    eax,ebp
  104bad:	01 d0                	add    eax,edx
  104baf:	0f 82 8e c3 ff ff    	jb     100f43 <_ZN2os3hal3idt15init_exceptionsEv+0x463>
  104bb5:	89 54 24 0c          	mov    DWORD PTR [esp+0xc],edx
  104bb9:	50                   	push   eax
  104bba:	50                   	push   eax
  104bbb:	52                   	push   edx
  104bbc:	68 dc 47 11 00       	push   0x1147dc
  104bc1:	e8 aa 7e 00 00       	call   10ca70 <__ubsan_handle_type_mismatch>
  104bc6:	83 c4 10             	add    esp,0x10
  104bc9:	8b 54 24 0c          	mov    edx,DWORD PTR [esp+0xc]
  104bcd:	e9 71 c3 ff ff       	jmp    100f43 <_ZN2os3hal3idt15init_exceptionsEv+0x463>
  104bd2:	05 24 77 19 00       	add    eax,0x197724
  104bd7:	0f 82 48 c3 ff ff    	jb     100f25 <_ZN2os3hal3idt15init_exceptionsEv+0x445>
  104bdd:	50                   	push   eax
  104bde:	50                   	push   eax
  104bdf:	68 24 77 19 00       	push   0x197724
  104be4:	68 f4 47 11 00       	push   0x1147f4
  104be9:	e8 82 7e 00 00       	call   10ca70 <__ubsan_handle_type_mismatch>
  104bee:	83 c4 10             	add    esp,0x10
  104bf1:	e9 2f c3 ff ff       	jmp    100f25 <_ZN2os3hal3idt15init_exceptionsEv+0x445>
  104bf6:	05 26 77 19 00       	add    eax,0x197726
  104bfb:	0f 82 0c c3 ff ff    	jb     100f0d <_ZN2os3hal3idt15init_exceptionsEv+0x42d>
  104c01:	50                   	push   eax
  104c02:	50                   	push   eax
  104c03:	68 26 77 19 00       	push   0x197726
  104c08:	68 0c 48 11 00       	push   0x11480c
  104c0d:	e8 5e 7e 00 00       	call   10ca70 <__ubsan_handle_type_mismatch>
  104c12:	83 c4 10             	add    esp,0x10
  104c15:	e9 f3 c2 ff ff       	jmp    100f0d <_ZN2os3hal3idt15init_exceptionsEv+0x42d>
  104c1a:	05 20 77 19 00       	add    eax,0x197720
  104c1f:	0f 82 cd c2 ff ff    	jb     100ef2 <_ZN2os3hal3idt15init_exceptionsEv+0x412>
  104c25:	50                   	push   eax
  104c26:	50                   	push   eax
  104c27:	68 20 77 19 00       	push   0x197720
  104c2c:	68 24 48 11 00       	push   0x114824
  104c31:	e8 3a 7e 00 00       	call   10ca70 <__ubsan_handle_type_mismatch>
  104c36:	83 c4 10             	add    esp,0x10
  104c39:	e9 b4 c2 ff ff       	jmp    100ef2 <_ZN2os3hal3idt15init_exceptionsEv+0x412>
  104c3e:	05 1a 77 19 00       	add    eax,0x19771a
  104c43:	0f 82 87 c2 ff ff    	jb     100ed0 <_ZN2os3hal3idt15init_exceptionsEv+0x3f0>
  104c49:	51                   	push   ecx
  104c4a:	51                   	push   ecx
  104c4b:	68 1a 77 19 00       	push   0x19771a
  104c50:	68 3c 48 11 00       	push   0x11483c
  104c55:	e8 16 7e 00 00       	call   10ca70 <__ubsan_handle_type_mismatch>
  104c5a:	83 c4 10             	add    esp,0x10
  104c5d:	e9 6e c2 ff ff       	jmp    100ed0 <_ZN2os3hal3idt15init_exceptionsEv+0x3f0>
  104c62:	81 c5 1d 77 19 00    	add    ebp,0x19771d
  104c68:	39 ea                	cmp    edx,ebp
  104c6a:	0f 87 48 c2 ff ff    	ja     100eb8 <_ZN2os3hal3idt15init_exceptionsEv+0x3d8>
  104c70:	55                   	push   ebp
  104c71:	55                   	push   ebp
  104c72:	68 1d 77 19 00       	push   0x19771d
  104c77:	68 54 48 11 00       	push   0x114854
  104c7c:	e8 ef 7d 00 00       	call   10ca70 <__ubsan_handle_type_mismatch>
  104c81:	83 c4 10             	add    esp,0x10
  104c84:	e9 2f c2 ff ff       	jmp    100eb8 <_ZN2os3hal3idt15init_exceptionsEv+0x3d8>
  104c89:	8d 85 1d 77 19 00    	lea    eax,[ebp+0x19771d]
  104c8f:	39 c2                	cmp    edx,eax
  104c91:	0f 87 fc c1 ff ff    	ja     100e93 <_ZN2os3hal3idt15init_exceptionsEv+0x3b3>
  104c97:	89 54 24 0c          	mov    DWORD PTR [esp+0xc],edx
  104c9b:	50                   	push   eax
  104c9c:	50                   	push   eax
  104c9d:	68 1d 77 19 00       	push   0x19771d
  104ca2:	68 6c 48 11 00       	push   0x11486c
  104ca7:	e8 c4 7d 00 00       	call   10ca70 <__ubsan_handle_type_mismatch>
  104cac:	83 c4 10             	add    esp,0x10
  104caf:	8b 54 24 0c          	mov    edx,DWORD PTR [esp+0xc]
  104cb3:	e9 db c1 ff ff       	jmp    100e93 <_ZN2os3hal3idt15init_exceptionsEv+0x3b3>
  104cb8:	8d 85 1d 77 19 00    	lea    eax,[ebp+0x19771d]
  104cbe:	39 c2                	cmp    edx,eax
  104cc0:	0f 87 a8 c1 ff ff    	ja     100e6e <_ZN2os3hal3idt15init_exceptionsEv+0x38e>
  104cc6:	89 54 24 0c          	mov    DWORD PTR [esp+0xc],edx
  104cca:	50                   	push   eax
  104ccb:	50                   	push   eax
  104ccc:	68 1d 77 19 00       	push   0x19771d
  104cd1:	68 84 48 11 00       	push   0x114884
  104cd6:	e8 95 7d 00 00       	call   10ca70 <__ubsan_handle_type_mismatch>
  104cdb:	83 c4 10             	add    esp,0x10
  104cde:	8b 54 24 0c          	mov    edx,DWORD PTR [esp+0xc]
  104ce2:	e9 87 c1 ff ff       	jmp    100e6e <_ZN2os3hal3idt15init_exceptionsEv+0x38e>
  104ce7:	89 e8                	mov    eax,ebp
  104ce9:	01 d0                	add    eax,edx
  104ceb:	0f 82 5e c1 ff ff    	jb     100e4f <_ZN2os3hal3idt15init_exceptionsEv+0x36f>
  104cf1:	89 54 24 0c          	mov    DWORD PTR [esp+0xc],edx
  104cf5:	50                   	push   eax
  104cf6:	50                   	push   eax
  104cf7:	52                   	push   edx
  104cf8:	68 9c 48 11 00       	push   0x11489c
  104cfd:	e8 6e 7d 00 00       	call   10ca70 <__ubsan_handle_type_mismatch>
  104d02:	83 c4 10             	add    esp,0x10
  104d05:	8b 54 24 0c          	mov    edx,DWORD PTR [esp+0xc]
  104d09:	e9 41 c1 ff ff       	jmp    100e4f <_ZN2os3hal3idt15init_exceptionsEv+0x36f>
  104d0e:	05 1c 77 19 00       	add    eax,0x19771c
  104d13:	0f 82 18 c1 ff ff    	jb     100e31 <_ZN2os3hal3idt15init_exceptionsEv+0x351>
  104d19:	50                   	push   eax
  104d1a:	50                   	push   eax
  104d1b:	68 1c 77 19 00       	push   0x19771c
  104d20:	68 b4 48 11 00       	push   0x1148b4
  104d25:	e8 46 7d 00 00       	call   10ca70 <__ubsan_handle_type_mismatch>
  104d2a:	83 c4 10             	add    esp,0x10
  104d2d:	e9 ff c0 ff ff       	jmp    100e31 <_ZN2os3hal3idt15init_exceptionsEv+0x351>
  104d32:	05 1e 77 19 00       	add    eax,0x19771e
  104d37:	0f 82 dc c0 ff ff    	jb     100e19 <_ZN2os3hal3idt15init_exceptionsEv+0x339>
  104d3d:	50                   	push   eax
  104d3e:	50                   	push   eax
  104d3f:	68 1e 77 19 00       	push   0x19771e
  104d44:	68 cc 48 11 00       	push   0x1148cc
  104d49:	e8 22 7d 00 00       	call   10ca70 <__ubsan_handle_type_mismatch>
  104d4e:	83 c4 10             	add    esp,0x10
  104d51:	e9 c3 c0 ff ff       	jmp    100e19 <_ZN2os3hal3idt15init_exceptionsEv+0x339>
  104d56:	05 18 77 19 00       	add    eax,0x197718
  104d5b:	0f 82 9d c0 ff ff    	jb     100dfe <_ZN2os3hal3idt15init_exceptionsEv+0x31e>
  104d61:	50                   	push   eax
  104d62:	50                   	push   eax
  104d63:	68 18 77 19 00       	push   0x197718
  104d68:	68 e4 48 11 00       	push   0x1148e4
  104d6d:	e8 fe 7c 00 00       	call   10ca70 <__ubsan_handle_type_mismatch>
  104d72:	83 c4 10             	add    esp,0x10
  104d75:	e9 84 c0 ff ff       	jmp    100dfe <_ZN2os3hal3idt15init_exceptionsEv+0x31e>
  104d7a:	05 12 77 19 00       	add    eax,0x197712
  104d7f:	0f 82 57 c0 ff ff    	jb     100ddc <_ZN2os3hal3idt15init_exceptionsEv+0x2fc>
  104d85:	51                   	push   ecx
  104d86:	51                   	push   ecx
  104d87:	68 12 77 19 00       	push   0x197712
  104d8c:	68 fc 48 11 00       	push   0x1148fc
  104d91:	e8 da 7c 00 00       	call   10ca70 <__ubsan_handle_type_mismatch>
  104d96:	83 c4 10             	add    esp,0x10
  104d99:	e9 3e c0 ff ff       	jmp    100ddc <_ZN2os3hal3idt15init_exceptionsEv+0x2fc>
  104d9e:	81 c5 15 77 19 00    	add    ebp,0x197715
  104da4:	39 ea                	cmp    edx,ebp
  104da6:	0f 87 18 c0 ff ff    	ja     100dc4 <_ZN2os3hal3idt15init_exceptionsEv+0x2e4>
  104dac:	55                   	push   ebp
  104dad:	55                   	push   ebp
  104dae:	68 15 77 19 00       	push   0x197715
  104db3:	68 14 49 11 00       	push   0x114914
  104db8:	e8 b3 7c 00 00       	call   10ca70 <__ubsan_handle_type_mismatch>
  104dbd:	83 c4 10             	add    esp,0x10
  104dc0:	e9 ff bf ff ff       	jmp    100dc4 <_ZN2os3hal3idt15init_exceptionsEv+0x2e4>
  104dc5:	8d 85 15 77 19 00    	lea    eax,[ebp+0x197715]
  104dcb:	39 c2                	cmp    edx,eax
  104dcd:	0f 87 cc bf ff ff    	ja     100d9f <_ZN2os3hal3idt15init_exceptionsEv+0x2bf>
  104dd3:	89 54 24 0c          	mov    DWORD PTR [esp+0xc],edx
  104dd7:	50                   	push   eax
  104dd8:	50                   	push   eax
  104dd9:	68 15 77 19 00       	push   0x197715
  104dde:	68 2c 49 11 00       	push   0x11492c
  104de3:	e8 88 7c 00 00       	call   10ca70 <__ubsan_handle_type_mismatch>
  104de8:	83 c4 10             	add    esp,0x10
  104deb:	8b 54 24 0c          	mov    edx,DWORD PTR [esp+0xc]
  104def:	e9 ab bf ff ff       	jmp    100d9f <_ZN2os3hal3idt15init_exceptionsEv+0x2bf>
  104df4:	8d 85 15 77 19 00    	lea    eax,[ebp+0x197715]
  104dfa:	39 c2                	cmp    edx,eax
  104dfc:	0f 87 78 bf ff ff    	ja     100d7a <_ZN2os3hal3idt15init_exceptionsEv+0x29a>
  104e02:	89 54 24 0c          	mov    DWORD PTR [esp+0xc],edx
  104e06:	50                   	push   eax
  104e07:	50                   	push   eax
  104e08:	68 15 77 19 00       	push   0x197715
  104e0d:	68 44 49 11 00       	push   0x114944
  104e12:	e8 59 7c 00 00       	call   10ca70 <__ubsan_handle_type_mismatch>
  104e17:	83 c4 10             	add    esp,0x10
  104e1a:	8b 54 24 0c          	mov    edx,DWORD PTR [esp+0xc]
  104e1e:	e9 57 bf ff ff       	jmp    100d7a <_ZN2os3hal3idt15init_exceptionsEv+0x29a>
  104e23:	89 e8                	mov    eax,ebp
  104e25:	01 d0                	add    eax,edx
  104e27:	0f 82 2e bf ff ff    	jb     100d5b <_ZN2os3hal3idt15init_exceptionsEv+0x27b>
  104e2d:	89 54 24 0c          	mov    DWORD PTR [esp+0xc],edx
  104e31:	50                   	push   eax
  104e32:	50                   	push   eax
  104e33:	52                   	push   edx
  104e34:	68 5c 49 11 00       	push   0x11495c
  104e39:	e8 32 7c 00 00       	call   10ca70 <__ubsan_handle_type_mismatch>
  104e3e:	83 c4 10             	add    esp,0x10
  104e41:	8b 54 24 0c          	mov    edx,DWORD PTR [esp+0xc]
  104e45:	e9 11 bf ff ff       	jmp    100d5b <_ZN2os3hal3idt15init_exceptionsEv+0x27b>
  104e4a:	05 14 77 19 00       	add    eax,0x197714
  104e4f:	0f 82 e8 be ff ff    	jb     100d3d <_ZN2os3hal3idt15init_exceptionsEv+0x25d>
  104e55:	50                   	push   eax
  104e56:	50                   	push   eax
  104e57:	68 14 77 19 00       	push   0x197714
  104e5c:	68 74 49 11 00       	push   0x114974
  104e61:	e8 0a 7c 00 00       	call   10ca70 <__ubsan_handle_type_mismatch>
  104e66:	83 c4 10             	add    esp,0x10
  104e69:	e9 cf be ff ff       	jmp    100d3d <_ZN2os3hal3idt15init_exceptionsEv+0x25d>
  104e6e:	05 16 77 19 00       	add    eax,0x197716
  104e73:	0f 82 ac be ff ff    	jb     100d25 <_ZN2os3hal3idt15init_exceptionsEv+0x245>
  104e79:	50                   	push   eax
  104e7a:	50                   	push   eax
  104e7b:	68 16 77 19 00       	push   0x197716
  104e80:	68 8c 49 11 00       	push   0x11498c
  104e85:	e8 e6 7b 00 00       	call   10ca70 <__ubsan_handle_type_mismatch>
  104e8a:	83 c4 10             	add    esp,0x10
  104e8d:	e9 93 be ff ff       	jmp    100d25 <_ZN2os3hal3idt15init_exceptionsEv+0x245>
  104e92:	05 10 77 19 00       	add    eax,0x197710
  104e97:	0f 82 6d be ff ff    	jb     100d0a <_ZN2os3hal3idt15init_exceptionsEv+0x22a>
  104e9d:	50                   	push   eax
  104e9e:	50                   	push   eax
  104e9f:	68 10 77 19 00       	push   0x197710
  104ea4:	68 a4 49 11 00       	push   0x1149a4
  104ea9:	e8 c2 7b 00 00       	call   10ca70 <__ubsan_handle_type_mismatch>
  104eae:	83 c4 10             	add    esp,0x10
  104eb1:	e9 54 be ff ff       	jmp    100d0a <_ZN2os3hal3idt15init_exceptionsEv+0x22a>
  104eb6:	05 0a 77 19 00       	add    eax,0x19770a
  104ebb:	0f 82 27 be ff ff    	jb     100ce8 <_ZN2os3hal3idt15init_exceptionsEv+0x208>
  104ec1:	51                   	push   ecx
  104ec2:	51                   	push   ecx
  104ec3:	68 0a 77 19 00       	push   0x19770a
  104ec8:	68 bc 49 11 00       	push   0x1149bc
  104ecd:	e8 9e 7b 00 00       	call   10ca70 <__ubsan_handle_type_mismatch>
  104ed2:	83 c4 10             	add    esp,0x10
  104ed5:	e9 0e be ff ff       	jmp    100ce8 <_ZN2os3hal3idt15init_exceptionsEv+0x208>
  104eda:	81 c5 0d 77 19 00    	add    ebp,0x19770d
  104ee0:	39 ea                	cmp    edx,ebp
  104ee2:	0f 87 e8 bd ff ff    	ja     100cd0 <_ZN2os3hal3idt15init_exceptionsEv+0x1f0>
  104ee8:	55                   	push   ebp
  104ee9:	55                   	push   ebp
  104eea:	68 0d 77 19 00       	push   0x19770d
  104eef:	68 d4 49 11 00       	push   0x1149d4
  104ef4:	e8 77 7b 00 00       	call   10ca70 <__ubsan_handle_type_mismatch>
  104ef9:	83 c4 10             	add    esp,0x10
  104efc:	e9 cf bd ff ff       	jmp    100cd0 <_ZN2os3hal3idt15init_exceptionsEv+0x1f0>
  104f01:	8d 85 0d 77 19 00    	lea    eax,[ebp+0x19770d]
  104f07:	39 c2                	cmp    edx,eax
  104f09:	0f 87 9c bd ff ff    	ja     100cab <_ZN2os3hal3idt15init_exceptionsEv+0x1cb>
  104f0f:	89 54 24 0c          	mov    DWORD PTR [esp+0xc],edx
  104f13:	50                   	push   eax
  104f14:	50                   	push   eax
  104f15:	68 0d 77 19 00       	push   0x19770d
  104f1a:	68 ec 49 11 00       	push   0x1149ec
  104f1f:	e8 4c 7b 00 00       	call   10ca70 <__ubsan_handle_type_mismatch>
  104f24:	83 c4 10             	add    esp,0x10
  104f27:	8b 54 24 0c          	mov    edx,DWORD PTR [esp+0xc]
  104f2b:	e9 7b bd ff ff       	jmp    100cab <_ZN2os3hal3idt15init_exceptionsEv+0x1cb>
  104f30:	8d 85 0d 77 19 00    	lea    eax,[ebp+0x19770d]
  104f36:	39 c2                	cmp    edx,eax
  104f38:	0f 87 48 bd ff ff    	ja     100c86 <_ZN2os3hal3idt15init_exceptionsEv+0x1a6>
  104f3e:	89 54 24 0c          	mov    DWORD PTR [esp+0xc],edx
  104f42:	50                   	push   eax
  104f43:	50                   	push   eax
  104f44:	68 0d 77 19 00       	push   0x19770d
  104f49:	68 04 4a 11 00       	push   0x114a04
  104f4e:	e8 1d 7b 00 00       	call   10ca70 <__ubsan_handle_type_mismatch>
  104f53:	83 c4 10             	add    esp,0x10
  104f56:	8b 54 24 0c          	mov    edx,DWORD PTR [esp+0xc]
  104f5a:	e9 27 bd ff ff       	jmp    100c86 <_ZN2os3hal3idt15init_exceptionsEv+0x1a6>
  104f5f:	89 e8                	mov    eax,ebp
  104f61:	01 d0                	add    eax,edx
  104f63:	0f 82 fe bc ff ff    	jb     100c67 <_ZN2os3hal3idt15init_exceptionsEv+0x187>
  104f69:	89 54 24 0c          	mov    DWORD PTR [esp+0xc],edx
  104f6d:	50                   	push   eax
  104f6e:	50                   	push   eax
  104f6f:	52                   	push   edx
  104f70:	68 1c 4a 11 00       	push   0x114a1c
  104f75:	e8 f6 7a 00 00       	call   10ca70 <__ubsan_handle_type_mismatch>
  104f7a:	83 c4 10             	add    esp,0x10
  104f7d:	8b 54 24 0c          	mov    edx,DWORD PTR [esp+0xc]
  104f81:	e9 e1 bc ff ff       	jmp    100c67 <_ZN2os3hal3idt15init_exceptionsEv+0x187>
  104f86:	05 0c 77 19 00       	add    eax,0x19770c
  104f8b:	0f 82 b8 bc ff ff    	jb     100c49 <_ZN2os3hal3idt15init_exceptionsEv+0x169>
  104f91:	50                   	push   eax
  104f92:	50                   	push   eax
  104f93:	68 0c 77 19 00       	push   0x19770c
  104f98:	68 34 4a 11 00       	push   0x114a34
  104f9d:	e8 ce 7a 00 00       	call   10ca70 <__ubsan_handle_type_mismatch>
  104fa2:	83 c4 10             	add    esp,0x10
  104fa5:	e9 9f bc ff ff       	jmp    100c49 <_ZN2os3hal3idt15init_exceptionsEv+0x169>
  104faa:	05 0e 77 19 00       	add    eax,0x19770e
  104faf:	0f 82 7c bc ff ff    	jb     100c31 <_ZN2os3hal3idt15init_exceptionsEv+0x151>
  104fb5:	50                   	push   eax
  104fb6:	50                   	push   eax
  104fb7:	68 0e 77 19 00       	push   0x19770e
  104fbc:	68 4c 4a 11 00       	push   0x114a4c
  104fc1:	e8 aa 7a 00 00       	call   10ca70 <__ubsan_handle_type_mismatch>
  104fc6:	83 c4 10             	add    esp,0x10
  104fc9:	e9 63 bc ff ff       	jmp    100c31 <_ZN2os3hal3idt15init_exceptionsEv+0x151>
  104fce:	05 08 77 19 00       	add    eax,0x197708
  104fd3:	0f 82 3d bc ff ff    	jb     100c16 <_ZN2os3hal3idt15init_exceptionsEv+0x136>
  104fd9:	50                   	push   eax
  104fda:	50                   	push   eax
  104fdb:	68 08 77 19 00       	push   0x197708
  104fe0:	68 64 4a 11 00       	push   0x114a64
  104fe5:	e8 86 7a 00 00       	call   10ca70 <__ubsan_handle_type_mismatch>
  104fea:	83 c4 10             	add    esp,0x10
  104fed:	e9 24 bc ff ff       	jmp    100c16 <_ZN2os3hal3idt15init_exceptionsEv+0x136>
  104ff2:	05 02 77 19 00       	add    eax,0x197702
  104ff7:	0f 82 f7 bb ff ff    	jb     100bf4 <_ZN2os3hal3idt15init_exceptionsEv+0x114>
  104ffd:	51                   	push   ecx
  104ffe:	51                   	push   ecx
  104fff:	68 02 77 19 00       	push   0x197702
  105004:	68 7c 4a 11 00       	push   0x114a7c
  105009:	e8 62 7a 00 00       	call   10ca70 <__ubsan_handle_type_mismatch>
  10500e:	83 c4 10             	add    esp,0x10
  105011:	e9 de bb ff ff       	jmp    100bf4 <_ZN2os3hal3idt15init_exceptionsEv+0x114>
  105016:	81 c5 05 77 19 00    	add    ebp,0x197705
  10501c:	39 ea                	cmp    edx,ebp
  10501e:	0f 87 b8 bb ff ff    	ja     100bdc <_ZN2os3hal3idt15init_exceptionsEv+0xfc>
  105024:	55                   	push   ebp
  105025:	55                   	push   ebp
  105026:	68 05 77 19 00       	push   0x197705
  10502b:	68 94 4a 11 00       	push   0x114a94
  105030:	e8 3b 7a 00 00       	call   10ca70 <__ubsan_handle_type_mismatch>
  105035:	83 c4 10             	add    esp,0x10
  105038:	e9 9f bb ff ff       	jmp    100bdc <_ZN2os3hal3idt15init_exceptionsEv+0xfc>
  10503d:	8d 85 05 77 19 00    	lea    eax,[ebp+0x197705]
  105043:	39 c2                	cmp    edx,eax
  105045:	0f 87 6c bb ff ff    	ja     100bb7 <_ZN2os3hal3idt15init_exceptionsEv+0xd7>
  10504b:	89 54 24 0c          	mov    DWORD PTR [esp+0xc],edx
  10504f:	50                   	push   eax
  105050:	50                   	push   eax
  105051:	68 05 77 19 00       	push   0x197705
  105056:	68 ac 4a 11 00       	push   0x114aac
  10505b:	e8 10 7a 00 00       	call   10ca70 <__ubsan_handle_type_mismatch>
  105060:	83 c4 10             	add    esp,0x10
  105063:	8b 54 24 0c          	mov    edx,DWORD PTR [esp+0xc]
  105067:	e9 4b bb ff ff       	jmp    100bb7 <_ZN2os3hal3idt15init_exceptionsEv+0xd7>
  10506c:	8d 85 05 77 19 00    	lea    eax,[ebp+0x197705]
  105072:	39 c2                	cmp    edx,eax
  105074:	0f 87 18 bb ff ff    	ja     100b92 <_ZN2os3hal3idt15init_exceptionsEv+0xb2>
  10507a:	89 54 24 0c          	mov    DWORD PTR [esp+0xc],edx
  10507e:	50                   	push   eax
  10507f:	50                   	push   eax
  105080:	68 05 77 19 00       	push   0x197705
  105085:	68 c4 4a 11 00       	push   0x114ac4
  10508a:	e8 e1 79 00 00       	call   10ca70 <__ubsan_handle_type_mismatch>
  10508f:	83 c4 10             	add    esp,0x10
  105092:	8b 54 24 0c          	mov    edx,DWORD PTR [esp+0xc]
  105096:	e9 f7 ba ff ff       	jmp    100b92 <_ZN2os3hal3idt15init_exceptionsEv+0xb2>
  10509b:	89 e8                	mov    eax,ebp
  10509d:	01 d0                	add    eax,edx
  10509f:	0f 82 ce ba ff ff    	jb     100b73 <_ZN2os3hal3idt15init_exceptionsEv+0x93>
  1050a5:	89 54 24 0c          	mov    DWORD PTR [esp+0xc],edx
  1050a9:	50                   	push   eax
  1050aa:	50                   	push   eax
  1050ab:	52                   	push   edx
  1050ac:	68 dc 4a 11 00       	push   0x114adc
  1050b1:	e8 ba 79 00 00       	call   10ca70 <__ubsan_handle_type_mismatch>
  1050b6:	83 c4 10             	add    esp,0x10
  1050b9:	8b 54 24 0c          	mov    edx,DWORD PTR [esp+0xc]
  1050bd:	e9 b1 ba ff ff       	jmp    100b73 <_ZN2os3hal3idt15init_exceptionsEv+0x93>
  1050c2:	05 04 77 19 00       	add    eax,0x197704
  1050c7:	0f 82 88 ba ff ff    	jb     100b55 <_ZN2os3hal3idt15init_exceptionsEv+0x75>
  1050cd:	50                   	push   eax
  1050ce:	50                   	push   eax
  1050cf:	68 04 77 19 00       	push   0x197704
  1050d4:	68 08 4b 11 00       	push   0x114b08
  1050d9:	e8 92 79 00 00       	call   10ca70 <__ubsan_handle_type_mismatch>
  1050de:	83 c4 10             	add    esp,0x10
  1050e1:	e9 6f ba ff ff       	jmp    100b55 <_ZN2os3hal3idt15init_exceptionsEv+0x75>
  1050e6:	8d 76 00             	lea    esi,[esi+0x0]
  1050e9:	8d bc 27 00 00 00 00 	lea    edi,[edi+eiz*1+0x0]

001050f0 <_ZN2os3hal3idt9init_irqsEv>:
  1050f0:	55                   	push   ebp
  1050f1:	57                   	push   edi
  1050f2:	56                   	push   esi
  1050f3:	53                   	push   ebx
  1050f4:	bb 02 00 00 00       	mov    ebx,0x2
  1050f9:	81 eb 00 77 19 00    	sub    ebx,0x197700
  1050ff:	be b5 80 10 00       	mov    esi,0x1080b5
  105104:	83 ec 1c             	sub    esp,0x1c
  105107:	0f b6 15 b5 4c 11 00 	movzx  edx,BYTE PTR ds:0x114cb5
  10510e:	89 d0                	mov    eax,edx
  105110:	83 e0 0f             	and    eax,0xf
  105113:	88 44 24 0d          	mov    BYTE PTR [esp+0xd],al
  105117:	89 d0                	mov    eax,edx
  105119:	c0 ea 07             	shr    dl,0x7
  10511c:	88 54 24 0e          	mov    BYTE PTR [esp+0xe],dl
  105120:	8d 93 00 78 19 00    	lea    edx,[ebx+0x197800]
  105126:	c0 e8 05             	shr    al,0x5
  105129:	83 e0 03             	and    eax,0x3
  10512c:	81 fa 00 08 00 00    	cmp    edx,0x800
  105132:	0f 87 b0 10 00 00    	ja     1061e8 <_ZN2os3hal3idt9init_irqsEv+0x10f8>
  105138:	8d 93 06 78 19 00    	lea    edx,[ebx+0x197806]
  10513e:	66 89 35 00 78 19 00 	mov    WORD PTR ds:0x197800,si
  105145:	c1 ee 10             	shr    esi,0x10
  105148:	81 fa 00 08 00 00    	cmp    edx,0x800
  10514e:	0f 87 b4 28 00 00    	ja     107a08 <_ZN2os3hal3idt9init_irqsEv+0x2918>
  105154:	66 89 35 06 78 19 00 	mov    WORD PTR ds:0x197806,si
  10515b:	be 01 00 00 00       	mov    esi,0x1
  105160:	81 ee 00 77 19 00    	sub    esi,0x197700
  105166:	8d 96 04 78 19 00    	lea    edx,[esi+0x197804]
  10516c:	81 fa 00 08 00 00    	cmp    edx,0x800
  105172:	0f 87 62 28 00 00    	ja     1079da <_ZN2os3hal3idt9init_irqsEv+0x28ea>
  105178:	8d be 05 78 19 00    	lea    edi,[esi+0x197805]
  10517e:	c6 05 04 78 19 00 00 	mov    BYTE PTR ds:0x197804,0x0
  105185:	bd 05 78 19 00       	mov    ebp,0x197805
  10518a:	81 ff 00 08 00 00    	cmp    edi,0x800
  105190:	0f 87 1c 28 00 00    	ja     1079b2 <_ZN2os3hal3idt9init_irqsEv+0x28c2>
  105196:	0f b6 15 05 78 19 00 	movzx  edx,BYTE PTR ds:0x197805
  10519d:	83 e2 f0             	and    edx,0xfffffff0
  1051a0:	0a 54 24 0d          	or     dl,BYTE PTR [esp+0xd]
  1051a4:	81 ff 00 08 00 00    	cmp    edi,0x800
  1051aa:	88 15 05 78 19 00    	mov    BYTE PTR ds:0x197805,dl
  1051b0:	0f 87 cc 27 00 00    	ja     107982 <_ZN2os3hal3idt9init_irqsEv+0x2892>
  1051b6:	0f b6 15 05 78 19 00 	movzx  edx,BYTE PTR ds:0x197805
  1051bd:	89 c1                	mov    ecx,eax
  1051bf:	83 e1 03             	and    ecx,0x3
  1051c2:	c1 e1 05             	shl    ecx,0x5
  1051c5:	83 e2 9f             	and    edx,0xffffff9f
  1051c8:	09 ca                	or     edx,ecx
  1051ca:	81 ff 00 08 00 00    	cmp    edi,0x800
  1051d0:	88 15 05 78 19 00    	mov    BYTE PTR ds:0x197805,dl
  1051d6:	0f 87 76 27 00 00    	ja     107952 <_ZN2os3hal3idt9init_irqsEv+0x2862>
  1051dc:	0f b6 15 05 78 19 00 	movzx  edx,BYTE PTR ds:0x197805
  1051e3:	0f b6 4c 24 0e       	movzx  ecx,BYTE PTR [esp+0xe]
  1051e8:	83 e2 7f             	and    edx,0x7f
  1051eb:	c1 e1 07             	shl    ecx,0x7
  1051ee:	09 ca                	or     edx,ecx
  1051f0:	81 ff 00 08 00 00    	cmp    edi,0x800
  1051f6:	88 15 05 78 19 00    	mov    BYTE PTR ds:0x197805,dl
  1051fc:	0f 87 20 27 00 00    	ja     107922 <_ZN2os3hal3idt9init_irqsEv+0x2832>
  105202:	8d 93 02 78 19 00    	lea    edx,[ebx+0x197802]
  105208:	80 25 05 78 19 00 ef 	and    BYTE PTR ds:0x197805,0xef
  10520f:	81 fa 00 08 00 00    	cmp    edx,0x800
  105215:	0f 87 d9 26 00 00    	ja     1078f4 <_ZN2os3hal3idt9init_irqsEv+0x2804>
  10521b:	ba 08 00 00 00       	mov    edx,0x8
  105220:	bf bf 80 10 00       	mov    edi,0x1080bf
  105225:	66 89 15 02 78 19 00 	mov    WORD PTR ds:0x197802,dx
  10522c:	8d 93 08 78 19 00    	lea    edx,[ebx+0x197808]
  105232:	81 fa 00 08 00 00    	cmp    edx,0x800
  105238:	0f 87 88 26 00 00    	ja     1078c6 <_ZN2os3hal3idt9init_irqsEv+0x27d6>
  10523e:	8d 93 0e 78 19 00    	lea    edx,[ebx+0x19780e]
  105244:	66 89 3d 08 78 19 00 	mov    WORD PTR ds:0x197808,di
  10524b:	c1 ef 10             	shr    edi,0x10
  10524e:	81 fa 00 08 00 00    	cmp    edx,0x800
  105254:	0f 87 3e 26 00 00    	ja     107898 <_ZN2os3hal3idt9init_irqsEv+0x27a8>
  10525a:	8d 96 0c 78 19 00    	lea    edx,[esi+0x19780c]
  105260:	66 89 3d 0e 78 19 00 	mov    WORD PTR ds:0x19780e,di
  105267:	81 fa 00 08 00 00    	cmp    edx,0x800
  10526d:	0f 87 f7 25 00 00    	ja     10786a <_ZN2os3hal3idt9init_irqsEv+0x277a>
  105273:	8d be 0d 78 19 00    	lea    edi,[esi+0x19780d]
  105279:	c6 05 0c 78 19 00 00 	mov    BYTE PTR ds:0x19780c,0x0
  105280:	bd 0d 78 19 00       	mov    ebp,0x19780d
  105285:	81 ff 00 08 00 00    	cmp    edi,0x800
  10528b:	0f 87 b1 25 00 00    	ja     107842 <_ZN2os3hal3idt9init_irqsEv+0x2752>
  105291:	0f b6 15 0d 78 19 00 	movzx  edx,BYTE PTR ds:0x19780d
  105298:	83 e2 f0             	and    edx,0xfffffff0
  10529b:	0a 54 24 0d          	or     dl,BYTE PTR [esp+0xd]
  10529f:	81 ff 00 08 00 00    	cmp    edi,0x800
  1052a5:	88 15 0d 78 19 00    	mov    BYTE PTR ds:0x19780d,dl
  1052ab:	0f 87 61 25 00 00    	ja     107812 <_ZN2os3hal3idt9init_irqsEv+0x2722>
  1052b1:	0f b6 15 0d 78 19 00 	movzx  edx,BYTE PTR ds:0x19780d
  1052b8:	89 c1                	mov    ecx,eax
  1052ba:	83 e1 03             	and    ecx,0x3
  1052bd:	c1 e1 05             	shl    ecx,0x5
  1052c0:	83 e2 9f             	and    edx,0xffffff9f
  1052c3:	09 ca                	or     edx,ecx
  1052c5:	81 ff 00 08 00 00    	cmp    edi,0x800
  1052cb:	88 15 0d 78 19 00    	mov    BYTE PTR ds:0x19780d,dl
  1052d1:	0f 87 0b 25 00 00    	ja     1077e2 <_ZN2os3hal3idt9init_irqsEv+0x26f2>
  1052d7:	0f b6 15 0d 78 19 00 	movzx  edx,BYTE PTR ds:0x19780d
  1052de:	0f b6 4c 24 0e       	movzx  ecx,BYTE PTR [esp+0xe]
  1052e3:	83 e2 7f             	and    edx,0x7f
  1052e6:	c1 e1 07             	shl    ecx,0x7
  1052e9:	09 ca                	or     edx,ecx
  1052eb:	81 ff 00 08 00 00    	cmp    edi,0x800
  1052f1:	88 15 0d 78 19 00    	mov    BYTE PTR ds:0x19780d,dl
  1052f7:	0f 87 b5 24 00 00    	ja     1077b2 <_ZN2os3hal3idt9init_irqsEv+0x26c2>
  1052fd:	8d 93 0a 78 19 00    	lea    edx,[ebx+0x19780a]
  105303:	80 25 0d 78 19 00 ef 	and    BYTE PTR ds:0x19780d,0xef
  10530a:	81 fa 00 08 00 00    	cmp    edx,0x800
  105310:	0f 87 6e 24 00 00    	ja     107784 <_ZN2os3hal3idt9init_irqsEv+0x2694>
  105316:	ba 08 00 00 00       	mov    edx,0x8
  10531b:	bf c9 80 10 00       	mov    edi,0x1080c9
  105320:	66 89 15 0a 78 19 00 	mov    WORD PTR ds:0x19780a,dx
  105327:	8d 93 10 78 19 00    	lea    edx,[ebx+0x197810]
  10532d:	81 fa 00 08 00 00    	cmp    edx,0x800
  105333:	0f 87 1d 24 00 00    	ja     107756 <_ZN2os3hal3idt9init_irqsEv+0x2666>
  105339:	8d 93 16 78 19 00    	lea    edx,[ebx+0x197816]
  10533f:	66 89 3d 10 78 19 00 	mov    WORD PTR ds:0x197810,di
  105346:	c1 ef 10             	shr    edi,0x10
  105349:	81 fa 00 08 00 00    	cmp    edx,0x800
  10534f:	0f 87 d3 23 00 00    	ja     107728 <_ZN2os3hal3idt9init_irqsEv+0x2638>
  105355:	8d 96 14 78 19 00    	lea    edx,[esi+0x197814]
  10535b:	66 89 3d 16 78 19 00 	mov    WORD PTR ds:0x197816,di
  105362:	81 fa 00 08 00 00    	cmp    edx,0x800
  105368:	0f 87 8c 23 00 00    	ja     1076fa <_ZN2os3hal3idt9init_irqsEv+0x260a>
  10536e:	8d be 15 78 19 00    	lea    edi,[esi+0x197815]
  105374:	c6 05 14 78 19 00 00 	mov    BYTE PTR ds:0x197814,0x0
  10537b:	bd 15 78 19 00       	mov    ebp,0x197815
  105380:	81 ff 00 08 00 00    	cmp    edi,0x800
  105386:	0f 87 46 23 00 00    	ja     1076d2 <_ZN2os3hal3idt9init_irqsEv+0x25e2>
  10538c:	0f b6 15 15 78 19 00 	movzx  edx,BYTE PTR ds:0x197815
  105393:	83 e2 f0             	and    edx,0xfffffff0
  105396:	0a 54 24 0d          	or     dl,BYTE PTR [esp+0xd]
  10539a:	81 ff 00 08 00 00    	cmp    edi,0x800
  1053a0:	88 15 15 78 19 00    	mov    BYTE PTR ds:0x197815,dl
  1053a6:	0f 87 f6 22 00 00    	ja     1076a2 <_ZN2os3hal3idt9init_irqsEv+0x25b2>
  1053ac:	0f b6 15 15 78 19 00 	movzx  edx,BYTE PTR ds:0x197815
  1053b3:	89 c1                	mov    ecx,eax
  1053b5:	83 e1 03             	and    ecx,0x3
  1053b8:	c1 e1 05             	shl    ecx,0x5
  1053bb:	83 e2 9f             	and    edx,0xffffff9f
  1053be:	09 ca                	or     edx,ecx
  1053c0:	81 ff 00 08 00 00    	cmp    edi,0x800
  1053c6:	88 15 15 78 19 00    	mov    BYTE PTR ds:0x197815,dl
  1053cc:	0f 87 a0 22 00 00    	ja     107672 <_ZN2os3hal3idt9init_irqsEv+0x2582>
  1053d2:	0f b6 15 15 78 19 00 	movzx  edx,BYTE PTR ds:0x197815
  1053d9:	0f b6 4c 24 0e       	movzx  ecx,BYTE PTR [esp+0xe]
  1053de:	83 e2 7f             	and    edx,0x7f
  1053e1:	c1 e1 07             	shl    ecx,0x7
  1053e4:	09 ca                	or     edx,ecx
  1053e6:	81 ff 00 08 00 00    	cmp    edi,0x800
  1053ec:	88 15 15 78 19 00    	mov    BYTE PTR ds:0x197815,dl
  1053f2:	0f 87 4a 22 00 00    	ja     107642 <_ZN2os3hal3idt9init_irqsEv+0x2552>
  1053f8:	8d 93 12 78 19 00    	lea    edx,[ebx+0x197812]
  1053fe:	80 25 15 78 19 00 ef 	and    BYTE PTR ds:0x197815,0xef
  105405:	81 fa 00 08 00 00    	cmp    edx,0x800
  10540b:	0f 87 03 22 00 00    	ja     107614 <_ZN2os3hal3idt9init_irqsEv+0x2524>
  105411:	ba 08 00 00 00       	mov    edx,0x8
  105416:	bf d3 80 10 00       	mov    edi,0x1080d3
  10541b:	66 89 15 12 78 19 00 	mov    WORD PTR ds:0x197812,dx
  105422:	8d 93 18 78 19 00    	lea    edx,[ebx+0x197818]
  105428:	81 fa 00 08 00 00    	cmp    edx,0x800
  10542e:	0f 87 b2 21 00 00    	ja     1075e6 <_ZN2os3hal3idt9init_irqsEv+0x24f6>
  105434:	8d 93 1e 78 19 00    	lea    edx,[ebx+0x19781e]
  10543a:	66 89 3d 18 78 19 00 	mov    WORD PTR ds:0x197818,di
  105441:	c1 ef 10             	shr    edi,0x10
  105444:	81 fa 00 08 00 00    	cmp    edx,0x800
  10544a:	0f 87 68 21 00 00    	ja     1075b8 <_ZN2os3hal3idt9init_irqsEv+0x24c8>
  105450:	8d 96 1c 78 19 00    	lea    edx,[esi+0x19781c]
  105456:	66 89 3d 1e 78 19 00 	mov    WORD PTR ds:0x19781e,di
  10545d:	81 fa 00 08 00 00    	cmp    edx,0x800
  105463:	0f 87 21 21 00 00    	ja     10758a <_ZN2os3hal3idt9init_irqsEv+0x249a>
  105469:	8d be 1d 78 19 00    	lea    edi,[esi+0x19781d]
  10546f:	c6 05 1c 78 19 00 00 	mov    BYTE PTR ds:0x19781c,0x0
  105476:	bd 1d 78 19 00       	mov    ebp,0x19781d
  10547b:	81 ff 00 08 00 00    	cmp    edi,0x800
  105481:	0f 87 db 20 00 00    	ja     107562 <_ZN2os3hal3idt9init_irqsEv+0x2472>
  105487:	0f b6 15 1d 78 19 00 	movzx  edx,BYTE PTR ds:0x19781d
  10548e:	83 e2 f0             	and    edx,0xfffffff0
  105491:	0a 54 24 0d          	or     dl,BYTE PTR [esp+0xd]
  105495:	81 ff 00 08 00 00    	cmp    edi,0x800
  10549b:	88 15 1d 78 19 00    	mov    BYTE PTR ds:0x19781d,dl
  1054a1:	0f 87 8b 20 00 00    	ja     107532 <_ZN2os3hal3idt9init_irqsEv+0x2442>
  1054a7:	0f b6 15 1d 78 19 00 	movzx  edx,BYTE PTR ds:0x19781d
  1054ae:	89 c1                	mov    ecx,eax
  1054b0:	83 e1 03             	and    ecx,0x3
  1054b3:	c1 e1 05             	shl    ecx,0x5
  1054b6:	83 e2 9f             	and    edx,0xffffff9f
  1054b9:	09 ca                	or     edx,ecx
  1054bb:	81 ff 00 08 00 00    	cmp    edi,0x800
  1054c1:	88 15 1d 78 19 00    	mov    BYTE PTR ds:0x19781d,dl
  1054c7:	0f 87 35 20 00 00    	ja     107502 <_ZN2os3hal3idt9init_irqsEv+0x2412>
  1054cd:	0f b6 15 1d 78 19 00 	movzx  edx,BYTE PTR ds:0x19781d
  1054d4:	0f b6 4c 24 0e       	movzx  ecx,BYTE PTR [esp+0xe]
  1054d9:	83 e2 7f             	and    edx,0x7f
  1054dc:	c1 e1 07             	shl    ecx,0x7
  1054df:	09 ca                	or     edx,ecx
  1054e1:	81 ff 00 08 00 00    	cmp    edi,0x800
  1054e7:	88 15 1d 78 19 00    	mov    BYTE PTR ds:0x19781d,dl
  1054ed:	0f 87 df 1f 00 00    	ja     1074d2 <_ZN2os3hal3idt9init_irqsEv+0x23e2>
  1054f3:	8d 93 1a 78 19 00    	lea    edx,[ebx+0x19781a]
  1054f9:	80 25 1d 78 19 00 ef 	and    BYTE PTR ds:0x19781d,0xef
  105500:	81 fa 00 08 00 00    	cmp    edx,0x800
  105506:	0f 87 98 1f 00 00    	ja     1074a4 <_ZN2os3hal3idt9init_irqsEv+0x23b4>
  10550c:	ba 08 00 00 00       	mov    edx,0x8
  105511:	bf dd 80 10 00       	mov    edi,0x1080dd
  105516:	66 89 15 1a 78 19 00 	mov    WORD PTR ds:0x19781a,dx
  10551d:	8d 93 20 78 19 00    	lea    edx,[ebx+0x197820]
  105523:	81 fa 00 08 00 00    	cmp    edx,0x800
  105529:	0f 87 47 1f 00 00    	ja     107476 <_ZN2os3hal3idt9init_irqsEv+0x2386>
  10552f:	8d 93 26 78 19 00    	lea    edx,[ebx+0x197826]
  105535:	66 89 3d 20 78 19 00 	mov    WORD PTR ds:0x197820,di
  10553c:	c1 ef 10             	shr    edi,0x10
  10553f:	81 fa 00 08 00 00    	cmp    edx,0x800
  105545:	0f 87 fd 1e 00 00    	ja     107448 <_ZN2os3hal3idt9init_irqsEv+0x2358>
  10554b:	8d 96 24 78 19 00    	lea    edx,[esi+0x197824]
  105551:	66 89 3d 26 78 19 00 	mov    WORD PTR ds:0x197826,di
  105558:	81 fa 00 08 00 00    	cmp    edx,0x800
  10555e:	0f 87 b6 1e 00 00    	ja     10741a <_ZN2os3hal3idt9init_irqsEv+0x232a>
  105564:	8d be 25 78 19 00    	lea    edi,[esi+0x197825]
  10556a:	c6 05 24 78 19 00 00 	mov    BYTE PTR ds:0x197824,0x0
  105571:	bd 25 78 19 00       	mov    ebp,0x197825
  105576:	81 ff 00 08 00 00    	cmp    edi,0x800
  10557c:	0f 87 70 1e 00 00    	ja     1073f2 <_ZN2os3hal3idt9init_irqsEv+0x2302>
  105582:	0f b6 15 25 78 19 00 	movzx  edx,BYTE PTR ds:0x197825
  105589:	83 e2 f0             	and    edx,0xfffffff0
  10558c:	0a 54 24 0d          	or     dl,BYTE PTR [esp+0xd]
  105590:	81 ff 00 08 00 00    	cmp    edi,0x800
  105596:	88 15 25 78 19 00    	mov    BYTE PTR ds:0x197825,dl
  10559c:	0f 87 20 1e 00 00    	ja     1073c2 <_ZN2os3hal3idt9init_irqsEv+0x22d2>
  1055a2:	0f b6 15 25 78 19 00 	movzx  edx,BYTE PTR ds:0x197825
  1055a9:	89 c1                	mov    ecx,eax
  1055ab:	83 e1 03             	and    ecx,0x3
  1055ae:	c1 e1 05             	shl    ecx,0x5
  1055b1:	83 e2 9f             	and    edx,0xffffff9f
  1055b4:	09 ca                	or     edx,ecx
  1055b6:	81 ff 00 08 00 00    	cmp    edi,0x800
  1055bc:	88 15 25 78 19 00    	mov    BYTE PTR ds:0x197825,dl
  1055c2:	0f 87 ca 1d 00 00    	ja     107392 <_ZN2os3hal3idt9init_irqsEv+0x22a2>
  1055c8:	0f b6 15 25 78 19 00 	movzx  edx,BYTE PTR ds:0x197825
  1055cf:	0f b6 4c 24 0e       	movzx  ecx,BYTE PTR [esp+0xe]
  1055d4:	83 e2 7f             	and    edx,0x7f
  1055d7:	c1 e1 07             	shl    ecx,0x7
  1055da:	09 ca                	or     edx,ecx
  1055dc:	81 ff 00 08 00 00    	cmp    edi,0x800
  1055e2:	88 15 25 78 19 00    	mov    BYTE PTR ds:0x197825,dl
  1055e8:	0f 87 74 1d 00 00    	ja     107362 <_ZN2os3hal3idt9init_irqsEv+0x2272>
  1055ee:	8d 93 22 78 19 00    	lea    edx,[ebx+0x197822]
  1055f4:	80 25 25 78 19 00 ef 	and    BYTE PTR ds:0x197825,0xef
  1055fb:	81 fa 00 08 00 00    	cmp    edx,0x800
  105601:	0f 87 2d 1d 00 00    	ja     107334 <_ZN2os3hal3idt9init_irqsEv+0x2244>
  105607:	ba 08 00 00 00       	mov    edx,0x8
  10560c:	bf e7 80 10 00       	mov    edi,0x1080e7
  105611:	66 89 15 22 78 19 00 	mov    WORD PTR ds:0x197822,dx
  105618:	8d 93 28 78 19 00    	lea    edx,[ebx+0x197828]
  10561e:	81 fa 00 08 00 00    	cmp    edx,0x800
  105624:	0f 87 dc 1c 00 00    	ja     107306 <_ZN2os3hal3idt9init_irqsEv+0x2216>
  10562a:	8d 93 2e 78 19 00    	lea    edx,[ebx+0x19782e]
  105630:	66 89 3d 28 78 19 00 	mov    WORD PTR ds:0x197828,di
  105637:	c1 ef 10             	shr    edi,0x10
  10563a:	81 fa 00 08 00 00    	cmp    edx,0x800
  105640:	0f 87 92 1c 00 00    	ja     1072d8 <_ZN2os3hal3idt9init_irqsEv+0x21e8>
  105646:	8d 96 2c 78 19 00    	lea    edx,[esi+0x19782c]
  10564c:	66 89 3d 2e 78 19 00 	mov    WORD PTR ds:0x19782e,di
  105653:	81 fa 00 08 00 00    	cmp    edx,0x800
  105659:	0f 87 4b 1c 00 00    	ja     1072aa <_ZN2os3hal3idt9init_irqsEv+0x21ba>
  10565f:	8d be 2d 78 19 00    	lea    edi,[esi+0x19782d]
  105665:	c6 05 2c 78 19 00 00 	mov    BYTE PTR ds:0x19782c,0x0
  10566c:	bd 2d 78 19 00       	mov    ebp,0x19782d
  105671:	81 ff 00 08 00 00    	cmp    edi,0x800
  105677:	0f 87 05 1c 00 00    	ja     107282 <_ZN2os3hal3idt9init_irqsEv+0x2192>
  10567d:	0f b6 15 2d 78 19 00 	movzx  edx,BYTE PTR ds:0x19782d
  105684:	83 e2 f0             	and    edx,0xfffffff0
  105687:	0a 54 24 0d          	or     dl,BYTE PTR [esp+0xd]
  10568b:	81 ff 00 08 00 00    	cmp    edi,0x800
  105691:	88 15 2d 78 19 00    	mov    BYTE PTR ds:0x19782d,dl
  105697:	0f 87 b5 1b 00 00    	ja     107252 <_ZN2os3hal3idt9init_irqsEv+0x2162>
  10569d:	0f b6 15 2d 78 19 00 	movzx  edx,BYTE PTR ds:0x19782d
  1056a4:	89 c1                	mov    ecx,eax
  1056a6:	83 e1 03             	and    ecx,0x3
  1056a9:	c1 e1 05             	shl    ecx,0x5
  1056ac:	83 e2 9f             	and    edx,0xffffff9f
  1056af:	09 ca                	or     edx,ecx
  1056b1:	81 ff 00 08 00 00    	cmp    edi,0x800
  1056b7:	88 15 2d 78 19 00    	mov    BYTE PTR ds:0x19782d,dl
  1056bd:	0f 87 5f 1b 00 00    	ja     107222 <_ZN2os3hal3idt9init_irqsEv+0x2132>
  1056c3:	0f b6 15 2d 78 19 00 	movzx  edx,BYTE PTR ds:0x19782d
  1056ca:	0f b6 4c 24 0e       	movzx  ecx,BYTE PTR [esp+0xe]
  1056cf:	83 e2 7f             	and    edx,0x7f
  1056d2:	c1 e1 07             	shl    ecx,0x7
  1056d5:	09 ca                	or     edx,ecx
  1056d7:	81 ff 00 08 00 00    	cmp    edi,0x800
  1056dd:	88 15 2d 78 19 00    	mov    BYTE PTR ds:0x19782d,dl
  1056e3:	0f 87 09 1b 00 00    	ja     1071f2 <_ZN2os3hal3idt9init_irqsEv+0x2102>
  1056e9:	8d 93 2a 78 19 00    	lea    edx,[ebx+0x19782a]
  1056ef:	80 25 2d 78 19 00 ef 	and    BYTE PTR ds:0x19782d,0xef
  1056f6:	81 fa 00 08 00 00    	cmp    edx,0x800
  1056fc:	0f 87 c2 1a 00 00    	ja     1071c4 <_ZN2os3hal3idt9init_irqsEv+0x20d4>
  105702:	ba 08 00 00 00       	mov    edx,0x8
  105707:	bf f1 80 10 00       	mov    edi,0x1080f1
  10570c:	66 89 15 2a 78 19 00 	mov    WORD PTR ds:0x19782a,dx
  105713:	8d 93 30 78 19 00    	lea    edx,[ebx+0x197830]
  105719:	81 fa 00 08 00 00    	cmp    edx,0x800
  10571f:	0f 87 71 1a 00 00    	ja     107196 <_ZN2os3hal3idt9init_irqsEv+0x20a6>
  105725:	8d 93 36 78 19 00    	lea    edx,[ebx+0x197836]
  10572b:	66 89 3d 30 78 19 00 	mov    WORD PTR ds:0x197830,di
  105732:	c1 ef 10             	shr    edi,0x10
  105735:	81 fa 00 08 00 00    	cmp    edx,0x800
  10573b:	0f 87 27 1a 00 00    	ja     107168 <_ZN2os3hal3idt9init_irqsEv+0x2078>
  105741:	8d 96 34 78 19 00    	lea    edx,[esi+0x197834]
  105747:	66 89 3d 36 78 19 00 	mov    WORD PTR ds:0x197836,di
  10574e:	81 fa 00 08 00 00    	cmp    edx,0x800
  105754:	0f 87 e0 19 00 00    	ja     10713a <_ZN2os3hal3idt9init_irqsEv+0x204a>
  10575a:	8d be 35 78 19 00    	lea    edi,[esi+0x197835]
  105760:	c6 05 34 78 19 00 00 	mov    BYTE PTR ds:0x197834,0x0
  105767:	bd 35 78 19 00       	mov    ebp,0x197835
  10576c:	81 ff 00 08 00 00    	cmp    edi,0x800
  105772:	0f 87 9a 19 00 00    	ja     107112 <_ZN2os3hal3idt9init_irqsEv+0x2022>
  105778:	0f b6 15 35 78 19 00 	movzx  edx,BYTE PTR ds:0x197835
  10577f:	83 e2 f0             	and    edx,0xfffffff0
  105782:	0a 54 24 0d          	or     dl,BYTE PTR [esp+0xd]
  105786:	81 ff 00 08 00 00    	cmp    edi,0x800
  10578c:	88 15 35 78 19 00    	mov    BYTE PTR ds:0x197835,dl
  105792:	0f 87 4a 19 00 00    	ja     1070e2 <_ZN2os3hal3idt9init_irqsEv+0x1ff2>
  105798:	0f b6 15 35 78 19 00 	movzx  edx,BYTE PTR ds:0x197835
  10579f:	89 c1                	mov    ecx,eax
  1057a1:	83 e1 03             	and    ecx,0x3
  1057a4:	c1 e1 05             	shl    ecx,0x5
  1057a7:	83 e2 9f             	and    edx,0xffffff9f
  1057aa:	09 ca                	or     edx,ecx
  1057ac:	81 ff 00 08 00 00    	cmp    edi,0x800
  1057b2:	88 15 35 78 19 00    	mov    BYTE PTR ds:0x197835,dl
  1057b8:	0f 87 f4 18 00 00    	ja     1070b2 <_ZN2os3hal3idt9init_irqsEv+0x1fc2>
  1057be:	0f b6 15 35 78 19 00 	movzx  edx,BYTE PTR ds:0x197835
  1057c5:	0f b6 4c 24 0e       	movzx  ecx,BYTE PTR [esp+0xe]
  1057ca:	83 e2 7f             	and    edx,0x7f
  1057cd:	c1 e1 07             	shl    ecx,0x7
  1057d0:	09 ca                	or     edx,ecx
  1057d2:	81 ff 00 08 00 00    	cmp    edi,0x800
  1057d8:	88 15 35 78 19 00    	mov    BYTE PTR ds:0x197835,dl
  1057de:	0f 87 9e 18 00 00    	ja     107082 <_ZN2os3hal3idt9init_irqsEv+0x1f92>
  1057e4:	8d 93 32 78 19 00    	lea    edx,[ebx+0x197832]
  1057ea:	80 25 35 78 19 00 ef 	and    BYTE PTR ds:0x197835,0xef
  1057f1:	81 fa 00 08 00 00    	cmp    edx,0x800
  1057f7:	0f 87 57 18 00 00    	ja     107054 <_ZN2os3hal3idt9init_irqsEv+0x1f64>
  1057fd:	ba 08 00 00 00       	mov    edx,0x8
  105802:	bf fb 80 10 00       	mov    edi,0x1080fb
  105807:	66 89 15 32 78 19 00 	mov    WORD PTR ds:0x197832,dx
  10580e:	8d 93 38 78 19 00    	lea    edx,[ebx+0x197838]
  105814:	81 fa 00 08 00 00    	cmp    edx,0x800
  10581a:	0f 87 06 18 00 00    	ja     107026 <_ZN2os3hal3idt9init_irqsEv+0x1f36>
  105820:	8d 93 3e 78 19 00    	lea    edx,[ebx+0x19783e]
  105826:	66 89 3d 38 78 19 00 	mov    WORD PTR ds:0x197838,di
  10582d:	c1 ef 10             	shr    edi,0x10
  105830:	81 fa 00 08 00 00    	cmp    edx,0x800
  105836:	0f 87 bc 17 00 00    	ja     106ff8 <_ZN2os3hal3idt9init_irqsEv+0x1f08>
  10583c:	8d 96 3c 78 19 00    	lea    edx,[esi+0x19783c]
  105842:	66 89 3d 3e 78 19 00 	mov    WORD PTR ds:0x19783e,di
  105849:	81 fa 00 08 00 00    	cmp    edx,0x800
  10584f:	0f 87 75 17 00 00    	ja     106fca <_ZN2os3hal3idt9init_irqsEv+0x1eda>
  105855:	8d be 3d 78 19 00    	lea    edi,[esi+0x19783d]
  10585b:	c6 05 3c 78 19 00 00 	mov    BYTE PTR ds:0x19783c,0x0
  105862:	bd 3d 78 19 00       	mov    ebp,0x19783d
  105867:	81 ff 00 08 00 00    	cmp    edi,0x800
  10586d:	0f 87 2f 17 00 00    	ja     106fa2 <_ZN2os3hal3idt9init_irqsEv+0x1eb2>
  105873:	0f b6 15 3d 78 19 00 	movzx  edx,BYTE PTR ds:0x19783d
  10587a:	83 e2 f0             	and    edx,0xfffffff0
  10587d:	0a 54 24 0d          	or     dl,BYTE PTR [esp+0xd]
  105881:	81 ff 00 08 00 00    	cmp    edi,0x800
  105887:	88 15 3d 78 19 00    	mov    BYTE PTR ds:0x19783d,dl
  10588d:	0f 87 df 16 00 00    	ja     106f72 <_ZN2os3hal3idt9init_irqsEv+0x1e82>
  105893:	0f b6 15 3d 78 19 00 	movzx  edx,BYTE PTR ds:0x19783d
  10589a:	89 c1                	mov    ecx,eax
  10589c:	83 e1 03             	and    ecx,0x3
  10589f:	c1 e1 05             	shl    ecx,0x5
  1058a2:	83 e2 9f             	and    edx,0xffffff9f
  1058a5:	09 ca                	or     edx,ecx
  1058a7:	81 ff 00 08 00 00    	cmp    edi,0x800
  1058ad:	88 15 3d 78 19 00    	mov    BYTE PTR ds:0x19783d,dl
  1058b3:	0f 87 89 16 00 00    	ja     106f42 <_ZN2os3hal3idt9init_irqsEv+0x1e52>
  1058b9:	0f b6 15 3d 78 19 00 	movzx  edx,BYTE PTR ds:0x19783d
  1058c0:	0f b6 4c 24 0e       	movzx  ecx,BYTE PTR [esp+0xe]
  1058c5:	83 e2 7f             	and    edx,0x7f
  1058c8:	c1 e1 07             	shl    ecx,0x7
  1058cb:	09 ca                	or     edx,ecx
  1058cd:	81 ff 00 08 00 00    	cmp    edi,0x800
  1058d3:	88 15 3d 78 19 00    	mov    BYTE PTR ds:0x19783d,dl
  1058d9:	0f 87 33 16 00 00    	ja     106f12 <_ZN2os3hal3idt9init_irqsEv+0x1e22>
  1058df:	8d 93 3a 78 19 00    	lea    edx,[ebx+0x19783a]
  1058e5:	80 25 3d 78 19 00 ef 	and    BYTE PTR ds:0x19783d,0xef
  1058ec:	81 fa 00 08 00 00    	cmp    edx,0x800
  1058f2:	0f 87 ec 15 00 00    	ja     106ee4 <_ZN2os3hal3idt9init_irqsEv+0x1df4>
  1058f8:	ba 08 00 00 00       	mov    edx,0x8
  1058fd:	bf 05 81 10 00       	mov    edi,0x108105
  105902:	66 89 15 3a 78 19 00 	mov    WORD PTR ds:0x19783a,dx
  105909:	8d 93 40 78 19 00    	lea    edx,[ebx+0x197840]
  10590f:	81 fa 00 08 00 00    	cmp    edx,0x800
  105915:	0f 87 9b 15 00 00    	ja     106eb6 <_ZN2os3hal3idt9init_irqsEv+0x1dc6>
  10591b:	8d 93 46 78 19 00    	lea    edx,[ebx+0x197846]
  105921:	66 89 3d 40 78 19 00 	mov    WORD PTR ds:0x197840,di
  105928:	c1 ef 10             	shr    edi,0x10
  10592b:	81 fa 00 08 00 00    	cmp    edx,0x800
  105931:	0f 87 51 15 00 00    	ja     106e88 <_ZN2os3hal3idt9init_irqsEv+0x1d98>
  105937:	8d 96 44 78 19 00    	lea    edx,[esi+0x197844]
  10593d:	66 89 3d 46 78 19 00 	mov    WORD PTR ds:0x197846,di
  105944:	81 fa 00 08 00 00    	cmp    edx,0x800
  10594a:	0f 87 0a 15 00 00    	ja     106e5a <_ZN2os3hal3idt9init_irqsEv+0x1d6a>
  105950:	8d be 45 78 19 00    	lea    edi,[esi+0x197845]
  105956:	c6 05 44 78 19 00 00 	mov    BYTE PTR ds:0x197844,0x0
  10595d:	bd 45 78 19 00       	mov    ebp,0x197845
  105962:	81 ff 00 08 00 00    	cmp    edi,0x800
  105968:	0f 87 c4 14 00 00    	ja     106e32 <_ZN2os3hal3idt9init_irqsEv+0x1d42>
  10596e:	0f b6 15 45 78 19 00 	movzx  edx,BYTE PTR ds:0x197845
  105975:	83 e2 f0             	and    edx,0xfffffff0
  105978:	0a 54 24 0d          	or     dl,BYTE PTR [esp+0xd]
  10597c:	81 ff 00 08 00 00    	cmp    edi,0x800
  105982:	88 15 45 78 19 00    	mov    BYTE PTR ds:0x197845,dl
  105988:	0f 87 74 14 00 00    	ja     106e02 <_ZN2os3hal3idt9init_irqsEv+0x1d12>
  10598e:	0f b6 15 45 78 19 00 	movzx  edx,BYTE PTR ds:0x197845
  105995:	89 c1                	mov    ecx,eax
  105997:	83 e1 03             	and    ecx,0x3
  10599a:	c1 e1 05             	shl    ecx,0x5
  10599d:	83 e2 9f             	and    edx,0xffffff9f
  1059a0:	09 ca                	or     edx,ecx
  1059a2:	81 ff 00 08 00 00    	cmp    edi,0x800
  1059a8:	88 15 45 78 19 00    	mov    BYTE PTR ds:0x197845,dl
  1059ae:	0f 87 1e 14 00 00    	ja     106dd2 <_ZN2os3hal3idt9init_irqsEv+0x1ce2>
  1059b4:	0f b6 15 45 78 19 00 	movzx  edx,BYTE PTR ds:0x197845
  1059bb:	0f b6 4c 24 0e       	movzx  ecx,BYTE PTR [esp+0xe]
  1059c0:	83 e2 7f             	and    edx,0x7f
  1059c3:	c1 e1 07             	shl    ecx,0x7
  1059c6:	09 ca                	or     edx,ecx
  1059c8:	81 ff 00 08 00 00    	cmp    edi,0x800
  1059ce:	88 15 45 78 19 00    	mov    BYTE PTR ds:0x197845,dl
  1059d4:	0f 87 c8 13 00 00    	ja     106da2 <_ZN2os3hal3idt9init_irqsEv+0x1cb2>
  1059da:	8d 93 42 78 19 00    	lea    edx,[ebx+0x197842]
  1059e0:	80 25 45 78 19 00 ef 	and    BYTE PTR ds:0x197845,0xef
  1059e7:	81 fa 00 08 00 00    	cmp    edx,0x800
  1059ed:	0f 87 81 13 00 00    	ja     106d74 <_ZN2os3hal3idt9init_irqsEv+0x1c84>
  1059f3:	ba 08 00 00 00       	mov    edx,0x8
  1059f8:	bf 0f 81 10 00       	mov    edi,0x10810f
  1059fd:	66 89 15 42 78 19 00 	mov    WORD PTR ds:0x197842,dx
  105a04:	8d 93 48 78 19 00    	lea    edx,[ebx+0x197848]
  105a0a:	81 fa 00 08 00 00    	cmp    edx,0x800
  105a10:	0f 87 30 13 00 00    	ja     106d46 <_ZN2os3hal3idt9init_irqsEv+0x1c56>
  105a16:	8d 93 4e 78 19 00    	lea    edx,[ebx+0x19784e]
  105a1c:	66 89 3d 48 78 19 00 	mov    WORD PTR ds:0x197848,di
  105a23:	c1 ef 10             	shr    edi,0x10
  105a26:	81 fa 00 08 00 00    	cmp    edx,0x800
  105a2c:	0f 87 e6 12 00 00    	ja     106d18 <_ZN2os3hal3idt9init_irqsEv+0x1c28>
  105a32:	8d 96 4c 78 19 00    	lea    edx,[esi+0x19784c]
  105a38:	66 89 3d 4e 78 19 00 	mov    WORD PTR ds:0x19784e,di
  105a3f:	81 fa 00 08 00 00    	cmp    edx,0x800
  105a45:	0f 87 9f 12 00 00    	ja     106cea <_ZN2os3hal3idt9init_irqsEv+0x1bfa>
  105a4b:	8d be 4d 78 19 00    	lea    edi,[esi+0x19784d]
  105a51:	c6 05 4c 78 19 00 00 	mov    BYTE PTR ds:0x19784c,0x0
  105a58:	bd 4d 78 19 00       	mov    ebp,0x19784d
  105a5d:	81 ff 00 08 00 00    	cmp    edi,0x800
  105a63:	0f 87 59 12 00 00    	ja     106cc2 <_ZN2os3hal3idt9init_irqsEv+0x1bd2>
  105a69:	0f b6 15 4d 78 19 00 	movzx  edx,BYTE PTR ds:0x19784d
  105a70:	83 e2 f0             	and    edx,0xfffffff0
  105a73:	0a 54 24 0d          	or     dl,BYTE PTR [esp+0xd]
  105a77:	81 ff 00 08 00 00    	cmp    edi,0x800
  105a7d:	88 15 4d 78 19 00    	mov    BYTE PTR ds:0x19784d,dl
  105a83:	0f 87 09 12 00 00    	ja     106c92 <_ZN2os3hal3idt9init_irqsEv+0x1ba2>
  105a89:	0f b6 15 4d 78 19 00 	movzx  edx,BYTE PTR ds:0x19784d
  105a90:	89 c1                	mov    ecx,eax
  105a92:	83 e1 03             	and    ecx,0x3
  105a95:	c1 e1 05             	shl    ecx,0x5
  105a98:	83 e2 9f             	and    edx,0xffffff9f
  105a9b:	09 ca                	or     edx,ecx
  105a9d:	81 ff 00 08 00 00    	cmp    edi,0x800
  105aa3:	88 15 4d 78 19 00    	mov    BYTE PTR ds:0x19784d,dl
  105aa9:	0f 87 b3 11 00 00    	ja     106c62 <_ZN2os3hal3idt9init_irqsEv+0x1b72>
  105aaf:	0f b6 15 4d 78 19 00 	movzx  edx,BYTE PTR ds:0x19784d
  105ab6:	0f b6 4c 24 0e       	movzx  ecx,BYTE PTR [esp+0xe]
  105abb:	83 e2 7f             	and    edx,0x7f
  105abe:	c1 e1 07             	shl    ecx,0x7
  105ac1:	09 ca                	or     edx,ecx
  105ac3:	81 ff 00 08 00 00    	cmp    edi,0x800
  105ac9:	88 15 4d 78 19 00    	mov    BYTE PTR ds:0x19784d,dl
  105acf:	0f 87 5d 11 00 00    	ja     106c32 <_ZN2os3hal3idt9init_irqsEv+0x1b42>
  105ad5:	8d 93 4a 78 19 00    	lea    edx,[ebx+0x19784a]
  105adb:	80 25 4d 78 19 00 ef 	and    BYTE PTR ds:0x19784d,0xef
  105ae2:	81 fa 00 08 00 00    	cmp    edx,0x800
  105ae8:	0f 87 16 11 00 00    	ja     106c04 <_ZN2os3hal3idt9init_irqsEv+0x1b14>
  105aee:	ba 08 00 00 00       	mov    edx,0x8
  105af3:	bf 19 81 10 00       	mov    edi,0x108119
  105af8:	66 89 15 4a 78 19 00 	mov    WORD PTR ds:0x19784a,dx
  105aff:	8d 93 50 78 19 00    	lea    edx,[ebx+0x197850]
  105b05:	81 fa 00 08 00 00    	cmp    edx,0x800
  105b0b:	0f 87 c5 10 00 00    	ja     106bd6 <_ZN2os3hal3idt9init_irqsEv+0x1ae6>
  105b11:	8d 93 56 78 19 00    	lea    edx,[ebx+0x197856]
  105b17:	66 89 3d 50 78 19 00 	mov    WORD PTR ds:0x197850,di
  105b1e:	c1 ef 10             	shr    edi,0x10
  105b21:	81 fa 00 08 00 00    	cmp    edx,0x800
  105b27:	0f 87 7b 10 00 00    	ja     106ba8 <_ZN2os3hal3idt9init_irqsEv+0x1ab8>
  105b2d:	8d 96 54 78 19 00    	lea    edx,[esi+0x197854]
  105b33:	66 89 3d 56 78 19 00 	mov    WORD PTR ds:0x197856,di
  105b3a:	81 fa 00 08 00 00    	cmp    edx,0x800
  105b40:	0f 87 34 10 00 00    	ja     106b7a <_ZN2os3hal3idt9init_irqsEv+0x1a8a>
  105b46:	8d be 55 78 19 00    	lea    edi,[esi+0x197855]
  105b4c:	c6 05 54 78 19 00 00 	mov    BYTE PTR ds:0x197854,0x0
  105b53:	bd 55 78 19 00       	mov    ebp,0x197855
  105b58:	81 ff 00 08 00 00    	cmp    edi,0x800
  105b5e:	0f 87 ee 0f 00 00    	ja     106b52 <_ZN2os3hal3idt9init_irqsEv+0x1a62>
  105b64:	0f b6 15 55 78 19 00 	movzx  edx,BYTE PTR ds:0x197855
  105b6b:	83 e2 f0             	and    edx,0xfffffff0
  105b6e:	0a 54 24 0d          	or     dl,BYTE PTR [esp+0xd]
  105b72:	81 ff 00 08 00 00    	cmp    edi,0x800
  105b78:	88 15 55 78 19 00    	mov    BYTE PTR ds:0x197855,dl
  105b7e:	0f 87 9e 0f 00 00    	ja     106b22 <_ZN2os3hal3idt9init_irqsEv+0x1a32>
  105b84:	0f b6 15 55 78 19 00 	movzx  edx,BYTE PTR ds:0x197855
  105b8b:	89 c1                	mov    ecx,eax
  105b8d:	83 e1 03             	and    ecx,0x3
  105b90:	c1 e1 05             	shl    ecx,0x5
  105b93:	83 e2 9f             	and    edx,0xffffff9f
  105b96:	09 ca                	or     edx,ecx
  105b98:	81 ff 00 08 00 00    	cmp    edi,0x800
  105b9e:	88 15 55 78 19 00    	mov    BYTE PTR ds:0x197855,dl
  105ba4:	0f 87 48 0f 00 00    	ja     106af2 <_ZN2os3hal3idt9init_irqsEv+0x1a02>
  105baa:	0f b6 15 55 78 19 00 	movzx  edx,BYTE PTR ds:0x197855
  105bb1:	0f b6 4c 24 0e       	movzx  ecx,BYTE PTR [esp+0xe]
  105bb6:	83 e2 7f             	and    edx,0x7f
  105bb9:	c1 e1 07             	shl    ecx,0x7
  105bbc:	09 ca                	or     edx,ecx
  105bbe:	81 ff 00 08 00 00    	cmp    edi,0x800
  105bc4:	88 15 55 78 19 00    	mov    BYTE PTR ds:0x197855,dl
  105bca:	0f 87 f2 0e 00 00    	ja     106ac2 <_ZN2os3hal3idt9init_irqsEv+0x19d2>
  105bd0:	8d 93 52 78 19 00    	lea    edx,[ebx+0x197852]
  105bd6:	80 25 55 78 19 00 ef 	and    BYTE PTR ds:0x197855,0xef
  105bdd:	81 fa 00 08 00 00    	cmp    edx,0x800
  105be3:	0f 87 ab 0e 00 00    	ja     106a94 <_ZN2os3hal3idt9init_irqsEv+0x19a4>
  105be9:	ba 08 00 00 00       	mov    edx,0x8
  105bee:	bf 23 81 10 00       	mov    edi,0x108123
  105bf3:	66 89 15 52 78 19 00 	mov    WORD PTR ds:0x197852,dx
  105bfa:	8d 93 58 78 19 00    	lea    edx,[ebx+0x197858]
  105c00:	81 fa 00 08 00 00    	cmp    edx,0x800
  105c06:	0f 87 5a 0e 00 00    	ja     106a66 <_ZN2os3hal3idt9init_irqsEv+0x1976>
  105c0c:	8d 93 5e 78 19 00    	lea    edx,[ebx+0x19785e]
  105c12:	66 89 3d 58 78 19 00 	mov    WORD PTR ds:0x197858,di
  105c19:	c1 ef 10             	shr    edi,0x10
  105c1c:	81 fa 00 08 00 00    	cmp    edx,0x800
  105c22:	0f 87 10 0e 00 00    	ja     106a38 <_ZN2os3hal3idt9init_irqsEv+0x1948>
  105c28:	8d 96 5c 78 19 00    	lea    edx,[esi+0x19785c]
  105c2e:	66 89 3d 5e 78 19 00 	mov    WORD PTR ds:0x19785e,di
  105c35:	81 fa 00 08 00 00    	cmp    edx,0x800
  105c3b:	0f 87 c9 0d 00 00    	ja     106a0a <_ZN2os3hal3idt9init_irqsEv+0x191a>
  105c41:	8d be 5d 78 19 00    	lea    edi,[esi+0x19785d]
  105c47:	c6 05 5c 78 19 00 00 	mov    BYTE PTR ds:0x19785c,0x0
  105c4e:	bd 5d 78 19 00       	mov    ebp,0x19785d
  105c53:	81 ff 00 08 00 00    	cmp    edi,0x800
  105c59:	0f 87 83 0d 00 00    	ja     1069e2 <_ZN2os3hal3idt9init_irqsEv+0x18f2>
  105c5f:	0f b6 15 5d 78 19 00 	movzx  edx,BYTE PTR ds:0x19785d
  105c66:	83 e2 f0             	and    edx,0xfffffff0
  105c69:	0a 54 24 0d          	or     dl,BYTE PTR [esp+0xd]
  105c6d:	81 ff 00 08 00 00    	cmp    edi,0x800
  105c73:	88 15 5d 78 19 00    	mov    BYTE PTR ds:0x19785d,dl
  105c79:	0f 87 33 0d 00 00    	ja     1069b2 <_ZN2os3hal3idt9init_irqsEv+0x18c2>
  105c7f:	0f b6 15 5d 78 19 00 	movzx  edx,BYTE PTR ds:0x19785d
  105c86:	89 c1                	mov    ecx,eax
  105c88:	83 e1 03             	and    ecx,0x3
  105c8b:	c1 e1 05             	shl    ecx,0x5
  105c8e:	83 e2 9f             	and    edx,0xffffff9f
  105c91:	09 ca                	or     edx,ecx
  105c93:	81 ff 00 08 00 00    	cmp    edi,0x800
  105c99:	88 15 5d 78 19 00    	mov    BYTE PTR ds:0x19785d,dl
  105c9f:	0f 87 dd 0c 00 00    	ja     106982 <_ZN2os3hal3idt9init_irqsEv+0x1892>
  105ca5:	0f b6 15 5d 78 19 00 	movzx  edx,BYTE PTR ds:0x19785d
  105cac:	0f b6 4c 24 0e       	movzx  ecx,BYTE PTR [esp+0xe]
  105cb1:	83 e2 7f             	and    edx,0x7f
  105cb4:	c1 e1 07             	shl    ecx,0x7
  105cb7:	09 ca                	or     edx,ecx
  105cb9:	81 ff 00 08 00 00    	cmp    edi,0x800
  105cbf:	88 15 5d 78 19 00    	mov    BYTE PTR ds:0x19785d,dl
  105cc5:	0f 87 87 0c 00 00    	ja     106952 <_ZN2os3hal3idt9init_irqsEv+0x1862>
  105ccb:	8d 93 5a 78 19 00    	lea    edx,[ebx+0x19785a]
  105cd1:	80 25 5d 78 19 00 ef 	and    BYTE PTR ds:0x19785d,0xef
  105cd8:	81 fa 00 08 00 00    	cmp    edx,0x800
  105cde:	0f 87 40 0c 00 00    	ja     106924 <_ZN2os3hal3idt9init_irqsEv+0x1834>
  105ce4:	ba 08 00 00 00       	mov    edx,0x8
  105ce9:	bf 2d 81 10 00       	mov    edi,0x10812d
  105cee:	66 89 15 5a 78 19 00 	mov    WORD PTR ds:0x19785a,dx
  105cf5:	8d 93 60 78 19 00    	lea    edx,[ebx+0x197860]
  105cfb:	81 fa 00 08 00 00    	cmp    edx,0x800
  105d01:	0f 87 ef 0b 00 00    	ja     1068f6 <_ZN2os3hal3idt9init_irqsEv+0x1806>
  105d07:	8d 93 66 78 19 00    	lea    edx,[ebx+0x197866]
  105d0d:	66 89 3d 60 78 19 00 	mov    WORD PTR ds:0x197860,di
  105d14:	c1 ef 10             	shr    edi,0x10
  105d17:	81 fa 00 08 00 00    	cmp    edx,0x800
  105d1d:	0f 87 a5 0b 00 00    	ja     1068c8 <_ZN2os3hal3idt9init_irqsEv+0x17d8>
  105d23:	8d 96 64 78 19 00    	lea    edx,[esi+0x197864]
  105d29:	66 89 3d 66 78 19 00 	mov    WORD PTR ds:0x197866,di
  105d30:	81 fa 00 08 00 00    	cmp    edx,0x800
  105d36:	0f 87 5e 0b 00 00    	ja     10689a <_ZN2os3hal3idt9init_irqsEv+0x17aa>
  105d3c:	8d be 65 78 19 00    	lea    edi,[esi+0x197865]
  105d42:	c6 05 64 78 19 00 00 	mov    BYTE PTR ds:0x197864,0x0
  105d49:	bd 65 78 19 00       	mov    ebp,0x197865
  105d4e:	81 ff 00 08 00 00    	cmp    edi,0x800
  105d54:	0f 87 18 0b 00 00    	ja     106872 <_ZN2os3hal3idt9init_irqsEv+0x1782>
  105d5a:	0f b6 15 65 78 19 00 	movzx  edx,BYTE PTR ds:0x197865
  105d61:	83 e2 f0             	and    edx,0xfffffff0
  105d64:	0a 54 24 0d          	or     dl,BYTE PTR [esp+0xd]
  105d68:	81 ff 00 08 00 00    	cmp    edi,0x800
  105d6e:	88 15 65 78 19 00    	mov    BYTE PTR ds:0x197865,dl
  105d74:	0f 87 c8 0a 00 00    	ja     106842 <_ZN2os3hal3idt9init_irqsEv+0x1752>
  105d7a:	0f b6 15 65 78 19 00 	movzx  edx,BYTE PTR ds:0x197865
  105d81:	89 c1                	mov    ecx,eax
  105d83:	83 e1 03             	and    ecx,0x3
  105d86:	c1 e1 05             	shl    ecx,0x5
  105d89:	83 e2 9f             	and    edx,0xffffff9f
  105d8c:	09 ca                	or     edx,ecx
  105d8e:	81 ff 00 08 00 00    	cmp    edi,0x800
  105d94:	88 15 65 78 19 00    	mov    BYTE PTR ds:0x197865,dl
  105d9a:	0f 87 72 0a 00 00    	ja     106812 <_ZN2os3hal3idt9init_irqsEv+0x1722>
  105da0:	0f b6 15 65 78 19 00 	movzx  edx,BYTE PTR ds:0x197865
  105da7:	0f b6 4c 24 0e       	movzx  ecx,BYTE PTR [esp+0xe]
  105dac:	83 e2 7f             	and    edx,0x7f
  105daf:	c1 e1 07             	shl    ecx,0x7
  105db2:	09 ca                	or     edx,ecx
  105db4:	81 ff 00 08 00 00    	cmp    edi,0x800
  105dba:	88 15 65 78 19 00    	mov    BYTE PTR ds:0x197865,dl
  105dc0:	0f 87 1c 0a 00 00    	ja     1067e2 <_ZN2os3hal3idt9init_irqsEv+0x16f2>
  105dc6:	8d 93 62 78 19 00    	lea    edx,[ebx+0x197862]
  105dcc:	80 25 65 78 19 00 ef 	and    BYTE PTR ds:0x197865,0xef
  105dd3:	81 fa 00 08 00 00    	cmp    edx,0x800
  105dd9:	0f 87 d5 09 00 00    	ja     1067b4 <_ZN2os3hal3idt9init_irqsEv+0x16c4>
  105ddf:	ba 08 00 00 00       	mov    edx,0x8
  105de4:	bf 37 81 10 00       	mov    edi,0x108137
  105de9:	66 89 15 62 78 19 00 	mov    WORD PTR ds:0x197862,dx
  105df0:	8d 93 68 78 19 00    	lea    edx,[ebx+0x197868]
  105df6:	81 fa 00 08 00 00    	cmp    edx,0x800
  105dfc:	0f 87 84 09 00 00    	ja     106786 <_ZN2os3hal3idt9init_irqsEv+0x1696>
  105e02:	8d 93 6e 78 19 00    	lea    edx,[ebx+0x19786e]
  105e08:	66 89 3d 68 78 19 00 	mov    WORD PTR ds:0x197868,di
  105e0f:	c1 ef 10             	shr    edi,0x10
  105e12:	81 fa 00 08 00 00    	cmp    edx,0x800
  105e18:	0f 87 3a 09 00 00    	ja     106758 <_ZN2os3hal3idt9init_irqsEv+0x1668>
  105e1e:	8d 96 6c 78 19 00    	lea    edx,[esi+0x19786c]
  105e24:	66 89 3d 6e 78 19 00 	mov    WORD PTR ds:0x19786e,di
  105e2b:	81 fa 00 08 00 00    	cmp    edx,0x800
  105e31:	0f 87 f3 08 00 00    	ja     10672a <_ZN2os3hal3idt9init_irqsEv+0x163a>
  105e37:	8d be 6d 78 19 00    	lea    edi,[esi+0x19786d]
  105e3d:	c6 05 6c 78 19 00 00 	mov    BYTE PTR ds:0x19786c,0x0
  105e44:	bd 6d 78 19 00       	mov    ebp,0x19786d
  105e49:	81 ff 00 08 00 00    	cmp    edi,0x800
  105e4f:	0f 87 ad 08 00 00    	ja     106702 <_ZN2os3hal3idt9init_irqsEv+0x1612>
  105e55:	0f b6 15 6d 78 19 00 	movzx  edx,BYTE PTR ds:0x19786d
  105e5c:	83 e2 f0             	and    edx,0xfffffff0
  105e5f:	0a 54 24 0d          	or     dl,BYTE PTR [esp+0xd]
  105e63:	81 ff 00 08 00 00    	cmp    edi,0x800
  105e69:	88 15 6d 78 19 00    	mov    BYTE PTR ds:0x19786d,dl
  105e6f:	0f 87 5d 08 00 00    	ja     1066d2 <_ZN2os3hal3idt9init_irqsEv+0x15e2>
  105e75:	0f b6 15 6d 78 19 00 	movzx  edx,BYTE PTR ds:0x19786d
  105e7c:	89 c1                	mov    ecx,eax
  105e7e:	83 e1 03             	and    ecx,0x3
  105e81:	c1 e1 05             	shl    ecx,0x5
  105e84:	83 e2 9f             	and    edx,0xffffff9f
  105e87:	09 ca                	or     edx,ecx
  105e89:	81 ff 00 08 00 00    	cmp    edi,0x800
  105e8f:	88 15 6d 78 19 00    	mov    BYTE PTR ds:0x19786d,dl
  105e95:	0f 87 07 08 00 00    	ja     1066a2 <_ZN2os3hal3idt9init_irqsEv+0x15b2>
  105e9b:	0f b6 15 6d 78 19 00 	movzx  edx,BYTE PTR ds:0x19786d
  105ea2:	0f b6 4c 24 0e       	movzx  ecx,BYTE PTR [esp+0xe]
  105ea7:	83 e2 7f             	and    edx,0x7f
  105eaa:	c1 e1 07             	shl    ecx,0x7
  105ead:	09 ca                	or     edx,ecx
  105eaf:	81 ff 00 08 00 00    	cmp    edi,0x800
  105eb5:	88 15 6d 78 19 00    	mov    BYTE PTR ds:0x19786d,dl
  105ebb:	0f 87 b1 07 00 00    	ja     106672 <_ZN2os3hal3idt9init_irqsEv+0x1582>
  105ec1:	8d 93 6a 78 19 00    	lea    edx,[ebx+0x19786a]
  105ec7:	80 25 6d 78 19 00 ef 	and    BYTE PTR ds:0x19786d,0xef
  105ece:	81 fa 00 08 00 00    	cmp    edx,0x800
  105ed4:	0f 87 6a 07 00 00    	ja     106644 <_ZN2os3hal3idt9init_irqsEv+0x1554>
  105eda:	ba 08 00 00 00       	mov    edx,0x8
  105edf:	bf 41 81 10 00       	mov    edi,0x108141
  105ee4:	66 89 15 6a 78 19 00 	mov    WORD PTR ds:0x19786a,dx
  105eeb:	8d 93 70 78 19 00    	lea    edx,[ebx+0x197870]
  105ef1:	81 fa 00 08 00 00    	cmp    edx,0x800
  105ef7:	0f 87 19 07 00 00    	ja     106616 <_ZN2os3hal3idt9init_irqsEv+0x1526>
  105efd:	8d 93 76 78 19 00    	lea    edx,[ebx+0x197876]
  105f03:	66 89 3d 70 78 19 00 	mov    WORD PTR ds:0x197870,di
  105f0a:	c1 ef 10             	shr    edi,0x10
  105f0d:	81 fa 00 08 00 00    	cmp    edx,0x800
  105f13:	0f 87 cf 06 00 00    	ja     1065e8 <_ZN2os3hal3idt9init_irqsEv+0x14f8>
  105f19:	8d 96 74 78 19 00    	lea    edx,[esi+0x197874]
  105f1f:	66 89 3d 76 78 19 00 	mov    WORD PTR ds:0x197876,di
  105f26:	81 fa 00 08 00 00    	cmp    edx,0x800
  105f2c:	0f 87 88 06 00 00    	ja     1065ba <_ZN2os3hal3idt9init_irqsEv+0x14ca>
  105f32:	8d be 75 78 19 00    	lea    edi,[esi+0x197875]
  105f38:	c6 05 74 78 19 00 00 	mov    BYTE PTR ds:0x197874,0x0
  105f3f:	bd 75 78 19 00       	mov    ebp,0x197875
  105f44:	81 ff 00 08 00 00    	cmp    edi,0x800
  105f4a:	0f 87 42 06 00 00    	ja     106592 <_ZN2os3hal3idt9init_irqsEv+0x14a2>
  105f50:	0f b6 15 75 78 19 00 	movzx  edx,BYTE PTR ds:0x197875
  105f57:	83 e2 f0             	and    edx,0xfffffff0
  105f5a:	0a 54 24 0d          	or     dl,BYTE PTR [esp+0xd]
  105f5e:	81 ff 00 08 00 00    	cmp    edi,0x800
  105f64:	88 15 75 78 19 00    	mov    BYTE PTR ds:0x197875,dl
  105f6a:	0f 87 f2 05 00 00    	ja     106562 <_ZN2os3hal3idt9init_irqsEv+0x1472>
  105f70:	0f b6 15 75 78 19 00 	movzx  edx,BYTE PTR ds:0x197875
  105f77:	89 c1                	mov    ecx,eax
  105f79:	83 e1 03             	and    ecx,0x3
  105f7c:	c1 e1 05             	shl    ecx,0x5
  105f7f:	83 e2 9f             	and    edx,0xffffff9f
  105f82:	09 ca                	or     edx,ecx
  105f84:	81 ff 00 08 00 00    	cmp    edi,0x800
  105f8a:	88 15 75 78 19 00    	mov    BYTE PTR ds:0x197875,dl
  105f90:	0f 87 9c 05 00 00    	ja     106532 <_ZN2os3hal3idt9init_irqsEv+0x1442>
  105f96:	0f b6 15 75 78 19 00 	movzx  edx,BYTE PTR ds:0x197875
  105f9d:	0f b6 4c 24 0e       	movzx  ecx,BYTE PTR [esp+0xe]
  105fa2:	83 e2 7f             	and    edx,0x7f
  105fa5:	c1 e1 07             	shl    ecx,0x7
  105fa8:	09 ca                	or     edx,ecx
  105faa:	81 ff 00 08 00 00    	cmp    edi,0x800
  105fb0:	88 15 75 78 19 00    	mov    BYTE PTR ds:0x197875,dl
  105fb6:	0f 87 46 05 00 00    	ja     106502 <_ZN2os3hal3idt9init_irqsEv+0x1412>
  105fbc:	8d 93 72 78 19 00    	lea    edx,[ebx+0x197872]
  105fc2:	80 25 75 78 19 00 ef 	and    BYTE PTR ds:0x197875,0xef
  105fc9:	81 fa 00 08 00 00    	cmp    edx,0x800
  105fcf:	0f 87 ff 04 00 00    	ja     1064d4 <_ZN2os3hal3idt9init_irqsEv+0x13e4>
  105fd5:	ba 08 00 00 00       	mov    edx,0x8
  105fda:	bf 4b 81 10 00       	mov    edi,0x10814b
  105fdf:	66 89 15 72 78 19 00 	mov    WORD PTR ds:0x197872,dx
  105fe6:	8d 93 78 78 19 00    	lea    edx,[ebx+0x197878]
  105fec:	81 fa 00 08 00 00    	cmp    edx,0x800
  105ff2:	0f 87 ae 04 00 00    	ja     1064a6 <_ZN2os3hal3idt9init_irqsEv+0x13b6>
  105ff8:	8d 93 7e 78 19 00    	lea    edx,[ebx+0x19787e]
  105ffe:	66 89 3d 78 78 19 00 	mov    WORD PTR ds:0x197878,di
  106005:	c1 ef 10             	shr    edi,0x10
  106008:	81 fa 00 08 00 00    	cmp    edx,0x800
  10600e:	0f 87 64 04 00 00    	ja     106478 <_ZN2os3hal3idt9init_irqsEv+0x1388>
  106014:	8d 96 7c 78 19 00    	lea    edx,[esi+0x19787c]
  10601a:	66 89 3d 7e 78 19 00 	mov    WORD PTR ds:0x19787e,di
  106021:	81 fa 00 08 00 00    	cmp    edx,0x800
  106027:	0f 87 1d 04 00 00    	ja     10644a <_ZN2os3hal3idt9init_irqsEv+0x135a>
  10602d:	8d be 7d 78 19 00    	lea    edi,[esi+0x19787d]
  106033:	c6 05 7c 78 19 00 00 	mov    BYTE PTR ds:0x19787c,0x0
  10603a:	bd 7d 78 19 00       	mov    ebp,0x19787d
  10603f:	81 ff 00 08 00 00    	cmp    edi,0x800
  106045:	0f 87 d7 03 00 00    	ja     106422 <_ZN2os3hal3idt9init_irqsEv+0x1332>
  10604b:	0f b6 15 7d 78 19 00 	movzx  edx,BYTE PTR ds:0x19787d
  106052:	83 e2 f0             	and    edx,0xfffffff0
  106055:	0a 54 24 0d          	or     dl,BYTE PTR [esp+0xd]
  106059:	81 ff 00 08 00 00    	cmp    edi,0x800
  10605f:	88 15 7d 78 19 00    	mov    BYTE PTR ds:0x19787d,dl
  106065:	0f 87 87 03 00 00    	ja     1063f2 <_ZN2os3hal3idt9init_irqsEv+0x1302>
  10606b:	0f b6 15 7d 78 19 00 	movzx  edx,BYTE PTR ds:0x19787d
  106072:	89 c1                	mov    ecx,eax
  106074:	83 e1 03             	and    ecx,0x3
  106077:	c1 e1 05             	shl    ecx,0x5
  10607a:	83 e2 9f             	and    edx,0xffffff9f
  10607d:	09 ca                	or     edx,ecx
  10607f:	81 ff 00 08 00 00    	cmp    edi,0x800
  106085:	88 15 7d 78 19 00    	mov    BYTE PTR ds:0x19787d,dl
  10608b:	0f 87 31 03 00 00    	ja     1063c2 <_ZN2os3hal3idt9init_irqsEv+0x12d2>
  106091:	0f b6 15 7d 78 19 00 	movzx  edx,BYTE PTR ds:0x19787d
  106098:	0f b6 4c 24 0e       	movzx  ecx,BYTE PTR [esp+0xe]
  10609d:	83 e2 7f             	and    edx,0x7f
  1060a0:	c1 e1 07             	shl    ecx,0x7
  1060a3:	09 ca                	or     edx,ecx
  1060a5:	81 ff 00 08 00 00    	cmp    edi,0x800
  1060ab:	88 15 7d 78 19 00    	mov    BYTE PTR ds:0x19787d,dl
  1060b1:	0f 87 db 02 00 00    	ja     106392 <_ZN2os3hal3idt9init_irqsEv+0x12a2>
  1060b7:	8d 93 7a 78 19 00    	lea    edx,[ebx+0x19787a]
  1060bd:	80 25 7d 78 19 00 ef 	and    BYTE PTR ds:0x19787d,0xef
  1060c4:	81 fa 00 08 00 00    	cmp    edx,0x800
  1060ca:	0f 87 94 02 00 00    	ja     106364 <_ZN2os3hal3idt9init_irqsEv+0x1274>
  1060d0:	ba 08 00 00 00       	mov    edx,0x8
  1060d5:	bf 55 81 10 00       	mov    edi,0x108155
  1060da:	66 89 15 7a 78 19 00 	mov    WORD PTR ds:0x19787a,dx
  1060e1:	8d 93 00 7b 19 00    	lea    edx,[ebx+0x197b00]
  1060e7:	81 fa 00 08 00 00    	cmp    edx,0x800
  1060ed:	0f 87 43 02 00 00    	ja     106336 <_ZN2os3hal3idt9init_irqsEv+0x1246>
  1060f3:	8d 93 06 7b 19 00    	lea    edx,[ebx+0x197b06]
  1060f9:	66 89 3d 00 7b 19 00 	mov    WORD PTR ds:0x197b00,di
  106100:	c1 ef 10             	shr    edi,0x10
  106103:	81 fa 00 08 00 00    	cmp    edx,0x800
  106109:	0f 87 f9 01 00 00    	ja     106308 <_ZN2os3hal3idt9init_irqsEv+0x1218>
  10610f:	8d 96 04 7b 19 00    	lea    edx,[esi+0x197b04]
  106115:	66 89 3d 06 7b 19 00 	mov    WORD PTR ds:0x197b06,di
  10611c:	81 fa 00 08 00 00    	cmp    edx,0x800
  106122:	0f 87 b2 01 00 00    	ja     1062da <_ZN2os3hal3idt9init_irqsEv+0x11ea>
  106128:	81 c6 05 7b 19 00    	add    esi,0x197b05
  10612e:	c6 05 04 7b 19 00 00 	mov    BYTE PTR ds:0x197b04,0x0
  106135:	bf 05 7b 19 00       	mov    edi,0x197b05
  10613a:	81 fe 00 08 00 00    	cmp    esi,0x800
  106140:	0f 87 6c 01 00 00    	ja     1062b2 <_ZN2os3hal3idt9init_irqsEv+0x11c2>
  106146:	0f b6 15 05 7b 19 00 	movzx  edx,BYTE PTR ds:0x197b05
  10614d:	83 e2 f0             	and    edx,0xfffffff0
  106150:	0a 54 24 0d          	or     dl,BYTE PTR [esp+0xd]
  106154:	81 fe 00 08 00 00    	cmp    esi,0x800
  10615a:	88 15 05 7b 19 00    	mov    BYTE PTR ds:0x197b05,dl
  106160:	0f 87 1c 01 00 00    	ja     106282 <_ZN2os3hal3idt9init_irqsEv+0x1192>
  106166:	0f b6 15 05 7b 19 00 	movzx  edx,BYTE PTR ds:0x197b05
  10616d:	83 e0 03             	and    eax,0x3
  106170:	c1 e0 05             	shl    eax,0x5
  106173:	83 e2 9f             	and    edx,0xffffff9f
  106176:	09 d0                	or     eax,edx
  106178:	81 fe 00 08 00 00    	cmp    esi,0x800
  10617e:	a2 05 7b 19 00       	mov    ds:0x197b05,al
  106183:	0f 87 d2 00 00 00    	ja     10625b <_ZN2os3hal3idt9init_irqsEv+0x116b>
  106189:	0f b6 15 05 7b 19 00 	movzx  edx,BYTE PTR ds:0x197b05
  106190:	0f b6 44 24 0e       	movzx  eax,BYTE PTR [esp+0xe]
  106195:	83 e2 7f             	and    edx,0x7f
  106198:	c1 e0 07             	shl    eax,0x7
  10619b:	09 d0                	or     eax,edx
  10619d:	81 fe 00 08 00 00    	cmp    esi,0x800
  1061a3:	a2 05 7b 19 00       	mov    ds:0x197b05,al
  1061a8:	0f 87 86 00 00 00    	ja     106234 <_ZN2os3hal3idt9init_irqsEv+0x1144>
  1061ae:	81 c3 02 7b 19 00    	add    ebx,0x197b02
  1061b4:	80 25 05 7b 19 00 ef 	and    BYTE PTR ds:0x197b05,0xef
  1061bb:	81 fb 00 08 00 00    	cmp    ebx,0x800
  1061c1:	77 53                	ja     106216 <_ZN2os3hal3idt9init_irqsEv+0x1126>
  1061c3:	83 ec 08             	sub    esp,0x8
  1061c6:	b8 08 00 00 00       	mov    eax,0x8
  1061cb:	68 86 10 11 00       	push   0x111086
  1061d0:	68 04 17 11 00       	push   0x111704
  1061d5:	66 a3 02 7b 19 00    	mov    ds:0x197b02,ax
  1061db:	e8 60 43 00 00       	call   10a540 <printf>
  1061e0:	83 c4 2c             	add    esp,0x2c
  1061e3:	5b                   	pop    ebx
  1061e4:	5e                   	pop    esi
  1061e5:	5f                   	pop    edi
  1061e6:	5d                   	pop    ebp
  1061e7:	c3                   	ret    
  1061e8:	81 c2 00 78 19 00    	add    edx,0x197800
  1061ee:	0f 82 44 ef ff ff    	jb     105138 <_ZN2os3hal3idt9init_irqsEv+0x48>
  1061f4:	88 44 24 0f          	mov    BYTE PTR [esp+0xf],al
  1061f8:	50                   	push   eax
  1061f9:	50                   	push   eax
  1061fa:	68 00 78 19 00       	push   0x197800
  1061ff:	68 24 33 11 00       	push   0x113324
  106204:	e8 67 68 00 00       	call   10ca70 <__ubsan_handle_type_mismatch>
  106209:	83 c4 10             	add    esp,0x10
  10620c:	0f b6 44 24 0f       	movzx  eax,BYTE PTR [esp+0xf]
  106211:	e9 22 ef ff ff       	jmp    105138 <_ZN2os3hal3idt9init_irqsEv+0x48>
  106216:	81 c3 02 7b 19 00    	add    ebx,0x197b02
  10621c:	72 a5                	jb     1061c3 <_ZN2os3hal3idt9init_irqsEv+0x10d3>
  10621e:	52                   	push   edx
  10621f:	52                   	push   edx
  106220:	68 02 7b 19 00       	push   0x197b02
  106225:	68 7c 26 11 00       	push   0x11267c
  10622a:	e8 41 68 00 00       	call   10ca70 <__ubsan_handle_type_mismatch>
  10622f:	83 c4 10             	add    esp,0x10
  106232:	eb 8f                	jmp    1061c3 <_ZN2os3hal3idt9init_irqsEv+0x10d3>
  106234:	81 c6 05 7b 19 00    	add    esi,0x197b05
  10623a:	39 f7                	cmp    edi,esi
  10623c:	0f 87 6c ff ff ff    	ja     1061ae <_ZN2os3hal3idt9init_irqsEv+0x10be>
  106242:	51                   	push   ecx
  106243:	51                   	push   ecx
  106244:	68 05 7b 19 00       	push   0x197b05
  106249:	68 94 26 11 00       	push   0x112694
  10624e:	e8 1d 68 00 00       	call   10ca70 <__ubsan_handle_type_mismatch>
  106253:	83 c4 10             	add    esp,0x10
  106256:	e9 53 ff ff ff       	jmp    1061ae <_ZN2os3hal3idt9init_irqsEv+0x10be>
  10625b:	8d 86 05 7b 19 00    	lea    eax,[esi+0x197b05]
  106261:	39 c7                	cmp    edi,eax
  106263:	0f 87 20 ff ff ff    	ja     106189 <_ZN2os3hal3idt9init_irqsEv+0x1099>
  106269:	55                   	push   ebp
  10626a:	55                   	push   ebp
  10626b:	68 05 7b 19 00       	push   0x197b05
  106270:	68 ac 26 11 00       	push   0x1126ac
  106275:	e8 f6 67 00 00       	call   10ca70 <__ubsan_handle_type_mismatch>
  10627a:	83 c4 10             	add    esp,0x10
  10627d:	e9 07 ff ff ff       	jmp    106189 <_ZN2os3hal3idt9init_irqsEv+0x1099>
  106282:	8d 96 05 7b 19 00    	lea    edx,[esi+0x197b05]
  106288:	39 d7                	cmp    edi,edx
  10628a:	0f 87 d6 fe ff ff    	ja     106166 <_ZN2os3hal3idt9init_irqsEv+0x1076>
  106290:	88 44 24 0d          	mov    BYTE PTR [esp+0xd],al
  106294:	50                   	push   eax
  106295:	50                   	push   eax
  106296:	68 05 7b 19 00       	push   0x197b05
  10629b:	68 c4 26 11 00       	push   0x1126c4
  1062a0:	e8 cb 67 00 00       	call   10ca70 <__ubsan_handle_type_mismatch>
  1062a5:	83 c4 10             	add    esp,0x10
  1062a8:	0f b6 44 24 0d       	movzx  eax,BYTE PTR [esp+0xd]
  1062ad:	e9 b4 fe ff ff       	jmp    106166 <_ZN2os3hal3idt9init_irqsEv+0x1076>
  1062b2:	89 f1                	mov    ecx,esi
  1062b4:	01 f9                	add    ecx,edi
  1062b6:	0f 82 8a fe ff ff    	jb     106146 <_ZN2os3hal3idt9init_irqsEv+0x1056>
  1062bc:	88 44 24 0f          	mov    BYTE PTR [esp+0xf],al
  1062c0:	50                   	push   eax
  1062c1:	50                   	push   eax
  1062c2:	57                   	push   edi
  1062c3:	68 dc 26 11 00       	push   0x1126dc
  1062c8:	e8 a3 67 00 00       	call   10ca70 <__ubsan_handle_type_mismatch>
  1062cd:	83 c4 10             	add    esp,0x10
  1062d0:	0f b6 44 24 0f       	movzx  eax,BYTE PTR [esp+0xf]
  1062d5:	e9 6c fe ff ff       	jmp    106146 <_ZN2os3hal3idt9init_irqsEv+0x1056>
  1062da:	81 c2 04 7b 19 00    	add    edx,0x197b04
  1062e0:	0f 82 42 fe ff ff    	jb     106128 <_ZN2os3hal3idt9init_irqsEv+0x1038>
  1062e6:	88 44 24 0f          	mov    BYTE PTR [esp+0xf],al
  1062ea:	50                   	push   eax
  1062eb:	50                   	push   eax
  1062ec:	68 04 7b 19 00       	push   0x197b04
  1062f1:	68 f4 26 11 00       	push   0x1126f4
  1062f6:	e8 75 67 00 00       	call   10ca70 <__ubsan_handle_type_mismatch>
  1062fb:	83 c4 10             	add    esp,0x10
  1062fe:	0f b6 44 24 0f       	movzx  eax,BYTE PTR [esp+0xf]
  106303:	e9 20 fe ff ff       	jmp    106128 <_ZN2os3hal3idt9init_irqsEv+0x1038>
  106308:	81 c2 06 7b 19 00    	add    edx,0x197b06
  10630e:	0f 82 fb fd ff ff    	jb     10610f <_ZN2os3hal3idt9init_irqsEv+0x101f>
  106314:	88 44 24 0f          	mov    BYTE PTR [esp+0xf],al
  106318:	50                   	push   eax
  106319:	50                   	push   eax
  10631a:	68 06 7b 19 00       	push   0x197b06
  10631f:	68 0c 27 11 00       	push   0x11270c
  106324:	e8 47 67 00 00       	call   10ca70 <__ubsan_handle_type_mismatch>
  106329:	83 c4 10             	add    esp,0x10
  10632c:	0f b6 44 24 0f       	movzx  eax,BYTE PTR [esp+0xf]
  106331:	e9 d9 fd ff ff       	jmp    10610f <_ZN2os3hal3idt9init_irqsEv+0x101f>
  106336:	81 c2 00 7b 19 00    	add    edx,0x197b00
  10633c:	0f 82 b1 fd ff ff    	jb     1060f3 <_ZN2os3hal3idt9init_irqsEv+0x1003>
  106342:	88 44 24 0f          	mov    BYTE PTR [esp+0xf],al
  106346:	50                   	push   eax
  106347:	50                   	push   eax
  106348:	68 00 7b 19 00       	push   0x197b00
  10634d:	68 24 27 11 00       	push   0x112724
  106352:	e8 19 67 00 00       	call   10ca70 <__ubsan_handle_type_mismatch>
  106357:	83 c4 10             	add    esp,0x10
  10635a:	0f b6 44 24 0f       	movzx  eax,BYTE PTR [esp+0xf]
  10635f:	e9 8f fd ff ff       	jmp    1060f3 <_ZN2os3hal3idt9init_irqsEv+0x1003>
  106364:	81 c2 7a 78 19 00    	add    edx,0x19787a
  10636a:	0f 82 60 fd ff ff    	jb     1060d0 <_ZN2os3hal3idt9init_irqsEv+0xfe0>
  106370:	88 44 24 0f          	mov    BYTE PTR [esp+0xf],al
  106374:	51                   	push   ecx
  106375:	51                   	push   ecx
  106376:	68 7a 78 19 00       	push   0x19787a
  10637b:	68 3c 27 11 00       	push   0x11273c
  106380:	e8 eb 66 00 00       	call   10ca70 <__ubsan_handle_type_mismatch>
  106385:	83 c4 10             	add    esp,0x10
  106388:	0f b6 44 24 0f       	movzx  eax,BYTE PTR [esp+0xf]
  10638d:	e9 3e fd ff ff       	jmp    1060d0 <_ZN2os3hal3idt9init_irqsEv+0xfe0>
  106392:	81 c7 7d 78 19 00    	add    edi,0x19787d
  106398:	39 fd                	cmp    ebp,edi
  10639a:	0f 87 17 fd ff ff    	ja     1060b7 <_ZN2os3hal3idt9init_irqsEv+0xfc7>
  1063a0:	88 44 24 0f          	mov    BYTE PTR [esp+0xf],al
  1063a4:	57                   	push   edi
  1063a5:	57                   	push   edi
  1063a6:	68 7d 78 19 00       	push   0x19787d
  1063ab:	68 54 27 11 00       	push   0x112754
  1063b0:	e8 bb 66 00 00       	call   10ca70 <__ubsan_handle_type_mismatch>
  1063b5:	83 c4 10             	add    esp,0x10
  1063b8:	0f b6 44 24 0f       	movzx  eax,BYTE PTR [esp+0xf]
  1063bd:	e9 f5 fc ff ff       	jmp    1060b7 <_ZN2os3hal3idt9init_irqsEv+0xfc7>
  1063c2:	8d 97 7d 78 19 00    	lea    edx,[edi+0x19787d]
  1063c8:	39 d5                	cmp    ebp,edx
  1063ca:	0f 87 c1 fc ff ff    	ja     106091 <_ZN2os3hal3idt9init_irqsEv+0xfa1>
  1063d0:	88 44 24 0f          	mov    BYTE PTR [esp+0xf],al
  1063d4:	50                   	push   eax
  1063d5:	50                   	push   eax
  1063d6:	68 7d 78 19 00       	push   0x19787d
  1063db:	68 6c 27 11 00       	push   0x11276c
  1063e0:	e8 8b 66 00 00       	call   10ca70 <__ubsan_handle_type_mismatch>
  1063e5:	83 c4 10             	add    esp,0x10
  1063e8:	0f b6 44 24 0f       	movzx  eax,BYTE PTR [esp+0xf]
  1063ed:	e9 9f fc ff ff       	jmp    106091 <_ZN2os3hal3idt9init_irqsEv+0xfa1>
  1063f2:	8d 97 7d 78 19 00    	lea    edx,[edi+0x19787d]
  1063f8:	39 d5                	cmp    ebp,edx
  1063fa:	0f 87 6b fc ff ff    	ja     10606b <_ZN2os3hal3idt9init_irqsEv+0xf7b>
  106400:	88 44 24 0f          	mov    BYTE PTR [esp+0xf],al
  106404:	50                   	push   eax
  106405:	50                   	push   eax
  106406:	68 7d 78 19 00       	push   0x19787d
  10640b:	68 84 27 11 00       	push   0x112784
  106410:	e8 5b 66 00 00       	call   10ca70 <__ubsan_handle_type_mismatch>
  106415:	83 c4 10             	add    esp,0x10
  106418:	0f b6 44 24 0f       	movzx  eax,BYTE PTR [esp+0xf]
  10641d:	e9 49 fc ff ff       	jmp    10606b <_ZN2os3hal3idt9init_irqsEv+0xf7b>
  106422:	89 f9                	mov    ecx,edi
  106424:	01 e9                	add    ecx,ebp
  106426:	0f 82 1f fc ff ff    	jb     10604b <_ZN2os3hal3idt9init_irqsEv+0xf5b>
  10642c:	88 44 24 0f          	mov    BYTE PTR [esp+0xf],al
  106430:	50                   	push   eax
  106431:	50                   	push   eax
  106432:	55                   	push   ebp
  106433:	68 9c 27 11 00       	push   0x11279c
  106438:	e8 33 66 00 00       	call   10ca70 <__ubsan_handle_type_mismatch>
  10643d:	83 c4 10             	add    esp,0x10
  106440:	0f b6 44 24 0f       	movzx  eax,BYTE PTR [esp+0xf]
  106445:	e9 01 fc ff ff       	jmp    10604b <_ZN2os3hal3idt9init_irqsEv+0xf5b>
  10644a:	81 c2 7c 78 19 00    	add    edx,0x19787c
  106450:	0f 82 d7 fb ff ff    	jb     10602d <_ZN2os3hal3idt9init_irqsEv+0xf3d>
  106456:	88 44 24 0f          	mov    BYTE PTR [esp+0xf],al
  10645a:	50                   	push   eax
  10645b:	50                   	push   eax
  10645c:	68 7c 78 19 00       	push   0x19787c
  106461:	68 b4 27 11 00       	push   0x1127b4
  106466:	e8 05 66 00 00       	call   10ca70 <__ubsan_handle_type_mismatch>
  10646b:	83 c4 10             	add    esp,0x10
  10646e:	0f b6 44 24 0f       	movzx  eax,BYTE PTR [esp+0xf]
  106473:	e9 b5 fb ff ff       	jmp    10602d <_ZN2os3hal3idt9init_irqsEv+0xf3d>
  106478:	81 c2 7e 78 19 00    	add    edx,0x19787e
  10647e:	0f 82 90 fb ff ff    	jb     106014 <_ZN2os3hal3idt9init_irqsEv+0xf24>
  106484:	88 44 24 0f          	mov    BYTE PTR [esp+0xf],al
  106488:	50                   	push   eax
  106489:	50                   	push   eax
  10648a:	68 7e 78 19 00       	push   0x19787e
  10648f:	68 cc 27 11 00       	push   0x1127cc
  106494:	e8 d7 65 00 00       	call   10ca70 <__ubsan_handle_type_mismatch>
  106499:	83 c4 10             	add    esp,0x10
  10649c:	0f b6 44 24 0f       	movzx  eax,BYTE PTR [esp+0xf]
  1064a1:	e9 6e fb ff ff       	jmp    106014 <_ZN2os3hal3idt9init_irqsEv+0xf24>
  1064a6:	81 c2 78 78 19 00    	add    edx,0x197878
  1064ac:	0f 82 46 fb ff ff    	jb     105ff8 <_ZN2os3hal3idt9init_irqsEv+0xf08>
  1064b2:	88 44 24 0f          	mov    BYTE PTR [esp+0xf],al
  1064b6:	50                   	push   eax
  1064b7:	50                   	push   eax
  1064b8:	68 78 78 19 00       	push   0x197878
  1064bd:	68 e4 27 11 00       	push   0x1127e4
  1064c2:	e8 a9 65 00 00       	call   10ca70 <__ubsan_handle_type_mismatch>
  1064c7:	83 c4 10             	add    esp,0x10
  1064ca:	0f b6 44 24 0f       	movzx  eax,BYTE PTR [esp+0xf]
  1064cf:	e9 24 fb ff ff       	jmp    105ff8 <_ZN2os3hal3idt9init_irqsEv+0xf08>
  1064d4:	81 c2 72 78 19 00    	add    edx,0x197872
  1064da:	0f 82 f5 fa ff ff    	jb     105fd5 <_ZN2os3hal3idt9init_irqsEv+0xee5>
  1064e0:	88 44 24 0f          	mov    BYTE PTR [esp+0xf],al
  1064e4:	51                   	push   ecx
  1064e5:	51                   	push   ecx
  1064e6:	68 72 78 19 00       	push   0x197872
  1064eb:	68 fc 27 11 00       	push   0x1127fc
  1064f0:	e8 7b 65 00 00       	call   10ca70 <__ubsan_handle_type_mismatch>
  1064f5:	83 c4 10             	add    esp,0x10
  1064f8:	0f b6 44 24 0f       	movzx  eax,BYTE PTR [esp+0xf]
  1064fd:	e9 d3 fa ff ff       	jmp    105fd5 <_ZN2os3hal3idt9init_irqsEv+0xee5>
  106502:	81 c7 75 78 19 00    	add    edi,0x197875
  106508:	39 fd                	cmp    ebp,edi
  10650a:	0f 87 ac fa ff ff    	ja     105fbc <_ZN2os3hal3idt9init_irqsEv+0xecc>
  106510:	88 44 24 0f          	mov    BYTE PTR [esp+0xf],al
  106514:	57                   	push   edi
  106515:	57                   	push   edi
  106516:	68 75 78 19 00       	push   0x197875
  10651b:	68 14 28 11 00       	push   0x112814
  106520:	e8 4b 65 00 00       	call   10ca70 <__ubsan_handle_type_mismatch>
  106525:	83 c4 10             	add    esp,0x10
  106528:	0f b6 44 24 0f       	movzx  eax,BYTE PTR [esp+0xf]
  10652d:	e9 8a fa ff ff       	jmp    105fbc <_ZN2os3hal3idt9init_irqsEv+0xecc>
  106532:	8d 97 75 78 19 00    	lea    edx,[edi+0x197875]
  106538:	39 d5                	cmp    ebp,edx
  10653a:	0f 87 56 fa ff ff    	ja     105f96 <_ZN2os3hal3idt9init_irqsEv+0xea6>
  106540:	88 44 24 0f          	mov    BYTE PTR [esp+0xf],al
  106544:	50                   	push   eax
  106545:	50                   	push   eax
  106546:	68 75 78 19 00       	push   0x197875
  10654b:	68 2c 28 11 00       	push   0x11282c
  106550:	e8 1b 65 00 00       	call   10ca70 <__ubsan_handle_type_mismatch>
  106555:	83 c4 10             	add    esp,0x10
  106558:	0f b6 44 24 0f       	movzx  eax,BYTE PTR [esp+0xf]
  10655d:	e9 34 fa ff ff       	jmp    105f96 <_ZN2os3hal3idt9init_irqsEv+0xea6>
  106562:	8d 97 75 78 19 00    	lea    edx,[edi+0x197875]
  106568:	39 d5                	cmp    ebp,edx
  10656a:	0f 87 00 fa ff ff    	ja     105f70 <_ZN2os3hal3idt9init_irqsEv+0xe80>
  106570:	88 44 24 0f          	mov    BYTE PTR [esp+0xf],al
  106574:	50                   	push   eax
  106575:	50                   	push   eax
  106576:	68 75 78 19 00       	push   0x197875
  10657b:	68 44 28 11 00       	push   0x112844
  106580:	e8 eb 64 00 00       	call   10ca70 <__ubsan_handle_type_mismatch>
  106585:	83 c4 10             	add    esp,0x10
  106588:	0f b6 44 24 0f       	movzx  eax,BYTE PTR [esp+0xf]
  10658d:	e9 de f9 ff ff       	jmp    105f70 <_ZN2os3hal3idt9init_irqsEv+0xe80>
  106592:	89 f9                	mov    ecx,edi
  106594:	01 e9                	add    ecx,ebp
  106596:	0f 82 b4 f9 ff ff    	jb     105f50 <_ZN2os3hal3idt9init_irqsEv+0xe60>
  10659c:	88 44 24 0f          	mov    BYTE PTR [esp+0xf],al
  1065a0:	50                   	push   eax
  1065a1:	50                   	push   eax
  1065a2:	55                   	push   ebp
  1065a3:	68 5c 28 11 00       	push   0x11285c
  1065a8:	e8 c3 64 00 00       	call   10ca70 <__ubsan_handle_type_mismatch>
  1065ad:	83 c4 10             	add    esp,0x10
  1065b0:	0f b6 44 24 0f       	movzx  eax,BYTE PTR [esp+0xf]
  1065b5:	e9 96 f9 ff ff       	jmp    105f50 <_ZN2os3hal3idt9init_irqsEv+0xe60>
  1065ba:	81 c2 74 78 19 00    	add    edx,0x197874
  1065c0:	0f 82 6c f9 ff ff    	jb     105f32 <_ZN2os3hal3idt9init_irqsEv+0xe42>
  1065c6:	88 44 24 0f          	mov    BYTE PTR [esp+0xf],al
  1065ca:	50                   	push   eax
  1065cb:	50                   	push   eax
  1065cc:	68 74 78 19 00       	push   0x197874
  1065d1:	68 74 28 11 00       	push   0x112874
  1065d6:	e8 95 64 00 00       	call   10ca70 <__ubsan_handle_type_mismatch>
  1065db:	83 c4 10             	add    esp,0x10
  1065de:	0f b6 44 24 0f       	movzx  eax,BYTE PTR [esp+0xf]
  1065e3:	e9 4a f9 ff ff       	jmp    105f32 <_ZN2os3hal3idt9init_irqsEv+0xe42>
  1065e8:	81 c2 76 78 19 00    	add    edx,0x197876
  1065ee:	0f 82 25 f9 ff ff    	jb     105f19 <_ZN2os3hal3idt9init_irqsEv+0xe29>
  1065f4:	88 44 24 0f          	mov    BYTE PTR [esp+0xf],al
  1065f8:	50                   	push   eax
  1065f9:	50                   	push   eax
  1065fa:	68 76 78 19 00       	push   0x197876
  1065ff:	68 8c 28 11 00       	push   0x11288c
  106604:	e8 67 64 00 00       	call   10ca70 <__ubsan_handle_type_mismatch>
  106609:	83 c4 10             	add    esp,0x10
  10660c:	0f b6 44 24 0f       	movzx  eax,BYTE PTR [esp+0xf]
  106611:	e9 03 f9 ff ff       	jmp    105f19 <_ZN2os3hal3idt9init_irqsEv+0xe29>
  106616:	81 c2 70 78 19 00    	add    edx,0x197870
  10661c:	0f 82 db f8 ff ff    	jb     105efd <_ZN2os3hal3idt9init_irqsEv+0xe0d>
  106622:	88 44 24 0f          	mov    BYTE PTR [esp+0xf],al
  106626:	50                   	push   eax
  106627:	50                   	push   eax
  106628:	68 70 78 19 00       	push   0x197870
  10662d:	68 a4 28 11 00       	push   0x1128a4
  106632:	e8 39 64 00 00       	call   10ca70 <__ubsan_handle_type_mismatch>
  106637:	83 c4 10             	add    esp,0x10
  10663a:	0f b6 44 24 0f       	movzx  eax,BYTE PTR [esp+0xf]
  10663f:	e9 b9 f8 ff ff       	jmp    105efd <_ZN2os3hal3idt9init_irqsEv+0xe0d>
  106644:	81 c2 6a 78 19 00    	add    edx,0x19786a
  10664a:	0f 82 8a f8 ff ff    	jb     105eda <_ZN2os3hal3idt9init_irqsEv+0xdea>
  106650:	88 44 24 0f          	mov    BYTE PTR [esp+0xf],al
  106654:	51                   	push   ecx
  106655:	51                   	push   ecx
  106656:	68 6a 78 19 00       	push   0x19786a
  10665b:	68 bc 28 11 00       	push   0x1128bc
  106660:	e8 0b 64 00 00       	call   10ca70 <__ubsan_handle_type_mismatch>
  106665:	83 c4 10             	add    esp,0x10
  106668:	0f b6 44 24 0f       	movzx  eax,BYTE PTR [esp+0xf]
  10666d:	e9 68 f8 ff ff       	jmp    105eda <_ZN2os3hal3idt9init_irqsEv+0xdea>
  106672:	81 c7 6d 78 19 00    	add    edi,0x19786d
  106678:	39 fd                	cmp    ebp,edi
  10667a:	0f 87 41 f8 ff ff    	ja     105ec1 <_ZN2os3hal3idt9init_irqsEv+0xdd1>
  106680:	88 44 24 0f          	mov    BYTE PTR [esp+0xf],al
  106684:	57                   	push   edi
  106685:	57                   	push   edi
  106686:	68 6d 78 19 00       	push   0x19786d
  10668b:	68 d4 28 11 00       	push   0x1128d4
  106690:	e8 db 63 00 00       	call   10ca70 <__ubsan_handle_type_mismatch>
  106695:	83 c4 10             	add    esp,0x10
  106698:	0f b6 44 24 0f       	movzx  eax,BYTE PTR [esp+0xf]
  10669d:	e9 1f f8 ff ff       	jmp    105ec1 <_ZN2os3hal3idt9init_irqsEv+0xdd1>
  1066a2:	8d 97 6d 78 19 00    	lea    edx,[edi+0x19786d]
  1066a8:	39 d5                	cmp    ebp,edx
  1066aa:	0f 87 eb f7 ff ff    	ja     105e9b <_ZN2os3hal3idt9init_irqsEv+0xdab>
  1066b0:	88 44 24 0f          	mov    BYTE PTR [esp+0xf],al
  1066b4:	50                   	push   eax
  1066b5:	50                   	push   eax
  1066b6:	68 6d 78 19 00       	push   0x19786d
  1066bb:	68 ec 28 11 00       	push   0x1128ec
  1066c0:	e8 ab 63 00 00       	call   10ca70 <__ubsan_handle_type_mismatch>
  1066c5:	83 c4 10             	add    esp,0x10
  1066c8:	0f b6 44 24 0f       	movzx  eax,BYTE PTR [esp+0xf]
  1066cd:	e9 c9 f7 ff ff       	jmp    105e9b <_ZN2os3hal3idt9init_irqsEv+0xdab>
  1066d2:	8d 97 6d 78 19 00    	lea    edx,[edi+0x19786d]
  1066d8:	39 d5                	cmp    ebp,edx
  1066da:	0f 87 95 f7 ff ff    	ja     105e75 <_ZN2os3hal3idt9init_irqsEv+0xd85>
  1066e0:	88 44 24 0f          	mov    BYTE PTR [esp+0xf],al
  1066e4:	50                   	push   eax
  1066e5:	50                   	push   eax
  1066e6:	68 6d 78 19 00       	push   0x19786d
  1066eb:	68 04 29 11 00       	push   0x112904
  1066f0:	e8 7b 63 00 00       	call   10ca70 <__ubsan_handle_type_mismatch>
  1066f5:	83 c4 10             	add    esp,0x10
  1066f8:	0f b6 44 24 0f       	movzx  eax,BYTE PTR [esp+0xf]
  1066fd:	e9 73 f7 ff ff       	jmp    105e75 <_ZN2os3hal3idt9init_irqsEv+0xd85>
  106702:	89 f9                	mov    ecx,edi
  106704:	01 e9                	add    ecx,ebp
  106706:	0f 82 49 f7 ff ff    	jb     105e55 <_ZN2os3hal3idt9init_irqsEv+0xd65>
  10670c:	88 44 24 0f          	mov    BYTE PTR [esp+0xf],al
  106710:	50                   	push   eax
  106711:	50                   	push   eax
  106712:	55                   	push   ebp
  106713:	68 1c 29 11 00       	push   0x11291c
  106718:	e8 53 63 00 00       	call   10ca70 <__ubsan_handle_type_mismatch>
  10671d:	83 c4 10             	add    esp,0x10
  106720:	0f b6 44 24 0f       	movzx  eax,BYTE PTR [esp+0xf]
  106725:	e9 2b f7 ff ff       	jmp    105e55 <_ZN2os3hal3idt9init_irqsEv+0xd65>
  10672a:	81 c2 6c 78 19 00    	add    edx,0x19786c
  106730:	0f 82 01 f7 ff ff    	jb     105e37 <_ZN2os3hal3idt9init_irqsEv+0xd47>
  106736:	88 44 24 0f          	mov    BYTE PTR [esp+0xf],al
  10673a:	50                   	push   eax
  10673b:	50                   	push   eax
  10673c:	68 6c 78 19 00       	push   0x19786c
  106741:	68 34 29 11 00       	push   0x112934
  106746:	e8 25 63 00 00       	call   10ca70 <__ubsan_handle_type_mismatch>
  10674b:	83 c4 10             	add    esp,0x10
  10674e:	0f b6 44 24 0f       	movzx  eax,BYTE PTR [esp+0xf]
  106753:	e9 df f6 ff ff       	jmp    105e37 <_ZN2os3hal3idt9init_irqsEv+0xd47>
  106758:	81 c2 6e 78 19 00    	add    edx,0x19786e
  10675e:	0f 82 ba f6 ff ff    	jb     105e1e <_ZN2os3hal3idt9init_irqsEv+0xd2e>
  106764:	88 44 24 0f          	mov    BYTE PTR [esp+0xf],al
  106768:	50                   	push   eax
  106769:	50                   	push   eax
  10676a:	68 6e 78 19 00       	push   0x19786e
  10676f:	68 4c 29 11 00       	push   0x11294c
  106774:	e8 f7 62 00 00       	call   10ca70 <__ubsan_handle_type_mismatch>
  106779:	83 c4 10             	add    esp,0x10
  10677c:	0f b6 44 24 0f       	movzx  eax,BYTE PTR [esp+0xf]
  106781:	e9 98 f6 ff ff       	jmp    105e1e <_ZN2os3hal3idt9init_irqsEv+0xd2e>
  106786:	81 c2 68 78 19 00    	add    edx,0x197868
  10678c:	0f 82 70 f6 ff ff    	jb     105e02 <_ZN2os3hal3idt9init_irqsEv+0xd12>
  106792:	88 44 24 0f          	mov    BYTE PTR [esp+0xf],al
  106796:	50                   	push   eax
  106797:	50                   	push   eax
  106798:	68 68 78 19 00       	push   0x197868
  10679d:	68 64 29 11 00       	push   0x112964
  1067a2:	e8 c9 62 00 00       	call   10ca70 <__ubsan_handle_type_mismatch>
  1067a7:	83 c4 10             	add    esp,0x10
  1067aa:	0f b6 44 24 0f       	movzx  eax,BYTE PTR [esp+0xf]
  1067af:	e9 4e f6 ff ff       	jmp    105e02 <_ZN2os3hal3idt9init_irqsEv+0xd12>
  1067b4:	81 c2 62 78 19 00    	add    edx,0x197862
  1067ba:	0f 82 1f f6 ff ff    	jb     105ddf <_ZN2os3hal3idt9init_irqsEv+0xcef>
  1067c0:	88 44 24 0f          	mov    BYTE PTR [esp+0xf],al
  1067c4:	51                   	push   ecx
  1067c5:	51                   	push   ecx
  1067c6:	68 62 78 19 00       	push   0x197862
  1067cb:	68 7c 29 11 00       	push   0x11297c
  1067d0:	e8 9b 62 00 00       	call   10ca70 <__ubsan_handle_type_mismatch>
  1067d5:	83 c4 10             	add    esp,0x10
  1067d8:	0f b6 44 24 0f       	movzx  eax,BYTE PTR [esp+0xf]
  1067dd:	e9 fd f5 ff ff       	jmp    105ddf <_ZN2os3hal3idt9init_irqsEv+0xcef>
  1067e2:	81 c7 65 78 19 00    	add    edi,0x197865
  1067e8:	39 fd                	cmp    ebp,edi
  1067ea:	0f 87 d6 f5 ff ff    	ja     105dc6 <_ZN2os3hal3idt9init_irqsEv+0xcd6>
  1067f0:	88 44 24 0f          	mov    BYTE PTR [esp+0xf],al
  1067f4:	57                   	push   edi
  1067f5:	57                   	push   edi
  1067f6:	68 65 78 19 00       	push   0x197865
  1067fb:	68 94 29 11 00       	push   0x112994
  106800:	e8 6b 62 00 00       	call   10ca70 <__ubsan_handle_type_mismatch>
  106805:	83 c4 10             	add    esp,0x10
  106808:	0f b6 44 24 0f       	movzx  eax,BYTE PTR [esp+0xf]
  10680d:	e9 b4 f5 ff ff       	jmp    105dc6 <_ZN2os3hal3idt9init_irqsEv+0xcd6>
  106812:	8d 97 65 78 19 00    	lea    edx,[edi+0x197865]
  106818:	39 d5                	cmp    ebp,edx
  10681a:	0f 87 80 f5 ff ff    	ja     105da0 <_ZN2os3hal3idt9init_irqsEv+0xcb0>
  106820:	88 44 24 0f          	mov    BYTE PTR [esp+0xf],al
  106824:	50                   	push   eax
  106825:	50                   	push   eax
  106826:	68 65 78 19 00       	push   0x197865
  10682b:	68 ac 29 11 00       	push   0x1129ac
  106830:	e8 3b 62 00 00       	call   10ca70 <__ubsan_handle_type_mismatch>
  106835:	83 c4 10             	add    esp,0x10
  106838:	0f b6 44 24 0f       	movzx  eax,BYTE PTR [esp+0xf]
  10683d:	e9 5e f5 ff ff       	jmp    105da0 <_ZN2os3hal3idt9init_irqsEv+0xcb0>
  106842:	8d 97 65 78 19 00    	lea    edx,[edi+0x197865]
  106848:	39 d5                	cmp    ebp,edx
  10684a:	0f 87 2a f5 ff ff    	ja     105d7a <_ZN2os3hal3idt9init_irqsEv+0xc8a>
  106850:	88 44 24 0f          	mov    BYTE PTR [esp+0xf],al
  106854:	50                   	push   eax
  106855:	50                   	push   eax
  106856:	68 65 78 19 00       	push   0x197865
  10685b:	68 c4 29 11 00       	push   0x1129c4
  106860:	e8 0b 62 00 00       	call   10ca70 <__ubsan_handle_type_mismatch>
  106865:	83 c4 10             	add    esp,0x10
  106868:	0f b6 44 24 0f       	movzx  eax,BYTE PTR [esp+0xf]
  10686d:	e9 08 f5 ff ff       	jmp    105d7a <_ZN2os3hal3idt9init_irqsEv+0xc8a>
  106872:	89 f9                	mov    ecx,edi
  106874:	01 e9                	add    ecx,ebp
  106876:	0f 82 de f4 ff ff    	jb     105d5a <_ZN2os3hal3idt9init_irqsEv+0xc6a>
  10687c:	88 44 24 0f          	mov    BYTE PTR [esp+0xf],al
  106880:	50                   	push   eax
  106881:	50                   	push   eax
  106882:	55                   	push   ebp
  106883:	68 dc 29 11 00       	push   0x1129dc
  106888:	e8 e3 61 00 00       	call   10ca70 <__ubsan_handle_type_mismatch>
  10688d:	83 c4 10             	add    esp,0x10
  106890:	0f b6 44 24 0f       	movzx  eax,BYTE PTR [esp+0xf]
  106895:	e9 c0 f4 ff ff       	jmp    105d5a <_ZN2os3hal3idt9init_irqsEv+0xc6a>
  10689a:	81 c2 64 78 19 00    	add    edx,0x197864
  1068a0:	0f 82 96 f4 ff ff    	jb     105d3c <_ZN2os3hal3idt9init_irqsEv+0xc4c>
  1068a6:	88 44 24 0f          	mov    BYTE PTR [esp+0xf],al
  1068aa:	50                   	push   eax
  1068ab:	50                   	push   eax
  1068ac:	68 64 78 19 00       	push   0x197864
  1068b1:	68 f4 29 11 00       	push   0x1129f4
  1068b6:	e8 b5 61 00 00       	call   10ca70 <__ubsan_handle_type_mismatch>
  1068bb:	83 c4 10             	add    esp,0x10
  1068be:	0f b6 44 24 0f       	movzx  eax,BYTE PTR [esp+0xf]
  1068c3:	e9 74 f4 ff ff       	jmp    105d3c <_ZN2os3hal3idt9init_irqsEv+0xc4c>
  1068c8:	81 c2 66 78 19 00    	add    edx,0x197866
  1068ce:	0f 82 4f f4 ff ff    	jb     105d23 <_ZN2os3hal3idt9init_irqsEv+0xc33>
  1068d4:	88 44 24 0f          	mov    BYTE PTR [esp+0xf],al
  1068d8:	50                   	push   eax
  1068d9:	50                   	push   eax
  1068da:	68 66 78 19 00       	push   0x197866
  1068df:	68 0c 2a 11 00       	push   0x112a0c
  1068e4:	e8 87 61 00 00       	call   10ca70 <__ubsan_handle_type_mismatch>
  1068e9:	83 c4 10             	add    esp,0x10
  1068ec:	0f b6 44 24 0f       	movzx  eax,BYTE PTR [esp+0xf]
  1068f1:	e9 2d f4 ff ff       	jmp    105d23 <_ZN2os3hal3idt9init_irqsEv+0xc33>
  1068f6:	81 c2 60 78 19 00    	add    edx,0x197860
  1068fc:	0f 82 05 f4 ff ff    	jb     105d07 <_ZN2os3hal3idt9init_irqsEv+0xc17>
  106902:	88 44 24 0f          	mov    BYTE PTR [esp+0xf],al
  106906:	50                   	push   eax
  106907:	50                   	push   eax
  106908:	68 60 78 19 00       	push   0x197860
  10690d:	68 24 2a 11 00       	push   0x112a24
  106912:	e8 59 61 00 00       	call   10ca70 <__ubsan_handle_type_mismatch>
  106917:	83 c4 10             	add    esp,0x10
  10691a:	0f b6 44 24 0f       	movzx  eax,BYTE PTR [esp+0xf]
  10691f:	e9 e3 f3 ff ff       	jmp    105d07 <_ZN2os3hal3idt9init_irqsEv+0xc17>
  106924:	81 c2 5a 78 19 00    	add    edx,0x19785a
  10692a:	0f 82 b4 f3 ff ff    	jb     105ce4 <_ZN2os3hal3idt9init_irqsEv+0xbf4>
  106930:	88 44 24 0f          	mov    BYTE PTR [esp+0xf],al
  106934:	51                   	push   ecx
  106935:	51                   	push   ecx
  106936:	68 5a 78 19 00       	push   0x19785a
  10693b:	68 3c 2a 11 00       	push   0x112a3c
  106940:	e8 2b 61 00 00       	call   10ca70 <__ubsan_handle_type_mismatch>
  106945:	83 c4 10             	add    esp,0x10
  106948:	0f b6 44 24 0f       	movzx  eax,BYTE PTR [esp+0xf]
  10694d:	e9 92 f3 ff ff       	jmp    105ce4 <_ZN2os3hal3idt9init_irqsEv+0xbf4>
  106952:	81 c7 5d 78 19 00    	add    edi,0x19785d
  106958:	39 fd                	cmp    ebp,edi
  10695a:	0f 87 6b f3 ff ff    	ja     105ccb <_ZN2os3hal3idt9init_irqsEv+0xbdb>
  106960:	88 44 24 0f          	mov    BYTE PTR [esp+0xf],al
  106964:	57                   	push   edi
  106965:	57                   	push   edi
  106966:	68 5d 78 19 00       	push   0x19785d
  10696b:	68 54 2a 11 00       	push   0x112a54
  106970:	e8 fb 60 00 00       	call   10ca70 <__ubsan_handle_type_mismatch>
  106975:	83 c4 10             	add    esp,0x10
  106978:	0f b6 44 24 0f       	movzx  eax,BYTE PTR [esp+0xf]
  10697d:	e9 49 f3 ff ff       	jmp    105ccb <_ZN2os3hal3idt9init_irqsEv+0xbdb>
  106982:	8d 97 5d 78 19 00    	lea    edx,[edi+0x19785d]
  106988:	39 d5                	cmp    ebp,edx
  10698a:	0f 87 15 f3 ff ff    	ja     105ca5 <_ZN2os3hal3idt9init_irqsEv+0xbb5>
  106990:	88 44 24 0f          	mov    BYTE PTR [esp+0xf],al
  106994:	50                   	push   eax
  106995:	50                   	push   eax
  106996:	68 5d 78 19 00       	push   0x19785d
  10699b:	68 6c 2a 11 00       	push   0x112a6c
  1069a0:	e8 cb 60 00 00       	call   10ca70 <__ubsan_handle_type_mismatch>
  1069a5:	83 c4 10             	add    esp,0x10
  1069a8:	0f b6 44 24 0f       	movzx  eax,BYTE PTR [esp+0xf]
  1069ad:	e9 f3 f2 ff ff       	jmp    105ca5 <_ZN2os3hal3idt9init_irqsEv+0xbb5>
  1069b2:	8d 97 5d 78 19 00    	lea    edx,[edi+0x19785d]
  1069b8:	39 d5                	cmp    ebp,edx
  1069ba:	0f 87 bf f2 ff ff    	ja     105c7f <_ZN2os3hal3idt9init_irqsEv+0xb8f>
  1069c0:	88 44 24 0f          	mov    BYTE PTR [esp+0xf],al
  1069c4:	50                   	push   eax
  1069c5:	50                   	push   eax
  1069c6:	68 5d 78 19 00       	push   0x19785d
  1069cb:	68 84 2a 11 00       	push   0x112a84
  1069d0:	e8 9b 60 00 00       	call   10ca70 <__ubsan_handle_type_mismatch>
  1069d5:	83 c4 10             	add    esp,0x10
  1069d8:	0f b6 44 24 0f       	movzx  eax,BYTE PTR [esp+0xf]
  1069dd:	e9 9d f2 ff ff       	jmp    105c7f <_ZN2os3hal3idt9init_irqsEv+0xb8f>
  1069e2:	89 f9                	mov    ecx,edi
  1069e4:	01 e9                	add    ecx,ebp
  1069e6:	0f 82 73 f2 ff ff    	jb     105c5f <_ZN2os3hal3idt9init_irqsEv+0xb6f>
  1069ec:	88 44 24 0f          	mov    BYTE PTR [esp+0xf],al
  1069f0:	50                   	push   eax
  1069f1:	50                   	push   eax
  1069f2:	55                   	push   ebp
  1069f3:	68 9c 2a 11 00       	push   0x112a9c
  1069f8:	e8 73 60 00 00       	call   10ca70 <__ubsan_handle_type_mismatch>
  1069fd:	83 c4 10             	add    esp,0x10
  106a00:	0f b6 44 24 0f       	movzx  eax,BYTE PTR [esp+0xf]
  106a05:	e9 55 f2 ff ff       	jmp    105c5f <_ZN2os3hal3idt9init_irqsEv+0xb6f>
  106a0a:	81 c2 5c 78 19 00    	add    edx,0x19785c
  106a10:	0f 82 2b f2 ff ff    	jb     105c41 <_ZN2os3hal3idt9init_irqsEv+0xb51>
  106a16:	88 44 24 0f          	mov    BYTE PTR [esp+0xf],al
  106a1a:	50                   	push   eax
  106a1b:	50                   	push   eax
  106a1c:	68 5c 78 19 00       	push   0x19785c
  106a21:	68 b4 2a 11 00       	push   0x112ab4
  106a26:	e8 45 60 00 00       	call   10ca70 <__ubsan_handle_type_mismatch>
  106a2b:	83 c4 10             	add    esp,0x10
  106a2e:	0f b6 44 24 0f       	movzx  eax,BYTE PTR [esp+0xf]
  106a33:	e9 09 f2 ff ff       	jmp    105c41 <_ZN2os3hal3idt9init_irqsEv+0xb51>
  106a38:	81 c2 5e 78 19 00    	add    edx,0x19785e
  106a3e:	0f 82 e4 f1 ff ff    	jb     105c28 <_ZN2os3hal3idt9init_irqsEv+0xb38>
  106a44:	88 44 24 0f          	mov    BYTE PTR [esp+0xf],al
  106a48:	50                   	push   eax
  106a49:	50                   	push   eax
  106a4a:	68 5e 78 19 00       	push   0x19785e
  106a4f:	68 cc 2a 11 00       	push   0x112acc
  106a54:	e8 17 60 00 00       	call   10ca70 <__ubsan_handle_type_mismatch>
  106a59:	83 c4 10             	add    esp,0x10
  106a5c:	0f b6 44 24 0f       	movzx  eax,BYTE PTR [esp+0xf]
  106a61:	e9 c2 f1 ff ff       	jmp    105c28 <_ZN2os3hal3idt9init_irqsEv+0xb38>
  106a66:	81 c2 58 78 19 00    	add    edx,0x197858
  106a6c:	0f 82 9a f1 ff ff    	jb     105c0c <_ZN2os3hal3idt9init_irqsEv+0xb1c>
  106a72:	88 44 24 0f          	mov    BYTE PTR [esp+0xf],al
  106a76:	50                   	push   eax
  106a77:	50                   	push   eax
  106a78:	68 58 78 19 00       	push   0x197858
  106a7d:	68 e4 2a 11 00       	push   0x112ae4
  106a82:	e8 e9 5f 00 00       	call   10ca70 <__ubsan_handle_type_mismatch>
  106a87:	83 c4 10             	add    esp,0x10
  106a8a:	0f b6 44 24 0f       	movzx  eax,BYTE PTR [esp+0xf]
  106a8f:	e9 78 f1 ff ff       	jmp    105c0c <_ZN2os3hal3idt9init_irqsEv+0xb1c>
  106a94:	81 c2 52 78 19 00    	add    edx,0x197852
  106a9a:	0f 82 49 f1 ff ff    	jb     105be9 <_ZN2os3hal3idt9init_irqsEv+0xaf9>
  106aa0:	88 44 24 0f          	mov    BYTE PTR [esp+0xf],al
  106aa4:	51                   	push   ecx
  106aa5:	51                   	push   ecx
  106aa6:	68 52 78 19 00       	push   0x197852
  106aab:	68 fc 2a 11 00       	push   0x112afc
  106ab0:	e8 bb 5f 00 00       	call   10ca70 <__ubsan_handle_type_mismatch>
  106ab5:	83 c4 10             	add    esp,0x10
  106ab8:	0f b6 44 24 0f       	movzx  eax,BYTE PTR [esp+0xf]
  106abd:	e9 27 f1 ff ff       	jmp    105be9 <_ZN2os3hal3idt9init_irqsEv+0xaf9>
  106ac2:	81 c7 55 78 19 00    	add    edi,0x197855
  106ac8:	39 fd                	cmp    ebp,edi
  106aca:	0f 87 00 f1 ff ff    	ja     105bd0 <_ZN2os3hal3idt9init_irqsEv+0xae0>
  106ad0:	88 44 24 0f          	mov    BYTE PTR [esp+0xf],al
  106ad4:	57                   	push   edi
  106ad5:	57                   	push   edi
  106ad6:	68 55 78 19 00       	push   0x197855
  106adb:	68 14 2b 11 00       	push   0x112b14
  106ae0:	e8 8b 5f 00 00       	call   10ca70 <__ubsan_handle_type_mismatch>
  106ae5:	83 c4 10             	add    esp,0x10
  106ae8:	0f b6 44 24 0f       	movzx  eax,BYTE PTR [esp+0xf]
  106aed:	e9 de f0 ff ff       	jmp    105bd0 <_ZN2os3hal3idt9init_irqsEv+0xae0>
  106af2:	8d 97 55 78 19 00    	lea    edx,[edi+0x197855]
  106af8:	39 d5                	cmp    ebp,edx
  106afa:	0f 87 aa f0 ff ff    	ja     105baa <_ZN2os3hal3idt9init_irqsEv+0xaba>
  106b00:	88 44 24 0f          	mov    BYTE PTR [esp+0xf],al
  106b04:	50                   	push   eax
  106b05:	50                   	push   eax
  106b06:	68 55 78 19 00       	push   0x197855
  106b0b:	68 2c 2b 11 00       	push   0x112b2c
  106b10:	e8 5b 5f 00 00       	call   10ca70 <__ubsan_handle_type_mismatch>
  106b15:	83 c4 10             	add    esp,0x10
  106b18:	0f b6 44 24 0f       	movzx  eax,BYTE PTR [esp+0xf]
  106b1d:	e9 88 f0 ff ff       	jmp    105baa <_ZN2os3hal3idt9init_irqsEv+0xaba>
  106b22:	8d 97 55 78 19 00    	lea    edx,[edi+0x197855]
  106b28:	39 d5                	cmp    ebp,edx
  106b2a:	0f 87 54 f0 ff ff    	ja     105b84 <_ZN2os3hal3idt9init_irqsEv+0xa94>
  106b30:	88 44 24 0f          	mov    BYTE PTR [esp+0xf],al
  106b34:	50                   	push   eax
  106b35:	50                   	push   eax
  106b36:	68 55 78 19 00       	push   0x197855
  106b3b:	68 44 2b 11 00       	push   0x112b44
  106b40:	e8 2b 5f 00 00       	call   10ca70 <__ubsan_handle_type_mismatch>
  106b45:	83 c4 10             	add    esp,0x10
  106b48:	0f b6 44 24 0f       	movzx  eax,BYTE PTR [esp+0xf]
  106b4d:	e9 32 f0 ff ff       	jmp    105b84 <_ZN2os3hal3idt9init_irqsEv+0xa94>
  106b52:	89 f9                	mov    ecx,edi
  106b54:	01 e9                	add    ecx,ebp
  106b56:	0f 82 08 f0 ff ff    	jb     105b64 <_ZN2os3hal3idt9init_irqsEv+0xa74>
  106b5c:	88 44 24 0f          	mov    BYTE PTR [esp+0xf],al
  106b60:	50                   	push   eax
  106b61:	50                   	push   eax
  106b62:	55                   	push   ebp
  106b63:	68 5c 2b 11 00       	push   0x112b5c
  106b68:	e8 03 5f 00 00       	call   10ca70 <__ubsan_handle_type_mismatch>
  106b6d:	83 c4 10             	add    esp,0x10
  106b70:	0f b6 44 24 0f       	movzx  eax,BYTE PTR [esp+0xf]
  106b75:	e9 ea ef ff ff       	jmp    105b64 <_ZN2os3hal3idt9init_irqsEv+0xa74>
  106b7a:	81 c2 54 78 19 00    	add    edx,0x197854
  106b80:	0f 82 c0 ef ff ff    	jb     105b46 <_ZN2os3hal3idt9init_irqsEv+0xa56>
  106b86:	88 44 24 0f          	mov    BYTE PTR [esp+0xf],al
  106b8a:	50                   	push   eax
  106b8b:	50                   	push   eax
  106b8c:	68 54 78 19 00       	push   0x197854
  106b91:	68 74 2b 11 00       	push   0x112b74
  106b96:	e8 d5 5e 00 00       	call   10ca70 <__ubsan_handle_type_mismatch>
  106b9b:	83 c4 10             	add    esp,0x10
  106b9e:	0f b6 44 24 0f       	movzx  eax,BYTE PTR [esp+0xf]
  106ba3:	e9 9e ef ff ff       	jmp    105b46 <_ZN2os3hal3idt9init_irqsEv+0xa56>
  106ba8:	81 c2 56 78 19 00    	add    edx,0x197856
  106bae:	0f 82 79 ef ff ff    	jb     105b2d <_ZN2os3hal3idt9init_irqsEv+0xa3d>
  106bb4:	88 44 24 0f          	mov    BYTE PTR [esp+0xf],al
  106bb8:	50                   	push   eax
  106bb9:	50                   	push   eax
  106bba:	68 56 78 19 00       	push   0x197856
  106bbf:	68 8c 2b 11 00       	push   0x112b8c
  106bc4:	e8 a7 5e 00 00       	call   10ca70 <__ubsan_handle_type_mismatch>
  106bc9:	83 c4 10             	add    esp,0x10
  106bcc:	0f b6 44 24 0f       	movzx  eax,BYTE PTR [esp+0xf]
  106bd1:	e9 57 ef ff ff       	jmp    105b2d <_ZN2os3hal3idt9init_irqsEv+0xa3d>
  106bd6:	81 c2 50 78 19 00    	add    edx,0x197850
  106bdc:	0f 82 2f ef ff ff    	jb     105b11 <_ZN2os3hal3idt9init_irqsEv+0xa21>
  106be2:	88 44 24 0f          	mov    BYTE PTR [esp+0xf],al
  106be6:	50                   	push   eax
  106be7:	50                   	push   eax
  106be8:	68 50 78 19 00       	push   0x197850
  106bed:	68 a4 2b 11 00       	push   0x112ba4
  106bf2:	e8 79 5e 00 00       	call   10ca70 <__ubsan_handle_type_mismatch>
  106bf7:	83 c4 10             	add    esp,0x10
  106bfa:	0f b6 44 24 0f       	movzx  eax,BYTE PTR [esp+0xf]
  106bff:	e9 0d ef ff ff       	jmp    105b11 <_ZN2os3hal3idt9init_irqsEv+0xa21>
  106c04:	81 c2 4a 78 19 00    	add    edx,0x19784a
  106c0a:	0f 82 de ee ff ff    	jb     105aee <_ZN2os3hal3idt9init_irqsEv+0x9fe>
  106c10:	88 44 24 0f          	mov    BYTE PTR [esp+0xf],al
  106c14:	51                   	push   ecx
  106c15:	51                   	push   ecx
  106c16:	68 4a 78 19 00       	push   0x19784a
  106c1b:	68 bc 2b 11 00       	push   0x112bbc
  106c20:	e8 4b 5e 00 00       	call   10ca70 <__ubsan_handle_type_mismatch>
  106c25:	83 c4 10             	add    esp,0x10
  106c28:	0f b6 44 24 0f       	movzx  eax,BYTE PTR [esp+0xf]
  106c2d:	e9 bc ee ff ff       	jmp    105aee <_ZN2os3hal3idt9init_irqsEv+0x9fe>
  106c32:	81 c7 4d 78 19 00    	add    edi,0x19784d
  106c38:	39 fd                	cmp    ebp,edi
  106c3a:	0f 87 95 ee ff ff    	ja     105ad5 <_ZN2os3hal3idt9init_irqsEv+0x9e5>
  106c40:	88 44 24 0f          	mov    BYTE PTR [esp+0xf],al
  106c44:	57                   	push   edi
  106c45:	57                   	push   edi
  106c46:	68 4d 78 19 00       	push   0x19784d
  106c4b:	68 d4 2b 11 00       	push   0x112bd4
  106c50:	e8 1b 5e 00 00       	call   10ca70 <__ubsan_handle_type_mismatch>
  106c55:	83 c4 10             	add    esp,0x10
  106c58:	0f b6 44 24 0f       	movzx  eax,BYTE PTR [esp+0xf]
  106c5d:	e9 73 ee ff ff       	jmp    105ad5 <_ZN2os3hal3idt9init_irqsEv+0x9e5>
  106c62:	8d 97 4d 78 19 00    	lea    edx,[edi+0x19784d]
  106c68:	39 d5                	cmp    ebp,edx
  106c6a:	0f 87 3f ee ff ff    	ja     105aaf <_ZN2os3hal3idt9init_irqsEv+0x9bf>
  106c70:	88 44 24 0f          	mov    BYTE PTR [esp+0xf],al
  106c74:	50                   	push   eax
  106c75:	50                   	push   eax
  106c76:	68 4d 78 19 00       	push   0x19784d
  106c7b:	68 ec 2b 11 00       	push   0x112bec
  106c80:	e8 eb 5d 00 00       	call   10ca70 <__ubsan_handle_type_mismatch>
  106c85:	83 c4 10             	add    esp,0x10
  106c88:	0f b6 44 24 0f       	movzx  eax,BYTE PTR [esp+0xf]
  106c8d:	e9 1d ee ff ff       	jmp    105aaf <_ZN2os3hal3idt9init_irqsEv+0x9bf>
  106c92:	8d 97 4d 78 19 00    	lea    edx,[edi+0x19784d]
  106c98:	39 d5                	cmp    ebp,edx
  106c9a:	0f 87 e9 ed ff ff    	ja     105a89 <_ZN2os3hal3idt9init_irqsEv+0x999>
  106ca0:	88 44 24 0f          	mov    BYTE PTR [esp+0xf],al
  106ca4:	50                   	push   eax
  106ca5:	50                   	push   eax
  106ca6:	68 4d 78 19 00       	push   0x19784d
  106cab:	68 04 2c 11 00       	push   0x112c04
  106cb0:	e8 bb 5d 00 00       	call   10ca70 <__ubsan_handle_type_mismatch>
  106cb5:	83 c4 10             	add    esp,0x10
  106cb8:	0f b6 44 24 0f       	movzx  eax,BYTE PTR [esp+0xf]
  106cbd:	e9 c7 ed ff ff       	jmp    105a89 <_ZN2os3hal3idt9init_irqsEv+0x999>
  106cc2:	89 f9                	mov    ecx,edi
  106cc4:	01 e9                	add    ecx,ebp
  106cc6:	0f 82 9d ed ff ff    	jb     105a69 <_ZN2os3hal3idt9init_irqsEv+0x979>
  106ccc:	88 44 24 0f          	mov    BYTE PTR [esp+0xf],al
  106cd0:	50                   	push   eax
  106cd1:	50                   	push   eax
  106cd2:	55                   	push   ebp
  106cd3:	68 1c 2c 11 00       	push   0x112c1c
  106cd8:	e8 93 5d 00 00       	call   10ca70 <__ubsan_handle_type_mismatch>
  106cdd:	83 c4 10             	add    esp,0x10
  106ce0:	0f b6 44 24 0f       	movzx  eax,BYTE PTR [esp+0xf]
  106ce5:	e9 7f ed ff ff       	jmp    105a69 <_ZN2os3hal3idt9init_irqsEv+0x979>
  106cea:	81 c2 4c 78 19 00    	add    edx,0x19784c
  106cf0:	0f 82 55 ed ff ff    	jb     105a4b <_ZN2os3hal3idt9init_irqsEv+0x95b>
  106cf6:	88 44 24 0f          	mov    BYTE PTR [esp+0xf],al
  106cfa:	50                   	push   eax
  106cfb:	50                   	push   eax
  106cfc:	68 4c 78 19 00       	push   0x19784c
  106d01:	68 34 2c 11 00       	push   0x112c34
  106d06:	e8 65 5d 00 00       	call   10ca70 <__ubsan_handle_type_mismatch>
  106d0b:	83 c4 10             	add    esp,0x10
  106d0e:	0f b6 44 24 0f       	movzx  eax,BYTE PTR [esp+0xf]
  106d13:	e9 33 ed ff ff       	jmp    105a4b <_ZN2os3hal3idt9init_irqsEv+0x95b>
  106d18:	81 c2 4e 78 19 00    	add    edx,0x19784e
  106d1e:	0f 82 0e ed ff ff    	jb     105a32 <_ZN2os3hal3idt9init_irqsEv+0x942>
  106d24:	88 44 24 0f          	mov    BYTE PTR [esp+0xf],al
  106d28:	50                   	push   eax
  106d29:	50                   	push   eax
  106d2a:	68 4e 78 19 00       	push   0x19784e
  106d2f:	68 4c 2c 11 00       	push   0x112c4c
  106d34:	e8 37 5d 00 00       	call   10ca70 <__ubsan_handle_type_mismatch>
  106d39:	83 c4 10             	add    esp,0x10
  106d3c:	0f b6 44 24 0f       	movzx  eax,BYTE PTR [esp+0xf]
  106d41:	e9 ec ec ff ff       	jmp    105a32 <_ZN2os3hal3idt9init_irqsEv+0x942>
  106d46:	81 c2 48 78 19 00    	add    edx,0x197848
  106d4c:	0f 82 c4 ec ff ff    	jb     105a16 <_ZN2os3hal3idt9init_irqsEv+0x926>
  106d52:	88 44 24 0f          	mov    BYTE PTR [esp+0xf],al
  106d56:	50                   	push   eax
  106d57:	50                   	push   eax
  106d58:	68 48 78 19 00       	push   0x197848
  106d5d:	68 64 2c 11 00       	push   0x112c64
  106d62:	e8 09 5d 00 00       	call   10ca70 <__ubsan_handle_type_mismatch>
  106d67:	83 c4 10             	add    esp,0x10
  106d6a:	0f b6 44 24 0f       	movzx  eax,BYTE PTR [esp+0xf]
  106d6f:	e9 a2 ec ff ff       	jmp    105a16 <_ZN2os3hal3idt9init_irqsEv+0x926>
  106d74:	81 c2 42 78 19 00    	add    edx,0x197842
  106d7a:	0f 82 73 ec ff ff    	jb     1059f3 <_ZN2os3hal3idt9init_irqsEv+0x903>
  106d80:	88 44 24 0f          	mov    BYTE PTR [esp+0xf],al
  106d84:	51                   	push   ecx
  106d85:	51                   	push   ecx
  106d86:	68 42 78 19 00       	push   0x197842
  106d8b:	68 7c 2c 11 00       	push   0x112c7c
  106d90:	e8 db 5c 00 00       	call   10ca70 <__ubsan_handle_type_mismatch>
  106d95:	83 c4 10             	add    esp,0x10
  106d98:	0f b6 44 24 0f       	movzx  eax,BYTE PTR [esp+0xf]
  106d9d:	e9 51 ec ff ff       	jmp    1059f3 <_ZN2os3hal3idt9init_irqsEv+0x903>
  106da2:	81 c7 45 78 19 00    	add    edi,0x197845
  106da8:	39 fd                	cmp    ebp,edi
  106daa:	0f 87 2a ec ff ff    	ja     1059da <_ZN2os3hal3idt9init_irqsEv+0x8ea>
  106db0:	88 44 24 0f          	mov    BYTE PTR [esp+0xf],al
  106db4:	57                   	push   edi
  106db5:	57                   	push   edi
  106db6:	68 45 78 19 00       	push   0x197845
  106dbb:	68 94 2c 11 00       	push   0x112c94
  106dc0:	e8 ab 5c 00 00       	call   10ca70 <__ubsan_handle_type_mismatch>
  106dc5:	83 c4 10             	add    esp,0x10
  106dc8:	0f b6 44 24 0f       	movzx  eax,BYTE PTR [esp+0xf]
  106dcd:	e9 08 ec ff ff       	jmp    1059da <_ZN2os3hal3idt9init_irqsEv+0x8ea>
  106dd2:	8d 97 45 78 19 00    	lea    edx,[edi+0x197845]
  106dd8:	39 d5                	cmp    ebp,edx
  106dda:	0f 87 d4 eb ff ff    	ja     1059b4 <_ZN2os3hal3idt9init_irqsEv+0x8c4>
  106de0:	88 44 24 0f          	mov    BYTE PTR [esp+0xf],al
  106de4:	50                   	push   eax
  106de5:	50                   	push   eax
  106de6:	68 45 78 19 00       	push   0x197845
  106deb:	68 ac 2c 11 00       	push   0x112cac
  106df0:	e8 7b 5c 00 00       	call   10ca70 <__ubsan_handle_type_mismatch>
  106df5:	83 c4 10             	add    esp,0x10
  106df8:	0f b6 44 24 0f       	movzx  eax,BYTE PTR [esp+0xf]
  106dfd:	e9 b2 eb ff ff       	jmp    1059b4 <_ZN2os3hal3idt9init_irqsEv+0x8c4>
  106e02:	8d 97 45 78 19 00    	lea    edx,[edi+0x197845]
  106e08:	39 d5                	cmp    ebp,edx
  106e0a:	0f 87 7e eb ff ff    	ja     10598e <_ZN2os3hal3idt9init_irqsEv+0x89e>
  106e10:	88 44 24 0f          	mov    BYTE PTR [esp+0xf],al
  106e14:	50                   	push   eax
  106e15:	50                   	push   eax
  106e16:	68 45 78 19 00       	push   0x197845
  106e1b:	68 c4 2c 11 00       	push   0x112cc4
  106e20:	e8 4b 5c 00 00       	call   10ca70 <__ubsan_handle_type_mismatch>
  106e25:	83 c4 10             	add    esp,0x10
  106e28:	0f b6 44 24 0f       	movzx  eax,BYTE PTR [esp+0xf]
  106e2d:	e9 5c eb ff ff       	jmp    10598e <_ZN2os3hal3idt9init_irqsEv+0x89e>
  106e32:	89 f9                	mov    ecx,edi
  106e34:	01 e9                	add    ecx,ebp
  106e36:	0f 82 32 eb ff ff    	jb     10596e <_ZN2os3hal3idt9init_irqsEv+0x87e>
  106e3c:	88 44 24 0f          	mov    BYTE PTR [esp+0xf],al
  106e40:	50                   	push   eax
  106e41:	50                   	push   eax
  106e42:	55                   	push   ebp
  106e43:	68 dc 2c 11 00       	push   0x112cdc
  106e48:	e8 23 5c 00 00       	call   10ca70 <__ubsan_handle_type_mismatch>
  106e4d:	83 c4 10             	add    esp,0x10
  106e50:	0f b6 44 24 0f       	movzx  eax,BYTE PTR [esp+0xf]
  106e55:	e9 14 eb ff ff       	jmp    10596e <_ZN2os3hal3idt9init_irqsEv+0x87e>
  106e5a:	81 c2 44 78 19 00    	add    edx,0x197844
  106e60:	0f 82 ea ea ff ff    	jb     105950 <_ZN2os3hal3idt9init_irqsEv+0x860>
  106e66:	88 44 24 0f          	mov    BYTE PTR [esp+0xf],al
  106e6a:	50                   	push   eax
  106e6b:	50                   	push   eax
  106e6c:	68 44 78 19 00       	push   0x197844
  106e71:	68 f4 2c 11 00       	push   0x112cf4
  106e76:	e8 f5 5b 00 00       	call   10ca70 <__ubsan_handle_type_mismatch>
  106e7b:	83 c4 10             	add    esp,0x10
  106e7e:	0f b6 44 24 0f       	movzx  eax,BYTE PTR [esp+0xf]
  106e83:	e9 c8 ea ff ff       	jmp    105950 <_ZN2os3hal3idt9init_irqsEv+0x860>
  106e88:	81 c2 46 78 19 00    	add    edx,0x197846
  106e8e:	0f 82 a3 ea ff ff    	jb     105937 <_ZN2os3hal3idt9init_irqsEv+0x847>
  106e94:	88 44 24 0f          	mov    BYTE PTR [esp+0xf],al
  106e98:	50                   	push   eax
  106e99:	50                   	push   eax
  106e9a:	68 46 78 19 00       	push   0x197846
  106e9f:	68 0c 2d 11 00       	push   0x112d0c
  106ea4:	e8 c7 5b 00 00       	call   10ca70 <__ubsan_handle_type_mismatch>
  106ea9:	83 c4 10             	add    esp,0x10
  106eac:	0f b6 44 24 0f       	movzx  eax,BYTE PTR [esp+0xf]
  106eb1:	e9 81 ea ff ff       	jmp    105937 <_ZN2os3hal3idt9init_irqsEv+0x847>
  106eb6:	81 c2 40 78 19 00    	add    edx,0x197840
  106ebc:	0f 82 59 ea ff ff    	jb     10591b <_ZN2os3hal3idt9init_irqsEv+0x82b>
  106ec2:	88 44 24 0f          	mov    BYTE PTR [esp+0xf],al
  106ec6:	50                   	push   eax
  106ec7:	50                   	push   eax
  106ec8:	68 40 78 19 00       	push   0x197840
  106ecd:	68 24 2d 11 00       	push   0x112d24
  106ed2:	e8 99 5b 00 00       	call   10ca70 <__ubsan_handle_type_mismatch>
  106ed7:	83 c4 10             	add    esp,0x10
  106eda:	0f b6 44 24 0f       	movzx  eax,BYTE PTR [esp+0xf]
  106edf:	e9 37 ea ff ff       	jmp    10591b <_ZN2os3hal3idt9init_irqsEv+0x82b>
  106ee4:	81 c2 3a 78 19 00    	add    edx,0x19783a
  106eea:	0f 82 08 ea ff ff    	jb     1058f8 <_ZN2os3hal3idt9init_irqsEv+0x808>
  106ef0:	88 44 24 0f          	mov    BYTE PTR [esp+0xf],al
  106ef4:	51                   	push   ecx
  106ef5:	51                   	push   ecx
  106ef6:	68 3a 78 19 00       	push   0x19783a
  106efb:	68 3c 2d 11 00       	push   0x112d3c
  106f00:	e8 6b 5b 00 00       	call   10ca70 <__ubsan_handle_type_mismatch>
  106f05:	83 c4 10             	add    esp,0x10
  106f08:	0f b6 44 24 0f       	movzx  eax,BYTE PTR [esp+0xf]
  106f0d:	e9 e6 e9 ff ff       	jmp    1058f8 <_ZN2os3hal3idt9init_irqsEv+0x808>
  106f12:	81 c7 3d 78 19 00    	add    edi,0x19783d
  106f18:	39 fd                	cmp    ebp,edi
  106f1a:	0f 87 bf e9 ff ff    	ja     1058df <_ZN2os3hal3idt9init_irqsEv+0x7ef>
  106f20:	88 44 24 0f          	mov    BYTE PTR [esp+0xf],al
  106f24:	57                   	push   edi
  106f25:	57                   	push   edi
  106f26:	68 3d 78 19 00       	push   0x19783d
  106f2b:	68 54 2d 11 00       	push   0x112d54
  106f30:	e8 3b 5b 00 00       	call   10ca70 <__ubsan_handle_type_mismatch>
  106f35:	83 c4 10             	add    esp,0x10
  106f38:	0f b6 44 24 0f       	movzx  eax,BYTE PTR [esp+0xf]
  106f3d:	e9 9d e9 ff ff       	jmp    1058df <_ZN2os3hal3idt9init_irqsEv+0x7ef>
  106f42:	8d 97 3d 78 19 00    	lea    edx,[edi+0x19783d]
  106f48:	39 d5                	cmp    ebp,edx
  106f4a:	0f 87 69 e9 ff ff    	ja     1058b9 <_ZN2os3hal3idt9init_irqsEv+0x7c9>
  106f50:	88 44 24 0f          	mov    BYTE PTR [esp+0xf],al
  106f54:	50                   	push   eax
  106f55:	50                   	push   eax
  106f56:	68 3d 78 19 00       	push   0x19783d
  106f5b:	68 6c 2d 11 00       	push   0x112d6c
  106f60:	e8 0b 5b 00 00       	call   10ca70 <__ubsan_handle_type_mismatch>
  106f65:	83 c4 10             	add    esp,0x10
  106f68:	0f b6 44 24 0f       	movzx  eax,BYTE PTR [esp+0xf]
  106f6d:	e9 47 e9 ff ff       	jmp    1058b9 <_ZN2os3hal3idt9init_irqsEv+0x7c9>
  106f72:	8d 97 3d 78 19 00    	lea    edx,[edi+0x19783d]
  106f78:	39 d5                	cmp    ebp,edx
  106f7a:	0f 87 13 e9 ff ff    	ja     105893 <_ZN2os3hal3idt9init_irqsEv+0x7a3>
  106f80:	88 44 24 0f          	mov    BYTE PTR [esp+0xf],al
  106f84:	50                   	push   eax
  106f85:	50                   	push   eax
  106f86:	68 3d 78 19 00       	push   0x19783d
  106f8b:	68 84 2d 11 00       	push   0x112d84
  106f90:	e8 db 5a 00 00       	call   10ca70 <__ubsan_handle_type_mismatch>
  106f95:	83 c4 10             	add    esp,0x10
  106f98:	0f b6 44 24 0f       	movzx  eax,BYTE PTR [esp+0xf]
  106f9d:	e9 f1 e8 ff ff       	jmp    105893 <_ZN2os3hal3idt9init_irqsEv+0x7a3>
  106fa2:	89 f9                	mov    ecx,edi
  106fa4:	01 e9                	add    ecx,ebp
  106fa6:	0f 82 c7 e8 ff ff    	jb     105873 <_ZN2os3hal3idt9init_irqsEv+0x783>
  106fac:	88 44 24 0f          	mov    BYTE PTR [esp+0xf],al
  106fb0:	50                   	push   eax
  106fb1:	50                   	push   eax
  106fb2:	55                   	push   ebp
  106fb3:	68 9c 2d 11 00       	push   0x112d9c
  106fb8:	e8 b3 5a 00 00       	call   10ca70 <__ubsan_handle_type_mismatch>
  106fbd:	83 c4 10             	add    esp,0x10
  106fc0:	0f b6 44 24 0f       	movzx  eax,BYTE PTR [esp+0xf]
  106fc5:	e9 a9 e8 ff ff       	jmp    105873 <_ZN2os3hal3idt9init_irqsEv+0x783>
  106fca:	81 c2 3c 78 19 00    	add    edx,0x19783c
  106fd0:	0f 82 7f e8 ff ff    	jb     105855 <_ZN2os3hal3idt9init_irqsEv+0x765>
  106fd6:	88 44 24 0f          	mov    BYTE PTR [esp+0xf],al
  106fda:	50                   	push   eax
  106fdb:	50                   	push   eax
  106fdc:	68 3c 78 19 00       	push   0x19783c
  106fe1:	68 b4 2d 11 00       	push   0x112db4
  106fe6:	e8 85 5a 00 00       	call   10ca70 <__ubsan_handle_type_mismatch>
  106feb:	83 c4 10             	add    esp,0x10
  106fee:	0f b6 44 24 0f       	movzx  eax,BYTE PTR [esp+0xf]
  106ff3:	e9 5d e8 ff ff       	jmp    105855 <_ZN2os3hal3idt9init_irqsEv+0x765>
  106ff8:	81 c2 3e 78 19 00    	add    edx,0x19783e
  106ffe:	0f 82 38 e8 ff ff    	jb     10583c <_ZN2os3hal3idt9init_irqsEv+0x74c>
  107004:	88 44 24 0f          	mov    BYTE PTR [esp+0xf],al
  107008:	50                   	push   eax
  107009:	50                   	push   eax
  10700a:	68 3e 78 19 00       	push   0x19783e
  10700f:	68 cc 2d 11 00       	push   0x112dcc
  107014:	e8 57 5a 00 00       	call   10ca70 <__ubsan_handle_type_mismatch>
  107019:	83 c4 10             	add    esp,0x10
  10701c:	0f b6 44 24 0f       	movzx  eax,BYTE PTR [esp+0xf]
  107021:	e9 16 e8 ff ff       	jmp    10583c <_ZN2os3hal3idt9init_irqsEv+0x74c>
  107026:	81 c2 38 78 19 00    	add    edx,0x197838
  10702c:	0f 82 ee e7 ff ff    	jb     105820 <_ZN2os3hal3idt9init_irqsEv+0x730>
  107032:	88 44 24 0f          	mov    BYTE PTR [esp+0xf],al
  107036:	50                   	push   eax
  107037:	50                   	push   eax
  107038:	68 38 78 19 00       	push   0x197838
  10703d:	68 e4 2d 11 00       	push   0x112de4
  107042:	e8 29 5a 00 00       	call   10ca70 <__ubsan_handle_type_mismatch>
  107047:	83 c4 10             	add    esp,0x10
  10704a:	0f b6 44 24 0f       	movzx  eax,BYTE PTR [esp+0xf]
  10704f:	e9 cc e7 ff ff       	jmp    105820 <_ZN2os3hal3idt9init_irqsEv+0x730>
  107054:	81 c2 32 78 19 00    	add    edx,0x197832
  10705a:	0f 82 9d e7 ff ff    	jb     1057fd <_ZN2os3hal3idt9init_irqsEv+0x70d>
  107060:	88 44 24 0f          	mov    BYTE PTR [esp+0xf],al
  107064:	51                   	push   ecx
  107065:	51                   	push   ecx
  107066:	68 32 78 19 00       	push   0x197832
  10706b:	68 fc 2d 11 00       	push   0x112dfc
  107070:	e8 fb 59 00 00       	call   10ca70 <__ubsan_handle_type_mismatch>
  107075:	83 c4 10             	add    esp,0x10
  107078:	0f b6 44 24 0f       	movzx  eax,BYTE PTR [esp+0xf]
  10707d:	e9 7b e7 ff ff       	jmp    1057fd <_ZN2os3hal3idt9init_irqsEv+0x70d>
  107082:	81 c7 35 78 19 00    	add    edi,0x197835
  107088:	39 fd                	cmp    ebp,edi
  10708a:	0f 87 54 e7 ff ff    	ja     1057e4 <_ZN2os3hal3idt9init_irqsEv+0x6f4>
  107090:	88 44 24 0f          	mov    BYTE PTR [esp+0xf],al
  107094:	57                   	push   edi
  107095:	57                   	push   edi
  107096:	68 35 78 19 00       	push   0x197835
  10709b:	68 14 2e 11 00       	push   0x112e14
  1070a0:	e8 cb 59 00 00       	call   10ca70 <__ubsan_handle_type_mismatch>
  1070a5:	83 c4 10             	add    esp,0x10
  1070a8:	0f b6 44 24 0f       	movzx  eax,BYTE PTR [esp+0xf]
  1070ad:	e9 32 e7 ff ff       	jmp    1057e4 <_ZN2os3hal3idt9init_irqsEv+0x6f4>
  1070b2:	8d 97 35 78 19 00    	lea    edx,[edi+0x197835]
  1070b8:	39 d5                	cmp    ebp,edx
  1070ba:	0f 87 fe e6 ff ff    	ja     1057be <_ZN2os3hal3idt9init_irqsEv+0x6ce>
  1070c0:	88 44 24 0f          	mov    BYTE PTR [esp+0xf],al
  1070c4:	50                   	push   eax
  1070c5:	50                   	push   eax
  1070c6:	68 35 78 19 00       	push   0x197835
  1070cb:	68 2c 2e 11 00       	push   0x112e2c
  1070d0:	e8 9b 59 00 00       	call   10ca70 <__ubsan_handle_type_mismatch>
  1070d5:	83 c4 10             	add    esp,0x10
  1070d8:	0f b6 44 24 0f       	movzx  eax,BYTE PTR [esp+0xf]
  1070dd:	e9 dc e6 ff ff       	jmp    1057be <_ZN2os3hal3idt9init_irqsEv+0x6ce>
  1070e2:	8d 97 35 78 19 00    	lea    edx,[edi+0x197835]
  1070e8:	39 d5                	cmp    ebp,edx
  1070ea:	0f 87 a8 e6 ff ff    	ja     105798 <_ZN2os3hal3idt9init_irqsEv+0x6a8>
  1070f0:	88 44 24 0f          	mov    BYTE PTR [esp+0xf],al
  1070f4:	50                   	push   eax
  1070f5:	50                   	push   eax
  1070f6:	68 35 78 19 00       	push   0x197835
  1070fb:	68 44 2e 11 00       	push   0x112e44
  107100:	e8 6b 59 00 00       	call   10ca70 <__ubsan_handle_type_mismatch>
  107105:	83 c4 10             	add    esp,0x10
  107108:	0f b6 44 24 0f       	movzx  eax,BYTE PTR [esp+0xf]
  10710d:	e9 86 e6 ff ff       	jmp    105798 <_ZN2os3hal3idt9init_irqsEv+0x6a8>
  107112:	89 f9                	mov    ecx,edi
  107114:	01 e9                	add    ecx,ebp
  107116:	0f 82 5c e6 ff ff    	jb     105778 <_ZN2os3hal3idt9init_irqsEv+0x688>
  10711c:	88 44 24 0f          	mov    BYTE PTR [esp+0xf],al
  107120:	50                   	push   eax
  107121:	50                   	push   eax
  107122:	55                   	push   ebp
  107123:	68 5c 2e 11 00       	push   0x112e5c
  107128:	e8 43 59 00 00       	call   10ca70 <__ubsan_handle_type_mismatch>
  10712d:	83 c4 10             	add    esp,0x10
  107130:	0f b6 44 24 0f       	movzx  eax,BYTE PTR [esp+0xf]
  107135:	e9 3e e6 ff ff       	jmp    105778 <_ZN2os3hal3idt9init_irqsEv+0x688>
  10713a:	81 c2 34 78 19 00    	add    edx,0x197834
  107140:	0f 82 14 e6 ff ff    	jb     10575a <_ZN2os3hal3idt9init_irqsEv+0x66a>
  107146:	88 44 24 0f          	mov    BYTE PTR [esp+0xf],al
  10714a:	50                   	push   eax
  10714b:	50                   	push   eax
  10714c:	68 34 78 19 00       	push   0x197834
  107151:	68 74 2e 11 00       	push   0x112e74
  107156:	e8 15 59 00 00       	call   10ca70 <__ubsan_handle_type_mismatch>
  10715b:	83 c4 10             	add    esp,0x10
  10715e:	0f b6 44 24 0f       	movzx  eax,BYTE PTR [esp+0xf]
  107163:	e9 f2 e5 ff ff       	jmp    10575a <_ZN2os3hal3idt9init_irqsEv+0x66a>
  107168:	81 c2 36 78 19 00    	add    edx,0x197836
  10716e:	0f 82 cd e5 ff ff    	jb     105741 <_ZN2os3hal3idt9init_irqsEv+0x651>
  107174:	88 44 24 0f          	mov    BYTE PTR [esp+0xf],al
  107178:	50                   	push   eax
  107179:	50                   	push   eax
  10717a:	68 36 78 19 00       	push   0x197836
  10717f:	68 8c 2e 11 00       	push   0x112e8c
  107184:	e8 e7 58 00 00       	call   10ca70 <__ubsan_handle_type_mismatch>
  107189:	83 c4 10             	add    esp,0x10
  10718c:	0f b6 44 24 0f       	movzx  eax,BYTE PTR [esp+0xf]
  107191:	e9 ab e5 ff ff       	jmp    105741 <_ZN2os3hal3idt9init_irqsEv+0x651>
  107196:	81 c2 30 78 19 00    	add    edx,0x197830
  10719c:	0f 82 83 e5 ff ff    	jb     105725 <_ZN2os3hal3idt9init_irqsEv+0x635>
  1071a2:	88 44 24 0f          	mov    BYTE PTR [esp+0xf],al
  1071a6:	50                   	push   eax
  1071a7:	50                   	push   eax
  1071a8:	68 30 78 19 00       	push   0x197830
  1071ad:	68 a4 2e 11 00       	push   0x112ea4
  1071b2:	e8 b9 58 00 00       	call   10ca70 <__ubsan_handle_type_mismatch>
  1071b7:	83 c4 10             	add    esp,0x10
  1071ba:	0f b6 44 24 0f       	movzx  eax,BYTE PTR [esp+0xf]
  1071bf:	e9 61 e5 ff ff       	jmp    105725 <_ZN2os3hal3idt9init_irqsEv+0x635>
  1071c4:	81 c2 2a 78 19 00    	add    edx,0x19782a
  1071ca:	0f 82 32 e5 ff ff    	jb     105702 <_ZN2os3hal3idt9init_irqsEv+0x612>
  1071d0:	88 44 24 0f          	mov    BYTE PTR [esp+0xf],al
  1071d4:	51                   	push   ecx
  1071d5:	51                   	push   ecx
  1071d6:	68 2a 78 19 00       	push   0x19782a
  1071db:	68 bc 2e 11 00       	push   0x112ebc
  1071e0:	e8 8b 58 00 00       	call   10ca70 <__ubsan_handle_type_mismatch>
  1071e5:	83 c4 10             	add    esp,0x10
  1071e8:	0f b6 44 24 0f       	movzx  eax,BYTE PTR [esp+0xf]
  1071ed:	e9 10 e5 ff ff       	jmp    105702 <_ZN2os3hal3idt9init_irqsEv+0x612>
  1071f2:	81 c7 2d 78 19 00    	add    edi,0x19782d
  1071f8:	39 fd                	cmp    ebp,edi
  1071fa:	0f 87 e9 e4 ff ff    	ja     1056e9 <_ZN2os3hal3idt9init_irqsEv+0x5f9>
  107200:	88 44 24 0f          	mov    BYTE PTR [esp+0xf],al
  107204:	57                   	push   edi
  107205:	57                   	push   edi
  107206:	68 2d 78 19 00       	push   0x19782d
  10720b:	68 d4 2e 11 00       	push   0x112ed4
  107210:	e8 5b 58 00 00       	call   10ca70 <__ubsan_handle_type_mismatch>
  107215:	83 c4 10             	add    esp,0x10
  107218:	0f b6 44 24 0f       	movzx  eax,BYTE PTR [esp+0xf]
  10721d:	e9 c7 e4 ff ff       	jmp    1056e9 <_ZN2os3hal3idt9init_irqsEv+0x5f9>
  107222:	8d 97 2d 78 19 00    	lea    edx,[edi+0x19782d]
  107228:	39 d5                	cmp    ebp,edx
  10722a:	0f 87 93 e4 ff ff    	ja     1056c3 <_ZN2os3hal3idt9init_irqsEv+0x5d3>
  107230:	88 44 24 0f          	mov    BYTE PTR [esp+0xf],al
  107234:	50                   	push   eax
  107235:	50                   	push   eax
  107236:	68 2d 78 19 00       	push   0x19782d
  10723b:	68 ec 2e 11 00       	push   0x112eec
  107240:	e8 2b 58 00 00       	call   10ca70 <__ubsan_handle_type_mismatch>
  107245:	83 c4 10             	add    esp,0x10
  107248:	0f b6 44 24 0f       	movzx  eax,BYTE PTR [esp+0xf]
  10724d:	e9 71 e4 ff ff       	jmp    1056c3 <_ZN2os3hal3idt9init_irqsEv+0x5d3>
  107252:	8d 97 2d 78 19 00    	lea    edx,[edi+0x19782d]
  107258:	39 d5                	cmp    ebp,edx
  10725a:	0f 87 3d e4 ff ff    	ja     10569d <_ZN2os3hal3idt9init_irqsEv+0x5ad>
  107260:	88 44 24 0f          	mov    BYTE PTR [esp+0xf],al
  107264:	50                   	push   eax
  107265:	50                   	push   eax
  107266:	68 2d 78 19 00       	push   0x19782d
  10726b:	68 04 2f 11 00       	push   0x112f04
  107270:	e8 fb 57 00 00       	call   10ca70 <__ubsan_handle_type_mismatch>
  107275:	83 c4 10             	add    esp,0x10
  107278:	0f b6 44 24 0f       	movzx  eax,BYTE PTR [esp+0xf]
  10727d:	e9 1b e4 ff ff       	jmp    10569d <_ZN2os3hal3idt9init_irqsEv+0x5ad>
  107282:	89 f9                	mov    ecx,edi
  107284:	01 e9                	add    ecx,ebp
  107286:	0f 82 f1 e3 ff ff    	jb     10567d <_ZN2os3hal3idt9init_irqsEv+0x58d>
  10728c:	88 44 24 0f          	mov    BYTE PTR [esp+0xf],al
  107290:	50                   	push   eax
  107291:	50                   	push   eax
  107292:	55                   	push   ebp
  107293:	68 1c 2f 11 00       	push   0x112f1c
  107298:	e8 d3 57 00 00       	call   10ca70 <__ubsan_handle_type_mismatch>
  10729d:	83 c4 10             	add    esp,0x10
  1072a0:	0f b6 44 24 0f       	movzx  eax,BYTE PTR [esp+0xf]
  1072a5:	e9 d3 e3 ff ff       	jmp    10567d <_ZN2os3hal3idt9init_irqsEv+0x58d>
  1072aa:	81 c2 2c 78 19 00    	add    edx,0x19782c
  1072b0:	0f 82 a9 e3 ff ff    	jb     10565f <_ZN2os3hal3idt9init_irqsEv+0x56f>
  1072b6:	88 44 24 0f          	mov    BYTE PTR [esp+0xf],al
  1072ba:	50                   	push   eax
  1072bb:	50                   	push   eax
  1072bc:	68 2c 78 19 00       	push   0x19782c
  1072c1:	68 34 2f 11 00       	push   0x112f34
  1072c6:	e8 a5 57 00 00       	call   10ca70 <__ubsan_handle_type_mismatch>
  1072cb:	83 c4 10             	add    esp,0x10
  1072ce:	0f b6 44 24 0f       	movzx  eax,BYTE PTR [esp+0xf]
  1072d3:	e9 87 e3 ff ff       	jmp    10565f <_ZN2os3hal3idt9init_irqsEv+0x56f>
  1072d8:	81 c2 2e 78 19 00    	add    edx,0x19782e
  1072de:	0f 82 62 e3 ff ff    	jb     105646 <_ZN2os3hal3idt9init_irqsEv+0x556>
  1072e4:	88 44 24 0f          	mov    BYTE PTR [esp+0xf],al
  1072e8:	50                   	push   eax
  1072e9:	50                   	push   eax
  1072ea:	68 2e 78 19 00       	push   0x19782e
  1072ef:	68 4c 2f 11 00       	push   0x112f4c
  1072f4:	e8 77 57 00 00       	call   10ca70 <__ubsan_handle_type_mismatch>
  1072f9:	83 c4 10             	add    esp,0x10
  1072fc:	0f b6 44 24 0f       	movzx  eax,BYTE PTR [esp+0xf]
  107301:	e9 40 e3 ff ff       	jmp    105646 <_ZN2os3hal3idt9init_irqsEv+0x556>
  107306:	81 c2 28 78 19 00    	add    edx,0x197828
  10730c:	0f 82 18 e3 ff ff    	jb     10562a <_ZN2os3hal3idt9init_irqsEv+0x53a>
  107312:	88 44 24 0f          	mov    BYTE PTR [esp+0xf],al
  107316:	50                   	push   eax
  107317:	50                   	push   eax
  107318:	68 28 78 19 00       	push   0x197828
  10731d:	68 64 2f 11 00       	push   0x112f64
  107322:	e8 49 57 00 00       	call   10ca70 <__ubsan_handle_type_mismatch>
  107327:	83 c4 10             	add    esp,0x10
  10732a:	0f b6 44 24 0f       	movzx  eax,BYTE PTR [esp+0xf]
  10732f:	e9 f6 e2 ff ff       	jmp    10562a <_ZN2os3hal3idt9init_irqsEv+0x53a>
  107334:	81 c2 22 78 19 00    	add    edx,0x197822
  10733a:	0f 82 c7 e2 ff ff    	jb     105607 <_ZN2os3hal3idt9init_irqsEv+0x517>
  107340:	88 44 24 0f          	mov    BYTE PTR [esp+0xf],al
  107344:	51                   	push   ecx
  107345:	51                   	push   ecx
  107346:	68 22 78 19 00       	push   0x197822
  10734b:	68 7c 2f 11 00       	push   0x112f7c
  107350:	e8 1b 57 00 00       	call   10ca70 <__ubsan_handle_type_mismatch>
  107355:	83 c4 10             	add    esp,0x10
  107358:	0f b6 44 24 0f       	movzx  eax,BYTE PTR [esp+0xf]
  10735d:	e9 a5 e2 ff ff       	jmp    105607 <_ZN2os3hal3idt9init_irqsEv+0x517>
  107362:	81 c7 25 78 19 00    	add    edi,0x197825
  107368:	39 fd                	cmp    ebp,edi
  10736a:	0f 87 7e e2 ff ff    	ja     1055ee <_ZN2os3hal3idt9init_irqsEv+0x4fe>
  107370:	88 44 24 0f          	mov    BYTE PTR [esp+0xf],al
  107374:	57                   	push   edi
  107375:	57                   	push   edi
  107376:	68 25 78 19 00       	push   0x197825
  10737b:	68 94 2f 11 00       	push   0x112f94
  107380:	e8 eb 56 00 00       	call   10ca70 <__ubsan_handle_type_mismatch>
  107385:	83 c4 10             	add    esp,0x10
  107388:	0f b6 44 24 0f       	movzx  eax,BYTE PTR [esp+0xf]
  10738d:	e9 5c e2 ff ff       	jmp    1055ee <_ZN2os3hal3idt9init_irqsEv+0x4fe>
  107392:	8d 97 25 78 19 00    	lea    edx,[edi+0x197825]
  107398:	39 d5                	cmp    ebp,edx
  10739a:	0f 87 28 e2 ff ff    	ja     1055c8 <_ZN2os3hal3idt9init_irqsEv+0x4d8>
  1073a0:	88 44 24 0f          	mov    BYTE PTR [esp+0xf],al
  1073a4:	50                   	push   eax
  1073a5:	50                   	push   eax
  1073a6:	68 25 78 19 00       	push   0x197825
  1073ab:	68 ac 2f 11 00       	push   0x112fac
  1073b0:	e8 bb 56 00 00       	call   10ca70 <__ubsan_handle_type_mismatch>
  1073b5:	83 c4 10             	add    esp,0x10
  1073b8:	0f b6 44 24 0f       	movzx  eax,BYTE PTR [esp+0xf]
  1073bd:	e9 06 e2 ff ff       	jmp    1055c8 <_ZN2os3hal3idt9init_irqsEv+0x4d8>
  1073c2:	8d 97 25 78 19 00    	lea    edx,[edi+0x197825]
  1073c8:	39 d5                	cmp    ebp,edx
  1073ca:	0f 87 d2 e1 ff ff    	ja     1055a2 <_ZN2os3hal3idt9init_irqsEv+0x4b2>
  1073d0:	88 44 24 0f          	mov    BYTE PTR [esp+0xf],al
  1073d4:	50                   	push   eax
  1073d5:	50                   	push   eax
  1073d6:	68 25 78 19 00       	push   0x197825
  1073db:	68 c4 2f 11 00       	push   0x112fc4
  1073e0:	e8 8b 56 00 00       	call   10ca70 <__ubsan_handle_type_mismatch>
  1073e5:	83 c4 10             	add    esp,0x10
  1073e8:	0f b6 44 24 0f       	movzx  eax,BYTE PTR [esp+0xf]
  1073ed:	e9 b0 e1 ff ff       	jmp    1055a2 <_ZN2os3hal3idt9init_irqsEv+0x4b2>
  1073f2:	89 f9                	mov    ecx,edi
  1073f4:	01 e9                	add    ecx,ebp
  1073f6:	0f 82 86 e1 ff ff    	jb     105582 <_ZN2os3hal3idt9init_irqsEv+0x492>
  1073fc:	88 44 24 0f          	mov    BYTE PTR [esp+0xf],al
  107400:	50                   	push   eax
  107401:	50                   	push   eax
  107402:	55                   	push   ebp
  107403:	68 dc 2f 11 00       	push   0x112fdc
  107408:	e8 63 56 00 00       	call   10ca70 <__ubsan_handle_type_mismatch>
  10740d:	83 c4 10             	add    esp,0x10
  107410:	0f b6 44 24 0f       	movzx  eax,BYTE PTR [esp+0xf]
  107415:	e9 68 e1 ff ff       	jmp    105582 <_ZN2os3hal3idt9init_irqsEv+0x492>
  10741a:	81 c2 24 78 19 00    	add    edx,0x197824
  107420:	0f 82 3e e1 ff ff    	jb     105564 <_ZN2os3hal3idt9init_irqsEv+0x474>
  107426:	88 44 24 0f          	mov    BYTE PTR [esp+0xf],al
  10742a:	50                   	push   eax
  10742b:	50                   	push   eax
  10742c:	68 24 78 19 00       	push   0x197824
  107431:	68 f4 2f 11 00       	push   0x112ff4
  107436:	e8 35 56 00 00       	call   10ca70 <__ubsan_handle_type_mismatch>
  10743b:	83 c4 10             	add    esp,0x10
  10743e:	0f b6 44 24 0f       	movzx  eax,BYTE PTR [esp+0xf]
  107443:	e9 1c e1 ff ff       	jmp    105564 <_ZN2os3hal3idt9init_irqsEv+0x474>
  107448:	81 c2 26 78 19 00    	add    edx,0x197826
  10744e:	0f 82 f7 e0 ff ff    	jb     10554b <_ZN2os3hal3idt9init_irqsEv+0x45b>
  107454:	88 44 24 0f          	mov    BYTE PTR [esp+0xf],al
  107458:	50                   	push   eax
  107459:	50                   	push   eax
  10745a:	68 26 78 19 00       	push   0x197826
  10745f:	68 0c 30 11 00       	push   0x11300c
  107464:	e8 07 56 00 00       	call   10ca70 <__ubsan_handle_type_mismatch>
  107469:	83 c4 10             	add    esp,0x10
  10746c:	0f b6 44 24 0f       	movzx  eax,BYTE PTR [esp+0xf]
  107471:	e9 d5 e0 ff ff       	jmp    10554b <_ZN2os3hal3idt9init_irqsEv+0x45b>
  107476:	81 c2 20 78 19 00    	add    edx,0x197820
  10747c:	0f 82 ad e0 ff ff    	jb     10552f <_ZN2os3hal3idt9init_irqsEv+0x43f>
  107482:	88 44 24 0f          	mov    BYTE PTR [esp+0xf],al
  107486:	50                   	push   eax
  107487:	50                   	push   eax
  107488:	68 20 78 19 00       	push   0x197820
  10748d:	68 24 30 11 00       	push   0x113024
  107492:	e8 d9 55 00 00       	call   10ca70 <__ubsan_handle_type_mismatch>
  107497:	83 c4 10             	add    esp,0x10
  10749a:	0f b6 44 24 0f       	movzx  eax,BYTE PTR [esp+0xf]
  10749f:	e9 8b e0 ff ff       	jmp    10552f <_ZN2os3hal3idt9init_irqsEv+0x43f>
  1074a4:	81 c2 1a 78 19 00    	add    edx,0x19781a
  1074aa:	0f 82 5c e0 ff ff    	jb     10550c <_ZN2os3hal3idt9init_irqsEv+0x41c>
  1074b0:	88 44 24 0f          	mov    BYTE PTR [esp+0xf],al
  1074b4:	51                   	push   ecx
  1074b5:	51                   	push   ecx
  1074b6:	68 1a 78 19 00       	push   0x19781a
  1074bb:	68 3c 30 11 00       	push   0x11303c
  1074c0:	e8 ab 55 00 00       	call   10ca70 <__ubsan_handle_type_mismatch>
  1074c5:	83 c4 10             	add    esp,0x10
  1074c8:	0f b6 44 24 0f       	movzx  eax,BYTE PTR [esp+0xf]
  1074cd:	e9 3a e0 ff ff       	jmp    10550c <_ZN2os3hal3idt9init_irqsEv+0x41c>
  1074d2:	81 c7 1d 78 19 00    	add    edi,0x19781d
  1074d8:	39 fd                	cmp    ebp,edi
  1074da:	0f 87 13 e0 ff ff    	ja     1054f3 <_ZN2os3hal3idt9init_irqsEv+0x403>
  1074e0:	88 44 24 0f          	mov    BYTE PTR [esp+0xf],al
  1074e4:	57                   	push   edi
  1074e5:	57                   	push   edi
  1074e6:	68 1d 78 19 00       	push   0x19781d
  1074eb:	68 54 30 11 00       	push   0x113054
  1074f0:	e8 7b 55 00 00       	call   10ca70 <__ubsan_handle_type_mismatch>
  1074f5:	83 c4 10             	add    esp,0x10
  1074f8:	0f b6 44 24 0f       	movzx  eax,BYTE PTR [esp+0xf]
  1074fd:	e9 f1 df ff ff       	jmp    1054f3 <_ZN2os3hal3idt9init_irqsEv+0x403>
  107502:	8d 97 1d 78 19 00    	lea    edx,[edi+0x19781d]
  107508:	39 d5                	cmp    ebp,edx
  10750a:	0f 87 bd df ff ff    	ja     1054cd <_ZN2os3hal3idt9init_irqsEv+0x3dd>
  107510:	88 44 24 0f          	mov    BYTE PTR [esp+0xf],al
  107514:	50                   	push   eax
  107515:	50                   	push   eax
  107516:	68 1d 78 19 00       	push   0x19781d
  10751b:	68 6c 30 11 00       	push   0x11306c
  107520:	e8 4b 55 00 00       	call   10ca70 <__ubsan_handle_type_mismatch>
  107525:	83 c4 10             	add    esp,0x10
  107528:	0f b6 44 24 0f       	movzx  eax,BYTE PTR [esp+0xf]
  10752d:	e9 9b df ff ff       	jmp    1054cd <_ZN2os3hal3idt9init_irqsEv+0x3dd>
  107532:	8d 97 1d 78 19 00    	lea    edx,[edi+0x19781d]
  107538:	39 d5                	cmp    ebp,edx
  10753a:	0f 87 67 df ff ff    	ja     1054a7 <_ZN2os3hal3idt9init_irqsEv+0x3b7>
  107540:	88 44 24 0f          	mov    BYTE PTR [esp+0xf],al
  107544:	50                   	push   eax
  107545:	50                   	push   eax
  107546:	68 1d 78 19 00       	push   0x19781d
  10754b:	68 84 30 11 00       	push   0x113084
  107550:	e8 1b 55 00 00       	call   10ca70 <__ubsan_handle_type_mismatch>
  107555:	83 c4 10             	add    esp,0x10
  107558:	0f b6 44 24 0f       	movzx  eax,BYTE PTR [esp+0xf]
  10755d:	e9 45 df ff ff       	jmp    1054a7 <_ZN2os3hal3idt9init_irqsEv+0x3b7>
  107562:	89 f9                	mov    ecx,edi
  107564:	01 e9                	add    ecx,ebp
  107566:	0f 82 1b df ff ff    	jb     105487 <_ZN2os3hal3idt9init_irqsEv+0x397>
  10756c:	88 44 24 0f          	mov    BYTE PTR [esp+0xf],al
  107570:	50                   	push   eax
  107571:	50                   	push   eax
  107572:	55                   	push   ebp
  107573:	68 9c 30 11 00       	push   0x11309c
  107578:	e8 f3 54 00 00       	call   10ca70 <__ubsan_handle_type_mismatch>
  10757d:	83 c4 10             	add    esp,0x10
  107580:	0f b6 44 24 0f       	movzx  eax,BYTE PTR [esp+0xf]
  107585:	e9 fd de ff ff       	jmp    105487 <_ZN2os3hal3idt9init_irqsEv+0x397>
  10758a:	81 c2 1c 78 19 00    	add    edx,0x19781c
  107590:	0f 82 d3 de ff ff    	jb     105469 <_ZN2os3hal3idt9init_irqsEv+0x379>
  107596:	88 44 24 0f          	mov    BYTE PTR [esp+0xf],al
  10759a:	50                   	push   eax
  10759b:	50                   	push   eax
  10759c:	68 1c 78 19 00       	push   0x19781c
  1075a1:	68 b4 30 11 00       	push   0x1130b4
  1075a6:	e8 c5 54 00 00       	call   10ca70 <__ubsan_handle_type_mismatch>
  1075ab:	83 c4 10             	add    esp,0x10
  1075ae:	0f b6 44 24 0f       	movzx  eax,BYTE PTR [esp+0xf]
  1075b3:	e9 b1 de ff ff       	jmp    105469 <_ZN2os3hal3idt9init_irqsEv+0x379>
  1075b8:	81 c2 1e 78 19 00    	add    edx,0x19781e
  1075be:	0f 82 8c de ff ff    	jb     105450 <_ZN2os3hal3idt9init_irqsEv+0x360>
  1075c4:	88 44 24 0f          	mov    BYTE PTR [esp+0xf],al
  1075c8:	50                   	push   eax
  1075c9:	50                   	push   eax
  1075ca:	68 1e 78 19 00       	push   0x19781e
  1075cf:	68 cc 30 11 00       	push   0x1130cc
  1075d4:	e8 97 54 00 00       	call   10ca70 <__ubsan_handle_type_mismatch>
  1075d9:	83 c4 10             	add    esp,0x10
  1075dc:	0f b6 44 24 0f       	movzx  eax,BYTE PTR [esp+0xf]
  1075e1:	e9 6a de ff ff       	jmp    105450 <_ZN2os3hal3idt9init_irqsEv+0x360>
  1075e6:	81 c2 18 78 19 00    	add    edx,0x197818
  1075ec:	0f 82 42 de ff ff    	jb     105434 <_ZN2os3hal3idt9init_irqsEv+0x344>
  1075f2:	88 44 24 0f          	mov    BYTE PTR [esp+0xf],al
  1075f6:	50                   	push   eax
  1075f7:	50                   	push   eax
  1075f8:	68 18 78 19 00       	push   0x197818
  1075fd:	68 e4 30 11 00       	push   0x1130e4
  107602:	e8 69 54 00 00       	call   10ca70 <__ubsan_handle_type_mismatch>
  107607:	83 c4 10             	add    esp,0x10
  10760a:	0f b6 44 24 0f       	movzx  eax,BYTE PTR [esp+0xf]
  10760f:	e9 20 de ff ff       	jmp    105434 <_ZN2os3hal3idt9init_irqsEv+0x344>
  107614:	81 c2 12 78 19 00    	add    edx,0x197812
  10761a:	0f 82 f1 dd ff ff    	jb     105411 <_ZN2os3hal3idt9init_irqsEv+0x321>
  107620:	88 44 24 0f          	mov    BYTE PTR [esp+0xf],al
  107624:	51                   	push   ecx
  107625:	51                   	push   ecx
  107626:	68 12 78 19 00       	push   0x197812
  10762b:	68 fc 30 11 00       	push   0x1130fc
  107630:	e8 3b 54 00 00       	call   10ca70 <__ubsan_handle_type_mismatch>
  107635:	83 c4 10             	add    esp,0x10
  107638:	0f b6 44 24 0f       	movzx  eax,BYTE PTR [esp+0xf]
  10763d:	e9 cf dd ff ff       	jmp    105411 <_ZN2os3hal3idt9init_irqsEv+0x321>
  107642:	81 c7 15 78 19 00    	add    edi,0x197815
  107648:	39 fd                	cmp    ebp,edi
  10764a:	0f 87 a8 dd ff ff    	ja     1053f8 <_ZN2os3hal3idt9init_irqsEv+0x308>
  107650:	88 44 24 0f          	mov    BYTE PTR [esp+0xf],al
  107654:	57                   	push   edi
  107655:	57                   	push   edi
  107656:	68 15 78 19 00       	push   0x197815
  10765b:	68 14 31 11 00       	push   0x113114
  107660:	e8 0b 54 00 00       	call   10ca70 <__ubsan_handle_type_mismatch>
  107665:	83 c4 10             	add    esp,0x10
  107668:	0f b6 44 24 0f       	movzx  eax,BYTE PTR [esp+0xf]
  10766d:	e9 86 dd ff ff       	jmp    1053f8 <_ZN2os3hal3idt9init_irqsEv+0x308>
  107672:	8d 97 15 78 19 00    	lea    edx,[edi+0x197815]
  107678:	39 d5                	cmp    ebp,edx
  10767a:	0f 87 52 dd ff ff    	ja     1053d2 <_ZN2os3hal3idt9init_irqsEv+0x2e2>
  107680:	88 44 24 0f          	mov    BYTE PTR [esp+0xf],al
  107684:	50                   	push   eax
  107685:	50                   	push   eax
  107686:	68 15 78 19 00       	push   0x197815
  10768b:	68 2c 31 11 00       	push   0x11312c
  107690:	e8 db 53 00 00       	call   10ca70 <__ubsan_handle_type_mismatch>
  107695:	83 c4 10             	add    esp,0x10
  107698:	0f b6 44 24 0f       	movzx  eax,BYTE PTR [esp+0xf]
  10769d:	e9 30 dd ff ff       	jmp    1053d2 <_ZN2os3hal3idt9init_irqsEv+0x2e2>
  1076a2:	8d 97 15 78 19 00    	lea    edx,[edi+0x197815]
  1076a8:	39 d5                	cmp    ebp,edx
  1076aa:	0f 87 fc dc ff ff    	ja     1053ac <_ZN2os3hal3idt9init_irqsEv+0x2bc>
  1076b0:	88 44 24 0f          	mov    BYTE PTR [esp+0xf],al
  1076b4:	50                   	push   eax
  1076b5:	50                   	push   eax
  1076b6:	68 15 78 19 00       	push   0x197815
  1076bb:	68 44 31 11 00       	push   0x113144
  1076c0:	e8 ab 53 00 00       	call   10ca70 <__ubsan_handle_type_mismatch>
  1076c5:	83 c4 10             	add    esp,0x10
  1076c8:	0f b6 44 24 0f       	movzx  eax,BYTE PTR [esp+0xf]
  1076cd:	e9 da dc ff ff       	jmp    1053ac <_ZN2os3hal3idt9init_irqsEv+0x2bc>
  1076d2:	89 f9                	mov    ecx,edi
  1076d4:	01 e9                	add    ecx,ebp
  1076d6:	0f 82 b0 dc ff ff    	jb     10538c <_ZN2os3hal3idt9init_irqsEv+0x29c>
  1076dc:	88 44 24 0f          	mov    BYTE PTR [esp+0xf],al
  1076e0:	50                   	push   eax
  1076e1:	50                   	push   eax
  1076e2:	55                   	push   ebp
  1076e3:	68 5c 31 11 00       	push   0x11315c
  1076e8:	e8 83 53 00 00       	call   10ca70 <__ubsan_handle_type_mismatch>
  1076ed:	83 c4 10             	add    esp,0x10
  1076f0:	0f b6 44 24 0f       	movzx  eax,BYTE PTR [esp+0xf]
  1076f5:	e9 92 dc ff ff       	jmp    10538c <_ZN2os3hal3idt9init_irqsEv+0x29c>
  1076fa:	81 c2 14 78 19 00    	add    edx,0x197814
  107700:	0f 82 68 dc ff ff    	jb     10536e <_ZN2os3hal3idt9init_irqsEv+0x27e>
  107706:	88 44 24 0f          	mov    BYTE PTR [esp+0xf],al
  10770a:	50                   	push   eax
  10770b:	50                   	push   eax
  10770c:	68 14 78 19 00       	push   0x197814
  107711:	68 74 31 11 00       	push   0x113174
  107716:	e8 55 53 00 00       	call   10ca70 <__ubsan_handle_type_mismatch>
  10771b:	83 c4 10             	add    esp,0x10
  10771e:	0f b6 44 24 0f       	movzx  eax,BYTE PTR [esp+0xf]
  107723:	e9 46 dc ff ff       	jmp    10536e <_ZN2os3hal3idt9init_irqsEv+0x27e>
  107728:	81 c2 16 78 19 00    	add    edx,0x197816
  10772e:	0f 82 21 dc ff ff    	jb     105355 <_ZN2os3hal3idt9init_irqsEv+0x265>
  107734:	88 44 24 0f          	mov    BYTE PTR [esp+0xf],al
  107738:	50                   	push   eax
  107739:	50                   	push   eax
  10773a:	68 16 78 19 00       	push   0x197816
  10773f:	68 8c 31 11 00       	push   0x11318c
  107744:	e8 27 53 00 00       	call   10ca70 <__ubsan_handle_type_mismatch>
  107749:	83 c4 10             	add    esp,0x10
  10774c:	0f b6 44 24 0f       	movzx  eax,BYTE PTR [esp+0xf]
  107751:	e9 ff db ff ff       	jmp    105355 <_ZN2os3hal3idt9init_irqsEv+0x265>
  107756:	81 c2 10 78 19 00    	add    edx,0x197810
  10775c:	0f 82 d7 db ff ff    	jb     105339 <_ZN2os3hal3idt9init_irqsEv+0x249>
  107762:	88 44 24 0f          	mov    BYTE PTR [esp+0xf],al
  107766:	50                   	push   eax
  107767:	50                   	push   eax
  107768:	68 10 78 19 00       	push   0x197810
  10776d:	68 a4 31 11 00       	push   0x1131a4
  107772:	e8 f9 52 00 00       	call   10ca70 <__ubsan_handle_type_mismatch>
  107777:	83 c4 10             	add    esp,0x10
  10777a:	0f b6 44 24 0f       	movzx  eax,BYTE PTR [esp+0xf]
  10777f:	e9 b5 db ff ff       	jmp    105339 <_ZN2os3hal3idt9init_irqsEv+0x249>
  107784:	81 c2 0a 78 19 00    	add    edx,0x19780a
  10778a:	0f 82 86 db ff ff    	jb     105316 <_ZN2os3hal3idt9init_irqsEv+0x226>
  107790:	88 44 24 0f          	mov    BYTE PTR [esp+0xf],al
  107794:	51                   	push   ecx
  107795:	51                   	push   ecx
  107796:	68 0a 78 19 00       	push   0x19780a
  10779b:	68 bc 31 11 00       	push   0x1131bc
  1077a0:	e8 cb 52 00 00       	call   10ca70 <__ubsan_handle_type_mismatch>
  1077a5:	83 c4 10             	add    esp,0x10
  1077a8:	0f b6 44 24 0f       	movzx  eax,BYTE PTR [esp+0xf]
  1077ad:	e9 64 db ff ff       	jmp    105316 <_ZN2os3hal3idt9init_irqsEv+0x226>
  1077b2:	81 c7 0d 78 19 00    	add    edi,0x19780d
  1077b8:	39 fd                	cmp    ebp,edi
  1077ba:	0f 87 3d db ff ff    	ja     1052fd <_ZN2os3hal3idt9init_irqsEv+0x20d>
  1077c0:	88 44 24 0f          	mov    BYTE PTR [esp+0xf],al
  1077c4:	57                   	push   edi
  1077c5:	57                   	push   edi
  1077c6:	68 0d 78 19 00       	push   0x19780d
  1077cb:	68 d4 31 11 00       	push   0x1131d4
  1077d0:	e8 9b 52 00 00       	call   10ca70 <__ubsan_handle_type_mismatch>
  1077d5:	83 c4 10             	add    esp,0x10
  1077d8:	0f b6 44 24 0f       	movzx  eax,BYTE PTR [esp+0xf]
  1077dd:	e9 1b db ff ff       	jmp    1052fd <_ZN2os3hal3idt9init_irqsEv+0x20d>
  1077e2:	8d 97 0d 78 19 00    	lea    edx,[edi+0x19780d]
  1077e8:	39 d5                	cmp    ebp,edx
  1077ea:	0f 87 e7 da ff ff    	ja     1052d7 <_ZN2os3hal3idt9init_irqsEv+0x1e7>
  1077f0:	88 44 24 0f          	mov    BYTE PTR [esp+0xf],al
  1077f4:	50                   	push   eax
  1077f5:	50                   	push   eax
  1077f6:	68 0d 78 19 00       	push   0x19780d
  1077fb:	68 ec 31 11 00       	push   0x1131ec
  107800:	e8 6b 52 00 00       	call   10ca70 <__ubsan_handle_type_mismatch>
  107805:	83 c4 10             	add    esp,0x10
  107808:	0f b6 44 24 0f       	movzx  eax,BYTE PTR [esp+0xf]
  10780d:	e9 c5 da ff ff       	jmp    1052d7 <_ZN2os3hal3idt9init_irqsEv+0x1e7>
  107812:	8d 97 0d 78 19 00    	lea    edx,[edi+0x19780d]
  107818:	39 d5                	cmp    ebp,edx
  10781a:	0f 87 91 da ff ff    	ja     1052b1 <_ZN2os3hal3idt9init_irqsEv+0x1c1>
  107820:	88 44 24 0f          	mov    BYTE PTR [esp+0xf],al
  107824:	50                   	push   eax
  107825:	50                   	push   eax
  107826:	68 0d 78 19 00       	push   0x19780d
  10782b:	68 04 32 11 00       	push   0x113204
  107830:	e8 3b 52 00 00       	call   10ca70 <__ubsan_handle_type_mismatch>
  107835:	83 c4 10             	add    esp,0x10
  107838:	0f b6 44 24 0f       	movzx  eax,BYTE PTR [esp+0xf]
  10783d:	e9 6f da ff ff       	jmp    1052b1 <_ZN2os3hal3idt9init_irqsEv+0x1c1>
  107842:	89 f9                	mov    ecx,edi
  107844:	01 e9                	add    ecx,ebp
  107846:	0f 82 45 da ff ff    	jb     105291 <_ZN2os3hal3idt9init_irqsEv+0x1a1>
  10784c:	88 44 24 0f          	mov    BYTE PTR [esp+0xf],al
  107850:	50                   	push   eax
  107851:	50                   	push   eax
  107852:	55                   	push   ebp
  107853:	68 1c 32 11 00       	push   0x11321c
  107858:	e8 13 52 00 00       	call   10ca70 <__ubsan_handle_type_mismatch>
  10785d:	83 c4 10             	add    esp,0x10
  107860:	0f b6 44 24 0f       	movzx  eax,BYTE PTR [esp+0xf]
  107865:	e9 27 da ff ff       	jmp    105291 <_ZN2os3hal3idt9init_irqsEv+0x1a1>
  10786a:	81 c2 0c 78 19 00    	add    edx,0x19780c
  107870:	0f 82 fd d9 ff ff    	jb     105273 <_ZN2os3hal3idt9init_irqsEv+0x183>
  107876:	88 44 24 0f          	mov    BYTE PTR [esp+0xf],al
  10787a:	50                   	push   eax
  10787b:	50                   	push   eax
  10787c:	68 0c 78 19 00       	push   0x19780c
  107881:	68 34 32 11 00       	push   0x113234
  107886:	e8 e5 51 00 00       	call   10ca70 <__ubsan_handle_type_mismatch>
  10788b:	83 c4 10             	add    esp,0x10
  10788e:	0f b6 44 24 0f       	movzx  eax,BYTE PTR [esp+0xf]
  107893:	e9 db d9 ff ff       	jmp    105273 <_ZN2os3hal3idt9init_irqsEv+0x183>
  107898:	81 c2 0e 78 19 00    	add    edx,0x19780e
  10789e:	0f 82 b6 d9 ff ff    	jb     10525a <_ZN2os3hal3idt9init_irqsEv+0x16a>
  1078a4:	88 44 24 0f          	mov    BYTE PTR [esp+0xf],al
  1078a8:	50                   	push   eax
  1078a9:	50                   	push   eax
  1078aa:	68 0e 78 19 00       	push   0x19780e
  1078af:	68 4c 32 11 00       	push   0x11324c
  1078b4:	e8 b7 51 00 00       	call   10ca70 <__ubsan_handle_type_mismatch>
  1078b9:	83 c4 10             	add    esp,0x10
  1078bc:	0f b6 44 24 0f       	movzx  eax,BYTE PTR [esp+0xf]
  1078c1:	e9 94 d9 ff ff       	jmp    10525a <_ZN2os3hal3idt9init_irqsEv+0x16a>
  1078c6:	81 c2 08 78 19 00    	add    edx,0x197808
  1078cc:	0f 82 6c d9 ff ff    	jb     10523e <_ZN2os3hal3idt9init_irqsEv+0x14e>
  1078d2:	88 44 24 0f          	mov    BYTE PTR [esp+0xf],al
  1078d6:	50                   	push   eax
  1078d7:	50                   	push   eax
  1078d8:	68 08 78 19 00       	push   0x197808
  1078dd:	68 64 32 11 00       	push   0x113264
  1078e2:	e8 89 51 00 00       	call   10ca70 <__ubsan_handle_type_mismatch>
  1078e7:	83 c4 10             	add    esp,0x10
  1078ea:	0f b6 44 24 0f       	movzx  eax,BYTE PTR [esp+0xf]
  1078ef:	e9 4a d9 ff ff       	jmp    10523e <_ZN2os3hal3idt9init_irqsEv+0x14e>
  1078f4:	81 c2 02 78 19 00    	add    edx,0x197802
  1078fa:	0f 82 1b d9 ff ff    	jb     10521b <_ZN2os3hal3idt9init_irqsEv+0x12b>
  107900:	88 44 24 0f          	mov    BYTE PTR [esp+0xf],al
  107904:	51                   	push   ecx
  107905:	51                   	push   ecx
  107906:	68 02 78 19 00       	push   0x197802
  10790b:	68 7c 32 11 00       	push   0x11327c
  107910:	e8 5b 51 00 00       	call   10ca70 <__ubsan_handle_type_mismatch>
  107915:	83 c4 10             	add    esp,0x10
  107918:	0f b6 44 24 0f       	movzx  eax,BYTE PTR [esp+0xf]
  10791d:	e9 f9 d8 ff ff       	jmp    10521b <_ZN2os3hal3idt9init_irqsEv+0x12b>
  107922:	81 c7 05 78 19 00    	add    edi,0x197805
  107928:	39 fd                	cmp    ebp,edi
  10792a:	0f 87 d2 d8 ff ff    	ja     105202 <_ZN2os3hal3idt9init_irqsEv+0x112>
  107930:	88 44 24 0f          	mov    BYTE PTR [esp+0xf],al
  107934:	57                   	push   edi
  107935:	57                   	push   edi
  107936:	68 05 78 19 00       	push   0x197805
  10793b:	68 94 32 11 00       	push   0x113294
  107940:	e8 2b 51 00 00       	call   10ca70 <__ubsan_handle_type_mismatch>
  107945:	83 c4 10             	add    esp,0x10
  107948:	0f b6 44 24 0f       	movzx  eax,BYTE PTR [esp+0xf]
  10794d:	e9 b0 d8 ff ff       	jmp    105202 <_ZN2os3hal3idt9init_irqsEv+0x112>
  107952:	8d 97 05 78 19 00    	lea    edx,[edi+0x197805]
  107958:	39 d5                	cmp    ebp,edx
  10795a:	0f 87 7c d8 ff ff    	ja     1051dc <_ZN2os3hal3idt9init_irqsEv+0xec>
  107960:	88 44 24 0f          	mov    BYTE PTR [esp+0xf],al
  107964:	50                   	push   eax
  107965:	50                   	push   eax
  107966:	68 05 78 19 00       	push   0x197805
  10796b:	68 ac 32 11 00       	push   0x1132ac
  107970:	e8 fb 50 00 00       	call   10ca70 <__ubsan_handle_type_mismatch>
  107975:	83 c4 10             	add    esp,0x10
  107978:	0f b6 44 24 0f       	movzx  eax,BYTE PTR [esp+0xf]
  10797d:	e9 5a d8 ff ff       	jmp    1051dc <_ZN2os3hal3idt9init_irqsEv+0xec>
  107982:	8d 97 05 78 19 00    	lea    edx,[edi+0x197805]
  107988:	39 d5                	cmp    ebp,edx
  10798a:	0f 87 26 d8 ff ff    	ja     1051b6 <_ZN2os3hal3idt9init_irqsEv+0xc6>
  107990:	88 44 24 0f          	mov    BYTE PTR [esp+0xf],al
  107994:	50                   	push   eax
  107995:	50                   	push   eax
  107996:	68 05 78 19 00       	push   0x197805
  10799b:	68 c4 32 11 00       	push   0x1132c4
  1079a0:	e8 cb 50 00 00       	call   10ca70 <__ubsan_handle_type_mismatch>
  1079a5:	83 c4 10             	add    esp,0x10
  1079a8:	0f b6 44 24 0f       	movzx  eax,BYTE PTR [esp+0xf]
  1079ad:	e9 04 d8 ff ff       	jmp    1051b6 <_ZN2os3hal3idt9init_irqsEv+0xc6>
  1079b2:	89 f9                	mov    ecx,edi
  1079b4:	01 e9                	add    ecx,ebp
  1079b6:	0f 82 da d7 ff ff    	jb     105196 <_ZN2os3hal3idt9init_irqsEv+0xa6>
  1079bc:	88 44 24 0f          	mov    BYTE PTR [esp+0xf],al
  1079c0:	50                   	push   eax
  1079c1:	50                   	push   eax
  1079c2:	55                   	push   ebp
  1079c3:	68 dc 32 11 00       	push   0x1132dc
  1079c8:	e8 a3 50 00 00       	call   10ca70 <__ubsan_handle_type_mismatch>
  1079cd:	83 c4 10             	add    esp,0x10
  1079d0:	0f b6 44 24 0f       	movzx  eax,BYTE PTR [esp+0xf]
  1079d5:	e9 bc d7 ff ff       	jmp    105196 <_ZN2os3hal3idt9init_irqsEv+0xa6>
  1079da:	81 c2 04 78 19 00    	add    edx,0x197804
  1079e0:	0f 82 92 d7 ff ff    	jb     105178 <_ZN2os3hal3idt9init_irqsEv+0x88>
  1079e6:	88 44 24 0f          	mov    BYTE PTR [esp+0xf],al
  1079ea:	50                   	push   eax
  1079eb:	50                   	push   eax
  1079ec:	68 04 78 19 00       	push   0x197804
  1079f1:	68 f4 32 11 00       	push   0x1132f4
  1079f6:	e8 75 50 00 00       	call   10ca70 <__ubsan_handle_type_mismatch>
  1079fb:	83 c4 10             	add    esp,0x10
  1079fe:	0f b6 44 24 0f       	movzx  eax,BYTE PTR [esp+0xf]
  107a03:	e9 70 d7 ff ff       	jmp    105178 <_ZN2os3hal3idt9init_irqsEv+0x88>
  107a08:	81 c2 06 78 19 00    	add    edx,0x197806
  107a0e:	0f 82 40 d7 ff ff    	jb     105154 <_ZN2os3hal3idt9init_irqsEv+0x64>
  107a14:	88 44 24 0f          	mov    BYTE PTR [esp+0xf],al
  107a18:	50                   	push   eax
  107a19:	50                   	push   eax
  107a1a:	68 06 78 19 00       	push   0x197806
  107a1f:	68 0c 33 11 00       	push   0x11330c
  107a24:	e8 47 50 00 00       	call   10ca70 <__ubsan_handle_type_mismatch>
  107a29:	83 c4 10             	add    esp,0x10
  107a2c:	0f b6 44 24 0f       	movzx  eax,BYTE PTR [esp+0xf]
  107a31:	e9 1e d7 ff ff       	jmp    105154 <_ZN2os3hal3idt9init_irqsEv+0x64>
  107a36:	8d 76 00             	lea    esi,[esi+0x0]
  107a39:	8d bc 27 00 00 00 00 	lea    edi,[edi+eiz*1+0x0]

00107a40 <_ZN2os3hal3idt4initEv>:
  107a40:	53                   	push   ebx
  107a41:	83 ec 0c             	sub    esp,0xc
  107a44:	fa                   	cli    
  107a45:	68 00 08 00 00       	push   0x800
  107a4a:	6a 00                	push   0x0
  107a4c:	68 00 77 19 00       	push   0x197700
  107a51:	e8 1a 40 00 00       	call   10ba70 <memset>
  107a56:	83 c4 0c             	add    esp,0xc
  107a59:	68 00 04 00 00       	push   0x400
  107a5e:	6a 00                	push   0x0
  107a60:	68 00 73 19 00       	push   0x197300
  107a65:	e8 06 40 00 00       	call   10ba70 <memset>
  107a6a:	e8 71 90 ff ff       	call   100ae0 <_ZN2os3hal3idt15init_exceptionsEv>
  107a6f:	b8 11 00 00 00       	mov    eax,0x11
  107a74:	ba 20 00 00 00       	mov    edx,0x20
  107a79:	ee                   	out    dx,al
  107a7a:	ba a0 00 00 00       	mov    edx,0xa0
  107a7f:	ee                   	out    dx,al
  107a80:	bb 21 00 00 00       	mov    ebx,0x21
  107a85:	b8 20 00 00 00       	mov    eax,0x20
  107a8a:	89 da                	mov    edx,ebx
  107a8c:	ee                   	out    dx,al
  107a8d:	b9 a1 00 00 00       	mov    ecx,0xa1
  107a92:	b8 28 00 00 00       	mov    eax,0x28
  107a97:	89 ca                	mov    edx,ecx
  107a99:	ee                   	out    dx,al
  107a9a:	b8 04 00 00 00       	mov    eax,0x4
  107a9f:	89 da                	mov    edx,ebx
  107aa1:	ee                   	out    dx,al
  107aa2:	b8 02 00 00 00       	mov    eax,0x2
  107aa7:	89 ca                	mov    edx,ecx
  107aa9:	ee                   	out    dx,al
  107aaa:	b8 01 00 00 00       	mov    eax,0x1
  107aaf:	89 da                	mov    edx,ebx
  107ab1:	ee                   	out    dx,al
  107ab2:	89 ca                	mov    edx,ecx
  107ab4:	ee                   	out    dx,al
  107ab5:	31 c0                	xor    eax,eax
  107ab7:	89 da                	mov    edx,ebx
  107ab9:	ee                   	out    dx,al
  107aba:	89 ca                	mov    edx,ecx
  107abc:	ee                   	out    dx,al
  107abd:	58                   	pop    eax
  107abe:	5a                   	pop    edx
  107abf:	68 86 10 11 00       	push   0x111086
  107ac4:	68 1d 11 11 00       	push   0x11111d
  107ac9:	e8 72 2a 00 00       	call   10a540 <printf>
  107ace:	e8 1d d6 ff ff       	call   1050f0 <_ZN2os3hal3idt9init_irqsEv>
  107ad3:	b9 ff 07 00 00       	mov    ecx,0x7ff
  107ad8:	c7 04 24 00 7f 19 00 	mov    DWORD PTR [esp],0x197f00
  107adf:	c7 05 02 7f 19 00 00 77 19 00 	mov    DWORD PTR ds:0x197f02,0x197700
  107ae9:	66 89 0d 00 7f 19 00 	mov    WORD PTR ds:0x197f00,cx
  107af0:	e8 a8 09 00 00       	call   10849d <_idt_flush>
  107af5:	fb                   	sti    
  107af6:	83 c4 10             	add    esp,0x10
  107af9:	c7 05 9c 73 19 00 60 08 10 00 	mov    DWORD PTR ds:0x19739c,0x100860
  107b03:	6a 27                	push   0x27
  107b05:	68 60 08 10 00       	push   0x100860
  107b0a:	68 86 10 11 00       	push   0x111086
  107b0f:	68 24 17 11 00       	push   0x111724
  107b14:	e8 27 2a 00 00       	call   10a540 <printf>
  107b19:	83 c4 0c             	add    esp,0xc
  107b1c:	68 00 7f 19 00       	push   0x197f00
  107b21:	68 74 10 11 00       	push   0x111074
  107b26:	68 54 17 11 00       	push   0x111754
  107b2b:	e8 10 2a 00 00       	call   10a540 <printf>
  107b30:	83 c4 18             	add    esp,0x18
  107b33:	5b                   	pop    ebx
  107b34:	c3                   	ret    
  107b35:	8d 74 26 00          	lea    esi,[esi+eiz*1+0x0]
  107b39:	8d bc 27 00 00 00 00 	lea    edi,[edi+eiz*1+0x0]

00107b40 <_ZN2os3hal3idt14set_descriptorEhjNS0_11idt_flags_tEt>:
  107b40:	55                   	push   ebp
  107b41:	57                   	push   edi
  107b42:	bd 02 00 00 00       	mov    ebp,0x2
  107b47:	56                   	push   esi
  107b48:	53                   	push   ebx
  107b49:	81 ed 00 77 19 00    	sub    ebp,0x197700
  107b4f:	83 ec 1c             	sub    esp,0x1c
  107b52:	0f b6 5c 24 30       	movzx  ebx,BYTE PTR [esp+0x30]
  107b57:	8b 44 24 3c          	mov    eax,DWORD PTR [esp+0x3c]
  107b5b:	8b 74 24 34          	mov    esi,DWORD PTR [esp+0x34]
  107b5f:	89 44 24 04          	mov    DWORD PTR [esp+0x4],eax
  107b63:	8d 3c dd 00 00 00 00 	lea    edi,[ebx*8+0x0]
  107b6a:	8d 87 00 77 19 00    	lea    eax,[edi+0x197700]
  107b70:	8d 14 28             	lea    edx,[eax+ebp*1]
  107b73:	81 fa 00 08 00 00    	cmp    edx,0x800
  107b79:	0f 87 11 01 00 00    	ja     107c90 <_ZN2os3hal3idt14set_descriptorEhjNS0_11idt_flags_tEt+0x150>
  107b7f:	8d 87 06 77 19 00    	lea    eax,[edi+0x197706]
  107b85:	66 89 34 dd 00 77 19 00 	mov    WORD PTR [ebx*8+0x197700],si
  107b8d:	c1 ee 10             	shr    esi,0x10
  107b90:	8d 14 28             	lea    edx,[eax+ebp*1]
  107b93:	81 fa 00 08 00 00    	cmp    edx,0x800
  107b99:	0f 87 e7 01 00 00    	ja     107d86 <_ZN2os3hal3idt14set_descriptorEhjNS0_11idt_flags_tEt+0x246>
  107b9f:	66 89 34 dd 06 77 19 00 	mov    WORD PTR [ebx*8+0x197706],si
  107ba7:	8d 87 04 77 19 00    	lea    eax,[edi+0x197704]
  107bad:	be 01 00 00 00       	mov    esi,0x1
  107bb2:	81 ee 00 77 19 00    	sub    esi,0x197700
  107bb8:	8d 14 30             	lea    edx,[eax+esi*1]
  107bbb:	81 fa 00 08 00 00    	cmp    edx,0x800
  107bc1:	0f 87 a2 01 00 00    	ja     107d69 <_ZN2os3hal3idt14set_descriptorEhjNS0_11idt_flags_tEt+0x229>
  107bc7:	0f b6 4c 24 38       	movzx  ecx,BYTE PTR [esp+0x38]
  107bcc:	8d 97 05 77 19 00    	lea    edx,[edi+0x197705]
  107bd2:	c6 04 dd 04 77 19 00 00 	mov    BYTE PTR [ebx*8+0x197704],0x0
  107bda:	01 d6                	add    esi,edx
  107bdc:	83 e1 0f             	and    ecx,0xf
  107bdf:	81 fe 00 08 00 00    	cmp    esi,0x800
  107be5:	0f 87 4e 01 00 00    	ja     107d39 <_ZN2os3hal3idt14set_descriptorEhjNS0_11idt_flags_tEt+0x1f9>
  107beb:	0f b6 04 dd 05 77 19 00 	movzx  eax,BYTE PTR [ebx*8+0x197705]
  107bf3:	83 e0 f0             	and    eax,0xfffffff0
  107bf6:	09 c8                	or     eax,ecx
  107bf8:	88 04 dd 05 77 19 00 	mov    BYTE PTR [ebx*8+0x197705],al
  107bff:	0f b6 44 24 38       	movzx  eax,BYTE PTR [esp+0x38]
  107c04:	c0 e8 05             	shr    al,0x5
  107c07:	83 e0 03             	and    eax,0x3
  107c0a:	81 fe 00 08 00 00    	cmp    esi,0x800
  107c10:	0f 87 f3 00 00 00    	ja     107d09 <_ZN2os3hal3idt14set_descriptorEhjNS0_11idt_flags_tEt+0x1c9>
  107c16:	0f b6 0c dd 05 77 19 00 	movzx  ecx,BYTE PTR [ebx*8+0x197705]
  107c1e:	83 e0 03             	and    eax,0x3
  107c21:	c1 e0 05             	shl    eax,0x5
  107c24:	83 e1 9f             	and    ecx,0xffffff9f
  107c27:	09 c8                	or     eax,ecx
  107c29:	88 04 dd 05 77 19 00 	mov    BYTE PTR [ebx*8+0x197705],al
  107c30:	0f b6 44 24 38       	movzx  eax,BYTE PTR [esp+0x38]
  107c35:	c0 e8 07             	shr    al,0x7
  107c38:	81 fe 00 08 00 00    	cmp    esi,0x800
  107c3e:	0f 87 95 00 00 00    	ja     107cd9 <_ZN2os3hal3idt14set_descriptorEhjNS0_11idt_flags_tEt+0x199>
  107c44:	0f b6 0c dd 05 77 19 00 	movzx  ecx,BYTE PTR [ebx*8+0x197705]
  107c4c:	c1 e0 07             	shl    eax,0x7
  107c4f:	83 e1 7f             	and    ecx,0x7f
  107c52:	09 c8                	or     eax,ecx
  107c54:	81 fe 00 08 00 00    	cmp    esi,0x800
  107c5a:	88 04 dd 05 77 19 00 	mov    BYTE PTR [ebx*8+0x197705],al
  107c61:	77 60                	ja     107cc3 <_ZN2os3hal3idt14set_descriptorEhjNS0_11idt_flags_tEt+0x183>
  107c63:	81 c7 02 77 19 00    	add    edi,0x197702
  107c69:	80 24 dd 05 77 19 00 ef 	and    BYTE PTR [ebx*8+0x197705],0xef
  107c71:	01 fd                	add    ebp,edi
  107c73:	81 fd 00 08 00 00    	cmp    ebp,0x800
  107c79:	77 32                	ja     107cad <_ZN2os3hal3idt14set_descriptorEhjNS0_11idt_flags_tEt+0x16d>
  107c7b:	0f b7 44 24 04       	movzx  eax,WORD PTR [esp+0x4]
  107c80:	66 89 04 dd 02 77 19 00 	mov    WORD PTR [ebx*8+0x197702],ax
  107c88:	83 c4 1c             	add    esp,0x1c
  107c8b:	5b                   	pop    ebx
  107c8c:	5e                   	pop    esi
  107c8d:	5f                   	pop    edi
  107c8e:	5d                   	pop    ebp
  107c8f:	c3                   	ret    
  107c90:	01 c2                	add    edx,eax
  107c92:	0f 82 e7 fe ff ff    	jb     107b7f <_ZN2os3hal3idt14set_descriptorEhjNS0_11idt_flags_tEt+0x3f>
  107c98:	52                   	push   edx
  107c99:	52                   	push   edx
  107c9a:	50                   	push   eax
  107c9b:	68 20 26 11 00       	push   0x112620
  107ca0:	e8 cb 4d 00 00       	call   10ca70 <__ubsan_handle_type_mismatch>
  107ca5:	83 c4 10             	add    esp,0x10
  107ca8:	e9 d2 fe ff ff       	jmp    107b7f <_ZN2os3hal3idt14set_descriptorEhjNS0_11idt_flags_tEt+0x3f>
  107cad:	01 fd                	add    ebp,edi
  107caf:	72 ca                	jb     107c7b <_ZN2os3hal3idt14set_descriptorEhjNS0_11idt_flags_tEt+0x13b>
  107cb1:	50                   	push   eax
  107cb2:	50                   	push   eax
  107cb3:	57                   	push   edi
  107cb4:	68 44 24 11 00       	push   0x112444
  107cb9:	e8 b2 4d 00 00       	call   10ca70 <__ubsan_handle_type_mismatch>
  107cbe:	83 c4 10             	add    esp,0x10
  107cc1:	eb b8                	jmp    107c7b <_ZN2os3hal3idt14set_descriptorEhjNS0_11idt_flags_tEt+0x13b>
  107cc3:	01 d6                	add    esi,edx
  107cc5:	72 9c                	jb     107c63 <_ZN2os3hal3idt14set_descriptorEhjNS0_11idt_flags_tEt+0x123>
  107cc7:	51                   	push   ecx
  107cc8:	51                   	push   ecx
  107cc9:	52                   	push   edx
  107cca:	68 88 24 11 00       	push   0x112488
  107ccf:	e8 9c 4d 00 00       	call   10ca70 <__ubsan_handle_type_mismatch>
  107cd4:	83 c4 10             	add    esp,0x10
  107cd7:	eb 8a                	jmp    107c63 <_ZN2os3hal3idt14set_descriptorEhjNS0_11idt_flags_tEt+0x123>
  107cd9:	89 d1                	mov    ecx,edx
  107cdb:	01 f1                	add    ecx,esi
  107cdd:	0f 82 61 ff ff ff    	jb     107c44 <_ZN2os3hal3idt14set_descriptorEhjNS0_11idt_flags_tEt+0x104>
  107ce3:	88 44 24 0f          	mov    BYTE PTR [esp+0xf],al
  107ce7:	50                   	push   eax
  107ce8:	50                   	push   eax
  107ce9:	52                   	push   edx
  107cea:	89 54 24 14          	mov    DWORD PTR [esp+0x14],edx
  107cee:	68 cc 24 11 00       	push   0x1124cc
  107cf3:	e8 78 4d 00 00       	call   10ca70 <__ubsan_handle_type_mismatch>
  107cf8:	83 c4 10             	add    esp,0x10
  107cfb:	0f b6 44 24 0f       	movzx  eax,BYTE PTR [esp+0xf]
  107d00:	8b 54 24 08          	mov    edx,DWORD PTR [esp+0x8]
  107d04:	e9 3b ff ff ff       	jmp    107c44 <_ZN2os3hal3idt14set_descriptorEhjNS0_11idt_flags_tEt+0x104>
  107d09:	89 d1                	mov    ecx,edx
  107d0b:	01 f1                	add    ecx,esi
  107d0d:	0f 82 03 ff ff ff    	jb     107c16 <_ZN2os3hal3idt14set_descriptorEhjNS0_11idt_flags_tEt+0xd6>
  107d13:	88 44 24 0f          	mov    BYTE PTR [esp+0xf],al
  107d17:	50                   	push   eax
  107d18:	50                   	push   eax
  107d19:	52                   	push   edx
  107d1a:	89 54 24 14          	mov    DWORD PTR [esp+0x14],edx
  107d1e:	68 10 25 11 00       	push   0x112510
  107d23:	e8 48 4d 00 00       	call   10ca70 <__ubsan_handle_type_mismatch>
  107d28:	83 c4 10             	add    esp,0x10
  107d2b:	0f b6 44 24 0f       	movzx  eax,BYTE PTR [esp+0xf]
  107d30:	8b 54 24 08          	mov    edx,DWORD PTR [esp+0x8]
  107d34:	e9 dd fe ff ff       	jmp    107c16 <_ZN2os3hal3idt14set_descriptorEhjNS0_11idt_flags_tEt+0xd6>
  107d39:	89 d0                	mov    eax,edx
  107d3b:	01 f0                	add    eax,esi
  107d3d:	0f 82 a8 fe ff ff    	jb     107beb <_ZN2os3hal3idt14set_descriptorEhjNS0_11idt_flags_tEt+0xab>
  107d43:	88 4c 24 0f          	mov    BYTE PTR [esp+0xf],cl
  107d47:	50                   	push   eax
  107d48:	50                   	push   eax
  107d49:	52                   	push   edx
  107d4a:	89 54 24 14          	mov    DWORD PTR [esp+0x14],edx
  107d4e:	68 54 25 11 00       	push   0x112554
  107d53:	e8 18 4d 00 00       	call   10ca70 <__ubsan_handle_type_mismatch>
  107d58:	83 c4 10             	add    esp,0x10
  107d5b:	0f b6 4c 24 0f       	movzx  ecx,BYTE PTR [esp+0xf]
  107d60:	8b 54 24 08          	mov    edx,DWORD PTR [esp+0x8]
  107d64:	e9 82 fe ff ff       	jmp    107beb <_ZN2os3hal3idt14set_descriptorEhjNS0_11idt_flags_tEt+0xab>
  107d69:	01 c2                	add    edx,eax
  107d6b:	0f 82 56 fe ff ff    	jb     107bc7 <_ZN2os3hal3idt14set_descriptorEhjNS0_11idt_flags_tEt+0x87>
  107d71:	52                   	push   edx
  107d72:	52                   	push   edx
  107d73:	50                   	push   eax
  107d74:	68 98 25 11 00       	push   0x112598
  107d79:	e8 f2 4c 00 00       	call   10ca70 <__ubsan_handle_type_mismatch>
  107d7e:	83 c4 10             	add    esp,0x10
  107d81:	e9 41 fe ff ff       	jmp    107bc7 <_ZN2os3hal3idt14set_descriptorEhjNS0_11idt_flags_tEt+0x87>
  107d86:	01 c2                	add    edx,eax
  107d88:	0f 82 11 fe ff ff    	jb     107b9f <_ZN2os3hal3idt14set_descriptorEhjNS0_11idt_flags_tEt+0x5f>
  107d8e:	51                   	push   ecx
  107d8f:	51                   	push   ecx
  107d90:	50                   	push   eax
  107d91:	68 dc 25 11 00       	push   0x1125dc
  107d96:	e8 d5 4c 00 00       	call   10ca70 <__ubsan_handle_type_mismatch>
  107d9b:	83 c4 10             	add    esp,0x10
  107d9e:	e9 fc fd ff ff       	jmp    107b9f <_ZN2os3hal3idt14set_descriptorEhjNS0_11idt_flags_tEt+0x5f>
  107da3:	8d b6 00 00 00 00    	lea    esi,[esi+0x0]
  107da9:	8d bc 27 00 00 00 00 	lea    edi,[edi+eiz*1+0x0]

00107db0 <_ZN2os3hal3idt12register_irqENS0_3IRQEPFvPNS0_15idt_registers_tEE>:
  107db0:	56                   	push   esi
  107db1:	53                   	push   ebx
  107db2:	83 ec 14             	sub    esp,0x14
  107db5:	8b 5c 24 24          	mov    ebx,DWORD PTR [esp+0x24]
  107db9:	8b 44 24 20          	mov    eax,DWORD PTR [esp+0x20]
  107dbd:	85 db                	test   ebx,ebx
  107dbf:	74 3f                	je     107e00 <_ZN2os3hal3idt12register_irqENS0_3IRQEPFvPNS0_15idt_registers_tEE+0x50>
  107dc1:	0f b6 f0             	movzx  esi,al
  107dc4:	8d 14 b5 00 73 19 00 	lea    edx,[esi*4+0x197300]
  107dcb:	89 d1                	mov    ecx,edx
  107dcd:	81 e9 fc 72 19 00    	sub    ecx,0x1972fc
  107dd3:	81 f9 00 04 00 00    	cmp    ecx,0x400
  107dd9:	77 3f                	ja     107e1a <_ZN2os3hal3idt12register_irqENS0_3IRQEPFvPNS0_15idt_registers_tEE+0x6a>
  107ddb:	50                   	push   eax
  107ddc:	53                   	push   ebx
  107ddd:	68 86 10 11 00       	push   0x111086
  107de2:	68 24 17 11 00       	push   0x111724
  107de7:	89 1c b5 00 73 19 00 	mov    DWORD PTR [esi*4+0x197300],ebx
  107dee:	e8 4d 27 00 00       	call   10a540 <printf>
  107df3:	83 c4 24             	add    esp,0x24
  107df6:	5b                   	pop    ebx
  107df7:	5e                   	pop    esi
  107df8:	c3                   	ret    
  107df9:	8d b4 26 00 00 00 00 	lea    esi,[esi+eiz*1+0x0]
  107e00:	89 44 24 0c          	mov    DWORD PTR [esp+0xc],eax
  107e04:	83 ec 0c             	sub    esp,0xc
  107e07:	68 78 17 11 00       	push   0x111778
  107e0c:	e8 8f 3a 00 00       	call   10b8a0 <perror>
  107e11:	83 c4 10             	add    esp,0x10
  107e14:	8b 44 24 0c          	mov    eax,DWORD PTR [esp+0xc]
  107e18:	eb a7                	jmp    107dc1 <_ZN2os3hal3idt12register_irqENS0_3IRQEPFvPNS0_15idt_registers_tEE+0x11>
  107e1a:	01 d1                	add    ecx,edx
  107e1c:	72 bd                	jb     107ddb <_ZN2os3hal3idt12register_irqENS0_3IRQEPFvPNS0_15idt_registers_tEE+0x2b>
  107e1e:	89 44 24 0c          	mov    DWORD PTR [esp+0xc],eax
  107e22:	50                   	push   eax
  107e23:	50                   	push   eax
  107e24:	52                   	push   edx
  107e25:	68 00 24 11 00       	push   0x112400
  107e2a:	e8 41 4c 00 00       	call   10ca70 <__ubsan_handle_type_mismatch>
  107e2f:	83 c4 10             	add    esp,0x10
  107e32:	8b 44 24 0c          	mov    eax,DWORD PTR [esp+0xc]
  107e36:	eb a3                	jmp    107ddb <_ZN2os3hal3idt12register_irqENS0_3IRQEPFvPNS0_15idt_registers_tEE+0x2b>
  107e38:	90                   	nop
  107e39:	8d b4 26 00 00 00 00 	lea    esi,[esi+eiz*1+0x0]

00107e40 <_ZN2os3hal3idt14unregister_irqENS0_3IRQE>:
  107e40:	57                   	push   edi
  107e41:	56                   	push   esi
  107e42:	53                   	push   ebx
  107e43:	83 ec 10             	sub    esp,0x10
  107e46:	8b 44 24 20          	mov    eax,DWORD PTR [esp+0x20]
  107e4a:	0f b6 d8             	movzx  ebx,al
  107e4d:	8d 3c 9d 00 73 19 00 	lea    edi,[ebx*4+0x197300]
  107e54:	89 fe                	mov    esi,edi
  107e56:	81 ee fc 72 19 00    	sub    esi,0x1972fc
  107e5c:	81 fe 00 04 00 00    	cmp    esi,0x400
  107e62:	77 3b                	ja     107e9f <_ZN2os3hal3idt14unregister_irqENS0_3IRQE+0x5f>
  107e64:	8b 14 9d 00 73 19 00 	mov    edx,DWORD PTR [ebx*4+0x197300]
  107e6b:	85 d2                	test   edx,edx
  107e6d:	74 29                	je     107e98 <_ZN2os3hal3idt14unregister_irqENS0_3IRQE+0x58>
  107e6f:	81 fe 00 04 00 00    	cmp    esi,0x400
  107e75:	77 48                	ja     107ebf <_ZN2os3hal3idt14unregister_irqENS0_3IRQE+0x7f>
  107e77:	83 ec 04             	sub    esp,0x4
  107e7a:	c7 04 9d 00 73 19 00 00 00 00 00 	mov    DWORD PTR [ebx*4+0x197300],0x0
  107e85:	50                   	push   eax
  107e86:	68 86 10 11 00       	push   0x111086
  107e8b:	68 a4 17 11 00       	push   0x1117a4
  107e90:	e8 ab 26 00 00       	call   10a540 <printf>
  107e95:	83 c4 10             	add    esp,0x10
  107e98:	83 c4 10             	add    esp,0x10
  107e9b:	5b                   	pop    ebx
  107e9c:	5e                   	pop    esi
  107e9d:	5f                   	pop    edi
  107e9e:	c3                   	ret    
  107e9f:	89 fa                	mov    edx,edi
  107ea1:	01 f2                	add    edx,esi
  107ea3:	72 bf                	jb     107e64 <_ZN2os3hal3idt14unregister_irqENS0_3IRQE+0x24>
  107ea5:	89 44 24 0c          	mov    DWORD PTR [esp+0xc],eax
  107ea9:	51                   	push   ecx
  107eaa:	51                   	push   ecx
  107eab:	57                   	push   edi
  107eac:	68 bc 23 11 00       	push   0x1123bc
  107eb1:	e8 ba 4b 00 00       	call   10ca70 <__ubsan_handle_type_mismatch>
  107eb6:	83 c4 10             	add    esp,0x10
  107eb9:	8b 44 24 0c          	mov    eax,DWORD PTR [esp+0xc]
  107ebd:	eb a5                	jmp    107e64 <_ZN2os3hal3idt14unregister_irqENS0_3IRQE+0x24>
  107ebf:	01 fe                	add    esi,edi
  107ec1:	72 b4                	jb     107e77 <_ZN2os3hal3idt14unregister_irqENS0_3IRQE+0x37>
  107ec3:	89 44 24 0c          	mov    DWORD PTR [esp+0xc],eax
  107ec7:	50                   	push   eax
  107ec8:	50                   	push   eax
  107ec9:	57                   	push   edi
  107eca:	68 78 23 11 00       	push   0x112378
  107ecf:	e8 9c 4b 00 00       	call   10ca70 <__ubsan_handle_type_mismatch>
  107ed4:	83 c4 10             	add    esp,0x10
  107ed7:	8b 44 24 0c          	mov    eax,DWORD PTR [esp+0xc]
  107edb:	eb 9a                	jmp    107e77 <_ZN2os3hal3idt14unregister_irqENS0_3IRQE+0x37>
  107edd:	8d 76 00             	lea    esi,[esi+0x0]

00107ee0 <_ZN2os3hal3idt7ack_irqEPNS0_15idt_registers_tE>:
  107ee0:	53                   	push   ebx
  107ee1:	83 ec 08             	sub    esp,0x8
  107ee4:	8b 5c 24 10          	mov    ebx,DWORD PTR [esp+0x10]
  107ee8:	85 db                	test   ebx,ebx
  107eea:	74 21                	je     107f0d <_ZN2os3hal3idt7ack_irqEPNS0_15idt_registers_tE+0x2d>
  107eec:	83 7b 20 27          	cmp    DWORD PTR [ebx+0x20],0x27
  107ef0:	76 0b                	jbe    107efd <_ZN2os3hal3idt7ack_irqEPNS0_15idt_registers_tE+0x1d>
  107ef2:	b8 20 00 00 00       	mov    eax,0x20
  107ef7:	ba a0 00 00 00       	mov    edx,0xa0
  107efc:	ee                   	out    dx,al
  107efd:	b8 20 00 00 00       	mov    eax,0x20
  107f02:	ba 20 00 00 00       	mov    edx,0x20
  107f07:	ee                   	out    dx,al
  107f08:	83 c4 08             	add    esp,0x8
  107f0b:	5b                   	pop    ebx
  107f0c:	c3                   	ret    
  107f0d:	50                   	push   eax
  107f0e:	50                   	push   eax
  107f0f:	6a 00                	push   0x0
  107f11:	68 60 23 11 00       	push   0x112360
  107f16:	e8 55 4b 00 00       	call   10ca70 <__ubsan_handle_type_mismatch>
  107f1b:	83 c4 10             	add    esp,0x10
  107f1e:	eb cc                	jmp    107eec <_ZN2os3hal3idt7ack_irqEPNS0_15idt_registers_tE+0xc>

00107f20 <exception_stub>:
  107f20:	60                   	pusha  
  107f21:	b8 10 00 00 00       	mov    eax,0x10
  107f26:	8e d8                	mov    ds,eax
  107f28:	8e c0                	mov    es,eax
  107f2a:	8e e0                	mov    fs,eax
  107f2c:	8e e8                	mov    gs,eax
  107f2e:	8e d0                	mov    ss,eax
  107f30:	54                   	push   esp
  107f31:	e8 3a 89 ff ff       	call   100870 <exception_handler>
  107f36:	83 c4 04             	add    esp,0x4
  107f39:	b8 10 00 00 00       	mov    eax,0x10
  107f3e:	8e d8                	mov    ds,eax
  107f40:	8e c0                	mov    es,eax
  107f42:	8e e0                	mov    fs,eax
  107f44:	8e e8                	mov    gs,eax
  107f46:	8e d0                	mov    ss,eax
  107f48:	61                   	popa   
  107f49:	83 c4 08             	add    esp,0x8
  107f4c:	fb                   	sti    
  107f4d:	cf                   	iret   

00107f4e <irq_stub>:
  107f4e:	50                   	push   eax
  107f4f:	51                   	push   ecx
  107f50:	52                   	push   edx
  107f51:	53                   	push   ebx
  107f52:	54                   	push   esp
  107f53:	55                   	push   ebp
  107f54:	56                   	push   esi
  107f55:	57                   	push   edi
  107f56:	b8 10 00 00 00       	mov    eax,0x10
  107f5b:	8e d8                	mov    ds,eax
  107f5d:	8e c0                	mov    es,eax
  107f5f:	8e e0                	mov    fs,eax
  107f61:	8e e8                	mov    gs,eax
  107f63:	8e d0                	mov    ss,eax
  107f65:	54                   	push   esp
  107f66:	e8 25 8a ff ff       	call   100990 <irq_handler>
  107f6b:	83 c4 04             	add    esp,0x4
  107f6e:	b8 10 00 00 00       	mov    eax,0x10
  107f73:	8e d8                	mov    ds,eax
  107f75:	8e c0                	mov    es,eax
  107f77:	8e e0                	mov    fs,eax
  107f79:	8e e8                	mov    gs,eax
  107f7b:	8e d0                	mov    ss,eax
  107f7d:	5f                   	pop    edi
  107f7e:	5e                   	pop    esi
  107f7f:	5d                   	pop    ebp
  107f80:	5c                   	pop    esp
  107f81:	5b                   	pop    ebx
  107f82:	5a                   	pop    edx
  107f83:	59                   	pop    ecx
  107f84:	58                   	pop    eax
  107f85:	83 c4 08             	add    esp,0x8
  107f88:	fb                   	sti    
  107f89:	cf                   	iret   

00107f8a <isr0>:
  107f8a:	fa                   	cli    
  107f8b:	6a 00                	push   0x0
  107f8d:	6a 00                	push   0x0
  107f8f:	eb 8f                	jmp    107f20 <exception_stub>

00107f91 <isr1>:
  107f91:	fa                   	cli    
  107f92:	6a 00                	push   0x0
  107f94:	6a 01                	push   0x1
  107f96:	eb 88                	jmp    107f20 <exception_stub>

00107f98 <isr2>:
  107f98:	fa                   	cli    
  107f99:	6a 00                	push   0x0
  107f9b:	6a 02                	push   0x2
  107f9d:	eb 81                	jmp    107f20 <exception_stub>

00107f9f <isr3>:
  107f9f:	fa                   	cli    
  107fa0:	6a 00                	push   0x0
  107fa2:	6a 03                	push   0x3
  107fa4:	e9 77 ff ff ff       	jmp    107f20 <exception_stub>

00107fa9 <isr4>:
  107fa9:	fa                   	cli    
  107faa:	6a 00                	push   0x0
  107fac:	6a 04                	push   0x4
  107fae:	e9 6d ff ff ff       	jmp    107f20 <exception_stub>

00107fb3 <isr5>:
  107fb3:	fa                   	cli    
  107fb4:	6a 00                	push   0x0
  107fb6:	6a 05                	push   0x5
  107fb8:	e9 63 ff ff ff       	jmp    107f20 <exception_stub>

00107fbd <isr6>:
  107fbd:	fa                   	cli    
  107fbe:	6a 00                	push   0x0
  107fc0:	6a 06                	push   0x6
  107fc2:	e9 59 ff ff ff       	jmp    107f20 <exception_stub>

00107fc7 <isr7>:
  107fc7:	fa                   	cli    
  107fc8:	6a 00                	push   0x0
  107fca:	6a 07                	push   0x7
  107fcc:	e9 4f ff ff ff       	jmp    107f20 <exception_stub>

00107fd1 <isr8>:
  107fd1:	fa                   	cli    
  107fd2:	6a 08                	push   0x8
  107fd4:	e9 47 ff ff ff       	jmp    107f20 <exception_stub>

00107fd9 <isr9>:
  107fd9:	fa                   	cli    
  107fda:	6a 00                	push   0x0
  107fdc:	6a 09                	push   0x9
  107fde:	e9 3d ff ff ff       	jmp    107f20 <exception_stub>

00107fe3 <isr10>:
  107fe3:	fa                   	cli    
  107fe4:	6a 0a                	push   0xa
  107fe6:	e9 35 ff ff ff       	jmp    107f20 <exception_stub>

00107feb <isr11>:
  107feb:	fa                   	cli    
  107fec:	6a 0b                	push   0xb
  107fee:	e9 2d ff ff ff       	jmp    107f20 <exception_stub>

00107ff3 <isr12>:
  107ff3:	fa                   	cli    
  107ff4:	6a 0c                	push   0xc
  107ff6:	e9 25 ff ff ff       	jmp    107f20 <exception_stub>

00107ffb <isr13>:
  107ffb:	fa                   	cli    
  107ffc:	6a 0d                	push   0xd
  107ffe:	e9 1d ff ff ff       	jmp    107f20 <exception_stub>

00108003 <isr14>:
  108003:	fa                   	cli    
  108004:	6a 0e                	push   0xe
  108006:	e9 15 ff ff ff       	jmp    107f20 <exception_stub>

0010800b <isr15>:
  10800b:	fa                   	cli    
  10800c:	6a 00                	push   0x0
  10800e:	6a 0f                	push   0xf
  108010:	e9 0b ff ff ff       	jmp    107f20 <exception_stub>

00108015 <isr16>:
  108015:	fa                   	cli    
  108016:	6a 00                	push   0x0
  108018:	6a 10                	push   0x10
  10801a:	e9 01 ff ff ff       	jmp    107f20 <exception_stub>

0010801f <isr17>:
  10801f:	fa                   	cli    
  108020:	6a 00                	push   0x0
  108022:	6a 11                	push   0x11
  108024:	e9 f7 fe ff ff       	jmp    107f20 <exception_stub>

00108029 <isr18>:
  108029:	fa                   	cli    
  10802a:	6a 00                	push   0x0
  10802c:	6a 12                	push   0x12
  10802e:	e9 ed fe ff ff       	jmp    107f20 <exception_stub>

00108033 <isr19>:
  108033:	fa                   	cli    
  108034:	6a 00                	push   0x0
  108036:	6a 13                	push   0x13
  108038:	e9 e3 fe ff ff       	jmp    107f20 <exception_stub>

0010803d <isr20>:
  10803d:	fa                   	cli    
  10803e:	6a 00                	push   0x0
  108040:	6a 14                	push   0x14
  108042:	e9 d9 fe ff ff       	jmp    107f20 <exception_stub>

00108047 <isr21>:
  108047:	fa                   	cli    
  108048:	6a 00                	push   0x0
  10804a:	6a 15                	push   0x15
  10804c:	e9 cf fe ff ff       	jmp    107f20 <exception_stub>

00108051 <isr22>:
  108051:	fa                   	cli    
  108052:	6a 00                	push   0x0
  108054:	6a 16                	push   0x16
  108056:	e9 c5 fe ff ff       	jmp    107f20 <exception_stub>

0010805b <isr23>:
  10805b:	fa                   	cli    
  10805c:	6a 00                	push   0x0
  10805e:	6a 17                	push   0x17
  108060:	e9 bb fe ff ff       	jmp    107f20 <exception_stub>

00108065 <isr24>:
  108065:	fa                   	cli    
  108066:	6a 00                	push   0x0
  108068:	6a 18                	push   0x18
  10806a:	e9 b1 fe ff ff       	jmp    107f20 <exception_stub>

0010806f <isr25>:
  10806f:	fa                   	cli    
  108070:	6a 00                	push   0x0
  108072:	6a 19                	push   0x19
  108074:	e9 a7 fe ff ff       	jmp    107f20 <exception_stub>

00108079 <isr26>:
  108079:	fa                   	cli    
  10807a:	6a 00                	push   0x0
  10807c:	6a 1a                	push   0x1a
  10807e:	e9 9d fe ff ff       	jmp    107f20 <exception_stub>

00108083 <isr27>:
  108083:	fa                   	cli    
  108084:	6a 00                	push   0x0
  108086:	6a 1b                	push   0x1b
  108088:	e9 93 fe ff ff       	jmp    107f20 <exception_stub>

0010808d <isr28>:
  10808d:	fa                   	cli    
  10808e:	6a 00                	push   0x0
  108090:	6a 1c                	push   0x1c
  108092:	e9 89 fe ff ff       	jmp    107f20 <exception_stub>

00108097 <isr29>:
  108097:	fa                   	cli    
  108098:	6a 00                	push   0x0
  10809a:	6a 1d                	push   0x1d
  10809c:	e9 7f fe ff ff       	jmp    107f20 <exception_stub>

001080a1 <isr30>:
  1080a1:	fa                   	cli    
  1080a2:	6a 00                	push   0x0
  1080a4:	6a 1e                	push   0x1e
  1080a6:	e9 75 fe ff ff       	jmp    107f20 <exception_stub>

001080ab <isr31>:
  1080ab:	fa                   	cli    
  1080ac:	6a 00                	push   0x0
  1080ae:	6a 1f                	push   0x1f
  1080b0:	e9 6b fe ff ff       	jmp    107f20 <exception_stub>

001080b5 <irq0>:
  1080b5:	fa                   	cli    
  1080b6:	6a 00                	push   0x0
  1080b8:	6a 20                	push   0x20
  1080ba:	e9 8f fe ff ff       	jmp    107f4e <irq_stub>

001080bf <irq1>:
  1080bf:	fa                   	cli    
  1080c0:	6a 01                	push   0x1
  1080c2:	6a 21                	push   0x21
  1080c4:	e9 85 fe ff ff       	jmp    107f4e <irq_stub>

001080c9 <irq2>:
  1080c9:	fa                   	cli    
  1080ca:	6a 02                	push   0x2
  1080cc:	6a 22                	push   0x22
  1080ce:	e9 7b fe ff ff       	jmp    107f4e <irq_stub>

001080d3 <irq3>:
  1080d3:	fa                   	cli    
  1080d4:	6a 03                	push   0x3
  1080d6:	6a 23                	push   0x23
  1080d8:	e9 71 fe ff ff       	jmp    107f4e <irq_stub>

001080dd <irq4>:
  1080dd:	fa                   	cli    
  1080de:	6a 04                	push   0x4
  1080e0:	6a 24                	push   0x24
  1080e2:	e9 67 fe ff ff       	jmp    107f4e <irq_stub>

001080e7 <irq5>:
  1080e7:	fa                   	cli    
  1080e8:	6a 05                	push   0x5
  1080ea:	6a 25                	push   0x25
  1080ec:	e9 5d fe ff ff       	jmp    107f4e <irq_stub>

001080f1 <irq6>:
  1080f1:	fa                   	cli    
  1080f2:	6a 06                	push   0x6
  1080f4:	6a 26                	push   0x26
  1080f6:	e9 53 fe ff ff       	jmp    107f4e <irq_stub>

001080fb <irq7>:
  1080fb:	fa                   	cli    
  1080fc:	6a 07                	push   0x7
  1080fe:	6a 27                	push   0x27
  108100:	e9 49 fe ff ff       	jmp    107f4e <irq_stub>

00108105 <irq8>:
  108105:	fa                   	cli    
  108106:	6a 08                	push   0x8
  108108:	6a 28                	push   0x28
  10810a:	e9 3f fe ff ff       	jmp    107f4e <irq_stub>

0010810f <irq9>:
  10810f:	fa                   	cli    
  108110:	6a 09                	push   0x9
  108112:	6a 29                	push   0x29
  108114:	e9 35 fe ff ff       	jmp    107f4e <irq_stub>

00108119 <irq10>:
  108119:	fa                   	cli    
  10811a:	6a 0a                	push   0xa
  10811c:	6a 2a                	push   0x2a
  10811e:	e9 2b fe ff ff       	jmp    107f4e <irq_stub>

00108123 <irq11>:
  108123:	fa                   	cli    
  108124:	6a 0b                	push   0xb
  108126:	6a 2b                	push   0x2b
  108128:	e9 21 fe ff ff       	jmp    107f4e <irq_stub>

0010812d <irq12>:
  10812d:	fa                   	cli    
  10812e:	6a 0c                	push   0xc
  108130:	6a 2c                	push   0x2c
  108132:	e9 17 fe ff ff       	jmp    107f4e <irq_stub>

00108137 <irq13>:
  108137:	fa                   	cli    
  108138:	6a 0d                	push   0xd
  10813a:	6a 2d                	push   0x2d
  10813c:	e9 0d fe ff ff       	jmp    107f4e <irq_stub>

00108141 <irq14>:
  108141:	fa                   	cli    
  108142:	6a 0e                	push   0xe
  108144:	6a 2e                	push   0x2e
  108146:	e9 03 fe ff ff       	jmp    107f4e <irq_stub>

0010814b <irq15>:
  10814b:	fa                   	cli    
  10814c:	6a 0f                	push   0xf
  10814e:	6a 2f                	push   0x2f
  108150:	e9 f9 fd ff ff       	jmp    107f4e <irq_stub>

00108155 <irq128>:
  108155:	fa                   	cli    
  108156:	68 80 00 00 00       	push   0x80
  10815b:	68 a0 00 00 00       	push   0xa0
  108160:	e9 e9 fd ff ff       	jmp    107f4e <irq_stub>
  108165:	66 90                	xchg   ax,ax
  108167:	66 90                	xchg   ax,ax
  108169:	66 90                	xchg   ax,ax
  10816b:	66 90                	xchg   ax,ax
  10816d:	66 90                	xchg   ax,ax
  10816f:	90                   	nop

00108170 <_ZN2os6kernel4bootEv>:
  108170:	53                   	push   ebx
  108171:	83 ec 14             	sub    esp,0x14
  108174:	68 f8 03 00 00       	push   0x3f8
  108179:	e8 92 80 ff ff       	call   100210 <_ZN2os3sys5debug4initENS_3hal11serial_portE>
  10817e:	5a                   	pop    edx
  10817f:	59                   	pop    ecx
  108180:	68 86 10 11 00       	push   0x111086
  108185:	68 12 13 11 00       	push   0x111312
  10818a:	e8 b1 23 00 00       	call   10a540 <printf>
  10818f:	5b                   	pop    ebx
  108190:	58                   	pop    eax
  108191:	ff 35 60 7f 19 00    	push   DWORD PTR ds:0x197f60
  108197:	68 28 13 11 00       	push   0x111328
  10819c:	e8 9f 23 00 00       	call   10a540 <printf>
  1081a1:	58                   	pop    eax
  1081a2:	5a                   	pop    edx
  1081a3:	ff 35 38 7f 19 00    	push   DWORD PTR ds:0x197f38
  1081a9:	68 3e 13 11 00       	push   0x11133e
  1081ae:	e8 8d 23 00 00       	call   10a540 <printf>
  1081b3:	59                   	pop    ecx
  1081b4:	5b                   	pop    ebx
  1081b5:	ff 35 34 7f 19 00    	push   DWORD PTR ds:0x197f34
  1081bb:	68 57 13 11 00       	push   0x111357
  1081c0:	bb 00 00 00 fd       	mov    ebx,0xfd000000
  1081c5:	e8 76 23 00 00       	call   10a540 <printf>
  1081ca:	e8 21 86 ff ff       	call   1007f0 <_ZN2os3hal3gdt4initEv>
  1081cf:	e8 6c f8 ff ff       	call   107a40 <_ZN2os3hal3idt4initEv>
  1081d4:	83 c4 10             	add    esp,0x10
  1081d7:	89 f6                	mov    esi,esi
  1081d9:	8d bc 27 00 00 00 00 	lea    edi,[edi+eiz*1+0x0]
  1081e0:	85 db                	test   ebx,ebx
  1081e2:	74 16                	je     1081fa <_ZN2os6kernel4bootEv+0x8a>
  1081e4:	c7 03 7f 7f 00 ff    	mov    DWORD PTR [ebx],0xff007f7f
  1081ea:	83 c3 04             	add    ebx,0x4
  1081ed:	81 fb 00 c0 12 fd    	cmp    ebx,0xfd12c000
  1081f3:	75 eb                	jne    1081e0 <_ZN2os6kernel4bootEv+0x70>
  1081f5:	83 c4 08             	add    esp,0x8
  1081f8:	5b                   	pop    ebx
  1081f9:	c3                   	ret    
  1081fa:	50                   	push   eax
  1081fb:	50                   	push   eax
  1081fc:	6a 00                	push   0x0
  1081fe:	68 6c 4d 11 00       	push   0x114d6c
  108203:	e8 68 48 00 00       	call   10ca70 <__ubsan_handle_type_mismatch>
  108208:	83 c4 10             	add    esp,0x10
  10820b:	eb d7                	jmp    1081e4 <_ZN2os6kernel4bootEv+0x74>
  10820d:	8d 76 00             	lea    esi,[esi+0x0]

00108210 <kernel_main>:
  108210:	57                   	push   edi
  108211:	56                   	push   esi
  108212:	83 ec 04             	sub    esp,0x4
  108215:	8b 74 24 10          	mov    esi,DWORD PTR [esp+0x10]
  108219:	85 f6                	test   esi,esi
  10821b:	74 16                	je     108233 <kernel_main+0x23>
  10821d:	bf 20 7f 19 00       	mov    edi,0x197f20
  108222:	b9 18 00 00 00       	mov    ecx,0x18
  108227:	f3 a5                	rep movs DWORD PTR es:[edi],DWORD PTR ds:[esi]
  108229:	e8 42 ff ff ff       	call   108170 <_ZN2os6kernel4bootEv>
  10822e:	e8 ed 4b 00 00       	call   10ce20 <_ZN2os6kernel4mainEv>
  108233:	50                   	push   eax
  108234:	50                   	push   eax
  108235:	6a 00                	push   0x0
  108237:	68 34 4d 11 00       	push   0x114d34
  10823c:	e8 2f 48 00 00       	call   10ca70 <__ubsan_handle_type_mismatch>
  108241:	83 c4 10             	add    esp,0x10
  108244:	eb d7                	jmp    10821d <kernel_main+0xd>
  108246:	66 90                	xchg   ax,ax
  108248:	66 90                	xchg   ax,ax
  10824a:	66 90                	xchg   ax,ax
  10824c:	66 90                	xchg   ax,ax
  10824e:	66 90                	xchg   ax,ax

00108250 <abs>:
  108250:	83 ec 1c             	sub    esp,0x1c
  108253:	8b 44 24 20          	mov    eax,DWORD PTR [esp+0x20]
  108257:	f7 d8                	neg    eax
  108259:	70 09                	jo     108264 <abs+0x14>
  10825b:	99                   	cdq    
  10825c:	83 c4 1c             	add    esp,0x1c
  10825f:	31 d0                	xor    eax,edx
  108261:	29 d0                	sub    eax,edx
  108263:	c3                   	ret    
  108264:	89 44 24 0c          	mov    DWORD PTR [esp+0xc],eax
  108268:	50                   	push   eax
  108269:	50                   	push   eax
  10826a:	68 00 00 00 80       	push   0x80000000
  10826f:	68 a8 4d 11 00       	push   0x114da8
  108274:	e8 c7 49 00 00       	call   10cc40 <__ubsan_handle_negate_overflow>
  108279:	83 c4 10             	add    esp,0x10
  10827c:	8b 44 24 0c          	mov    eax,DWORD PTR [esp+0xc]
  108280:	eb d9                	jmp    10825b <abs+0xb>
  108282:	8d b4 26 00 00 00 00 	lea    esi,[esi+eiz*1+0x0]
  108289:	8d bc 27 00 00 00 00 	lea    edi,[edi+eiz*1+0x0]

00108290 <clamp>:
  108290:	8b 44 24 04          	mov    eax,DWORD PTR [esp+0x4]
  108294:	8b 4c 24 08          	mov    ecx,DWORD PTR [esp+0x8]
  108298:	8b 54 24 0c          	mov    edx,DWORD PTR [esp+0xc]
  10829c:	39 c8                	cmp    eax,ecx
  10829e:	0f 4c c1             	cmovl  eax,ecx
  1082a1:	39 c2                	cmp    edx,eax
  1082a3:	0f 4e c2             	cmovle eax,edx
  1082a6:	c3                   	ret    
  1082a7:	89 f6                	mov    esi,esi
  1082a9:	8d bc 27 00 00 00 00 	lea    edi,[edi+eiz*1+0x0]

001082b0 <ceil>:
  1082b0:	53                   	push   ebx
  1082b1:	83 ec 18             	sub    esp,0x18
  1082b4:	d9 7c 24 0e          	fnstcw WORD PTR [esp+0xe]
  1082b8:	0f b7 44 24 0e       	movzx  eax,WORD PTR [esp+0xe]
  1082bd:	dd 44 24 20          	fld    QWORD PTR [esp+0x20]
  1082c1:	b4 0c                	mov    ah,0xc
  1082c3:	66 89 44 24 0c       	mov    WORD PTR [esp+0xc],ax
  1082c8:	d9 6c 24 0c          	fldcw  WORD PTR [esp+0xc]
  1082cc:	db 54 24 04          	fist   DWORD PTR [esp+0x4]
  1082d0:	d9 6c 24 0e          	fldcw  WORD PTR [esp+0xe]
  1082d4:	db 44 24 04          	fild   DWORD PTR [esp+0x4]
  1082d8:	df e9                	fucomip st,st(1)
  1082da:	dd d8                	fstp   st(0)
  1082dc:	7a 02                	jp     1082e0 <ceil+0x30>
  1082de:	74 0f                	je     1082ef <ceil+0x3f>
  1082e0:	8b 44 24 04          	mov    eax,DWORD PTR [esp+0x4]
  1082e4:	83 c0 01             	add    eax,0x1
  1082e7:	89 c3                	mov    ebx,eax
  1082e9:	70 0d                	jo     1082f8 <ceil+0x48>
  1082eb:	89 5c 24 04          	mov    DWORD PTR [esp+0x4],ebx
  1082ef:	db 44 24 04          	fild   DWORD PTR [esp+0x4]
  1082f3:	83 c4 18             	add    esp,0x18
  1082f6:	5b                   	pop    ebx
  1082f7:	c3                   	ret    
  1082f8:	50                   	push   eax
  1082f9:	6a 01                	push   0x1
  1082fb:	ff 74 24 0c          	push   DWORD PTR [esp+0xc]
  1082ff:	68 98 4d 11 00       	push   0x114d98
  108304:	e8 47 48 00 00       	call   10cb50 <__ubsan_handle_add_overflow>
  108309:	83 c4 10             	add    esp,0x10
  10830c:	eb dd                	jmp    1082eb <ceil+0x3b>
  10830e:	66 90                	xchg   ax,ax

00108310 <floor>:
  108310:	83 ec 24             	sub    esp,0x24
  108313:	d9 05 88 18 11 00    	fld    DWORD PTR ds:0x111888
  108319:	dd 44 24 28          	fld    QWORD PTR [esp+0x28]
  10831d:	db e9                	fucomi st,st(1)
  10831f:	73 6f                	jae    108390 <floor+0x80>
  108321:	d9 05 8c 18 11 00    	fld    DWORD PTR ds:0x11188c
  108327:	df e9                	fucomip st,st(1)
  108329:	73 75                	jae    1083a0 <floor+0x90>
  10832b:	db e8                	fucomi st,st(0)
  10832d:	7a 75                	jp     1083a4 <floor+0x94>
  10832f:	db e9                	fucomi st,st(1)
  108331:	73 7d                	jae    1083b0 <floor+0xa0>
  108333:	dd d9                	fstp   st(1)
  108335:	d9 7c 24 16          	fnstcw WORD PTR [esp+0x16]
  108339:	0f b7 44 24 16       	movzx  eax,WORD PTR [esp+0x16]
  10833e:	b4 0c                	mov    ah,0xc
  108340:	66 89 44 24 14       	mov    WORD PTR [esp+0x14],ax
  108345:	d9 c0                	fld    st(0)
  108347:	d9 6c 24 14          	fldcw  WORD PTR [esp+0x14]
  10834b:	df 3c 24             	fistp  QWORD PTR [esp]
  10834e:	d9 6c 24 16          	fldcw  WORD PTR [esp+0x16]
  108352:	8b 44 24 04          	mov    eax,DWORD PTR [esp+0x4]
  108356:	df 2c 24             	fild   QWORD PTR [esp]
  108359:	85 c0                	test   eax,eax
  10835b:	79 06                	jns    108363 <floor+0x53>
  10835d:	d8 05 90 18 11 00    	fadd   DWORD PTR ds:0x111890
  108363:	dd 5c 24 18          	fstp   QWORD PTR [esp+0x18]
  108367:	dd 44 24 18          	fld    QWORD PTR [esp+0x18]
  10836b:	d9 c9                	fxch   st(1)
  10836d:	db e9                	fucomi st,st(1)
  10836f:	7a 02                	jp     108373 <floor+0x63>
  108371:	74 0d                	je     108380 <floor+0x70>
  108373:	d9 ee                	fldz   
  108375:	d9 c9                	fxch   st(1)
  108377:	df e9                	fucomip st,st(1)
  108379:	dd d8                	fstp   st(0)
  10837b:	72 73                	jb     1083f0 <floor+0xe0>
  10837d:	eb 03                	jmp    108382 <floor+0x72>
  10837f:	90                   	nop
  108380:	dd d8                	fstp   st(0)
  108382:	eb 22                	jmp    1083a6 <floor+0x96>
  108384:	8d b6 00 00 00 00    	lea    esi,[esi+0x0]
  10838a:	8d bf 00 00 00 00    	lea    edi,[edi+0x0]
  108390:	dd d9                	fstp   st(1)
  108392:	eb 12                	jmp    1083a6 <floor+0x96>
  108394:	8d b6 00 00 00 00    	lea    esi,[esi+0x0]
  10839a:	8d bf 00 00 00 00    	lea    edi,[edi+0x0]
  1083a0:	dd d9                	fstp   st(1)
  1083a2:	eb 02                	jmp    1083a6 <floor+0x96>
  1083a4:	dd d9                	fstp   st(1)
  1083a6:	83 c4 24             	add    esp,0x24
  1083a9:	c3                   	ret    
  1083aa:	8d b6 00 00 00 00    	lea    esi,[esi+0x0]
  1083b0:	d9 7c 24 16          	fnstcw WORD PTR [esp+0x16]
  1083b4:	0f b7 44 24 16       	movzx  eax,WORD PTR [esp+0x16]
  1083b9:	dc e1                	fsubr  st(1),st
  1083bb:	d9 c9                	fxch   st(1)
  1083bd:	b4 0c                	mov    ah,0xc
  1083bf:	66 89 44 24 14       	mov    WORD PTR [esp+0x14],ax
  1083c4:	d9 6c 24 14          	fldcw  WORD PTR [esp+0x14]
  1083c8:	df 3c 24             	fistp  QWORD PTR [esp]
  1083cb:	d9 6c 24 16          	fldcw  WORD PTR [esp+0x16]
  1083cf:	8b 44 24 04          	mov    eax,DWORD PTR [esp+0x4]
  1083d3:	05 00 00 00 80       	add    eax,0x80000000
  1083d8:	89 44 24 04          	mov    DWORD PTR [esp+0x4],eax
  1083dc:	e9 71 ff ff ff       	jmp    108352 <floor+0x42>
  1083e1:	eb 0d                	jmp    1083f0 <floor+0xe0>
  1083e3:	90                   	nop
  1083e4:	90                   	nop
  1083e5:	90                   	nop
  1083e6:	90                   	nop
  1083e7:	90                   	nop
  1083e8:	90                   	nop
  1083e9:	90                   	nop
  1083ea:	90                   	nop
  1083eb:	90                   	nop
  1083ec:	90                   	nop
  1083ed:	90                   	nop
  1083ee:	90                   	nop
  1083ef:	90                   	nop
  1083f0:	d8 25 94 18 11 00    	fsub   DWORD PTR ds:0x111894
  1083f6:	eb ae                	jmp    1083a6 <floor+0x96>
  1083f8:	90                   	nop
  1083f9:	8d b4 26 00 00 00 00 	lea    esi,[esi+eiz*1+0x0]

00108400 <pow>:
  108400:	53                   	push   ebx
  108401:	83 ec 18             	sub    esp,0x18
  108404:	8b 5c 24 28          	mov    ebx,DWORD PTR [esp+0x28]
  108408:	dd 44 24 20          	fld    QWORD PTR [esp+0x20]
  10840c:	85 db                	test   ebx,ebx
  10840e:	75 10                	jne    108420 <pow+0x20>
  108410:	dd d8                	fstp   st(0)
  108412:	d9 e8                	fld1   
  108414:	83 c4 18             	add    esp,0x18
  108417:	5b                   	pop    ebx
  108418:	c3                   	ret    
  108419:	8d b4 26 00 00 00 00 	lea    esi,[esi+eiz*1+0x0]
  108420:	89 d8                	mov    eax,ebx
  108422:	83 ec 04             	sub    esp,0x4
  108425:	c1 e8 1f             	shr    eax,0x1f
  108428:	01 d8                	add    eax,ebx
  10842a:	d1 f8                	sar    eax,1
  10842c:	50                   	push   eax
  10842d:	83 ec 08             	sub    esp,0x8
  108430:	dd 14 24             	fst    QWORD PTR [esp]
  108433:	dd 5c 24 18          	fstp   QWORD PTR [esp+0x18]
  108437:	e8 c4 ff ff ff       	call   108400 <pow>
  10843c:	83 c4 10             	add    esp,0x10
  10843f:	f6 c3 01             	test   bl,0x1
  108442:	dd 44 24 08          	fld    QWORD PTR [esp+0x8]
  108446:	74 18                	je     108460 <pow+0x60>
  108448:	85 db                	test   ebx,ebx
  10844a:	7e 24                	jle    108470 <pow+0x70>
  10844c:	d8 c9                	fmul   st,st(1)
  10844e:	de c9                	fmulp  st(1),st
  108450:	eb c2                	jmp    108414 <pow+0x14>
  108452:	8d b4 26 00 00 00 00 	lea    esi,[esi+eiz*1+0x0]
  108459:	8d bc 27 00 00 00 00 	lea    edi,[edi+eiz*1+0x0]
  108460:	dd d8                	fstp   st(0)
  108462:	d8 c8                	fmul   st,st(0)
  108464:	eb ae                	jmp    108414 <pow+0x14>
  108466:	8d 76 00             	lea    esi,[esi+0x0]
  108469:	8d bc 27 00 00 00 00 	lea    edi,[edi+eiz*1+0x0]
  108470:	d9 c9                	fxch   st(1)
  108472:	d8 c8                	fmul   st,st(0)
  108474:	de f1                	fdivrp st(1),st
  108476:	eb 9c                	jmp    108414 <pow+0x14>
  108478:	66 90                	xchg   ax,ax
  10847a:	66 90                	xchg   ax,ax
  10847c:	66 90                	xchg   ax,ax
  10847e:	66 90                	xchg   ax,ax

00108480 <_gdt_flush>:
  108480:	8b 44 24 04          	mov    eax,DWORD PTR [esp+0x4]
  108484:	0f 01 10             	lgdtd  [eax]
  108487:	ea 8e 84 10 00 08 00 	jmp    0x8:0x10848e

0010848e <_gdt_flush.done>:
  10848e:	66 b8 10 00          	mov    ax,0x10
  108492:	8e d8                	mov    ds,eax
  108494:	8e c0                	mov    es,eax
  108496:	8e e0                	mov    fs,eax
  108498:	8e e8                	mov    gs,eax
  10849a:	8e d0                	mov    ss,eax
  10849c:	c3                   	ret    

0010849d <_idt_flush>:
  10849d:	8b 44 24 04          	mov    eax,DWORD PTR [esp+0x4]
  1084a1:	0f 01 18             	lidtd  [eax]
  1084a4:	ea ab 84 10 00 08 00 	jmp    0x8:0x1084ab

001084ab <_idt_flush.done>:
  1084ab:	66 b8 10 00          	mov    ax,0x10
  1084af:	8e d8                	mov    ds,eax
  1084b1:	8e c0                	mov    es,eax
  1084b3:	8e e0                	mov    fs,eax
  1084b5:	8e e8                	mov    gs,eax
  1084b7:	8e d0                	mov    ss,eax
  1084b9:	c3                   	ret    

001084ba <_read_cr0>:
  1084ba:	0f 20 c0             	mov    eax,cr0
  1084bd:	c3                   	ret    

001084be <_read_cr2>:
  1084be:	0f 20 d0             	mov    eax,cr2
  1084c1:	c3                   	ret    

001084c2 <_read_cr3>:
  1084c2:	0f 20 d8             	mov    eax,cr3
  1084c5:	c3                   	ret    

001084c6 <_read_cr4>:
  1084c6:	0f 20 e0             	mov    eax,cr4
  1084c9:	c3                   	ret    

001084ca <_write_cr0>:
  1084ca:	8b 44 24 04          	mov    eax,DWORD PTR [esp+0x4]
  1084ce:	0f 22 c0             	mov    cr0,eax
  1084d1:	c3                   	ret    

001084d2 <_write_cr3>:
  1084d2:	8b 44 24 04          	mov    eax,DWORD PTR [esp+0x4]
  1084d6:	0f 22 d8             	mov    cr3,eax
  1084d9:	c3                   	ret    

001084da <_write_cr4>:
  1084da:	8b 44 24 04          	mov    eax,DWORD PTR [esp+0x4]
  1084de:	0f 22 e0             	mov    cr4,eax
  1084e1:	c3                   	ret    
  1084e2:	66 90                	xchg   ax,ax
  1084e4:	66 90                	xchg   ax,ax
  1084e6:	66 90                	xchg   ax,ax
  1084e8:	66 90                	xchg   ax,ax
  1084ea:	66 90                	xchg   ax,ax
  1084ec:	66 90                	xchg   ax,ax
  1084ee:	66 90                	xchg   ax,ax

001084f0 <_ZN2os3hal17serial_controller5beginENS0_11serial_portE>:
  1084f0:	55                   	push   ebp
  1084f1:	57                   	push   edi
  1084f2:	56                   	push   esi
  1084f3:	53                   	push   ebx
  1084f4:	83 ec 0c             	sub    esp,0xc
  1084f7:	8b 5c 24 20          	mov    ebx,DWORD PTR [esp+0x20]
  1084fb:	8b 74 24 24          	mov    esi,DWORD PTR [esp+0x24]
  1084ff:	85 db                	test   ebx,ebx
  108501:	0f 84 13 02 00 00    	je     10871a <_ZN2os3hal17serial_controller5beginENS0_11serial_portE+0x22a>
  108507:	f6 c3 01             	test   bl,0x1
  10850a:	0f 85 0a 02 00 00    	jne    10871a <_ZN2os3hal17serial_controller5beginENS0_11serial_portE+0x22a>
  108510:	85 db                	test   ebx,ebx
  108512:	66 89 33             	mov    WORD PTR [ebx],si
  108515:	0f 84 ea 01 00 00    	je     108705 <_ZN2os3hal17serial_controller5beginENS0_11serial_portE+0x215>
  10851b:	f6 c3 01             	test   bl,0x1
  10851e:	0f 85 e1 01 00 00    	jne    108705 <_ZN2os3hal17serial_controller5beginENS0_11serial_portE+0x215>
  108524:	8d 6e 01             	lea    ebp,[esi+0x1]
  108527:	31 c0                	xor    eax,eax
  108529:	89 ea                	mov    edx,ebp
  10852b:	ee                   	out    dx,al
  10852c:	85 db                	test   ebx,ebx
  10852e:	0f 84 bc 01 00 00    	je     1086f0 <_ZN2os3hal17serial_controller5beginENS0_11serial_portE+0x200>
  108534:	f6 c3 01             	test   bl,0x1
  108537:	0f 85 b3 01 00 00    	jne    1086f0 <_ZN2os3hal17serial_controller5beginENS0_11serial_portE+0x200>
  10853d:	8d 7e 03             	lea    edi,[esi+0x3]
  108540:	b8 80 ff ff ff       	mov    eax,0xffffff80
  108545:	89 fa                	mov    edx,edi
  108547:	ee                   	out    dx,al
  108548:	85 db                	test   ebx,ebx
  10854a:	0f 84 8b 01 00 00    	je     1086db <_ZN2os3hal17serial_controller5beginENS0_11serial_portE+0x1eb>
  108550:	f6 c3 01             	test   bl,0x1
  108553:	0f 85 82 01 00 00    	jne    1086db <_ZN2os3hal17serial_controller5beginENS0_11serial_portE+0x1eb>
  108559:	b8 03 00 00 00       	mov    eax,0x3
  10855e:	89 f2                	mov    edx,esi
  108560:	ee                   	out    dx,al
  108561:	85 db                	test   ebx,ebx
  108563:	0f 84 5d 01 00 00    	je     1086c6 <_ZN2os3hal17serial_controller5beginENS0_11serial_portE+0x1d6>
  108569:	f6 c3 01             	test   bl,0x1
  10856c:	0f 85 54 01 00 00    	jne    1086c6 <_ZN2os3hal17serial_controller5beginENS0_11serial_portE+0x1d6>
  108572:	31 c0                	xor    eax,eax
  108574:	89 ea                	mov    edx,ebp
  108576:	ee                   	out    dx,al
  108577:	85 db                	test   ebx,ebx
  108579:	0f 84 32 01 00 00    	je     1086b1 <_ZN2os3hal17serial_controller5beginENS0_11serial_portE+0x1c1>
  10857f:	f6 c3 01             	test   bl,0x1
  108582:	0f 85 29 01 00 00    	jne    1086b1 <_ZN2os3hal17serial_controller5beginENS0_11serial_portE+0x1c1>
  108588:	b8 03 00 00 00       	mov    eax,0x3
  10858d:	89 fa                	mov    edx,edi
  10858f:	ee                   	out    dx,al
  108590:	85 db                	test   ebx,ebx
  108592:	0f 84 04 01 00 00    	je     10869c <_ZN2os3hal17serial_controller5beginENS0_11serial_portE+0x1ac>
  108598:	f6 c3 01             	test   bl,0x1
  10859b:	0f 85 fb 00 00 00    	jne    10869c <_ZN2os3hal17serial_controller5beginENS0_11serial_portE+0x1ac>
  1085a1:	8d 56 02             	lea    edx,[esi+0x2]
  1085a4:	b8 c7 ff ff ff       	mov    eax,0xffffffc7
  1085a9:	ee                   	out    dx,al
  1085aa:	85 db                	test   ebx,ebx
  1085ac:	0f 84 d5 00 00 00    	je     108687 <_ZN2os3hal17serial_controller5beginENS0_11serial_portE+0x197>
  1085b2:	f6 c3 01             	test   bl,0x1
  1085b5:	0f 85 cc 00 00 00    	jne    108687 <_ZN2os3hal17serial_controller5beginENS0_11serial_portE+0x197>
  1085bb:	8d 7e 04             	lea    edi,[esi+0x4]
  1085be:	b8 0b 00 00 00       	mov    eax,0xb
  1085c3:	89 fa                	mov    edx,edi
  1085c5:	ee                   	out    dx,al
  1085c6:	85 db                	test   ebx,ebx
  1085c8:	0f 84 a4 00 00 00    	je     108672 <_ZN2os3hal17serial_controller5beginENS0_11serial_portE+0x182>
  1085ce:	f6 c3 01             	test   bl,0x1
  1085d1:	0f 85 9b 00 00 00    	jne    108672 <_ZN2os3hal17serial_controller5beginENS0_11serial_portE+0x182>
  1085d7:	b8 1e 00 00 00       	mov    eax,0x1e
  1085dc:	89 fa                	mov    edx,edi
  1085de:	ee                   	out    dx,al
  1085df:	85 db                	test   ebx,ebx
  1085e1:	74 7a                	je     10865d <_ZN2os3hal17serial_controller5beginENS0_11serial_portE+0x16d>
  1085e3:	f6 c3 01             	test   bl,0x1
  1085e6:	75 75                	jne    10865d <_ZN2os3hal17serial_controller5beginENS0_11serial_portE+0x16d>
  1085e8:	b8 ae ff ff ff       	mov    eax,0xffffffae
  1085ed:	89 f2                	mov    edx,esi
  1085ef:	ee                   	out    dx,al
  1085f0:	85 db                	test   ebx,ebx
  1085f2:	74 57                	je     10864b <_ZN2os3hal17serial_controller5beginENS0_11serial_portE+0x15b>
  1085f4:	f6 c3 01             	test   bl,0x1
  1085f7:	75 52                	jne    10864b <_ZN2os3hal17serial_controller5beginENS0_11serial_portE+0x15b>
  1085f9:	89 f2                	mov    edx,esi
  1085fb:	ec                   	in     al,dx
  1085fc:	3c ae                	cmp    al,0xae
  1085fe:	74 20                	je     108620 <_ZN2os3hal17serial_controller5beginENS0_11serial_portE+0x130>
  108600:	85 db                	test   ebx,ebx
  108602:	0f 84 27 01 00 00    	je     10872f <_ZN2os3hal17serial_controller5beginENS0_11serial_portE+0x23f>
  108608:	f6 c3 01             	test   bl,0x1
  10860b:	0f 85 1e 01 00 00    	jne    10872f <_ZN2os3hal17serial_controller5beginENS0_11serial_portE+0x23f>
  108611:	31 d2                	xor    edx,edx
  108613:	66 89 13             	mov    WORD PTR [ebx],dx
  108616:	83 c4 0c             	add    esp,0xc
  108619:	5b                   	pop    ebx
  10861a:	5e                   	pop    esi
  10861b:	5f                   	pop    edi
  10861c:	5d                   	pop    ebp
  10861d:	c3                   	ret    
  10861e:	66 90                	xchg   ax,ax
  108620:	85 db                	test   ebx,ebx
  108622:	74 15                	je     108639 <_ZN2os3hal17serial_controller5beginENS0_11serial_portE+0x149>
  108624:	f6 c3 01             	test   bl,0x1
  108627:	75 10                	jne    108639 <_ZN2os3hal17serial_controller5beginENS0_11serial_portE+0x149>
  108629:	b8 0f 00 00 00       	mov    eax,0xf
  10862e:	89 fa                	mov    edx,edi
  108630:	ee                   	out    dx,al
  108631:	83 c4 0c             	add    esp,0xc
  108634:	5b                   	pop    ebx
  108635:	5e                   	pop    esi
  108636:	5f                   	pop    edi
  108637:	5d                   	pop    ebp
  108638:	c3                   	ret    
  108639:	50                   	push   eax
  10863a:	50                   	push   eax
  10863b:	53                   	push   ebx
  10863c:	68 d8 5a 11 00       	push   0x115ad8
  108641:	e8 2a 44 00 00       	call   10ca70 <__ubsan_handle_type_mismatch>
  108646:	83 c4 10             	add    esp,0x10
  108649:	eb de                	jmp    108629 <_ZN2os3hal17serial_controller5beginENS0_11serial_portE+0x139>
  10864b:	55                   	push   ebp
  10864c:	55                   	push   ebp
  10864d:	53                   	push   ebx
  10864e:	68 08 5b 11 00       	push   0x115b08
  108653:	e8 18 44 00 00       	call   10ca70 <__ubsan_handle_type_mismatch>
  108658:	83 c4 10             	add    esp,0x10
  10865b:	eb 9c                	jmp    1085f9 <_ZN2os3hal17serial_controller5beginENS0_11serial_portE+0x109>
  10865d:	50                   	push   eax
  10865e:	50                   	push   eax
  10865f:	53                   	push   ebx
  108660:	68 20 5b 11 00       	push   0x115b20
  108665:	e8 06 44 00 00       	call   10ca70 <__ubsan_handle_type_mismatch>
  10866a:	83 c4 10             	add    esp,0x10
  10866d:	e9 76 ff ff ff       	jmp    1085e8 <_ZN2os3hal17serial_controller5beginENS0_11serial_portE+0xf8>
  108672:	50                   	push   eax
  108673:	50                   	push   eax
  108674:	53                   	push   ebx
  108675:	68 38 5b 11 00       	push   0x115b38
  10867a:	e8 f1 43 00 00       	call   10ca70 <__ubsan_handle_type_mismatch>
  10867f:	83 c4 10             	add    esp,0x10
  108682:	e9 50 ff ff ff       	jmp    1085d7 <_ZN2os3hal17serial_controller5beginENS0_11serial_portE+0xe7>
  108687:	50                   	push   eax
  108688:	50                   	push   eax
  108689:	53                   	push   ebx
  10868a:	68 50 5b 11 00       	push   0x115b50
  10868f:	e8 dc 43 00 00       	call   10ca70 <__ubsan_handle_type_mismatch>
  108694:	83 c4 10             	add    esp,0x10
  108697:	e9 1f ff ff ff       	jmp    1085bb <_ZN2os3hal17serial_controller5beginENS0_11serial_portE+0xcb>
  10869c:	50                   	push   eax
  10869d:	50                   	push   eax
  10869e:	53                   	push   ebx
  10869f:	68 68 5b 11 00       	push   0x115b68
  1086a4:	e8 c7 43 00 00       	call   10ca70 <__ubsan_handle_type_mismatch>
  1086a9:	83 c4 10             	add    esp,0x10
  1086ac:	e9 f0 fe ff ff       	jmp    1085a1 <_ZN2os3hal17serial_controller5beginENS0_11serial_portE+0xb1>
  1086b1:	50                   	push   eax
  1086b2:	50                   	push   eax
  1086b3:	53                   	push   ebx
  1086b4:	68 80 5b 11 00       	push   0x115b80
  1086b9:	e8 b2 43 00 00       	call   10ca70 <__ubsan_handle_type_mismatch>
  1086be:	83 c4 10             	add    esp,0x10
  1086c1:	e9 c2 fe ff ff       	jmp    108588 <_ZN2os3hal17serial_controller5beginENS0_11serial_portE+0x98>
  1086c6:	50                   	push   eax
  1086c7:	50                   	push   eax
  1086c8:	53                   	push   ebx
  1086c9:	68 98 5b 11 00       	push   0x115b98
  1086ce:	e8 9d 43 00 00       	call   10ca70 <__ubsan_handle_type_mismatch>
  1086d3:	83 c4 10             	add    esp,0x10
  1086d6:	e9 97 fe ff ff       	jmp    108572 <_ZN2os3hal17serial_controller5beginENS0_11serial_portE+0x82>
  1086db:	52                   	push   edx
  1086dc:	52                   	push   edx
  1086dd:	53                   	push   ebx
  1086de:	68 b0 5b 11 00       	push   0x115bb0
  1086e3:	e8 88 43 00 00       	call   10ca70 <__ubsan_handle_type_mismatch>
  1086e8:	83 c4 10             	add    esp,0x10
  1086eb:	e9 69 fe ff ff       	jmp    108559 <_ZN2os3hal17serial_controller5beginENS0_11serial_portE+0x69>
  1086f0:	51                   	push   ecx
  1086f1:	51                   	push   ecx
  1086f2:	53                   	push   ebx
  1086f3:	68 c8 5b 11 00       	push   0x115bc8
  1086f8:	e8 73 43 00 00       	call   10ca70 <__ubsan_handle_type_mismatch>
  1086fd:	83 c4 10             	add    esp,0x10
  108700:	e9 38 fe ff ff       	jmp    10853d <_ZN2os3hal17serial_controller5beginENS0_11serial_portE+0x4d>
  108705:	57                   	push   edi
  108706:	57                   	push   edi
  108707:	53                   	push   ebx
  108708:	68 e0 5b 11 00       	push   0x115be0
  10870d:	e8 5e 43 00 00       	call   10ca70 <__ubsan_handle_type_mismatch>
  108712:	83 c4 10             	add    esp,0x10
  108715:	e9 0a fe ff ff       	jmp    108524 <_ZN2os3hal17serial_controller5beginENS0_11serial_portE+0x34>
  10871a:	55                   	push   ebp
  10871b:	55                   	push   ebp
  10871c:	53                   	push   ebx
  10871d:	68 f8 5b 11 00       	push   0x115bf8
  108722:	e8 49 43 00 00       	call   10ca70 <__ubsan_handle_type_mismatch>
  108727:	83 c4 10             	add    esp,0x10
  10872a:	e9 e1 fd ff ff       	jmp    108510 <_ZN2os3hal17serial_controller5beginENS0_11serial_portE+0x20>
  10872f:	51                   	push   ecx
  108730:	51                   	push   ecx
  108731:	53                   	push   ebx
  108732:	68 f0 5a 11 00       	push   0x115af0
  108737:	e8 34 43 00 00       	call   10ca70 <__ubsan_handle_type_mismatch>
  10873c:	83 c4 10             	add    esp,0x10
  10873f:	e9 cd fe ff ff       	jmp    108611 <_ZN2os3hal17serial_controller5beginENS0_11serial_portE+0x121>
  108744:	8d b6 00 00 00 00    	lea    esi,[esi+0x0]
  10874a:	8d bf 00 00 00 00    	lea    edi,[edi+0x0]

00108750 <_ZN2os3hal17serial_controller3endEv>:
  108750:	53                   	push   ebx
  108751:	83 ec 08             	sub    esp,0x8
  108754:	8b 5c 24 10          	mov    ebx,DWORD PTR [esp+0x10]
  108758:	85 db                	test   ebx,ebx
  10875a:	74 0f                	je     10876b <_ZN2os3hal17serial_controller3endEv+0x1b>
  10875c:	f6 c3 01             	test   bl,0x1
  10875f:	75 0a                	jne    10876b <_ZN2os3hal17serial_controller3endEv+0x1b>
  108761:	31 c0                	xor    eax,eax
  108763:	66 89 03             	mov    WORD PTR [ebx],ax
  108766:	83 c4 08             	add    esp,0x8
  108769:	5b                   	pop    ebx
  10876a:	c3                   	ret    
  10876b:	52                   	push   edx
  10876c:	52                   	push   edx
  10876d:	53                   	push   ebx
  10876e:	68 c0 5a 11 00       	push   0x115ac0
  108773:	e8 f8 42 00 00       	call   10ca70 <__ubsan_handle_type_mismatch>
  108778:	83 c4 10             	add    esp,0x10
  10877b:	eb e4                	jmp    108761 <_ZN2os3hal17serial_controller3endEv+0x11>
  10877d:	90                   	nop
  10877e:	66 90                	xchg   ax,ax

00108780 <_ZN2os3hal17serial_controller4readEv>:
  108780:	57                   	push   edi
  108781:	56                   	push   esi
  108782:	53                   	push   ebx
  108783:	83 ec 10             	sub    esp,0x10
  108786:	8b 5c 24 20          	mov    ebx,DWORD PTR [esp+0x20]
  10878a:	85 db                	test   ebx,ebx
  10878c:	0f 84 f4 00 00 00    	je     108886 <_ZN2os3hal17serial_controller4readEv+0x106>
  108792:	f6 c3 01             	test   bl,0x1
  108795:	0f 85 eb 00 00 00    	jne    108886 <_ZN2os3hal17serial_controller4readEv+0x106>
  10879b:	85 db                	test   ebx,ebx
  10879d:	0f 84 ce 00 00 00    	je     108871 <_ZN2os3hal17serial_controller4readEv+0xf1>
  1087a3:	f6 c3 01             	test   bl,0x1
  1087a6:	0f 85 c5 00 00 00    	jne    108871 <_ZN2os3hal17serial_controller4readEv+0xf1>
  1087ac:	0f b7 3b             	movzx  edi,WORD PTR [ebx]
  1087af:	66 81 ff f8 03       	cmp    di,0x3f8
  1087b4:	74 3a                	je     1087f0 <_ZN2os3hal17serial_controller4readEv+0x70>
  1087b6:	85 db                	test   ebx,ebx
  1087b8:	0f 84 9e 00 00 00    	je     10885c <_ZN2os3hal17serial_controller4readEv+0xdc>
  1087be:	f6 c3 01             	test   bl,0x1
  1087c1:	0f 85 95 00 00 00    	jne    10885c <_ZN2os3hal17serial_controller4readEv+0xdc>
  1087c7:	66 81 ff f8 02       	cmp    di,0x2f8
  1087cc:	74 22                	je     1087f0 <_ZN2os3hal17serial_controller4readEv+0x70>
  1087ce:	85 db                	test   ebx,ebx
  1087d0:	74 66                	je     108838 <_ZN2os3hal17serial_controller4readEv+0xb8>
  1087d2:	f6 c3 01             	test   bl,0x1
  1087d5:	75 61                	jne    108838 <_ZN2os3hal17serial_controller4readEv+0xb8>
  1087d7:	66 81 ff e8 03       	cmp    di,0x3e8
  1087dc:	74 12                	je     1087f0 <_ZN2os3hal17serial_controller4readEv+0x70>
  1087de:	85 db                	test   ebx,ebx
  1087e0:	74 68                	je     10884a <_ZN2os3hal17serial_controller4readEv+0xca>
  1087e2:	f6 c3 01             	test   bl,0x1
  1087e5:	75 63                	jne    10884a <_ZN2os3hal17serial_controller4readEv+0xca>
  1087e7:	31 c0                	xor    eax,eax
  1087e9:	66 81 ff e8 02       	cmp    di,0x2e8
  1087ee:	75 41                	jne    108831 <_ZN2os3hal17serial_controller4readEv+0xb1>
  1087f0:	89 de                	mov    esi,ebx
  1087f2:	8d 57 05             	lea    edx,[edi+0x5]
  1087f5:	83 e6 01             	and    esi,0x1
  1087f8:	90                   	nop
  1087f9:	8d b4 26 00 00 00 00 	lea    esi,[esi+eiz*1+0x0]
  108800:	85 db                	test   ebx,ebx
  108802:	0f 84 c2 00 00 00    	je     1088ca <_ZN2os3hal17serial_controller4readEv+0x14a>
  108808:	85 f6                	test   esi,esi
  10880a:	0f 85 ba 00 00 00    	jne    1088ca <_ZN2os3hal17serial_controller4readEv+0x14a>
  108810:	85 db                	test   ebx,ebx
  108812:	0f 84 95 00 00 00    	je     1088ad <_ZN2os3hal17serial_controller4readEv+0x12d>
  108818:	85 f6                	test   esi,esi
  10881a:	0f 85 8d 00 00 00    	jne    1088ad <_ZN2os3hal17serial_controller4readEv+0x12d>
  108820:	ec                   	in     al,dx
  108821:	a8 01                	test   al,0x1
  108823:	74 db                	je     108800 <_ZN2os3hal17serial_controller4readEv+0x80>
  108825:	85 db                	test   ebx,ebx
  108827:	74 72                	je     10889b <_ZN2os3hal17serial_controller4readEv+0x11b>
  108829:	f6 c3 01             	test   bl,0x1
  10882c:	75 6d                	jne    10889b <_ZN2os3hal17serial_controller4readEv+0x11b>
  10882e:	89 fa                	mov    edx,edi
  108830:	ec                   	in     al,dx
  108831:	83 c4 10             	add    esp,0x10
  108834:	5b                   	pop    ebx
  108835:	5e                   	pop    esi
  108836:	5f                   	pop    edi
  108837:	c3                   	ret    
  108838:	50                   	push   eax
  108839:	50                   	push   eax
  10883a:	53                   	push   ebx
  10883b:	68 60 5a 11 00       	push   0x115a60
  108840:	e8 2b 42 00 00       	call   10ca70 <__ubsan_handle_type_mismatch>
  108845:	83 c4 10             	add    esp,0x10
  108848:	eb 8d                	jmp    1087d7 <_ZN2os3hal17serial_controller4readEv+0x57>
  10884a:	56                   	push   esi
  10884b:	56                   	push   esi
  10884c:	53                   	push   ebx
  10884d:	68 48 5a 11 00       	push   0x115a48
  108852:	e8 19 42 00 00       	call   10ca70 <__ubsan_handle_type_mismatch>
  108857:	83 c4 10             	add    esp,0x10
  10885a:	eb 8b                	jmp    1087e7 <_ZN2os3hal17serial_controller4readEv+0x67>
  10885c:	50                   	push   eax
  10885d:	50                   	push   eax
  10885e:	53                   	push   ebx
  10885f:	68 78 5a 11 00       	push   0x115a78
  108864:	e8 07 42 00 00       	call   10ca70 <__ubsan_handle_type_mismatch>
  108869:	83 c4 10             	add    esp,0x10
  10886c:	e9 56 ff ff ff       	jmp    1087c7 <_ZN2os3hal17serial_controller4readEv+0x47>
  108871:	50                   	push   eax
  108872:	50                   	push   eax
  108873:	53                   	push   ebx
  108874:	68 90 5a 11 00       	push   0x115a90
  108879:	e8 f2 41 00 00       	call   10ca70 <__ubsan_handle_type_mismatch>
  10887e:	83 c4 10             	add    esp,0x10
  108881:	e9 26 ff ff ff       	jmp    1087ac <_ZN2os3hal17serial_controller4readEv+0x2c>
  108886:	50                   	push   eax
  108887:	50                   	push   eax
  108888:	53                   	push   ebx
  108889:	68 a8 5a 11 00       	push   0x115aa8
  10888e:	e8 dd 41 00 00       	call   10ca70 <__ubsan_handle_type_mismatch>
  108893:	83 c4 10             	add    esp,0x10
  108896:	e9 00 ff ff ff       	jmp    10879b <_ZN2os3hal17serial_controller4readEv+0x1b>
  10889b:	50                   	push   eax
  10889c:	50                   	push   eax
  10889d:	53                   	push   ebx
  10889e:	68 00 5a 11 00       	push   0x115a00
  1088a3:	e8 c8 41 00 00       	call   10ca70 <__ubsan_handle_type_mismatch>
  1088a8:	83 c4 10             	add    esp,0x10
  1088ab:	eb 81                	jmp    10882e <_ZN2os3hal17serial_controller4readEv+0xae>
  1088ad:	89 54 24 0c          	mov    DWORD PTR [esp+0xc],edx
  1088b1:	52                   	push   edx
  1088b2:	52                   	push   edx
  1088b3:	53                   	push   ebx
  1088b4:	68 18 5a 11 00       	push   0x115a18
  1088b9:	e8 b2 41 00 00       	call   10ca70 <__ubsan_handle_type_mismatch>
  1088be:	83 c4 10             	add    esp,0x10
  1088c1:	8b 54 24 0c          	mov    edx,DWORD PTR [esp+0xc]
  1088c5:	e9 56 ff ff ff       	jmp    108820 <_ZN2os3hal17serial_controller4readEv+0xa0>
  1088ca:	89 54 24 0c          	mov    DWORD PTR [esp+0xc],edx
  1088ce:	51                   	push   ecx
  1088cf:	51                   	push   ecx
  1088d0:	53                   	push   ebx
  1088d1:	68 30 5a 11 00       	push   0x115a30
  1088d6:	e8 95 41 00 00       	call   10ca70 <__ubsan_handle_type_mismatch>
  1088db:	83 c4 10             	add    esp,0x10
  1088de:	8b 54 24 0c          	mov    edx,DWORD PTR [esp+0xc]
  1088e2:	e9 29 ff ff ff       	jmp    108810 <_ZN2os3hal17serial_controller4readEv+0x90>
  1088e7:	90                   	nop
  1088e8:	90                   	nop
  1088e9:	8d b4 26 00 00 00 00 	lea    esi,[esi+eiz*1+0x0]

001088f0 <_ZN2os3hal17serial_controller5writeEc>:
  1088f0:	55                   	push   ebp
  1088f1:	57                   	push   edi
  1088f2:	56                   	push   esi
  1088f3:	53                   	push   ebx
  1088f4:	83 ec 1c             	sub    esp,0x1c
  1088f7:	8b 5c 24 30          	mov    ebx,DWORD PTR [esp+0x30]
  1088fb:	8b 6c 24 34          	mov    ebp,DWORD PTR [esp+0x34]
  1088ff:	85 db                	test   ebx,ebx
  108901:	0f 84 08 01 00 00    	je     108a0f <_ZN2os3hal17serial_controller5writeEc+0x11f>
  108907:	f6 c3 01             	test   bl,0x1
  10890a:	0f 85 ff 00 00 00    	jne    108a0f <_ZN2os3hal17serial_controller5writeEc+0x11f>
  108910:	85 db                	test   ebx,ebx
  108912:	0f 84 e2 00 00 00    	je     1089fa <_ZN2os3hal17serial_controller5writeEc+0x10a>
  108918:	f6 c3 01             	test   bl,0x1
  10891b:	0f 85 d9 00 00 00    	jne    1089fa <_ZN2os3hal17serial_controller5writeEc+0x10a>
  108921:	0f b7 3b             	movzx  edi,WORD PTR [ebx]
  108924:	66 81 ff f8 03       	cmp    di,0x3f8
  108929:	74 45                	je     108970 <_ZN2os3hal17serial_controller5writeEc+0x80>
  10892b:	85 db                	test   ebx,ebx
  10892d:	0f 84 b2 00 00 00    	je     1089e5 <_ZN2os3hal17serial_controller5writeEc+0xf5>
  108933:	f6 c3 01             	test   bl,0x1
  108936:	0f 85 a9 00 00 00    	jne    1089e5 <_ZN2os3hal17serial_controller5writeEc+0xf5>
  10893c:	66 81 ff f8 02       	cmp    di,0x2f8
  108941:	74 2d                	je     108970 <_ZN2os3hal17serial_controller5writeEc+0x80>
  108943:	85 db                	test   ebx,ebx
  108945:	74 74                	je     1089bb <_ZN2os3hal17serial_controller5writeEc+0xcb>
  108947:	f6 c3 01             	test   bl,0x1
  10894a:	75 6f                	jne    1089bb <_ZN2os3hal17serial_controller5writeEc+0xcb>
  10894c:	66 81 ff e8 03       	cmp    di,0x3e8
  108951:	74 1d                	je     108970 <_ZN2os3hal17serial_controller5writeEc+0x80>
  108953:	85 db                	test   ebx,ebx
  108955:	74 79                	je     1089d0 <_ZN2os3hal17serial_controller5writeEc+0xe0>
  108957:	f6 c3 01             	test   bl,0x1
  10895a:	75 74                	jne    1089d0 <_ZN2os3hal17serial_controller5writeEc+0xe0>
  10895c:	66 81 ff e8 02       	cmp    di,0x2e8
  108961:	75 50                	jne    1089b3 <_ZN2os3hal17serial_controller5writeEc+0xc3>
  108963:	8d b6 00 00 00 00    	lea    esi,[esi+0x0]
  108969:	8d bc 27 00 00 00 00 	lea    edi,[edi+eiz*1+0x0]
  108970:	89 de                	mov    esi,ebx
  108972:	8d 57 05             	lea    edx,[edi+0x5]
  108975:	83 e6 01             	and    esi,0x1
  108978:	90                   	nop
  108979:	8d b4 26 00 00 00 00 	lea    esi,[esi+eiz*1+0x0]
  108980:	85 db                	test   ebx,ebx
  108982:	0f 84 ce 00 00 00    	je     108a56 <_ZN2os3hal17serial_controller5writeEc+0x166>
  108988:	85 f6                	test   esi,esi
  10898a:	0f 85 c6 00 00 00    	jne    108a56 <_ZN2os3hal17serial_controller5writeEc+0x166>
  108990:	85 db                	test   ebx,ebx
  108992:	0f 84 a1 00 00 00    	je     108a39 <_ZN2os3hal17serial_controller5writeEc+0x149>
  108998:	85 f6                	test   esi,esi
  10899a:	0f 85 99 00 00 00    	jne    108a39 <_ZN2os3hal17serial_controller5writeEc+0x149>
  1089a0:	ec                   	in     al,dx
  1089a1:	a8 20                	test   al,0x20
  1089a3:	74 db                	je     108980 <_ZN2os3hal17serial_controller5writeEc+0x90>
  1089a5:	85 db                	test   ebx,ebx
  1089a7:	74 7b                	je     108a24 <_ZN2os3hal17serial_controller5writeEc+0x134>
  1089a9:	f6 c3 01             	test   bl,0x1
  1089ac:	75 76                	jne    108a24 <_ZN2os3hal17serial_controller5writeEc+0x134>
  1089ae:	89 e8                	mov    eax,ebp
  1089b0:	89 fa                	mov    edx,edi
  1089b2:	ee                   	out    dx,al
  1089b3:	83 c4 1c             	add    esp,0x1c
  1089b6:	5b                   	pop    ebx
  1089b7:	5e                   	pop    esi
  1089b8:	5f                   	pop    edi
  1089b9:	5d                   	pop    ebp
  1089ba:	c3                   	ret    
  1089bb:	50                   	push   eax
  1089bc:	50                   	push   eax
  1089bd:	53                   	push   ebx
  1089be:	68 a0 59 11 00       	push   0x1159a0
  1089c3:	e8 a8 40 00 00       	call   10ca70 <__ubsan_handle_type_mismatch>
  1089c8:	83 c4 10             	add    esp,0x10
  1089cb:	e9 7c ff ff ff       	jmp    10894c <_ZN2os3hal17serial_controller5writeEc+0x5c>
  1089d0:	56                   	push   esi
  1089d1:	56                   	push   esi
  1089d2:	53                   	push   ebx
  1089d3:	68 88 59 11 00       	push   0x115988
  1089d8:	e8 93 40 00 00       	call   10ca70 <__ubsan_handle_type_mismatch>
  1089dd:	83 c4 10             	add    esp,0x10
  1089e0:	e9 77 ff ff ff       	jmp    10895c <_ZN2os3hal17serial_controller5writeEc+0x6c>
  1089e5:	50                   	push   eax
  1089e6:	50                   	push   eax
  1089e7:	53                   	push   ebx
  1089e8:	68 b8 59 11 00       	push   0x1159b8
  1089ed:	e8 7e 40 00 00       	call   10ca70 <__ubsan_handle_type_mismatch>
  1089f2:	83 c4 10             	add    esp,0x10
  1089f5:	e9 42 ff ff ff       	jmp    10893c <_ZN2os3hal17serial_controller5writeEc+0x4c>
  1089fa:	50                   	push   eax
  1089fb:	50                   	push   eax
  1089fc:	53                   	push   ebx
  1089fd:	68 d0 59 11 00       	push   0x1159d0
  108a02:	e8 69 40 00 00       	call   10ca70 <__ubsan_handle_type_mismatch>
  108a07:	83 c4 10             	add    esp,0x10
  108a0a:	e9 12 ff ff ff       	jmp    108921 <_ZN2os3hal17serial_controller5writeEc+0x31>
  108a0f:	50                   	push   eax
  108a10:	50                   	push   eax
  108a11:	53                   	push   ebx
  108a12:	68 e8 59 11 00       	push   0x1159e8
  108a17:	e8 54 40 00 00       	call   10ca70 <__ubsan_handle_type_mismatch>
  108a1c:	83 c4 10             	add    esp,0x10
  108a1f:	e9 ec fe ff ff       	jmp    108910 <_ZN2os3hal17serial_controller5writeEc+0x20>
  108a24:	50                   	push   eax
  108a25:	50                   	push   eax
  108a26:	53                   	push   ebx
  108a27:	68 40 59 11 00       	push   0x115940
  108a2c:	e8 3f 40 00 00       	call   10ca70 <__ubsan_handle_type_mismatch>
  108a31:	83 c4 10             	add    esp,0x10
  108a34:	e9 75 ff ff ff       	jmp    1089ae <_ZN2os3hal17serial_controller5writeEc+0xbe>
  108a39:	89 54 24 0c          	mov    DWORD PTR [esp+0xc],edx
  108a3d:	52                   	push   edx
  108a3e:	52                   	push   edx
  108a3f:	53                   	push   ebx
  108a40:	68 58 59 11 00       	push   0x115958
  108a45:	e8 26 40 00 00       	call   10ca70 <__ubsan_handle_type_mismatch>
  108a4a:	83 c4 10             	add    esp,0x10
  108a4d:	8b 54 24 0c          	mov    edx,DWORD PTR [esp+0xc]
  108a51:	e9 4a ff ff ff       	jmp    1089a0 <_ZN2os3hal17serial_controller5writeEc+0xb0>
  108a56:	89 54 24 0c          	mov    DWORD PTR [esp+0xc],edx
  108a5a:	51                   	push   ecx
  108a5b:	51                   	push   ecx
  108a5c:	53                   	push   ebx
  108a5d:	68 70 59 11 00       	push   0x115970
  108a62:	e8 09 40 00 00       	call   10ca70 <__ubsan_handle_type_mismatch>
  108a67:	83 c4 10             	add    esp,0x10
  108a6a:	8b 54 24 0c          	mov    edx,DWORD PTR [esp+0xc]
  108a6e:	e9 1d ff ff ff       	jmp    108990 <_ZN2os3hal17serial_controller5writeEc+0xa0>
  108a73:	90                   	nop
  108a74:	8d b6 00 00 00 00    	lea    esi,[esi+0x0]
  108a7a:	8d bf 00 00 00 00    	lea    edi,[edi+0x0]

00108a80 <_ZN2os3hal17serial_controller5printEPc>:
  108a80:	55                   	push   ebp
  108a81:	57                   	push   edi
  108a82:	56                   	push   esi
  108a83:	53                   	push   ebx
  108a84:	83 ec 1c             	sub    esp,0x1c
  108a87:	8b 44 24 34          	mov    eax,DWORD PTR [esp+0x34]
  108a8b:	8b 5c 24 30          	mov    ebx,DWORD PTR [esp+0x30]
  108a8f:	85 c0                	test   eax,eax
  108a91:	74 74                	je     108b07 <_ZN2os3hal17serial_controller5printEPc+0x87>
  108a93:	85 db                	test   ebx,ebx
  108a95:	0f 84 a4 01 00 00    	je     108c3f <_ZN2os3hal17serial_controller5printEPc+0x1bf>
  108a9b:	f6 c3 01             	test   bl,0x1
  108a9e:	0f 85 9b 01 00 00    	jne    108c3f <_ZN2os3hal17serial_controller5printEPc+0x1bf>
  108aa4:	85 db                	test   ebx,ebx
  108aa6:	0f 84 c3 01 00 00    	je     108c6f <_ZN2os3hal17serial_controller5printEPc+0x1ef>
  108aac:	f6 c3 01             	test   bl,0x1
  108aaf:	0f 85 ba 01 00 00    	jne    108c6f <_ZN2os3hal17serial_controller5printEPc+0x1ef>
  108ab5:	0f b7 2b             	movzx  ebp,WORD PTR [ebx]
  108ab8:	66 81 fd f8 03       	cmp    bp,0x3f8
  108abd:	74 51                	je     108b10 <_ZN2os3hal17serial_controller5printEPc+0x90>
  108abf:	85 db                	test   ebx,ebx
  108ac1:	0f 84 18 03 00 00    	je     108ddf <_ZN2os3hal17serial_controller5printEPc+0x35f>
  108ac7:	f6 c3 01             	test   bl,0x1
  108aca:	0f 85 0f 03 00 00    	jne    108ddf <_ZN2os3hal17serial_controller5printEPc+0x35f>
  108ad0:	66 81 fd f8 02       	cmp    bp,0x2f8
  108ad5:	74 39                	je     108b10 <_ZN2os3hal17serial_controller5printEPc+0x90>
  108ad7:	85 db                	test   ebx,ebx
  108ad9:	0f 84 15 03 00 00    	je     108df4 <_ZN2os3hal17serial_controller5printEPc+0x374>
  108adf:	f6 c3 01             	test   bl,0x1
  108ae2:	0f 85 0c 03 00 00    	jne    108df4 <_ZN2os3hal17serial_controller5printEPc+0x374>
  108ae8:	66 81 fd e8 03       	cmp    bp,0x3e8
  108aed:	74 21                	je     108b10 <_ZN2os3hal17serial_controller5printEPc+0x90>
  108aef:	85 db                	test   ebx,ebx
  108af1:	0f 84 12 03 00 00    	je     108e09 <_ZN2os3hal17serial_controller5printEPc+0x389>
  108af7:	f6 c3 01             	test   bl,0x1
  108afa:	0f 85 09 03 00 00    	jne    108e09 <_ZN2os3hal17serial_controller5printEPc+0x389>
  108b00:	66 81 fd e8 02       	cmp    bp,0x2e8
  108b05:	74 09                	je     108b10 <_ZN2os3hal17serial_controller5printEPc+0x90>
  108b07:	83 c4 1c             	add    esp,0x1c
  108b0a:	5b                   	pop    ebx
  108b0b:	5e                   	pop    esi
  108b0c:	5f                   	pop    edi
  108b0d:	5d                   	pop    ebp
  108b0e:	c3                   	ret    
  108b0f:	90                   	nop
  108b10:	8b 44 24 34          	mov    eax,DWORD PTR [esp+0x34]
  108b14:	85 c0                	test   eax,eax
  108b16:	0f 84 ad 02 00 00    	je     108dc9 <_ZN2os3hal17serial_controller5printEPc+0x349>
  108b1c:	8b 44 24 34          	mov    eax,DWORD PTR [esp+0x34]
  108b20:	0f b6 08             	movzx  ecx,BYTE PTR [eax]
  108b23:	84 c9                	test   cl,cl
  108b25:	74 e0                	je     108b07 <_ZN2os3hal17serial_controller5printEPc+0x87>
  108b27:	89 de                	mov    esi,ebx
  108b29:	31 ff                	xor    edi,edi
  108b2b:	83 e6 01             	and    esi,0x1
  108b2e:	eb 74                	jmp    108ba4 <_ZN2os3hal17serial_controller5printEPc+0x124>
  108b30:	85 db                	test   ebx,ebx
  108b32:	0f 84 f2 01 00 00    	je     108d2a <_ZN2os3hal17serial_controller5printEPc+0x2aa>
  108b38:	85 f6                	test   esi,esi
  108b3a:	0f 85 ea 01 00 00    	jne    108d2a <_ZN2os3hal17serial_controller5printEPc+0x2aa>
  108b40:	66 81 fd f8 02       	cmp    bp,0x2f8
  108b45:	0f 84 9c 00 00 00    	je     108be7 <_ZN2os3hal17serial_controller5printEPc+0x167>
  108b4b:	85 db                	test   ebx,ebx
  108b4d:	0f 84 b9 01 00 00    	je     108d0c <_ZN2os3hal17serial_controller5printEPc+0x28c>
  108b53:	85 f6                	test   esi,esi
  108b55:	0f 85 b1 01 00 00    	jne    108d0c <_ZN2os3hal17serial_controller5printEPc+0x28c>
  108b5b:	66 81 fd e8 03       	cmp    bp,0x3e8
  108b60:	0f 84 81 00 00 00    	je     108be7 <_ZN2os3hal17serial_controller5printEPc+0x167>
  108b66:	85 db                	test   ebx,ebx
  108b68:	0f 84 80 01 00 00    	je     108cee <_ZN2os3hal17serial_controller5printEPc+0x26e>
  108b6e:	85 f6                	test   esi,esi
  108b70:	0f 85 78 01 00 00    	jne    108cee <_ZN2os3hal17serial_controller5printEPc+0x26e>
  108b76:	66 81 fd e8 02       	cmp    bp,0x2e8
  108b7b:	74 6a                	je     108be7 <_ZN2os3hal17serial_controller5printEPc+0x167>
  108b7d:	89 fd                	mov    ebp,edi
  108b7f:	83 c5 01             	add    ebp,0x1
  108b82:	0f 80 9f 00 00 00    	jo     108c27 <_ZN2os3hal17serial_controller5printEPc+0x1a7>
  108b88:	89 e8                	mov    eax,ebp
  108b8a:	03 44 24 34          	add    eax,DWORD PTR [esp+0x34]
  108b8e:	89 ef                	mov    edi,ebp
  108b90:	0f 84 ee 00 00 00    	je     108c84 <_ZN2os3hal17serial_controller5printEPc+0x204>
  108b96:	0f b6 08             	movzx  ecx,BYTE PTR [eax]
  108b99:	84 c9                	test   cl,cl
  108b9b:	0f 84 66 ff ff ff    	je     108b07 <_ZN2os3hal17serial_controller5printEPc+0x87>
  108ba1:	0f b7 2b             	movzx  ebp,WORD PTR [ebx]
  108ba4:	85 db                	test   ebx,ebx
  108ba6:	0f 84 f7 01 00 00    	je     108da3 <_ZN2os3hal17serial_controller5printEPc+0x323>
  108bac:	85 f6                	test   esi,esi
  108bae:	0f 85 ef 01 00 00    	jne    108da3 <_ZN2os3hal17serial_controller5printEPc+0x323>
  108bb4:	85 c0                	test   eax,eax
  108bb6:	0f 84 c8 01 00 00    	je     108d84 <_ZN2os3hal17serial_controller5printEPc+0x304>
  108bbc:	85 db                	test   ebx,ebx
  108bbe:	0f 84 a2 01 00 00    	je     108d66 <_ZN2os3hal17serial_controller5printEPc+0x2e6>
  108bc4:	85 f6                	test   esi,esi
  108bc6:	0f 85 9a 01 00 00    	jne    108d66 <_ZN2os3hal17serial_controller5printEPc+0x2e6>
  108bcc:	85 db                	test   ebx,ebx
  108bce:	0f 84 74 01 00 00    	je     108d48 <_ZN2os3hal17serial_controller5printEPc+0x2c8>
  108bd4:	85 f6                	test   esi,esi
  108bd6:	0f 85 6c 01 00 00    	jne    108d48 <_ZN2os3hal17serial_controller5printEPc+0x2c8>
  108bdc:	66 81 fd f8 03       	cmp    bp,0x3f8
  108be1:	0f 85 49 ff ff ff    	jne    108b30 <_ZN2os3hal17serial_controller5printEPc+0xb0>
  108be7:	8d 55 05             	lea    edx,[ebp+0x5]
  108bea:	8d b6 00 00 00 00    	lea    esi,[esi+0x0]
  108bf0:	85 db                	test   ebx,ebx
  108bf2:	0f 84 d0 00 00 00    	je     108cc8 <_ZN2os3hal17serial_controller5printEPc+0x248>
  108bf8:	85 f6                	test   esi,esi
  108bfa:	0f 85 c8 00 00 00    	jne    108cc8 <_ZN2os3hal17serial_controller5printEPc+0x248>
  108c00:	85 db                	test   ebx,ebx
  108c02:	0f 84 9a 00 00 00    	je     108ca2 <_ZN2os3hal17serial_controller5printEPc+0x222>
  108c08:	85 f6                	test   esi,esi
  108c0a:	0f 85 92 00 00 00    	jne    108ca2 <_ZN2os3hal17serial_controller5printEPc+0x222>
  108c10:	ec                   	in     al,dx
  108c11:	a8 20                	test   al,0x20
  108c13:	74 db                	je     108bf0 <_ZN2os3hal17serial_controller5printEPc+0x170>
  108c15:	85 db                	test   ebx,ebx
  108c17:	74 3b                	je     108c54 <_ZN2os3hal17serial_controller5printEPc+0x1d4>
  108c19:	85 f6                	test   esi,esi
  108c1b:	75 37                	jne    108c54 <_ZN2os3hal17serial_controller5printEPc+0x1d4>
  108c1d:	89 c8                	mov    eax,ecx
  108c1f:	89 ea                	mov    edx,ebp
  108c21:	ee                   	out    dx,al
  108c22:	e9 56 ff ff ff       	jmp    108b7d <_ZN2os3hal17serial_controller5printEPc+0xfd>
  108c27:	83 ec 04             	sub    esp,0x4
  108c2a:	6a 01                	push   0x1
  108c2c:	57                   	push   edi
  108c2d:	68 80 57 11 00       	push   0x115780
  108c32:	e8 19 3f 00 00       	call   10cb50 <__ubsan_handle_add_overflow>
  108c37:	83 c4 10             	add    esp,0x10
  108c3a:	e9 49 ff ff ff       	jmp    108b88 <_ZN2os3hal17serial_controller5printEPc+0x108>
  108c3f:	50                   	push   eax
  108c40:	50                   	push   eax
  108c41:	53                   	push   ebx
  108c42:	68 28 59 11 00       	push   0x115928
  108c47:	e8 24 3e 00 00       	call   10ca70 <__ubsan_handle_type_mismatch>
  108c4c:	83 c4 10             	add    esp,0x10
  108c4f:	e9 50 fe ff ff       	jmp    108aa4 <_ZN2os3hal17serial_controller5printEPc+0x24>
  108c54:	88 4c 24 08          	mov    BYTE PTR [esp+0x8],cl
  108c58:	52                   	push   edx
  108c59:	52                   	push   edx
  108c5a:	53                   	push   ebx
  108c5b:	68 b4 57 11 00       	push   0x1157b4
  108c60:	e8 0b 3e 00 00       	call   10ca70 <__ubsan_handle_type_mismatch>
  108c65:	83 c4 10             	add    esp,0x10
  108c68:	0f b6 4c 24 08       	movzx  ecx,BYTE PTR [esp+0x8]
  108c6d:	eb ae                	jmp    108c1d <_ZN2os3hal17serial_controller5printEPc+0x19d>
  108c6f:	50                   	push   eax
  108c70:	50                   	push   eax
  108c71:	53                   	push   ebx
  108c72:	68 10 59 11 00       	push   0x115910
  108c77:	e8 f4 3d 00 00       	call   10ca70 <__ubsan_handle_type_mismatch>
  108c7c:	83 c4 10             	add    esp,0x10
  108c7f:	e9 31 fe ff ff       	jmp    108ab5 <_ZN2os3hal17serial_controller5printEPc+0x35>
  108c84:	89 44 24 08          	mov    DWORD PTR [esp+0x8],eax
  108c88:	50                   	push   eax
  108c89:	50                   	push   eax
  108c8a:	6a 00                	push   0x0
  108c8c:	68 9c 57 11 00       	push   0x11579c
  108c91:	e8 da 3d 00 00       	call   10ca70 <__ubsan_handle_type_mismatch>
  108c96:	83 c4 10             	add    esp,0x10
  108c99:	8b 44 24 08          	mov    eax,DWORD PTR [esp+0x8]
  108c9d:	e9 f4 fe ff ff       	jmp    108b96 <_ZN2os3hal17serial_controller5printEPc+0x116>
  108ca2:	88 4c 24 08          	mov    BYTE PTR [esp+0x8],cl
  108ca6:	89 54 24 0c          	mov    DWORD PTR [esp+0xc],edx
  108caa:	51                   	push   ecx
  108cab:	51                   	push   ecx
  108cac:	53                   	push   ebx
  108cad:	68 cc 57 11 00       	push   0x1157cc
  108cb2:	e8 b9 3d 00 00       	call   10ca70 <__ubsan_handle_type_mismatch>
  108cb7:	83 c4 10             	add    esp,0x10
  108cba:	8b 54 24 0c          	mov    edx,DWORD PTR [esp+0xc]
  108cbe:	0f b6 4c 24 08       	movzx  ecx,BYTE PTR [esp+0x8]
  108cc3:	e9 48 ff ff ff       	jmp    108c10 <_ZN2os3hal17serial_controller5printEPc+0x190>
  108cc8:	89 54 24 0c          	mov    DWORD PTR [esp+0xc],edx
  108ccc:	88 4c 24 08          	mov    BYTE PTR [esp+0x8],cl
  108cd0:	50                   	push   eax
  108cd1:	50                   	push   eax
  108cd2:	53                   	push   ebx
  108cd3:	68 e4 57 11 00       	push   0x1157e4
  108cd8:	e8 93 3d 00 00       	call   10ca70 <__ubsan_handle_type_mismatch>
  108cdd:	83 c4 10             	add    esp,0x10
  108ce0:	8b 54 24 0c          	mov    edx,DWORD PTR [esp+0xc]
  108ce4:	0f b6 4c 24 08       	movzx  ecx,BYTE PTR [esp+0x8]
  108ce9:	e9 12 ff ff ff       	jmp    108c00 <_ZN2os3hal17serial_controller5printEPc+0x180>
  108cee:	88 4c 24 08          	mov    BYTE PTR [esp+0x8],cl
  108cf2:	50                   	push   eax
  108cf3:	50                   	push   eax
  108cf4:	53                   	push   ebx
  108cf5:	68 fc 57 11 00       	push   0x1157fc
  108cfa:	e8 71 3d 00 00       	call   10ca70 <__ubsan_handle_type_mismatch>
  108cff:	83 c4 10             	add    esp,0x10
  108d02:	0f b6 4c 24 08       	movzx  ecx,BYTE PTR [esp+0x8]
  108d07:	e9 6a fe ff ff       	jmp    108b76 <_ZN2os3hal17serial_controller5printEPc+0xf6>
  108d0c:	88 4c 24 08          	mov    BYTE PTR [esp+0x8],cl
  108d10:	50                   	push   eax
  108d11:	50                   	push   eax
  108d12:	53                   	push   ebx
  108d13:	68 14 58 11 00       	push   0x115814
  108d18:	e8 53 3d 00 00       	call   10ca70 <__ubsan_handle_type_mismatch>
  108d1d:	83 c4 10             	add    esp,0x10
  108d20:	0f b6 4c 24 08       	movzx  ecx,BYTE PTR [esp+0x8]
  108d25:	e9 31 fe ff ff       	jmp    108b5b <_ZN2os3hal17serial_controller5printEPc+0xdb>
  108d2a:	88 4c 24 08          	mov    BYTE PTR [esp+0x8],cl
  108d2e:	50                   	push   eax
  108d2f:	50                   	push   eax
  108d30:	53                   	push   ebx
  108d31:	68 2c 58 11 00       	push   0x11582c
  108d36:	e8 35 3d 00 00       	call   10ca70 <__ubsan_handle_type_mismatch>
  108d3b:	83 c4 10             	add    esp,0x10
  108d3e:	0f b6 4c 24 08       	movzx  ecx,BYTE PTR [esp+0x8]
  108d43:	e9 f8 fd ff ff       	jmp    108b40 <_ZN2os3hal17serial_controller5printEPc+0xc0>
  108d48:	88 4c 24 08          	mov    BYTE PTR [esp+0x8],cl
  108d4c:	50                   	push   eax
  108d4d:	50                   	push   eax
  108d4e:	53                   	push   ebx
  108d4f:	68 44 58 11 00       	push   0x115844
  108d54:	e8 17 3d 00 00       	call   10ca70 <__ubsan_handle_type_mismatch>
  108d59:	83 c4 10             	add    esp,0x10
  108d5c:	0f b6 4c 24 08       	movzx  ecx,BYTE PTR [esp+0x8]
  108d61:	e9 76 fe ff ff       	jmp    108bdc <_ZN2os3hal17serial_controller5printEPc+0x15c>
  108d66:	88 4c 24 08          	mov    BYTE PTR [esp+0x8],cl
  108d6a:	50                   	push   eax
  108d6b:	50                   	push   eax
  108d6c:	53                   	push   ebx
  108d6d:	68 5c 58 11 00       	push   0x11585c
  108d72:	e8 f9 3c 00 00       	call   10ca70 <__ubsan_handle_type_mismatch>
  108d77:	83 c4 10             	add    esp,0x10
  108d7a:	0f b6 4c 24 08       	movzx  ecx,BYTE PTR [esp+0x8]
  108d7f:	e9 48 fe ff ff       	jmp    108bcc <_ZN2os3hal17serial_controller5printEPc+0x14c>
  108d84:	88 4c 24 08          	mov    BYTE PTR [esp+0x8],cl
  108d88:	52                   	push   edx
  108d89:	52                   	push   edx
  108d8a:	6a 00                	push   0x0
  108d8c:	68 74 58 11 00       	push   0x115874
  108d91:	e8 da 3c 00 00       	call   10ca70 <__ubsan_handle_type_mismatch>
  108d96:	83 c4 10             	add    esp,0x10
  108d99:	0f b6 4c 24 08       	movzx  ecx,BYTE PTR [esp+0x8]
  108d9e:	e9 19 fe ff ff       	jmp    108bbc <_ZN2os3hal17serial_controller5printEPc+0x13c>
  108da3:	88 4c 24 0c          	mov    BYTE PTR [esp+0xc],cl
  108da7:	89 44 24 08          	mov    DWORD PTR [esp+0x8],eax
  108dab:	51                   	push   ecx
  108dac:	51                   	push   ecx
  108dad:	53                   	push   ebx
  108dae:	68 8c 58 11 00       	push   0x11588c
  108db3:	e8 b8 3c 00 00       	call   10ca70 <__ubsan_handle_type_mismatch>
  108db8:	83 c4 10             	add    esp,0x10
  108dbb:	0f b6 4c 24 0c       	movzx  ecx,BYTE PTR [esp+0xc]
  108dc0:	8b 44 24 08          	mov    eax,DWORD PTR [esp+0x8]
  108dc4:	e9 eb fd ff ff       	jmp    108bb4 <_ZN2os3hal17serial_controller5printEPc+0x134>
  108dc9:	50                   	push   eax
  108dca:	50                   	push   eax
  108dcb:	6a 00                	push   0x0
  108dcd:	68 ec 58 11 00       	push   0x1158ec
  108dd2:	e8 99 3c 00 00       	call   10ca70 <__ubsan_handle_type_mismatch>
  108dd7:	83 c4 10             	add    esp,0x10
  108dda:	e9 3d fd ff ff       	jmp    108b1c <_ZN2os3hal17serial_controller5printEPc+0x9c>
  108ddf:	50                   	push   eax
  108de0:	50                   	push   eax
  108de1:	53                   	push   ebx
  108de2:	68 d4 58 11 00       	push   0x1158d4
  108de7:	e8 84 3c 00 00       	call   10ca70 <__ubsan_handle_type_mismatch>
  108dec:	83 c4 10             	add    esp,0x10
  108def:	e9 dc fc ff ff       	jmp    108ad0 <_ZN2os3hal17serial_controller5printEPc+0x50>
  108df4:	57                   	push   edi
  108df5:	57                   	push   edi
  108df6:	53                   	push   ebx
  108df7:	68 bc 58 11 00       	push   0x1158bc
  108dfc:	e8 6f 3c 00 00       	call   10ca70 <__ubsan_handle_type_mismatch>
  108e01:	83 c4 10             	add    esp,0x10
  108e04:	e9 df fc ff ff       	jmp    108ae8 <_ZN2os3hal17serial_controller5printEPc+0x68>
  108e09:	56                   	push   esi
  108e0a:	56                   	push   esi
  108e0b:	53                   	push   ebx
  108e0c:	68 a4 58 11 00       	push   0x1158a4
  108e11:	e8 5a 3c 00 00       	call   10ca70 <__ubsan_handle_type_mismatch>
  108e16:	83 c4 10             	add    esp,0x10
  108e19:	e9 e2 fc ff ff       	jmp    108b00 <_ZN2os3hal17serial_controller5printEPc+0x80>
  108e1e:	66 90                	xchg   ax,ax

00108e20 <_ZN2os3hal17serial_controller7printlnEPc>:
  108e20:	57                   	push   edi
  108e21:	56                   	push   esi
  108e22:	53                   	push   ebx
  108e23:	83 ec 10             	sub    esp,0x10
  108e26:	8b 5c 24 20          	mov    ebx,DWORD PTR [esp+0x20]
  108e2a:	85 db                	test   ebx,ebx
  108e2c:	0f 84 61 01 00 00    	je     108f93 <_ZN2os3hal17serial_controller7printlnEPc+0x173>
  108e32:	f6 c3 01             	test   bl,0x1
  108e35:	0f 85 58 01 00 00    	jne    108f93 <_ZN2os3hal17serial_controller7printlnEPc+0x173>
  108e3b:	83 ec 08             	sub    esp,0x8
  108e3e:	ff 74 24 2c          	push   DWORD PTR [esp+0x2c]
  108e42:	53                   	push   ebx
  108e43:	e8 38 fc ff ff       	call   108a80 <_ZN2os3hal17serial_controller5printEPc>
  108e48:	83 c4 10             	add    esp,0x10
  108e4b:	85 db                	test   ebx,ebx
  108e4d:	0f 84 2b 01 00 00    	je     108f7e <_ZN2os3hal17serial_controller7printlnEPc+0x15e>
  108e53:	f6 c3 01             	test   bl,0x1
  108e56:	0f 85 22 01 00 00    	jne    108f7e <_ZN2os3hal17serial_controller7printlnEPc+0x15e>
  108e5c:	85 db                	test   ebx,ebx
  108e5e:	0f 84 05 01 00 00    	je     108f69 <_ZN2os3hal17serial_controller7printlnEPc+0x149>
  108e64:	f6 c3 01             	test   bl,0x1
  108e67:	0f 85 fc 00 00 00    	jne    108f69 <_ZN2os3hal17serial_controller7printlnEPc+0x149>
  108e6d:	85 db                	test   ebx,ebx
  108e6f:	0f 84 df 00 00 00    	je     108f54 <_ZN2os3hal17serial_controller7printlnEPc+0x134>
  108e75:	f6 c3 01             	test   bl,0x1
  108e78:	0f 85 d6 00 00 00    	jne    108f54 <_ZN2os3hal17serial_controller7printlnEPc+0x134>
  108e7e:	0f b7 3b             	movzx  edi,WORD PTR [ebx]
  108e81:	66 81 ff f8 03       	cmp    di,0x3f8
  108e86:	74 38                	je     108ec0 <_ZN2os3hal17serial_controller7printlnEPc+0xa0>
  108e88:	85 db                	test   ebx,ebx
  108e8a:	0f 84 af 00 00 00    	je     108f3f <_ZN2os3hal17serial_controller7printlnEPc+0x11f>
  108e90:	f6 c3 01             	test   bl,0x1
  108e93:	0f 85 a6 00 00 00    	jne    108f3f <_ZN2os3hal17serial_controller7printlnEPc+0x11f>
  108e99:	66 81 ff f8 02       	cmp    di,0x2f8
  108e9e:	74 20                	je     108ec0 <_ZN2os3hal17serial_controller7printlnEPc+0xa0>
  108ea0:	85 db                	test   ebx,ebx
  108ea2:	74 71                	je     108f15 <_ZN2os3hal17serial_controller7printlnEPc+0xf5>
  108ea4:	f6 c3 01             	test   bl,0x1
  108ea7:	75 6c                	jne    108f15 <_ZN2os3hal17serial_controller7printlnEPc+0xf5>
  108ea9:	66 81 ff e8 03       	cmp    di,0x3e8
  108eae:	74 10                	je     108ec0 <_ZN2os3hal17serial_controller7printlnEPc+0xa0>
  108eb0:	85 db                	test   ebx,ebx
  108eb2:	74 76                	je     108f2a <_ZN2os3hal17serial_controller7printlnEPc+0x10a>
  108eb4:	f6 c3 01             	test   bl,0x1
  108eb7:	75 71                	jne    108f2a <_ZN2os3hal17serial_controller7printlnEPc+0x10a>
  108eb9:	66 81 ff e8 02       	cmp    di,0x2e8
  108ebe:	75 4e                	jne    108f0e <_ZN2os3hal17serial_controller7printlnEPc+0xee>
  108ec0:	89 de                	mov    esi,ebx
  108ec2:	8d 57 05             	lea    edx,[edi+0x5]
  108ec5:	83 e6 01             	and    esi,0x1
  108ec8:	90                   	nop
  108ec9:	8d b4 26 00 00 00 00 	lea    esi,[esi+eiz*1+0x0]
  108ed0:	85 db                	test   ebx,ebx
  108ed2:	0f 84 02 01 00 00    	je     108fda <_ZN2os3hal17serial_controller7printlnEPc+0x1ba>
  108ed8:	85 f6                	test   esi,esi
  108eda:	0f 85 fa 00 00 00    	jne    108fda <_ZN2os3hal17serial_controller7printlnEPc+0x1ba>
  108ee0:	85 db                	test   ebx,ebx
  108ee2:	0f 84 d5 00 00 00    	je     108fbd <_ZN2os3hal17serial_controller7printlnEPc+0x19d>
  108ee8:	85 f6                	test   esi,esi
  108eea:	0f 85 cd 00 00 00    	jne    108fbd <_ZN2os3hal17serial_controller7printlnEPc+0x19d>
  108ef0:	ec                   	in     al,dx
  108ef1:	a8 20                	test   al,0x20
  108ef3:	74 db                	je     108ed0 <_ZN2os3hal17serial_controller7printlnEPc+0xb0>
  108ef5:	85 db                	test   ebx,ebx
  108ef7:	0f 84 ab 00 00 00    	je     108fa8 <_ZN2os3hal17serial_controller7printlnEPc+0x188>
  108efd:	f6 c3 01             	test   bl,0x1
  108f00:	0f 85 a2 00 00 00    	jne    108fa8 <_ZN2os3hal17serial_controller7printlnEPc+0x188>
  108f06:	b8 0a 00 00 00       	mov    eax,0xa
  108f0b:	89 fa                	mov    edx,edi
  108f0d:	ee                   	out    dx,al
  108f0e:	83 c4 10             	add    esp,0x10
  108f11:	5b                   	pop    ebx
  108f12:	5e                   	pop    esi
  108f13:	5f                   	pop    edi
  108f14:	c3                   	ret    
  108f15:	50                   	push   eax
  108f16:	50                   	push   eax
  108f17:	53                   	push   ebx
  108f18:	68 f0 56 11 00       	push   0x1156f0
  108f1d:	e8 4e 3b 00 00       	call   10ca70 <__ubsan_handle_type_mismatch>
  108f22:	83 c4 10             	add    esp,0x10
  108f25:	e9 7f ff ff ff       	jmp    108ea9 <_ZN2os3hal17serial_controller7printlnEPc+0x89>
  108f2a:	56                   	push   esi
  108f2b:	56                   	push   esi
  108f2c:	53                   	push   ebx
  108f2d:	68 d8 56 11 00       	push   0x1156d8
  108f32:	e8 39 3b 00 00       	call   10ca70 <__ubsan_handle_type_mismatch>
  108f37:	83 c4 10             	add    esp,0x10
  108f3a:	e9 7a ff ff ff       	jmp    108eb9 <_ZN2os3hal17serial_controller7printlnEPc+0x99>
  108f3f:	50                   	push   eax
  108f40:	50                   	push   eax
  108f41:	53                   	push   ebx
  108f42:	68 08 57 11 00       	push   0x115708
  108f47:	e8 24 3b 00 00       	call   10ca70 <__ubsan_handle_type_mismatch>
  108f4c:	83 c4 10             	add    esp,0x10
  108f4f:	e9 45 ff ff ff       	jmp    108e99 <_ZN2os3hal17serial_controller7printlnEPc+0x79>
  108f54:	50                   	push   eax
  108f55:	50                   	push   eax
  108f56:	53                   	push   ebx
  108f57:	68 20 57 11 00       	push   0x115720
  108f5c:	e8 0f 3b 00 00       	call   10ca70 <__ubsan_handle_type_mismatch>
  108f61:	83 c4 10             	add    esp,0x10
  108f64:	e9 15 ff ff ff       	jmp    108e7e <_ZN2os3hal17serial_controller7printlnEPc+0x5e>
  108f69:	50                   	push   eax
  108f6a:	50                   	push   eax
  108f6b:	53                   	push   ebx
  108f6c:	68 38 57 11 00       	push   0x115738
  108f71:	e8 fa 3a 00 00       	call   10ca70 <__ubsan_handle_type_mismatch>
  108f76:	83 c4 10             	add    esp,0x10
  108f79:	e9 ef fe ff ff       	jmp    108e6d <_ZN2os3hal17serial_controller7printlnEPc+0x4d>
  108f7e:	50                   	push   eax
  108f7f:	50                   	push   eax
  108f80:	53                   	push   ebx
  108f81:	68 50 57 11 00       	push   0x115750
  108f86:	e8 e5 3a 00 00       	call   10ca70 <__ubsan_handle_type_mismatch>
  108f8b:	83 c4 10             	add    esp,0x10
  108f8e:	e9 c9 fe ff ff       	jmp    108e5c <_ZN2os3hal17serial_controller7printlnEPc+0x3c>
  108f93:	50                   	push   eax
  108f94:	50                   	push   eax
  108f95:	53                   	push   ebx
  108f96:	68 68 57 11 00       	push   0x115768
  108f9b:	e8 d0 3a 00 00       	call   10ca70 <__ubsan_handle_type_mismatch>
  108fa0:	83 c4 10             	add    esp,0x10
  108fa3:	e9 93 fe ff ff       	jmp    108e3b <_ZN2os3hal17serial_controller7printlnEPc+0x1b>
  108fa8:	50                   	push   eax
  108fa9:	50                   	push   eax
  108faa:	53                   	push   ebx
  108fab:	68 90 56 11 00       	push   0x115690
  108fb0:	e8 bb 3a 00 00       	call   10ca70 <__ubsan_handle_type_mismatch>
  108fb5:	83 c4 10             	add    esp,0x10
  108fb8:	e9 49 ff ff ff       	jmp    108f06 <_ZN2os3hal17serial_controller7printlnEPc+0xe6>
  108fbd:	89 54 24 0c          	mov    DWORD PTR [esp+0xc],edx
  108fc1:	52                   	push   edx
  108fc2:	52                   	push   edx
  108fc3:	53                   	push   ebx
  108fc4:	68 a8 56 11 00       	push   0x1156a8
  108fc9:	e8 a2 3a 00 00       	call   10ca70 <__ubsan_handle_type_mismatch>
  108fce:	83 c4 10             	add    esp,0x10
  108fd1:	8b 54 24 0c          	mov    edx,DWORD PTR [esp+0xc]
  108fd5:	e9 16 ff ff ff       	jmp    108ef0 <_ZN2os3hal17serial_controller7printlnEPc+0xd0>
  108fda:	89 54 24 0c          	mov    DWORD PTR [esp+0xc],edx
  108fde:	51                   	push   ecx
  108fdf:	51                   	push   ecx
  108fe0:	53                   	push   ebx
  108fe1:	68 c0 56 11 00       	push   0x1156c0
  108fe6:	e8 85 3a 00 00       	call   10ca70 <__ubsan_handle_type_mismatch>
  108feb:	83 c4 10             	add    esp,0x10
  108fee:	8b 54 24 0c          	mov    edx,DWORD PTR [esp+0xc]
  108ff2:	e9 e9 fe ff ff       	jmp    108ee0 <_ZN2os3hal17serial_controller7printlnEPc+0xc0>
  108ff7:	90                   	nop
  108ff8:	90                   	nop
  108ff9:	8d b4 26 00 00 00 00 	lea    esi,[esi+eiz*1+0x0]

00109000 <_ZN2os3hal17serial_controller10vprint_fmtEPcS2_>:
  109000:	55                   	push   ebp
  109001:	57                   	push   edi
  109002:	56                   	push   esi
  109003:	53                   	push   ebx
  109004:	83 ec 2c             	sub    esp,0x2c
  109007:	8b 74 24 44          	mov    esi,DWORD PTR [esp+0x44]
  10900b:	8b 5c 24 40          	mov    ebx,DWORD PTR [esp+0x40]
  10900f:	85 f6                	test   esi,esi
  109011:	0f 84 47 0d 00 00    	je     109d5e <_ZN2os3hal17serial_controller10vprint_fmtEPcS2_+0xd5e>
  109017:	0f b6 0e             	movzx  ecx,BYTE PTR [esi]
  10901a:	84 c9                	test   cl,cl
  10901c:	0f 84 0e 02 00 00    	je     109230 <_ZN2os3hal17serial_controller10vprint_fmtEPcS2_+0x230>
  109022:	89 df                	mov    edi,ebx
  109024:	89 f5                	mov    ebp,esi
  109026:	83 e7 01             	and    edi,0x1
  109029:	e9 a7 00 00 00       	jmp    1090d5 <_ZN2os3hal17serial_controller10vprint_fmtEPcS2_+0xd5>
  10902e:	66 90                	xchg   ax,ax
  109030:	85 db                	test   ebx,ebx
  109032:	0f 84 96 0d 00 00    	je     109dce <_ZN2os3hal17serial_controller10vprint_fmtEPcS2_+0xdce>
  109038:	85 ff                	test   edi,edi
  10903a:	0f 85 8e 0d 00 00    	jne    109dce <_ZN2os3hal17serial_controller10vprint_fmtEPcS2_+0xdce>
  109040:	85 db                	test   ebx,ebx
  109042:	0f 84 68 0d 00 00    	je     109db0 <_ZN2os3hal17serial_controller10vprint_fmtEPcS2_+0xdb0>
  109048:	85 ff                	test   edi,edi
  10904a:	0f 85 60 0d 00 00    	jne    109db0 <_ZN2os3hal17serial_controller10vprint_fmtEPcS2_+0xdb0>
  109050:	85 db                	test   ebx,ebx
  109052:	0f 84 3a 0d 00 00    	je     109d92 <_ZN2os3hal17serial_controller10vprint_fmtEPcS2_+0xd92>
  109058:	85 ff                	test   edi,edi
  10905a:	0f 85 32 0d 00 00    	jne    109d92 <_ZN2os3hal17serial_controller10vprint_fmtEPcS2_+0xd92>
  109060:	0f b7 2b             	movzx  ebp,WORD PTR [ebx]
  109063:	66 81 fd f8 03       	cmp    bp,0x3f8
  109068:	0f 84 72 01 00 00    	je     1091e0 <_ZN2os3hal17serial_controller10vprint_fmtEPcS2_+0x1e0>
  10906e:	85 db                	test   ebx,ebx
  109070:	0f 84 fe 0c 00 00    	je     109d74 <_ZN2os3hal17serial_controller10vprint_fmtEPcS2_+0xd74>
  109076:	85 ff                	test   edi,edi
  109078:	0f 85 f6 0c 00 00    	jne    109d74 <_ZN2os3hal17serial_controller10vprint_fmtEPcS2_+0xd74>
  10907e:	66 81 fd f8 02       	cmp    bp,0x2f8
  109083:	0f 84 57 01 00 00    	je     1091e0 <_ZN2os3hal17serial_controller10vprint_fmtEPcS2_+0x1e0>
  109089:	85 db                	test   ebx,ebx
  10908b:	0f 84 2f 11 00 00    	je     10a1c0 <_ZN2os3hal17serial_controller10vprint_fmtEPcS2_+0x11c0>
  109091:	85 ff                	test   edi,edi
  109093:	0f 85 27 11 00 00    	jne    10a1c0 <_ZN2os3hal17serial_controller10vprint_fmtEPcS2_+0x11c0>
  109099:	66 81 fd e8 03       	cmp    bp,0x3e8
  10909e:	0f 84 3c 01 00 00    	je     1091e0 <_ZN2os3hal17serial_controller10vprint_fmtEPcS2_+0x1e0>
  1090a4:	85 db                	test   ebx,ebx
  1090a6:	0f 84 f6 10 00 00    	je     10a1a2 <_ZN2os3hal17serial_controller10vprint_fmtEPcS2_+0x11a2>
  1090ac:	85 ff                	test   edi,edi
  1090ae:	0f 85 ee 10 00 00    	jne    10a1a2 <_ZN2os3hal17serial_controller10vprint_fmtEPcS2_+0x11a2>
  1090b4:	66 81 fd e8 02       	cmp    bp,0x2e8
  1090b9:	0f 84 21 01 00 00    	je     1091e0 <_ZN2os3hal17serial_controller10vprint_fmtEPcS2_+0x1e0>
  1090bf:	0f b6 0c 24          	movzx  ecx,BYTE PTR [esp]
  1090c3:	89 f5                	mov    ebp,esi
  1090c5:	85 ed                	test   ebp,ebp
  1090c7:	0f 84 b8 10 00 00    	je     10a185 <_ZN2os3hal17serial_controller10vprint_fmtEPcS2_+0x1185>
  1090cd:	84 c9                	test   cl,cl
  1090cf:	0f 84 5b 01 00 00    	je     109230 <_ZN2os3hal17serial_controller10vprint_fmtEPcS2_+0x230>
  1090d5:	85 ed                	test   ebp,ebp
  1090d7:	0f 84 64 0c 00 00    	je     109d41 <_ZN2os3hal17serial_controller10vprint_fmtEPcS2_+0xd41>
  1090dd:	0f b6 45 01          	movzx  eax,BYTE PTR [ebp+0x1]
  1090e1:	80 f9 25             	cmp    cl,0x25
  1090e4:	8d 75 01             	lea    esi,[ebp+0x1]
  1090e7:	88 04 24             	mov    BYTE PTR [esp],al
  1090ea:	0f 85 40 ff ff ff    	jne    109030 <_ZN2os3hal17serial_controller10vprint_fmtEPcS2_+0x30>
  1090f0:	85 f6                	test   esi,esi
  1090f2:	0f 84 be 0e 00 00    	je     109fb6 <_ZN2os3hal17serial_controller10vprint_fmtEPcS2_+0xfb6>
  1090f8:	80 3c 24 25          	cmp    BYTE PTR [esp],0x25
  1090fc:	0f 84 3e 01 00 00    	je     109240 <_ZN2os3hal17serial_controller10vprint_fmtEPcS2_+0x240>
  109102:	80 3c 24 63          	cmp    BYTE PTR [esp],0x63
  109106:	0f 85 84 02 00 00    	jne    109390 <_ZN2os3hal17serial_controller10vprint_fmtEPcS2_+0x390>
  10910c:	85 db                	test   ebx,ebx
  10910e:	0f 84 8d 0e 00 00    	je     109fa1 <_ZN2os3hal17serial_controller10vprint_fmtEPcS2_+0xfa1>
  109114:	85 ff                	test   edi,edi
  109116:	0f 85 85 0e 00 00    	jne    109fa1 <_ZN2os3hal17serial_controller10vprint_fmtEPcS2_+0xfa1>
  10911c:	8b 44 24 48          	mov    eax,DWORD PTR [esp+0x48]
  109120:	8b 4c 24 48          	mov    ecx,DWORD PTR [esp+0x48]
  109124:	83 c0 04             	add    eax,0x4
  109127:	85 c9                	test   ecx,ecx
  109129:	89 04 24             	mov    DWORD PTR [esp],eax
  10912c:	0f 84 57 0e 00 00    	je     109f89 <_ZN2os3hal17serial_controller10vprint_fmtEPcS2_+0xf89>
  109132:	f6 44 24 48 03       	test   BYTE PTR [esp+0x48],0x3
  109137:	0f 85 4c 0e 00 00    	jne    109f89 <_ZN2os3hal17serial_controller10vprint_fmtEPcS2_+0xf89>
  10913d:	8b 44 24 48          	mov    eax,DWORD PTR [esp+0x48]
  109141:	85 db                	test   ebx,ebx
  109143:	8b 00                	mov    eax,DWORD PTR [eax]
  109145:	89 44 24 04          	mov    DWORD PTR [esp+0x4],eax
  109149:	0f 84 b2 0c 00 00    	je     109e01 <_ZN2os3hal17serial_controller10vprint_fmtEPcS2_+0xe01>
  10914f:	85 ff                	test   edi,edi
  109151:	0f 85 aa 0c 00 00    	jne    109e01 <_ZN2os3hal17serial_controller10vprint_fmtEPcS2_+0xe01>
  109157:	85 db                	test   ebx,ebx
  109159:	0f 84 8d 0c 00 00    	je     109dec <_ZN2os3hal17serial_controller10vprint_fmtEPcS2_+0xdec>
  10915f:	85 ff                	test   edi,edi
  109161:	0f 85 85 0c 00 00    	jne    109dec <_ZN2os3hal17serial_controller10vprint_fmtEPcS2_+0xdec>
  109167:	0f b7 0b             	movzx  ecx,WORD PTR [ebx]
  10916a:	8d 75 02             	lea    esi,[ebp+0x2]
  10916d:	66 81 f9 f8 03       	cmp    cx,0x3f8
  109172:	0f 84 18 03 00 00    	je     109490 <_ZN2os3hal17serial_controller10vprint_fmtEPcS2_+0x490>
  109178:	85 db                	test   ebx,ebx
  10917a:	0f 84 8f 0b 00 00    	je     109d0f <_ZN2os3hal17serial_controller10vprint_fmtEPcS2_+0xd0f>
  109180:	85 ff                	test   edi,edi
  109182:	0f 85 87 0b 00 00    	jne    109d0f <_ZN2os3hal17serial_controller10vprint_fmtEPcS2_+0xd0f>
  109188:	66 81 f9 f8 02       	cmp    cx,0x2f8
  10918d:	0f 84 fd 02 00 00    	je     109490 <_ZN2os3hal17serial_controller10vprint_fmtEPcS2_+0x490>
  109193:	85 db                	test   ebx,ebx
  109195:	0f 84 86 0f 00 00    	je     10a121 <_ZN2os3hal17serial_controller10vprint_fmtEPcS2_+0x1121>
  10919b:	85 ff                	test   edi,edi
  10919d:	0f 85 7e 0f 00 00    	jne    10a121 <_ZN2os3hal17serial_controller10vprint_fmtEPcS2_+0x1121>
  1091a3:	66 81 f9 e8 03       	cmp    cx,0x3e8
  1091a8:	0f 84 e2 02 00 00    	je     109490 <_ZN2os3hal17serial_controller10vprint_fmtEPcS2_+0x490>
  1091ae:	85 db                	test   ebx,ebx
  1091b0:	0f 84 88 0f 00 00    	je     10a13e <_ZN2os3hal17serial_controller10vprint_fmtEPcS2_+0x113e>
  1091b6:	85 ff                	test   edi,edi
  1091b8:	0f 85 80 0f 00 00    	jne    10a13e <_ZN2os3hal17serial_controller10vprint_fmtEPcS2_+0x113e>
  1091be:	66 81 f9 e8 02       	cmp    cx,0x2e8
  1091c3:	0f 84 c7 02 00 00    	je     109490 <_ZN2os3hal17serial_controller10vprint_fmtEPcS2_+0x490>
  1091c9:	8b 04 24             	mov    eax,DWORD PTR [esp]
  1091cc:	0f b6 4d 02          	movzx  ecx,BYTE PTR [ebp+0x2]
  1091d0:	89 f5                	mov    ebp,esi
  1091d2:	89 44 24 48          	mov    DWORD PTR [esp+0x48],eax
  1091d6:	e9 ea fe ff ff       	jmp    1090c5 <_ZN2os3hal17serial_controller10vprint_fmtEPcS2_+0xc5>
  1091db:	90                   	nop
  1091dc:	8d 74 26 00          	lea    esi,[esi+eiz*1+0x0]
  1091e0:	8d 55 05             	lea    edx,[ebp+0x5]
  1091e3:	8d b6 00 00 00 00    	lea    esi,[esi+0x0]
  1091e9:	8d bc 27 00 00 00 00 	lea    edi,[edi+eiz*1+0x0]
  1091f0:	85 db                	test   ebx,ebx
  1091f2:	0f 84 7a 0e 00 00    	je     10a072 <_ZN2os3hal17serial_controller10vprint_fmtEPcS2_+0x1072>
  1091f8:	85 ff                	test   edi,edi
  1091fa:	0f 85 72 0e 00 00    	jne    10a072 <_ZN2os3hal17serial_controller10vprint_fmtEPcS2_+0x1072>
  109200:	85 db                	test   ebx,ebx
  109202:	0f 84 e1 0a 00 00    	je     109ce9 <_ZN2os3hal17serial_controller10vprint_fmtEPcS2_+0xce9>
  109208:	85 ff                	test   edi,edi
  10920a:	0f 85 d9 0a 00 00    	jne    109ce9 <_ZN2os3hal17serial_controller10vprint_fmtEPcS2_+0xce9>
  109210:	ec                   	in     al,dx
  109211:	a8 20                	test   al,0x20
  109213:	74 db                	je     1091f0 <_ZN2os3hal17serial_controller10vprint_fmtEPcS2_+0x1f0>
  109215:	85 db                	test   ebx,ebx
  109217:	0f 84 ae 0a 00 00    	je     109ccb <_ZN2os3hal17serial_controller10vprint_fmtEPcS2_+0xccb>
  10921d:	85 ff                	test   edi,edi
  10921f:	0f 85 a6 0a 00 00    	jne    109ccb <_ZN2os3hal17serial_controller10vprint_fmtEPcS2_+0xccb>
  109225:	89 c8                	mov    eax,ecx
  109227:	89 ea                	mov    edx,ebp
  109229:	ee                   	out    dx,al
  10922a:	e9 90 fe ff ff       	jmp    1090bf <_ZN2os3hal17serial_controller10vprint_fmtEPcS2_+0xbf>
  10922f:	90                   	nop
  109230:	83 c4 2c             	add    esp,0x2c
  109233:	5b                   	pop    ebx
  109234:	5e                   	pop    esi
  109235:	5f                   	pop    edi
  109236:	5d                   	pop    ebp
  109237:	c3                   	ret    
  109238:	90                   	nop
  109239:	8d b4 26 00 00 00 00 	lea    esi,[esi+eiz*1+0x0]
  109240:	85 db                	test   ebx,ebx
  109242:	0f 84 44 0a 00 00    	je     109c8c <_ZN2os3hal17serial_controller10vprint_fmtEPcS2_+0xc8c>
  109248:	85 ff                	test   edi,edi
  10924a:	0f 85 3c 0a 00 00    	jne    109c8c <_ZN2os3hal17serial_controller10vprint_fmtEPcS2_+0xc8c>
  109250:	85 db                	test   ebx,ebx
  109252:	0f 84 40 0e 00 00    	je     10a098 <_ZN2os3hal17serial_controller10vprint_fmtEPcS2_+0x1098>
  109258:	85 ff                	test   edi,edi
  10925a:	0f 85 38 0e 00 00    	jne    10a098 <_ZN2os3hal17serial_controller10vprint_fmtEPcS2_+0x1098>
  109260:	85 db                	test   ebx,ebx
  109262:	0f 84 c4 0a 00 00    	je     109d2c <_ZN2os3hal17serial_controller10vprint_fmtEPcS2_+0xd2c>
  109268:	85 ff                	test   edi,edi
  10926a:	0f 85 bc 0a 00 00    	jne    109d2c <_ZN2os3hal17serial_controller10vprint_fmtEPcS2_+0xd2c>
  109270:	0f b7 33             	movzx  esi,WORD PTR [ebx]
  109273:	66 81 fe f8 03       	cmp    si,0x3f8
  109278:	0f 84 72 02 00 00    	je     1094f0 <_ZN2os3hal17serial_controller10vprint_fmtEPcS2_+0x4f0>
  10927e:	85 db                	test   ebx,ebx
  109280:	0f 84 d7 0d 00 00    	je     10a05d <_ZN2os3hal17serial_controller10vprint_fmtEPcS2_+0x105d>
  109286:	85 ff                	test   edi,edi
  109288:	0f 85 cf 0d 00 00    	jne    10a05d <_ZN2os3hal17serial_controller10vprint_fmtEPcS2_+0x105d>
  10928e:	66 81 fe f8 02       	cmp    si,0x2f8
  109293:	0f 84 57 02 00 00    	je     1094f0 <_ZN2os3hal17serial_controller10vprint_fmtEPcS2_+0x4f0>
  109299:	85 db                	test   ebx,ebx
  10929b:	0f 84 3d 0f 00 00    	je     10a1de <_ZN2os3hal17serial_controller10vprint_fmtEPcS2_+0x11de>
  1092a1:	85 ff                	test   edi,edi
  1092a3:	0f 85 35 0f 00 00    	jne    10a1de <_ZN2os3hal17serial_controller10vprint_fmtEPcS2_+0x11de>
  1092a9:	66 81 fe e8 03       	cmp    si,0x3e8
  1092ae:	0f 84 3c 02 00 00    	je     1094f0 <_ZN2os3hal17serial_controller10vprint_fmtEPcS2_+0x4f0>
  1092b4:	85 db                	test   ebx,ebx
  1092b6:	0f 84 b4 0e 00 00    	je     10a170 <_ZN2os3hal17serial_controller10vprint_fmtEPcS2_+0x1170>
  1092bc:	85 ff                	test   edi,edi
  1092be:	0f 85 ac 0e 00 00    	jne    10a170 <_ZN2os3hal17serial_controller10vprint_fmtEPcS2_+0x1170>
  1092c4:	66 81 fe e8 02       	cmp    si,0x2e8
  1092c9:	0f 84 21 02 00 00    	je     1094f0 <_ZN2os3hal17serial_controller10vprint_fmtEPcS2_+0x4f0>
  1092cf:	80 3c 24 66          	cmp    BYTE PTR [esp],0x66
  1092d3:	8d 45 02             	lea    eax,[ebp+0x2]
  1092d6:	89 44 24 04          	mov    DWORD PTR [esp+0x4],eax
  1092da:	0f 84 62 02 00 00    	je     109542 <_ZN2os3hal17serial_controller10vprint_fmtEPcS2_+0x542>
  1092e0:	80 3c 24 73          	cmp    BYTE PTR [esp],0x73
  1092e4:	0f 84 5a 07 00 00    	je     109a44 <_ZN2os3hal17serial_controller10vprint_fmtEPcS2_+0xa44>
  1092ea:	85 db                	test   ebx,ebx
  1092ec:	0f 84 c4 09 00 00    	je     109cb6 <_ZN2os3hal17serial_controller10vprint_fmtEPcS2_+0xcb6>
  1092f2:	85 ff                	test   edi,edi
  1092f4:	0f 85 bc 09 00 00    	jne    109cb6 <_ZN2os3hal17serial_controller10vprint_fmtEPcS2_+0xcb6>
  1092fa:	85 db                	test   ebx,ebx
  1092fc:	0f 84 9f 09 00 00    	je     109ca1 <_ZN2os3hal17serial_controller10vprint_fmtEPcS2_+0xca1>
  109302:	85 ff                	test   edi,edi
  109304:	0f 85 97 09 00 00    	jne    109ca1 <_ZN2os3hal17serial_controller10vprint_fmtEPcS2_+0xca1>
  10930a:	85 db                	test   ebx,ebx
  10930c:	0f 84 62 0c 00 00    	je     109f74 <_ZN2os3hal17serial_controller10vprint_fmtEPcS2_+0xf74>
  109312:	85 ff                	test   edi,edi
  109314:	0f 85 5a 0c 00 00    	jne    109f74 <_ZN2os3hal17serial_controller10vprint_fmtEPcS2_+0xf74>
  10931a:	0f b7 33             	movzx  esi,WORD PTR [ebx]
  10931d:	66 81 fe f8 03       	cmp    si,0x3f8
  109322:	0f 84 25 02 00 00    	je     10954d <_ZN2os3hal17serial_controller10vprint_fmtEPcS2_+0x54d>
  109328:	85 db                	test   ebx,ebx
  10932a:	0f 84 2f 0c 00 00    	je     109f5f <_ZN2os3hal17serial_controller10vprint_fmtEPcS2_+0xf5f>
  109330:	85 ff                	test   edi,edi
  109332:	0f 85 27 0c 00 00    	jne    109f5f <_ZN2os3hal17serial_controller10vprint_fmtEPcS2_+0xf5f>
  109338:	66 81 fe f8 02       	cmp    si,0x2f8
  10933d:	0f 84 0a 02 00 00    	je     10954d <_ZN2os3hal17serial_controller10vprint_fmtEPcS2_+0x54d>
  109343:	85 db                	test   ebx,ebx
  109345:	0f 84 ff 0b 00 00    	je     109f4a <_ZN2os3hal17serial_controller10vprint_fmtEPcS2_+0xf4a>
  10934b:	85 ff                	test   edi,edi
  10934d:	0f 85 f7 0b 00 00    	jne    109f4a <_ZN2os3hal17serial_controller10vprint_fmtEPcS2_+0xf4a>
  109353:	66 81 fe e8 03       	cmp    si,0x3e8
  109358:	0f 84 ef 01 00 00    	je     10954d <_ZN2os3hal17serial_controller10vprint_fmtEPcS2_+0x54d>
  10935e:	85 db                	test   ebx,ebx
  109360:	0f 84 cf 0b 00 00    	je     109f35 <_ZN2os3hal17serial_controller10vprint_fmtEPcS2_+0xf35>
  109366:	85 ff                	test   edi,edi
  109368:	0f 85 c7 0b 00 00    	jne    109f35 <_ZN2os3hal17serial_controller10vprint_fmtEPcS2_+0xf35>
  10936e:	66 81 fe e8 02       	cmp    si,0x2e8
  109373:	0f 84 d4 01 00 00    	je     10954d <_ZN2os3hal17serial_controller10vprint_fmtEPcS2_+0x54d>
  109379:	0f b6 4d 02          	movzx  ecx,BYTE PTR [ebp+0x2]
  10937d:	8b 6c 24 04          	mov    ebp,DWORD PTR [esp+0x4]
  109381:	e9 3f fd ff ff       	jmp    1090c5 <_ZN2os3hal17serial_controller10vprint_fmtEPcS2_+0xc5>
  109386:	8d 76 00             	lea    esi,[esi+0x0]
  109389:	8d bc 27 00 00 00 00 	lea    edi,[edi+eiz*1+0x0]
  109390:	80 3c 24 64          	cmp    BYTE PTR [esp],0x64
  109394:	0f 84 86 00 00 00    	je     109420 <_ZN2os3hal17serial_controller10vprint_fmtEPcS2_+0x420>
  10939a:	80 3c 24 75          	cmp    BYTE PTR [esp],0x75
  10939e:	0f 85 fc 01 00 00    	jne    1095a0 <_ZN2os3hal17serial_controller10vprint_fmtEPcS2_+0x5a0>
  1093a4:	8b 74 24 48          	mov    esi,DWORD PTR [esp+0x48]
  1093a8:	83 c6 04             	add    esi,0x4
  1093ab:	0f 84 aa 0d 00 00    	je     10a15b <_ZN2os3hal17serial_controller10vprint_fmtEPcS2_+0x115b>
  1093b1:	f7 c6 03 00 00 00    	test   esi,0x3
  1093b7:	0f 85 9e 0d 00 00    	jne    10a15b <_ZN2os3hal17serial_controller10vprint_fmtEPcS2_+0x115b>
  1093bd:	8b 44 24 48          	mov    eax,DWORD PTR [esp+0x48]
  1093c1:	83 ec 04             	sub    esp,0x4
  1093c4:	8b 00                	mov    eax,DWORD PTR [eax]
  1093c6:	89 44 24 04          	mov    DWORD PTR [esp+0x4],eax
  1093ca:	6a 10                	push   0x10
  1093cc:	6a 00                	push   0x0
  1093ce:	8d 54 24 1c          	lea    edx,[esp+0x1c]
  1093d2:	52                   	push   edx
  1093d3:	89 54 24 14          	mov    DWORD PTR [esp+0x14],edx
  1093d7:	e8 94 26 00 00       	call   10ba70 <memset>
  1093dc:	83 c4 10             	add    esp,0x10
  1093df:	85 db                	test   ebx,ebx
  1093e1:	8b 54 24 04          	mov    edx,DWORD PTR [esp+0x4]
  1093e5:	0f 84 c2 0c 00 00    	je     10a0ad <_ZN2os3hal17serial_controller10vprint_fmtEPcS2_+0x10ad>
  1093eb:	85 ff                	test   edi,edi
  1093ed:	0f 85 ba 0c 00 00    	jne    10a0ad <_ZN2os3hal17serial_controller10vprint_fmtEPcS2_+0x10ad>
  1093f3:	83 ec 04             	sub    esp,0x4
  1093f6:	6a 0a                	push   0xa
  1093f8:	52                   	push   edx
  1093f9:	ff 74 24 0c          	push   DWORD PTR [esp+0xc]
  1093fd:	e8 4e 1d 00 00       	call   10b150 <ltoa>
  109402:	5a                   	pop    edx
  109403:	59                   	pop    ecx
  109404:	50                   	push   eax
  109405:	53                   	push   ebx
  109406:	83 c5 02             	add    ebp,0x2
  109409:	e8 72 f6 ff ff       	call   108a80 <_ZN2os3hal17serial_controller5printEPc>
  10940e:	83 c4 10             	add    esp,0x10
  109411:	0f b6 4d 00          	movzx  ecx,BYTE PTR [ebp+0x0]
  109415:	89 74 24 48          	mov    DWORD PTR [esp+0x48],esi
  109419:	e9 a7 fc ff ff       	jmp    1090c5 <_ZN2os3hal17serial_controller10vprint_fmtEPcS2_+0xc5>
  10941e:	66 90                	xchg   ax,ax
  109420:	8b 74 24 48          	mov    esi,DWORD PTR [esp+0x48]
  109424:	83 c6 04             	add    esi,0x4
  109427:	0f 84 9d 0c 00 00    	je     10a0ca <_ZN2os3hal17serial_controller10vprint_fmtEPcS2_+0x10ca>
  10942d:	f7 c6 03 00 00 00    	test   esi,0x3
  109433:	0f 85 91 0c 00 00    	jne    10a0ca <_ZN2os3hal17serial_controller10vprint_fmtEPcS2_+0x10ca>
  109439:	8b 44 24 48          	mov    eax,DWORD PTR [esp+0x48]
  10943d:	83 ec 04             	sub    esp,0x4
  109440:	8b 00                	mov    eax,DWORD PTR [eax]
  109442:	89 44 24 04          	mov    DWORD PTR [esp+0x4],eax
  109446:	6a 10                	push   0x10
  109448:	6a 00                	push   0x0
  10944a:	8d 54 24 1c          	lea    edx,[esp+0x1c]
  10944e:	52                   	push   edx
  10944f:	89 54 24 14          	mov    DWORD PTR [esp+0x14],edx
  109453:	e8 18 26 00 00       	call   10ba70 <memset>
  109458:	83 c4 10             	add    esp,0x10
  10945b:	85 db                	test   ebx,ebx
  10945d:	8b 54 24 04          	mov    edx,DWORD PTR [esp+0x4]
  109461:	0f 84 78 0c 00 00    	je     10a0df <_ZN2os3hal17serial_controller10vprint_fmtEPcS2_+0x10df>
  109467:	85 ff                	test   edi,edi
  109469:	0f 85 70 0c 00 00    	jne    10a0df <_ZN2os3hal17serial_controller10vprint_fmtEPcS2_+0x10df>
  10946f:	83 ec 04             	sub    esp,0x4
  109472:	6a 0a                	push   0xa
  109474:	52                   	push   edx
  109475:	ff 74 24 0c          	push   DWORD PTR [esp+0xc]
  109479:	e8 22 17 00 00       	call   10aba0 <itoa>
  10947e:	e9 7f ff ff ff       	jmp    109402 <_ZN2os3hal17serial_controller10vprint_fmtEPcS2_+0x402>
  109483:	8d b6 00 00 00 00    	lea    esi,[esi+0x0]
  109489:	8d bc 27 00 00 00 00 	lea    edi,[edi+eiz*1+0x0]
  109490:	8d 51 05             	lea    edx,[ecx+0x5]
  109493:	8d b6 00 00 00 00    	lea    esi,[esi+0x0]
  109499:	8d bc 27 00 00 00 00 	lea    edi,[edi+eiz*1+0x0]
  1094a0:	85 db                	test   ebx,ebx
  1094a2:	0f 84 54 0c 00 00    	je     10a0fc <_ZN2os3hal17serial_controller10vprint_fmtEPcS2_+0x10fc>
  1094a8:	85 ff                	test   edi,edi
  1094aa:	0f 85 4c 0c 00 00    	jne    10a0fc <_ZN2os3hal17serial_controller10vprint_fmtEPcS2_+0x10fc>
  1094b0:	85 db                	test   ebx,ebx
  1094b2:	0f 84 14 0b 00 00    	je     109fcc <_ZN2os3hal17serial_controller10vprint_fmtEPcS2_+0xfcc>
  1094b8:	85 ff                	test   edi,edi
  1094ba:	0f 85 0c 0b 00 00    	jne    109fcc <_ZN2os3hal17serial_controller10vprint_fmtEPcS2_+0xfcc>
  1094c0:	ec                   	in     al,dx
  1094c1:	a8 20                	test   al,0x20
  1094c3:	74 db                	je     1094a0 <_ZN2os3hal17serial_controller10vprint_fmtEPcS2_+0x4a0>
  1094c5:	85 db                	test   ebx,ebx
  1094c7:	0f 84 24 0b 00 00    	je     109ff1 <_ZN2os3hal17serial_controller10vprint_fmtEPcS2_+0xff1>
  1094cd:	85 ff                	test   edi,edi
  1094cf:	0f 85 1c 0b 00 00    	jne    109ff1 <_ZN2os3hal17serial_controller10vprint_fmtEPcS2_+0xff1>
  1094d5:	0f b6 44 24 04       	movzx  eax,BYTE PTR [esp+0x4]
  1094da:	89 ca                	mov    edx,ecx
  1094dc:	ee                   	out    dx,al
  1094dd:	e9 e7 fc ff ff       	jmp    1091c9 <_ZN2os3hal17serial_controller10vprint_fmtEPcS2_+0x1c9>
  1094e2:	8d b4 26 00 00 00 00 	lea    esi,[esi+eiz*1+0x0]
  1094e9:	8d bc 27 00 00 00 00 	lea    edi,[edi+eiz*1+0x0]
  1094f0:	8d 56 05             	lea    edx,[esi+0x5]
  1094f3:	8d b6 00 00 00 00    	lea    esi,[esi+0x0]
  1094f9:	8d bc 27 00 00 00 00 	lea    edi,[edi+eiz*1+0x0]
  109500:	85 db                	test   ebx,ebx
  109502:	0f 84 06 0b 00 00    	je     10a00e <_ZN2os3hal17serial_controller10vprint_fmtEPcS2_+0x100e>
  109508:	85 ff                	test   edi,edi
  10950a:	0f 85 fe 0a 00 00    	jne    10a00e <_ZN2os3hal17serial_controller10vprint_fmtEPcS2_+0x100e>
  109510:	85 db                	test   ebx,ebx
  109512:	0f 84 13 0b 00 00    	je     10a02b <_ZN2os3hal17serial_controller10vprint_fmtEPcS2_+0x102b>
  109518:	85 ff                	test   edi,edi
  10951a:	0f 85 0b 0b 00 00    	jne    10a02b <_ZN2os3hal17serial_controller10vprint_fmtEPcS2_+0x102b>
  109520:	ec                   	in     al,dx
  109521:	a8 20                	test   al,0x20
  109523:	74 db                	je     109500 <_ZN2os3hal17serial_controller10vprint_fmtEPcS2_+0x500>
  109525:	85 db                	test   ebx,ebx
  109527:	0f 84 1b 0b 00 00    	je     10a048 <_ZN2os3hal17serial_controller10vprint_fmtEPcS2_+0x1048>
  10952d:	85 ff                	test   edi,edi
  10952f:	0f 85 13 0b 00 00    	jne    10a048 <_ZN2os3hal17serial_controller10vprint_fmtEPcS2_+0x1048>
  109535:	b8 25 00 00 00       	mov    eax,0x25
  10953a:	89 f2                	mov    edx,esi
  10953c:	ee                   	out    dx,al
  10953d:	e9 8d fd ff ff       	jmp    1092cf <_ZN2os3hal17serial_controller10vprint_fmtEPcS2_+0x2cf>
  109542:	0f b6 4d 02          	movzx  ecx,BYTE PTR [ebp+0x2]
  109546:	89 c5                	mov    ebp,eax
  109548:	e9 78 fb ff ff       	jmp    1090c5 <_ZN2os3hal17serial_controller10vprint_fmtEPcS2_+0xc5>
  10954d:	8d 56 05             	lea    edx,[esi+0x5]
  109550:	85 db                	test   ebx,ebx
  109552:	0f 84 c0 09 00 00    	je     109f18 <_ZN2os3hal17serial_controller10vprint_fmtEPcS2_+0xf18>
  109558:	85 ff                	test   edi,edi
  10955a:	0f 85 b8 09 00 00    	jne    109f18 <_ZN2os3hal17serial_controller10vprint_fmtEPcS2_+0xf18>
  109560:	85 db                	test   ebx,ebx
  109562:	0f 84 93 09 00 00    	je     109efb <_ZN2os3hal17serial_controller10vprint_fmtEPcS2_+0xefb>
  109568:	85 ff                	test   edi,edi
  10956a:	0f 85 8b 09 00 00    	jne    109efb <_ZN2os3hal17serial_controller10vprint_fmtEPcS2_+0xefb>
  109570:	ec                   	in     al,dx
  109571:	a8 20                	test   al,0x20
  109573:	74 db                	je     109550 <_ZN2os3hal17serial_controller10vprint_fmtEPcS2_+0x550>
  109575:	85 db                	test   ebx,ebx
  109577:	0f 84 69 09 00 00    	je     109ee6 <_ZN2os3hal17serial_controller10vprint_fmtEPcS2_+0xee6>
  10957d:	85 ff                	test   edi,edi
  10957f:	0f 85 61 09 00 00    	jne    109ee6 <_ZN2os3hal17serial_controller10vprint_fmtEPcS2_+0xee6>
  109585:	0f b6 04 24          	movzx  eax,BYTE PTR [esp]
  109589:	89 f2                	mov    edx,esi
  10958b:	ee                   	out    dx,al
  10958c:	e9 e8 fd ff ff       	jmp    109379 <_ZN2os3hal17serial_controller10vprint_fmtEPcS2_+0x379>
  109591:	eb 0d                	jmp    1095a0 <_ZN2os3hal17serial_controller10vprint_fmtEPcS2_+0x5a0>
  109593:	90                   	nop
  109594:	90                   	nop
  109595:	90                   	nop
  109596:	90                   	nop
  109597:	90                   	nop
  109598:	90                   	nop
  109599:	90                   	nop
  10959a:	90                   	nop
  10959b:	90                   	nop
  10959c:	90                   	nop
  10959d:	90                   	nop
  10959e:	90                   	nop
  10959f:	90                   	nop
  1095a0:	80 3c 24 78          	cmp    BYTE PTR [esp],0x78
  1095a4:	75 59                	jne    1095ff <_ZN2os3hal17serial_controller10vprint_fmtEPcS2_+0x5ff>
  1095a6:	8b 74 24 48          	mov    esi,DWORD PTR [esp+0x48]
  1095aa:	83 c6 04             	add    esi,0x4
  1095ad:	0f 84 1e 09 00 00    	je     109ed1 <_ZN2os3hal17serial_controller10vprint_fmtEPcS2_+0xed1>
  1095b3:	f7 c6 03 00 00 00    	test   esi,0x3
  1095b9:	0f 85 12 09 00 00    	jne    109ed1 <_ZN2os3hal17serial_controller10vprint_fmtEPcS2_+0xed1>
  1095bf:	8b 44 24 48          	mov    eax,DWORD PTR [esp+0x48]
  1095c3:	83 ec 04             	sub    esp,0x4
  1095c6:	8b 00                	mov    eax,DWORD PTR [eax]
  1095c8:	89 44 24 04          	mov    DWORD PTR [esp+0x4],eax
  1095cc:	6a 10                	push   0x10
  1095ce:	6a 00                	push   0x0
  1095d0:	8d 54 24 1c          	lea    edx,[esp+0x1c]
  1095d4:	52                   	push   edx
  1095d5:	89 54 24 14          	mov    DWORD PTR [esp+0x14],edx
  1095d9:	e8 92 24 00 00       	call   10ba70 <memset>
  1095de:	83 c4 10             	add    esp,0x10
  1095e1:	85 db                	test   ebx,ebx
  1095e3:	8b 54 24 04          	mov    edx,DWORD PTR [esp+0x4]
  1095e7:	0f 84 73 08 00 00    	je     109e60 <_ZN2os3hal17serial_controller10vprint_fmtEPcS2_+0xe60>
  1095ed:	85 ff                	test   edi,edi
  1095ef:	0f 85 6b 08 00 00    	jne    109e60 <_ZN2os3hal17serial_controller10vprint_fmtEPcS2_+0xe60>
  1095f5:	83 ec 04             	sub    esp,0x4
  1095f8:	6a 10                	push   0x10
  1095fa:	e9 f9 fd ff ff       	jmp    1093f8 <_ZN2os3hal17serial_controller10vprint_fmtEPcS2_+0x3f8>
  1095ff:	80 3c 24 32          	cmp    BYTE PTR [esp],0x32
  109603:	0f 84 17 01 00 00    	je     109720 <_ZN2os3hal17serial_controller10vprint_fmtEPcS2_+0x720>
  109609:	80 3c 24 34          	cmp    BYTE PTR [esp],0x34
  10960d:	0f 84 c8 01 00 00    	je     1097db <_ZN2os3hal17serial_controller10vprint_fmtEPcS2_+0x7db>
  109613:	80 3c 24 38          	cmp    BYTE PTR [esp],0x38
  109617:	0f 85 b2 fc ff ff    	jne    1092cf <_ZN2os3hal17serial_controller10vprint_fmtEPcS2_+0x2cf>
  10961d:	83 fd fe             	cmp    ebp,0xfffffffe
  109620:	0f 84 24 08 00 00    	je     109e4a <_ZN2os3hal17serial_controller10vprint_fmtEPcS2_+0xe4a>
  109626:	0f b6 45 02          	movzx  eax,BYTE PTR [ebp+0x2]
  10962a:	8d 4d 03             	lea    ecx,[ebp+0x3]
  10962d:	89 0c 24             	mov    DWORD PTR [esp],ecx
  109630:	88 44 24 04          	mov    BYTE PTR [esp+0x4],al
  109634:	83 e0 df             	and    eax,0xffffffdf
  109637:	3c 58                	cmp    al,0x58
  109639:	0f 84 b3 03 00 00    	je     1099f2 <_ZN2os3hal17serial_controller10vprint_fmtEPcS2_+0x9f2>
  10963f:	85 db                	test   ebx,ebx
  109641:	0f 84 4f 04 00 00    	je     109a96 <_ZN2os3hal17serial_controller10vprint_fmtEPcS2_+0xa96>
  109647:	85 ff                	test   edi,edi
  109649:	0f 85 47 04 00 00    	jne    109a96 <_ZN2os3hal17serial_controller10vprint_fmtEPcS2_+0xa96>
  10964f:	85 db                	test   ebx,ebx
  109651:	0f 84 3b 08 00 00    	je     109e92 <_ZN2os3hal17serial_controller10vprint_fmtEPcS2_+0xe92>
  109657:	85 ff                	test   edi,edi
  109659:	0f 85 33 08 00 00    	jne    109e92 <_ZN2os3hal17serial_controller10vprint_fmtEPcS2_+0xe92>
  10965f:	85 db                	test   ebx,ebx
  109661:	0f 84 16 08 00 00    	je     109e7d <_ZN2os3hal17serial_controller10vprint_fmtEPcS2_+0xe7d>
  109667:	85 ff                	test   edi,edi
  109669:	0f 85 0e 08 00 00    	jne    109e7d <_ZN2os3hal17serial_controller10vprint_fmtEPcS2_+0xe7d>
  10966f:	0f b7 33             	movzx  esi,WORD PTR [ebx]
  109672:	66 81 fe f8 03       	cmp    si,0x3f8
  109677:	74 49                	je     1096c2 <_ZN2os3hal17serial_controller10vprint_fmtEPcS2_+0x6c2>
  109679:	85 db                	test   ebx,ebx
  10967b:	0f 84 ce 04 00 00    	je     109b4f <_ZN2os3hal17serial_controller10vprint_fmtEPcS2_+0xb4f>
  109681:	85 ff                	test   edi,edi
  109683:	0f 85 c6 04 00 00    	jne    109b4f <_ZN2os3hal17serial_controller10vprint_fmtEPcS2_+0xb4f>
  109689:	66 81 fe f8 02       	cmp    si,0x2f8
  10968e:	74 32                	je     1096c2 <_ZN2os3hal17serial_controller10vprint_fmtEPcS2_+0x6c2>
  109690:	85 db                	test   ebx,ebx
  109692:	0f 84 24 08 00 00    	je     109ebc <_ZN2os3hal17serial_controller10vprint_fmtEPcS2_+0xebc>
  109698:	85 ff                	test   edi,edi
  10969a:	0f 85 1c 08 00 00    	jne    109ebc <_ZN2os3hal17serial_controller10vprint_fmtEPcS2_+0xebc>
  1096a0:	66 81 fe e8 03       	cmp    si,0x3e8
  1096a5:	74 1b                	je     1096c2 <_ZN2os3hal17serial_controller10vprint_fmtEPcS2_+0x6c2>
  1096a7:	85 db                	test   ebx,ebx
  1096a9:	0f 84 f8 07 00 00    	je     109ea7 <_ZN2os3hal17serial_controller10vprint_fmtEPcS2_+0xea7>
  1096af:	85 ff                	test   edi,edi
  1096b1:	0f 85 f0 07 00 00    	jne    109ea7 <_ZN2os3hal17serial_controller10vprint_fmtEPcS2_+0xea7>
  1096b7:	66 81 fe e8 02       	cmp    si,0x2e8
  1096bc:	0f 85 0d 01 00 00    	jne    1097cf <_ZN2os3hal17serial_controller10vprint_fmtEPcS2_+0x7cf>
  1096c2:	8d 56 05             	lea    edx,[esi+0x5]
  1096c5:	8d 74 26 00          	lea    esi,[esi+eiz*1+0x0]
  1096c9:	8d bc 27 00 00 00 00 	lea    edi,[edi+eiz*1+0x0]
  1096d0:	85 db                	test   ebx,ebx
  1096d2:	0f 84 5a 04 00 00    	je     109b32 <_ZN2os3hal17serial_controller10vprint_fmtEPcS2_+0xb32>
  1096d8:	85 ff                	test   edi,edi
  1096da:	0f 85 52 04 00 00    	jne    109b32 <_ZN2os3hal17serial_controller10vprint_fmtEPcS2_+0xb32>
  1096e0:	85 db                	test   ebx,ebx
  1096e2:	0f 84 ed 03 00 00    	je     109ad5 <_ZN2os3hal17serial_controller10vprint_fmtEPcS2_+0xad5>
  1096e8:	85 ff                	test   edi,edi
  1096ea:	0f 85 e5 03 00 00    	jne    109ad5 <_ZN2os3hal17serial_controller10vprint_fmtEPcS2_+0xad5>
  1096f0:	ec                   	in     al,dx
  1096f1:	a8 20                	test   al,0x20
  1096f3:	74 db                	je     1096d0 <_ZN2os3hal17serial_controller10vprint_fmtEPcS2_+0x6d0>
  1096f5:	85 db                	test   ebx,ebx
  1096f7:	74 08                	je     109701 <_ZN2os3hal17serial_controller10vprint_fmtEPcS2_+0x701>
  1096f9:	85 ff                	test   edi,edi
  1096fb:	0f 84 c4 01 00 00    	je     1098c5 <_ZN2os3hal17serial_controller10vprint_fmtEPcS2_+0x8c5>
  109701:	50                   	push   eax
  109702:	50                   	push   eax
  109703:	53                   	push   ebx
  109704:	68 a4 50 11 00       	push   0x1150a4
  109709:	e8 62 33 00 00       	call   10ca70 <__ubsan_handle_type_mismatch>
  10970e:	83 c4 10             	add    esp,0x10
  109711:	e9 af 01 00 00       	jmp    1098c5 <_ZN2os3hal17serial_controller10vprint_fmtEPcS2_+0x8c5>
  109716:	8d 76 00             	lea    esi,[esi+0x0]
  109719:	8d bc 27 00 00 00 00 	lea    edi,[edi+eiz*1+0x0]
  109720:	83 fd fe             	cmp    ebp,0xfffffffe
  109723:	0f 84 7a 04 00 00    	je     109ba3 <_ZN2os3hal17serial_controller10vprint_fmtEPcS2_+0xba3>
  109729:	0f b6 4d 02          	movzx  ecx,BYTE PTR [ebp+0x2]
  10972d:	8d 45 03             	lea    eax,[ebp+0x3]
  109730:	89 04 24             	mov    DWORD PTR [esp],eax
  109733:	89 c8                	mov    eax,ecx
  109735:	83 e0 df             	and    eax,0xffffffdf
  109738:	3c 58                	cmp    al,0x58
  10973a:	0f 84 e6 01 00 00    	je     109926 <_ZN2os3hal17serial_controller10vprint_fmtEPcS2_+0x926>
  109740:	85 db                	test   ebx,ebx
  109742:	0f 84 8f 04 00 00    	je     109bd7 <_ZN2os3hal17serial_controller10vprint_fmtEPcS2_+0xbd7>
  109748:	85 ff                	test   edi,edi
  10974a:	0f 85 87 04 00 00    	jne    109bd7 <_ZN2os3hal17serial_controller10vprint_fmtEPcS2_+0xbd7>
  109750:	85 db                	test   ebx,ebx
  109752:	0f 84 61 04 00 00    	je     109bb9 <_ZN2os3hal17serial_controller10vprint_fmtEPcS2_+0xbb9>
  109758:	85 ff                	test   edi,edi
  10975a:	0f 85 59 04 00 00    	jne    109bb9 <_ZN2os3hal17serial_controller10vprint_fmtEPcS2_+0xbb9>
  109760:	85 db                	test   ebx,ebx
  109762:	0f 84 e7 04 00 00    	je     109c4f <_ZN2os3hal17serial_controller10vprint_fmtEPcS2_+0xc4f>
  109768:	85 ff                	test   edi,edi
  10976a:	0f 85 df 04 00 00    	jne    109c4f <_ZN2os3hal17serial_controller10vprint_fmtEPcS2_+0xc4f>
  109770:	0f b7 33             	movzx  esi,WORD PTR [ebx]
  109773:	66 81 fe f8 03       	cmp    si,0x3f8
  109778:	0f 84 54 01 00 00    	je     1098d2 <_ZN2os3hal17serial_controller10vprint_fmtEPcS2_+0x8d2>
  10977e:	85 db                	test   ebx,ebx
  109780:	0f 84 ab 04 00 00    	je     109c31 <_ZN2os3hal17serial_controller10vprint_fmtEPcS2_+0xc31>
  109786:	85 ff                	test   edi,edi
  109788:	0f 85 a3 04 00 00    	jne    109c31 <_ZN2os3hal17serial_controller10vprint_fmtEPcS2_+0xc31>
  10978e:	66 81 fe f8 02       	cmp    si,0x2f8
  109793:	0f 84 39 01 00 00    	je     1098d2 <_ZN2os3hal17serial_controller10vprint_fmtEPcS2_+0x8d2>
  109799:	85 db                	test   ebx,ebx
  10979b:	0f 84 72 04 00 00    	je     109c13 <_ZN2os3hal17serial_controller10vprint_fmtEPcS2_+0xc13>
  1097a1:	85 ff                	test   edi,edi
  1097a3:	0f 85 6a 04 00 00    	jne    109c13 <_ZN2os3hal17serial_controller10vprint_fmtEPcS2_+0xc13>
  1097a9:	66 81 fe e8 03       	cmp    si,0x3e8
  1097ae:	0f 84 1e 01 00 00    	je     1098d2 <_ZN2os3hal17serial_controller10vprint_fmtEPcS2_+0x8d2>
  1097b4:	85 db                	test   ebx,ebx
  1097b6:	0f 84 39 04 00 00    	je     109bf5 <_ZN2os3hal17serial_controller10vprint_fmtEPcS2_+0xbf5>
  1097bc:	85 ff                	test   edi,edi
  1097be:	0f 85 31 04 00 00    	jne    109bf5 <_ZN2os3hal17serial_controller10vprint_fmtEPcS2_+0xbf5>
  1097c4:	66 81 fe e8 02       	cmp    si,0x2e8
  1097c9:	0f 84 03 01 00 00    	je     1098d2 <_ZN2os3hal17serial_controller10vprint_fmtEPcS2_+0x8d2>
  1097cf:	0f b6 4d 03          	movzx  ecx,BYTE PTR [ebp+0x3]
  1097d3:	8b 2c 24             	mov    ebp,DWORD PTR [esp]
  1097d6:	e9 ea f8 ff ff       	jmp    1090c5 <_ZN2os3hal17serial_controller10vprint_fmtEPcS2_+0xc5>
  1097db:	83 fd fe             	cmp    ebp,0xfffffffe
  1097de:	0f 84 0e 03 00 00    	je     109af2 <_ZN2os3hal17serial_controller10vprint_fmtEPcS2_+0xaf2>
  1097e4:	0f b6 45 02          	movzx  eax,BYTE PTR [ebp+0x2]
  1097e8:	8d 4d 03             	lea    ecx,[ebp+0x3]
  1097eb:	89 0c 24             	mov    DWORD PTR [esp],ecx
  1097ee:	88 44 24 04          	mov    BYTE PTR [esp+0x4],al
  1097f2:	83 e0 df             	and    eax,0xffffffdf
  1097f5:	3c 58                	cmp    al,0x58
  1097f7:	0f 84 a2 01 00 00    	je     10999f <_ZN2os3hal17serial_controller10vprint_fmtEPcS2_+0x99f>
  1097fd:	85 db                	test   ebx,ebx
  1097ff:	0f 84 18 03 00 00    	je     109b1d <_ZN2os3hal17serial_controller10vprint_fmtEPcS2_+0xb1d>
  109805:	85 ff                	test   edi,edi
  109807:	0f 85 10 03 00 00    	jne    109b1d <_ZN2os3hal17serial_controller10vprint_fmtEPcS2_+0xb1d>
  10980d:	85 db                	test   ebx,ebx
  10980f:	0f 84 f3 02 00 00    	je     109b08 <_ZN2os3hal17serial_controller10vprint_fmtEPcS2_+0xb08>
  109815:	85 ff                	test   edi,edi
  109817:	0f 85 eb 02 00 00    	jne    109b08 <_ZN2os3hal17serial_controller10vprint_fmtEPcS2_+0xb08>
  10981d:	85 db                	test   ebx,ebx
  10981f:	0f 84 54 03 00 00    	je     109b79 <_ZN2os3hal17serial_controller10vprint_fmtEPcS2_+0xb79>
  109825:	85 ff                	test   edi,edi
  109827:	0f 85 4c 03 00 00    	jne    109b79 <_ZN2os3hal17serial_controller10vprint_fmtEPcS2_+0xb79>
  10982d:	0f b7 33             	movzx  esi,WORD PTR [ebx]
  109830:	66 81 fe f8 03       	cmp    si,0x3f8
  109835:	74 49                	je     109880 <_ZN2os3hal17serial_controller10vprint_fmtEPcS2_+0x880>
  109837:	85 db                	test   ebx,ebx
  109839:	0f 84 25 03 00 00    	je     109b64 <_ZN2os3hal17serial_controller10vprint_fmtEPcS2_+0xb64>
  10983f:	85 ff                	test   edi,edi
  109841:	0f 85 1d 03 00 00    	jne    109b64 <_ZN2os3hal17serial_controller10vprint_fmtEPcS2_+0xb64>
  109847:	66 81 fe f8 02       	cmp    si,0x2f8
  10984c:	74 32                	je     109880 <_ZN2os3hal17serial_controller10vprint_fmtEPcS2_+0x880>
  10984e:	85 db                	test   ebx,ebx
  109850:	0f 84 38 03 00 00    	je     109b8e <_ZN2os3hal17serial_controller10vprint_fmtEPcS2_+0xb8e>
  109856:	85 ff                	test   edi,edi
  109858:	0f 85 30 03 00 00    	jne    109b8e <_ZN2os3hal17serial_controller10vprint_fmtEPcS2_+0xb8e>
  10985e:	66 81 fe e8 03       	cmp    si,0x3e8
  109863:	74 1b                	je     109880 <_ZN2os3hal17serial_controller10vprint_fmtEPcS2_+0x880>
  109865:	85 db                	test   ebx,ebx
  109867:	0f 84 71 0a 00 00    	je     10a2de <_ZN2os3hal17serial_controller10vprint_fmtEPcS2_+0x12de>
  10986d:	85 ff                	test   edi,edi
  10986f:	0f 85 69 0a 00 00    	jne    10a2de <_ZN2os3hal17serial_controller10vprint_fmtEPcS2_+0x12de>
  109875:	66 81 fe e8 02       	cmp    si,0x2e8
  10987a:	0f 85 4f ff ff ff    	jne    1097cf <_ZN2os3hal17serial_controller10vprint_fmtEPcS2_+0x7cf>
  109880:	8d 56 05             	lea    edx,[esi+0x5]
  109883:	8d b6 00 00 00 00    	lea    esi,[esi+0x0]
  109889:	8d bc 27 00 00 00 00 	lea    edi,[edi+eiz*1+0x0]
  109890:	85 db                	test   ebx,ebx
  109892:	0f 84 8d 09 00 00    	je     10a225 <_ZN2os3hal17serial_controller10vprint_fmtEPcS2_+0x1225>
  109898:	85 ff                	test   edi,edi
  10989a:	0f 85 85 09 00 00    	jne    10a225 <_ZN2os3hal17serial_controller10vprint_fmtEPcS2_+0x1225>
  1098a0:	85 db                	test   ebx,ebx
  1098a2:	0f 84 60 09 00 00    	je     10a208 <_ZN2os3hal17serial_controller10vprint_fmtEPcS2_+0x1208>
  1098a8:	85 ff                	test   edi,edi
  1098aa:	0f 85 58 09 00 00    	jne    10a208 <_ZN2os3hal17serial_controller10vprint_fmtEPcS2_+0x1208>
  1098b0:	ec                   	in     al,dx
  1098b1:	a8 20                	test   al,0x20
  1098b3:	74 db                	je     109890 <_ZN2os3hal17serial_controller10vprint_fmtEPcS2_+0x890>
  1098b5:	85 db                	test   ebx,ebx
  1098b7:	0f 84 36 09 00 00    	je     10a1f3 <_ZN2os3hal17serial_controller10vprint_fmtEPcS2_+0x11f3>
  1098bd:	85 ff                	test   edi,edi
  1098bf:	0f 85 2e 09 00 00    	jne    10a1f3 <_ZN2os3hal17serial_controller10vprint_fmtEPcS2_+0x11f3>
  1098c5:	0f b6 44 24 04       	movzx  eax,BYTE PTR [esp+0x4]
  1098ca:	89 f2                	mov    edx,esi
  1098cc:	ee                   	out    dx,al
  1098cd:	e9 fd fe ff ff       	jmp    1097cf <_ZN2os3hal17serial_controller10vprint_fmtEPcS2_+0x7cf>
  1098d2:	8d 56 05             	lea    edx,[esi+0x5]
  1098d5:	8d 74 26 00          	lea    esi,[esi+eiz*1+0x0]
  1098d9:	8d bc 27 00 00 00 00 	lea    edi,[edi+eiz*1+0x0]
  1098e0:	85 db                	test   ebx,ebx
  1098e2:	0f 84 d0 09 00 00    	je     10a2b8 <_ZN2os3hal17serial_controller10vprint_fmtEPcS2_+0x12b8>
  1098e8:	85 ff                	test   edi,edi
  1098ea:	0f 85 c8 09 00 00    	jne    10a2b8 <_ZN2os3hal17serial_controller10vprint_fmtEPcS2_+0x12b8>
  1098f0:	85 db                	test   ebx,ebx
  1098f2:	0f 84 9a 09 00 00    	je     10a292 <_ZN2os3hal17serial_controller10vprint_fmtEPcS2_+0x1292>
  1098f8:	85 ff                	test   edi,edi
  1098fa:	0f 85 92 09 00 00    	jne    10a292 <_ZN2os3hal17serial_controller10vprint_fmtEPcS2_+0x1292>
  109900:	ec                   	in     al,dx
  109901:	a8 20                	test   al,0x20
  109903:	74 db                	je     1098e0 <_ZN2os3hal17serial_controller10vprint_fmtEPcS2_+0x8e0>
  109905:	85 db                	test   ebx,ebx
  109907:	0f 84 67 09 00 00    	je     10a274 <_ZN2os3hal17serial_controller10vprint_fmtEPcS2_+0x1274>
  10990d:	85 ff                	test   edi,edi
  10990f:	0f 85 5f 09 00 00    	jne    10a274 <_ZN2os3hal17serial_controller10vprint_fmtEPcS2_+0x1274>
  109915:	89 c8                	mov    eax,ecx
  109917:	89 f2                	mov    edx,esi
  109919:	ee                   	out    dx,al
  10991a:	0f b6 4d 03          	movzx  ecx,BYTE PTR [ebp+0x3]
  10991e:	8b 2c 24             	mov    ebp,DWORD PTR [esp]
  109921:	e9 9f f7 ff ff       	jmp    1090c5 <_ZN2os3hal17serial_controller10vprint_fmtEPcS2_+0xc5>
  109926:	8b 74 24 48          	mov    esi,DWORD PTR [esp+0x48]
  10992a:	83 c6 04             	add    esi,0x4
  10992d:	0f 84 2c 09 00 00    	je     10a25f <_ZN2os3hal17serial_controller10vprint_fmtEPcS2_+0x125f>
  109933:	f7 c6 03 00 00 00    	test   esi,0x3
  109939:	0f 85 20 09 00 00    	jne    10a25f <_ZN2os3hal17serial_controller10vprint_fmtEPcS2_+0x125f>
  10993f:	8b 44 24 48          	mov    eax,DWORD PTR [esp+0x48]
  109943:	83 ec 04             	sub    esp,0x4
  109946:	8b 00                	mov    eax,DWORD PTR [eax]
  109948:	89 44 24 08          	mov    DWORD PTR [esp+0x8],eax
  10994c:	6a 10                	push   0x10
  10994e:	6a 00                	push   0x0
  109950:	8d 54 24 1c          	lea    edx,[esp+0x1c]
  109954:	52                   	push   edx
  109955:	89 54 24 18          	mov    DWORD PTR [esp+0x18],edx
  109959:	e8 12 21 00 00       	call   10ba70 <memset>
  10995e:	83 c4 10             	add    esp,0x10
  109961:	85 db                	test   ebx,ebx
  109963:	8b 54 24 08          	mov    edx,DWORD PTR [esp+0x8]
  109967:	0f 84 d5 08 00 00    	je     10a242 <_ZN2os3hal17serial_controller10vprint_fmtEPcS2_+0x1242>
  10996d:	85 ff                	test   edi,edi
  10996f:	0f 85 cd 08 00 00    	jne    10a242 <_ZN2os3hal17serial_controller10vprint_fmtEPcS2_+0x1242>
  109975:	6a 01                	push   0x1
  109977:	6a 00                	push   0x0
  109979:	52                   	push   edx
  10997a:	ff 74 24 10          	push   DWORD PTR [esp+0x10]
  10997e:	e8 ed 17 00 00       	call   10b170 <strhex>
  109983:	5a                   	pop    edx
  109984:	59                   	pop    ecx
  109985:	50                   	push   eax
  109986:	53                   	push   ebx
  109987:	e8 f4 f0 ff ff       	call   108a80 <_ZN2os3hal17serial_controller5printEPc>
  10998c:	83 c4 10             	add    esp,0x10
  10998f:	0f b6 4d 03          	movzx  ecx,BYTE PTR [ebp+0x3]
  109993:	89 74 24 48          	mov    DWORD PTR [esp+0x48],esi
  109997:	8b 2c 24             	mov    ebp,DWORD PTR [esp]
  10999a:	e9 26 f7 ff ff       	jmp    1090c5 <_ZN2os3hal17serial_controller10vprint_fmtEPcS2_+0xc5>
  10999f:	8b 74 24 48          	mov    esi,DWORD PTR [esp+0x48]
  1099a3:	83 c6 04             	add    esi,0x4
  1099a6:	0f 84 89 04 00 00    	je     109e35 <_ZN2os3hal17serial_controller10vprint_fmtEPcS2_+0xe35>
  1099ac:	f7 c6 03 00 00 00    	test   esi,0x3
  1099b2:	0f 85 7d 04 00 00    	jne    109e35 <_ZN2os3hal17serial_controller10vprint_fmtEPcS2_+0xe35>
  1099b8:	8b 44 24 48          	mov    eax,DWORD PTR [esp+0x48]
  1099bc:	83 ec 04             	sub    esp,0x4
  1099bf:	8b 00                	mov    eax,DWORD PTR [eax]
  1099c1:	89 44 24 08          	mov    DWORD PTR [esp+0x8],eax
  1099c5:	6a 10                	push   0x10
  1099c7:	6a 00                	push   0x0
  1099c9:	8d 54 24 1c          	lea    edx,[esp+0x1c]
  1099cd:	52                   	push   edx
  1099ce:	89 54 24 18          	mov    DWORD PTR [esp+0x18],edx
  1099d2:	e8 99 20 00 00       	call   10ba70 <memset>
  1099d7:	83 c4 10             	add    esp,0x10
  1099da:	85 db                	test   ebx,ebx
  1099dc:	8b 54 24 08          	mov    edx,DWORD PTR [esp+0x8]
  1099e0:	0f 84 30 04 00 00    	je     109e16 <_ZN2os3hal17serial_controller10vprint_fmtEPcS2_+0xe16>
  1099e6:	85 ff                	test   edi,edi
  1099e8:	0f 85 28 04 00 00    	jne    109e16 <_ZN2os3hal17serial_controller10vprint_fmtEPcS2_+0xe16>
  1099ee:	6a 02                	push   0x2
  1099f0:	eb 85                	jmp    109977 <_ZN2os3hal17serial_controller10vprint_fmtEPcS2_+0x977>
  1099f2:	8b 74 24 48          	mov    esi,DWORD PTR [esp+0x48]
  1099f6:	83 c6 04             	add    esi,0x4
  1099f9:	0f 84 82 00 00 00    	je     109a81 <_ZN2os3hal17serial_controller10vprint_fmtEPcS2_+0xa81>
  1099ff:	f7 c6 03 00 00 00    	test   esi,0x3
  109a05:	75 7a                	jne    109a81 <_ZN2os3hal17serial_controller10vprint_fmtEPcS2_+0xa81>
  109a07:	8b 44 24 48          	mov    eax,DWORD PTR [esp+0x48]
  109a0b:	83 ec 04             	sub    esp,0x4
  109a0e:	8b 00                	mov    eax,DWORD PTR [eax]
  109a10:	89 44 24 08          	mov    DWORD PTR [esp+0x8],eax
  109a14:	6a 10                	push   0x10
  109a16:	6a 00                	push   0x0
  109a18:	8d 54 24 1c          	lea    edx,[esp+0x1c]
  109a1c:	52                   	push   edx
  109a1d:	89 54 24 18          	mov    DWORD PTR [esp+0x18],edx
  109a21:	e8 4a 20 00 00       	call   10ba70 <memset>
  109a26:	83 c4 10             	add    esp,0x10
  109a29:	85 db                	test   ebx,ebx
  109a2b:	8b 54 24 08          	mov    edx,DWORD PTR [esp+0x8]
  109a2f:	0f 84 38 02 00 00    	je     109c6d <_ZN2os3hal17serial_controller10vprint_fmtEPcS2_+0xc6d>
  109a35:	85 ff                	test   edi,edi
  109a37:	0f 85 30 02 00 00    	jne    109c6d <_ZN2os3hal17serial_controller10vprint_fmtEPcS2_+0xc6d>
  109a3d:	6a 04                	push   0x4
  109a3f:	e9 33 ff ff ff       	jmp    109977 <_ZN2os3hal17serial_controller10vprint_fmtEPcS2_+0x977>
  109a44:	8b 74 24 48          	mov    esi,DWORD PTR [esp+0x48]
  109a48:	83 c6 04             	add    esi,0x4
  109a4b:	74 76                	je     109ac3 <_ZN2os3hal17serial_controller10vprint_fmtEPcS2_+0xac3>
  109a4d:	f7 c6 03 00 00 00    	test   esi,0x3
  109a53:	75 6e                	jne    109ac3 <_ZN2os3hal17serial_controller10vprint_fmtEPcS2_+0xac3>
  109a55:	8b 44 24 48          	mov    eax,DWORD PTR [esp+0x48]
  109a59:	85 db                	test   ebx,ebx
  109a5b:	8b 00                	mov    eax,DWORD PTR [eax]
  109a5d:	74 4c                	je     109aab <_ZN2os3hal17serial_controller10vprint_fmtEPcS2_+0xaab>
  109a5f:	85 ff                	test   edi,edi
  109a61:	75 48                	jne    109aab <_ZN2os3hal17serial_controller10vprint_fmtEPcS2_+0xaab>
  109a63:	83 ec 08             	sub    esp,0x8
  109a66:	50                   	push   eax
  109a67:	53                   	push   ebx
  109a68:	e8 13 f0 ff ff       	call   108a80 <_ZN2os3hal17serial_controller5printEPc>
  109a6d:	83 c4 10             	add    esp,0x10
  109a70:	0f b6 4d 02          	movzx  ecx,BYTE PTR [ebp+0x2]
  109a74:	89 74 24 48          	mov    DWORD PTR [esp+0x48],esi
  109a78:	8b 6c 24 04          	mov    ebp,DWORD PTR [esp+0x4]
  109a7c:	e9 44 f6 ff ff       	jmp    1090c5 <_ZN2os3hal17serial_controller10vprint_fmtEPcS2_+0xc5>
  109a81:	50                   	push   eax
  109a82:	50                   	push   eax
  109a83:	56                   	push   esi
  109a84:	68 8c 50 11 00       	push   0x11508c
  109a89:	e8 e2 2f 00 00       	call   10ca70 <__ubsan_handle_type_mismatch>
  109a8e:	83 c4 10             	add    esp,0x10
  109a91:	e9 71 ff ff ff       	jmp    109a07 <_ZN2os3hal17serial_controller10vprint_fmtEPcS2_+0xa07>
  109a96:	50                   	push   eax
  109a97:	50                   	push   eax
  109a98:	53                   	push   ebx
  109a99:	68 64 51 11 00       	push   0x115164
  109a9e:	e8 cd 2f 00 00       	call   10ca70 <__ubsan_handle_type_mismatch>
  109aa3:	83 c4 10             	add    esp,0x10
  109aa6:	e9 a4 fb ff ff       	jmp    10964f <_ZN2os3hal17serial_controller10vprint_fmtEPcS2_+0x64f>
  109aab:	89 04 24             	mov    DWORD PTR [esp],eax
  109aae:	50                   	push   eax
  109aaf:	50                   	push   eax
  109ab0:	53                   	push   ebx
  109ab1:	68 34 50 11 00       	push   0x115034
  109ab6:	e8 b5 2f 00 00       	call   10ca70 <__ubsan_handle_type_mismatch>
  109abb:	83 c4 10             	add    esp,0x10
  109abe:	8b 04 24             	mov    eax,DWORD PTR [esp]
  109ac1:	eb a0                	jmp    109a63 <_ZN2os3hal17serial_controller10vprint_fmtEPcS2_+0xa63>
  109ac3:	50                   	push   eax
  109ac4:	50                   	push   eax
  109ac5:	56                   	push   esi
  109ac6:	68 4c 50 11 00       	push   0x11504c
  109acb:	e8 a0 2f 00 00       	call   10ca70 <__ubsan_handle_type_mismatch>
  109ad0:	83 c4 10             	add    esp,0x10
  109ad3:	eb 80                	jmp    109a55 <_ZN2os3hal17serial_controller10vprint_fmtEPcS2_+0xa55>
  109ad5:	89 54 24 08          	mov    DWORD PTR [esp+0x8],edx
  109ad9:	50                   	push   eax
  109ada:	50                   	push   eax
  109adb:	53                   	push   ebx
  109adc:	68 bc 50 11 00       	push   0x1150bc
  109ae1:	e8 8a 2f 00 00       	call   10ca70 <__ubsan_handle_type_mismatch>
  109ae6:	83 c4 10             	add    esp,0x10
  109ae9:	8b 54 24 08          	mov    edx,DWORD PTR [esp+0x8]
  109aed:	e9 fe fb ff ff       	jmp    1096f0 <_ZN2os3hal17serial_controller10vprint_fmtEPcS2_+0x6f0>
  109af2:	52                   	push   edx
  109af3:	52                   	push   edx
  109af4:	6a 00                	push   0x0
  109af6:	68 9c 52 11 00       	push   0x11529c
  109afb:	e8 70 2f 00 00       	call   10ca70 <__ubsan_handle_type_mismatch>
  109b00:	83 c4 10             	add    esp,0x10
  109b03:	e9 dc fc ff ff       	jmp    1097e4 <_ZN2os3hal17serial_controller10vprint_fmtEPcS2_+0x7e4>
  109b08:	50                   	push   eax
  109b09:	50                   	push   eax
  109b0a:	53                   	push   ebx
  109b0b:	68 6c 52 11 00       	push   0x11526c
  109b10:	e8 5b 2f 00 00       	call   10ca70 <__ubsan_handle_type_mismatch>
  109b15:	83 c4 10             	add    esp,0x10
  109b18:	e9 00 fd ff ff       	jmp    10981d <_ZN2os3hal17serial_controller10vprint_fmtEPcS2_+0x81d>
  109b1d:	50                   	push   eax
  109b1e:	50                   	push   eax
  109b1f:	53                   	push   ebx
  109b20:	68 84 52 11 00       	push   0x115284
  109b25:	e8 46 2f 00 00       	call   10ca70 <__ubsan_handle_type_mismatch>
  109b2a:	83 c4 10             	add    esp,0x10
  109b2d:	e9 db fc ff ff       	jmp    10980d <_ZN2os3hal17serial_controller10vprint_fmtEPcS2_+0x80d>
  109b32:	89 54 24 08          	mov    DWORD PTR [esp+0x8],edx
  109b36:	50                   	push   eax
  109b37:	50                   	push   eax
  109b38:	53                   	push   ebx
  109b39:	68 d4 50 11 00       	push   0x1150d4
  109b3e:	e8 2d 2f 00 00       	call   10ca70 <__ubsan_handle_type_mismatch>
  109b43:	83 c4 10             	add    esp,0x10
  109b46:	8b 54 24 08          	mov    edx,DWORD PTR [esp+0x8]
  109b4a:	e9 91 fb ff ff       	jmp    1096e0 <_ZN2os3hal17serial_controller10vprint_fmtEPcS2_+0x6e0>
  109b4f:	51                   	push   ecx
  109b50:	51                   	push   ecx
  109b51:	53                   	push   ebx
  109b52:	68 1c 51 11 00       	push   0x11511c
  109b57:	e8 14 2f 00 00       	call   10ca70 <__ubsan_handle_type_mismatch>
  109b5c:	83 c4 10             	add    esp,0x10
  109b5f:	e9 25 fb ff ff       	jmp    109689 <_ZN2os3hal17serial_controller10vprint_fmtEPcS2_+0x689>
  109b64:	50                   	push   eax
  109b65:	50                   	push   eax
  109b66:	53                   	push   ebx
  109b67:	68 3c 52 11 00       	push   0x11523c
  109b6c:	e8 ff 2e 00 00       	call   10ca70 <__ubsan_handle_type_mismatch>
  109b71:	83 c4 10             	add    esp,0x10
  109b74:	e9 ce fc ff ff       	jmp    109847 <_ZN2os3hal17serial_controller10vprint_fmtEPcS2_+0x847>
  109b79:	50                   	push   eax
  109b7a:	50                   	push   eax
  109b7b:	53                   	push   ebx
  109b7c:	68 54 52 11 00       	push   0x115254
  109b81:	e8 ea 2e 00 00       	call   10ca70 <__ubsan_handle_type_mismatch>
  109b86:	83 c4 10             	add    esp,0x10
  109b89:	e9 9f fc ff ff       	jmp    10982d <_ZN2os3hal17serial_controller10vprint_fmtEPcS2_+0x82d>
  109b8e:	50                   	push   eax
  109b8f:	50                   	push   eax
  109b90:	53                   	push   ebx
  109b91:	68 24 52 11 00       	push   0x115224
  109b96:	e8 d5 2e 00 00       	call   10ca70 <__ubsan_handle_type_mismatch>
  109b9b:	83 c4 10             	add    esp,0x10
  109b9e:	e9 bb fc ff ff       	jmp    10985e <_ZN2os3hal17serial_controller10vprint_fmtEPcS2_+0x85e>
  109ba3:	50                   	push   eax
  109ba4:	50                   	push   eax
  109ba5:	6a 00                	push   0x0
  109ba7:	68 bc 53 11 00       	push   0x1153bc
  109bac:	e8 bf 2e 00 00       	call   10ca70 <__ubsan_handle_type_mismatch>
  109bb1:	83 c4 10             	add    esp,0x10
  109bb4:	e9 70 fb ff ff       	jmp    109729 <_ZN2os3hal17serial_controller10vprint_fmtEPcS2_+0x729>
  109bb9:	88 4c 24 04          	mov    BYTE PTR [esp+0x4],cl
  109bbd:	56                   	push   esi
  109bbe:	56                   	push   esi
  109bbf:	53                   	push   ebx
  109bc0:	68 8c 53 11 00       	push   0x11538c
  109bc5:	e8 a6 2e 00 00       	call   10ca70 <__ubsan_handle_type_mismatch>
  109bca:	83 c4 10             	add    esp,0x10
  109bcd:	0f b6 4c 24 04       	movzx  ecx,BYTE PTR [esp+0x4]
  109bd2:	e9 89 fb ff ff       	jmp    109760 <_ZN2os3hal17serial_controller10vprint_fmtEPcS2_+0x760>
  109bd7:	88 4c 24 04          	mov    BYTE PTR [esp+0x4],cl
  109bdb:	50                   	push   eax
  109bdc:	50                   	push   eax
  109bdd:	53                   	push   ebx
  109bde:	68 a4 53 11 00       	push   0x1153a4
  109be3:	e8 88 2e 00 00       	call   10ca70 <__ubsan_handle_type_mismatch>
  109be8:	83 c4 10             	add    esp,0x10
  109beb:	0f b6 4c 24 04       	movzx  ecx,BYTE PTR [esp+0x4]
  109bf0:	e9 5b fb ff ff       	jmp    109750 <_ZN2os3hal17serial_controller10vprint_fmtEPcS2_+0x750>
  109bf5:	88 4c 24 04          	mov    BYTE PTR [esp+0x4],cl
  109bf9:	50                   	push   eax
  109bfa:	50                   	push   eax
  109bfb:	53                   	push   ebx
  109bfc:	68 2c 53 11 00       	push   0x11532c
  109c01:	e8 6a 2e 00 00       	call   10ca70 <__ubsan_handle_type_mismatch>
  109c06:	83 c4 10             	add    esp,0x10
  109c09:	0f b6 4c 24 04       	movzx  ecx,BYTE PTR [esp+0x4]
  109c0e:	e9 b1 fb ff ff       	jmp    1097c4 <_ZN2os3hal17serial_controller10vprint_fmtEPcS2_+0x7c4>
  109c13:	88 4c 24 04          	mov    BYTE PTR [esp+0x4],cl
  109c17:	50                   	push   eax
  109c18:	50                   	push   eax
  109c19:	53                   	push   ebx
  109c1a:	68 44 53 11 00       	push   0x115344
  109c1f:	e8 4c 2e 00 00       	call   10ca70 <__ubsan_handle_type_mismatch>
  109c24:	83 c4 10             	add    esp,0x10
  109c27:	0f b6 4c 24 04       	movzx  ecx,BYTE PTR [esp+0x4]
  109c2c:	e9 78 fb ff ff       	jmp    1097a9 <_ZN2os3hal17serial_controller10vprint_fmtEPcS2_+0x7a9>
  109c31:	88 4c 24 04          	mov    BYTE PTR [esp+0x4],cl
  109c35:	52                   	push   edx
  109c36:	52                   	push   edx
  109c37:	53                   	push   ebx
  109c38:	68 5c 53 11 00       	push   0x11535c
  109c3d:	e8 2e 2e 00 00       	call   10ca70 <__ubsan_handle_type_mismatch>
  109c42:	83 c4 10             	add    esp,0x10
  109c45:	0f b6 4c 24 04       	movzx  ecx,BYTE PTR [esp+0x4]
  109c4a:	e9 3f fb ff ff       	jmp    10978e <_ZN2os3hal17serial_controller10vprint_fmtEPcS2_+0x78e>
  109c4f:	88 4c 24 04          	mov    BYTE PTR [esp+0x4],cl
  109c53:	51                   	push   ecx
  109c54:	51                   	push   ecx
  109c55:	53                   	push   ebx
  109c56:	68 74 53 11 00       	push   0x115374
  109c5b:	e8 10 2e 00 00       	call   10ca70 <__ubsan_handle_type_mismatch>
  109c60:	83 c4 10             	add    esp,0x10
  109c63:	0f b6 4c 24 04       	movzx  ecx,BYTE PTR [esp+0x4]
  109c68:	e9 03 fb ff ff       	jmp    109770 <_ZN2os3hal17serial_controller10vprint_fmtEPcS2_+0x770>
  109c6d:	89 54 24 08          	mov    DWORD PTR [esp+0x8],edx
  109c71:	50                   	push   eax
  109c72:	50                   	push   eax
  109c73:	53                   	push   ebx
  109c74:	68 74 50 11 00       	push   0x115074
  109c79:	e8 f2 2d 00 00       	call   10ca70 <__ubsan_handle_type_mismatch>
  109c7e:	83 c4 10             	add    esp,0x10
  109c81:	8b 54 24 08          	mov    edx,DWORD PTR [esp+0x8]
  109c85:	6a 04                	push   0x4
  109c87:	e9 eb fc ff ff       	jmp    109977 <_ZN2os3hal17serial_controller10vprint_fmtEPcS2_+0x977>
  109c8c:	56                   	push   esi
  109c8d:	56                   	push   esi
  109c8e:	53                   	push   ebx
  109c8f:	68 30 56 11 00       	push   0x115630
  109c94:	e8 d7 2d 00 00       	call   10ca70 <__ubsan_handle_type_mismatch>
  109c99:	83 c4 10             	add    esp,0x10
  109c9c:	e9 af f5 ff ff       	jmp    109250 <_ZN2os3hal17serial_controller10vprint_fmtEPcS2_+0x250>
  109ca1:	52                   	push   edx
  109ca2:	52                   	push   edx
  109ca3:	53                   	push   ebx
  109ca4:	68 04 50 11 00       	push   0x115004
  109ca9:	e8 c2 2d 00 00       	call   10ca70 <__ubsan_handle_type_mismatch>
  109cae:	83 c4 10             	add    esp,0x10
  109cb1:	e9 54 f6 ff ff       	jmp    10930a <_ZN2os3hal17serial_controller10vprint_fmtEPcS2_+0x30a>
  109cb6:	51                   	push   ecx
  109cb7:	51                   	push   ecx
  109cb8:	53                   	push   ebx
  109cb9:	68 1c 50 11 00       	push   0x11501c
  109cbe:	e8 ad 2d 00 00       	call   10ca70 <__ubsan_handle_type_mismatch>
  109cc3:	83 c4 10             	add    esp,0x10
  109cc6:	e9 2f f6 ff ff       	jmp    1092fa <_ZN2os3hal17serial_controller10vprint_fmtEPcS2_+0x2fa>
  109ccb:	88 4c 24 04          	mov    BYTE PTR [esp+0x4],cl
  109ccf:	52                   	push   edx
  109cd0:	52                   	push   edx
  109cd1:	53                   	push   ebx
  109cd2:	68 84 4e 11 00       	push   0x114e84
  109cd7:	e8 94 2d 00 00       	call   10ca70 <__ubsan_handle_type_mismatch>
  109cdc:	83 c4 10             	add    esp,0x10
  109cdf:	0f b6 4c 24 04       	movzx  ecx,BYTE PTR [esp+0x4]
  109ce4:	e9 3c f5 ff ff       	jmp    109225 <_ZN2os3hal17serial_controller10vprint_fmtEPcS2_+0x225>
  109ce9:	88 4c 24 08          	mov    BYTE PTR [esp+0x8],cl
  109ced:	89 54 24 04          	mov    DWORD PTR [esp+0x4],edx
  109cf1:	51                   	push   ecx
  109cf2:	51                   	push   ecx
  109cf3:	53                   	push   ebx
  109cf4:	68 9c 4e 11 00       	push   0x114e9c
  109cf9:	e8 72 2d 00 00       	call   10ca70 <__ubsan_handle_type_mismatch>
  109cfe:	83 c4 10             	add    esp,0x10
  109d01:	0f b6 4c 24 08       	movzx  ecx,BYTE PTR [esp+0x8]
  109d06:	8b 54 24 04          	mov    edx,DWORD PTR [esp+0x4]
  109d0a:	e9 01 f5 ff ff       	jmp    109210 <_ZN2os3hal17serial_controller10vprint_fmtEPcS2_+0x210>
  109d0f:	89 4c 24 08          	mov    DWORD PTR [esp+0x8],ecx
  109d13:	50                   	push   eax
  109d14:	50                   	push   eax
  109d15:	53                   	push   ebx
  109d16:	68 ec 54 11 00       	push   0x1154ec
  109d1b:	e8 50 2d 00 00       	call   10ca70 <__ubsan_handle_type_mismatch>
  109d20:	83 c4 10             	add    esp,0x10
  109d23:	8b 4c 24 08          	mov    ecx,DWORD PTR [esp+0x8]
  109d27:	e9 5c f4 ff ff       	jmp    109188 <_ZN2os3hal17serial_controller10vprint_fmtEPcS2_+0x188>
  109d2c:	52                   	push   edx
  109d2d:	52                   	push   edx
  109d2e:	53                   	push   ebx
  109d2f:	68 00 56 11 00       	push   0x115600
  109d34:	e8 37 2d 00 00       	call   10ca70 <__ubsan_handle_type_mismatch>
  109d39:	83 c4 10             	add    esp,0x10
  109d3c:	e9 2f f5 ff ff       	jmp    109270 <_ZN2os3hal17serial_controller10vprint_fmtEPcS2_+0x270>
  109d41:	88 0c 24             	mov    BYTE PTR [esp],cl
  109d44:	50                   	push   eax
  109d45:	50                   	push   eax
  109d46:	6a 00                	push   0x0
  109d48:	68 60 56 11 00       	push   0x115660
  109d4d:	e8 1e 2d 00 00       	call   10ca70 <__ubsan_handle_type_mismatch>
  109d52:	83 c4 10             	add    esp,0x10
  109d55:	0f b6 0c 24          	movzx  ecx,BYTE PTR [esp]
  109d59:	e9 7f f3 ff ff       	jmp    1090dd <_ZN2os3hal17serial_controller10vprint_fmtEPcS2_+0xdd>
  109d5e:	50                   	push   eax
  109d5f:	50                   	push   eax
  109d60:	6a 00                	push   0x0
  109d62:	68 78 56 11 00       	push   0x115678
  109d67:	e8 04 2d 00 00       	call   10ca70 <__ubsan_handle_type_mismatch>
  109d6c:	83 c4 10             	add    esp,0x10
  109d6f:	e9 a3 f2 ff ff       	jmp    109017 <_ZN2os3hal17serial_controller10vprint_fmtEPcS2_+0x17>
  109d74:	88 4c 24 04          	mov    BYTE PTR [esp+0x4],cl
  109d78:	50                   	push   eax
  109d79:	50                   	push   eax
  109d7a:	53                   	push   ebx
  109d7b:	68 fc 4e 11 00       	push   0x114efc
  109d80:	e8 eb 2c 00 00       	call   10ca70 <__ubsan_handle_type_mismatch>
  109d85:	83 c4 10             	add    esp,0x10
  109d88:	0f b6 4c 24 04       	movzx  ecx,BYTE PTR [esp+0x4]
  109d8d:	e9 ec f2 ff ff       	jmp    10907e <_ZN2os3hal17serial_controller10vprint_fmtEPcS2_+0x7e>
  109d92:	88 4c 24 04          	mov    BYTE PTR [esp+0x4],cl
  109d96:	50                   	push   eax
  109d97:	50                   	push   eax
  109d98:	53                   	push   ebx
  109d99:	68 14 4f 11 00       	push   0x114f14
  109d9e:	e8 cd 2c 00 00       	call   10ca70 <__ubsan_handle_type_mismatch>
  109da3:	83 c4 10             	add    esp,0x10
  109da6:	0f b6 4c 24 04       	movzx  ecx,BYTE PTR [esp+0x4]
  109dab:	e9 b0 f2 ff ff       	jmp    109060 <_ZN2os3hal17serial_controller10vprint_fmtEPcS2_+0x60>
  109db0:	88 4c 24 04          	mov    BYTE PTR [esp+0x4],cl
  109db4:	50                   	push   eax
  109db5:	50                   	push   eax
  109db6:	53                   	push   ebx
  109db7:	68 2c 4f 11 00       	push   0x114f2c
  109dbc:	e8 af 2c 00 00       	call   10ca70 <__ubsan_handle_type_mismatch>
  109dc1:	83 c4 10             	add    esp,0x10
  109dc4:	0f b6 4c 24 04       	movzx  ecx,BYTE PTR [esp+0x4]
  109dc9:	e9 82 f2 ff ff       	jmp    109050 <_ZN2os3hal17serial_controller10vprint_fmtEPcS2_+0x50>
  109dce:	88 4c 24 04          	mov    BYTE PTR [esp+0x4],cl
  109dd2:	52                   	push   edx
  109dd3:	52                   	push   edx
  109dd4:	53                   	push   ebx
  109dd5:	68 44 4f 11 00       	push   0x114f44
  109dda:	e8 91 2c 00 00       	call   10ca70 <__ubsan_handle_type_mismatch>
  109ddf:	83 c4 10             	add    esp,0x10
  109de2:	0f b6 4c 24 04       	movzx  ecx,BYTE PTR [esp+0x4]
  109de7:	e9 54 f2 ff ff       	jmp    109040 <_ZN2os3hal17serial_controller10vprint_fmtEPcS2_+0x40>
  109dec:	50                   	push   eax
  109ded:	50                   	push   eax
  109dee:	53                   	push   ebx
  109def:	68 04 55 11 00       	push   0x115504
  109df4:	e8 77 2c 00 00       	call   10ca70 <__ubsan_handle_type_mismatch>
  109df9:	83 c4 10             	add    esp,0x10
  109dfc:	e9 66 f3 ff ff       	jmp    109167 <_ZN2os3hal17serial_controller10vprint_fmtEPcS2_+0x167>
  109e01:	50                   	push   eax
  109e02:	50                   	push   eax
  109e03:	53                   	push   ebx
  109e04:	68 1c 55 11 00       	push   0x11551c
  109e09:	e8 62 2c 00 00       	call   10ca70 <__ubsan_handle_type_mismatch>
  109e0e:	83 c4 10             	add    esp,0x10
  109e11:	e9 41 f3 ff ff       	jmp    109157 <_ZN2os3hal17serial_controller10vprint_fmtEPcS2_+0x157>
  109e16:	89 54 24 08          	mov    DWORD PTR [esp+0x8],edx
  109e1a:	50                   	push   eax
  109e1b:	50                   	push   eax
  109e1c:	53                   	push   ebx
  109e1d:	68 94 51 11 00       	push   0x115194
  109e22:	e8 49 2c 00 00       	call   10ca70 <__ubsan_handle_type_mismatch>
  109e27:	83 c4 10             	add    esp,0x10
  109e2a:	8b 54 24 08          	mov    edx,DWORD PTR [esp+0x8]
  109e2e:	6a 02                	push   0x2
  109e30:	e9 42 fb ff ff       	jmp    109977 <_ZN2os3hal17serial_controller10vprint_fmtEPcS2_+0x977>
  109e35:	50                   	push   eax
  109e36:	50                   	push   eax
  109e37:	56                   	push   esi
  109e38:	68 ac 51 11 00       	push   0x1151ac
  109e3d:	e8 2e 2c 00 00       	call   10ca70 <__ubsan_handle_type_mismatch>
  109e42:	83 c4 10             	add    esp,0x10
  109e45:	e9 6e fb ff ff       	jmp    1099b8 <_ZN2os3hal17serial_controller10vprint_fmtEPcS2_+0x9b8>
  109e4a:	50                   	push   eax
  109e4b:	50                   	push   eax
  109e4c:	6a 00                	push   0x0
  109e4e:	68 7c 51 11 00       	push   0x11517c
  109e53:	e8 18 2c 00 00       	call   10ca70 <__ubsan_handle_type_mismatch>
  109e58:	83 c4 10             	add    esp,0x10
  109e5b:	e9 c6 f7 ff ff       	jmp    109626 <_ZN2os3hal17serial_controller10vprint_fmtEPcS2_+0x626>
  109e60:	89 54 24 04          	mov    DWORD PTR [esp+0x4],edx
  109e64:	50                   	push   eax
  109e65:	50                   	push   eax
  109e66:	53                   	push   ebx
  109e67:	68 d4 53 11 00       	push   0x1153d4
  109e6c:	e8 ff 2b 00 00       	call   10ca70 <__ubsan_handle_type_mismatch>
  109e71:	83 c4 10             	add    esp,0x10
  109e74:	8b 54 24 04          	mov    edx,DWORD PTR [esp+0x4]
  109e78:	e9 78 f7 ff ff       	jmp    1095f5 <_ZN2os3hal17serial_controller10vprint_fmtEPcS2_+0x5f5>
  109e7d:	56                   	push   esi
  109e7e:	56                   	push   esi
  109e7f:	53                   	push   ebx
  109e80:	68 34 51 11 00       	push   0x115134
  109e85:	e8 e6 2b 00 00       	call   10ca70 <__ubsan_handle_type_mismatch>
  109e8a:	83 c4 10             	add    esp,0x10
  109e8d:	e9 dd f7 ff ff       	jmp    10966f <_ZN2os3hal17serial_controller10vprint_fmtEPcS2_+0x66f>
  109e92:	50                   	push   eax
  109e93:	50                   	push   eax
  109e94:	53                   	push   ebx
  109e95:	68 4c 51 11 00       	push   0x11514c
  109e9a:	e8 d1 2b 00 00       	call   10ca70 <__ubsan_handle_type_mismatch>
  109e9f:	83 c4 10             	add    esp,0x10
  109ea2:	e9 b8 f7 ff ff       	jmp    10965f <_ZN2os3hal17serial_controller10vprint_fmtEPcS2_+0x65f>
  109ea7:	50                   	push   eax
  109ea8:	50                   	push   eax
  109ea9:	53                   	push   ebx
  109eaa:	68 ec 50 11 00       	push   0x1150ec
  109eaf:	e8 bc 2b 00 00       	call   10ca70 <__ubsan_handle_type_mismatch>
  109eb4:	83 c4 10             	add    esp,0x10
  109eb7:	e9 fb f7 ff ff       	jmp    1096b7 <_ZN2os3hal17serial_controller10vprint_fmtEPcS2_+0x6b7>
  109ebc:	52                   	push   edx
  109ebd:	52                   	push   edx
  109ebe:	53                   	push   ebx
  109ebf:	68 04 51 11 00       	push   0x115104
  109ec4:	e8 a7 2b 00 00       	call   10ca70 <__ubsan_handle_type_mismatch>
  109ec9:	83 c4 10             	add    esp,0x10
  109ecc:	e9 cf f7 ff ff       	jmp    1096a0 <_ZN2os3hal17serial_controller10vprint_fmtEPcS2_+0x6a0>
  109ed1:	50                   	push   eax
  109ed2:	50                   	push   eax
  109ed3:	56                   	push   esi
  109ed4:	68 ec 53 11 00       	push   0x1153ec
  109ed9:	e8 92 2b 00 00       	call   10ca70 <__ubsan_handle_type_mismatch>
  109ede:	83 c4 10             	add    esp,0x10
  109ee1:	e9 d9 f6 ff ff       	jmp    1095bf <_ZN2os3hal17serial_controller10vprint_fmtEPcS2_+0x5bf>
  109ee6:	51                   	push   ecx
  109ee7:	51                   	push   ecx
  109ee8:	53                   	push   ebx
  109ee9:	68 5c 4f 11 00       	push   0x114f5c
  109eee:	e8 7d 2b 00 00       	call   10ca70 <__ubsan_handle_type_mismatch>
  109ef3:	83 c4 10             	add    esp,0x10
  109ef6:	e9 8a f6 ff ff       	jmp    109585 <_ZN2os3hal17serial_controller10vprint_fmtEPcS2_+0x585>
  109efb:	89 54 24 08          	mov    DWORD PTR [esp+0x8],edx
  109eff:	50                   	push   eax
  109f00:	50                   	push   eax
  109f01:	53                   	push   ebx
  109f02:	68 74 4f 11 00       	push   0x114f74
  109f07:	e8 64 2b 00 00       	call   10ca70 <__ubsan_handle_type_mismatch>
  109f0c:	83 c4 10             	add    esp,0x10
  109f0f:	8b 54 24 08          	mov    edx,DWORD PTR [esp+0x8]
  109f13:	e9 58 f6 ff ff       	jmp    109570 <_ZN2os3hal17serial_controller10vprint_fmtEPcS2_+0x570>
  109f18:	89 54 24 08          	mov    DWORD PTR [esp+0x8],edx
  109f1c:	50                   	push   eax
  109f1d:	50                   	push   eax
  109f1e:	53                   	push   ebx
  109f1f:	68 8c 4f 11 00       	push   0x114f8c
  109f24:	e8 47 2b 00 00       	call   10ca70 <__ubsan_handle_type_mismatch>
  109f29:	83 c4 10             	add    esp,0x10
  109f2c:	8b 54 24 08          	mov    edx,DWORD PTR [esp+0x8]
  109f30:	e9 2b f6 ff ff       	jmp    109560 <_ZN2os3hal17serial_controller10vprint_fmtEPcS2_+0x560>
  109f35:	50                   	push   eax
  109f36:	50                   	push   eax
  109f37:	53                   	push   ebx
  109f38:	68 a4 4f 11 00       	push   0x114fa4
  109f3d:	e8 2e 2b 00 00       	call   10ca70 <__ubsan_handle_type_mismatch>
  109f42:	83 c4 10             	add    esp,0x10
  109f45:	e9 24 f4 ff ff       	jmp    10936e <_ZN2os3hal17serial_controller10vprint_fmtEPcS2_+0x36e>
  109f4a:	50                   	push   eax
  109f4b:	50                   	push   eax
  109f4c:	53                   	push   ebx
  109f4d:	68 bc 4f 11 00       	push   0x114fbc
  109f52:	e8 19 2b 00 00       	call   10ca70 <__ubsan_handle_type_mismatch>
  109f57:	83 c4 10             	add    esp,0x10
  109f5a:	e9 f4 f3 ff ff       	jmp    109353 <_ZN2os3hal17serial_controller10vprint_fmtEPcS2_+0x353>
  109f5f:	50                   	push   eax
  109f60:	50                   	push   eax
  109f61:	53                   	push   ebx
  109f62:	68 d4 4f 11 00       	push   0x114fd4
  109f67:	e8 04 2b 00 00       	call   10ca70 <__ubsan_handle_type_mismatch>
  109f6c:	83 c4 10             	add    esp,0x10
  109f6f:	e9 c4 f3 ff ff       	jmp    109338 <_ZN2os3hal17serial_controller10vprint_fmtEPcS2_+0x338>
  109f74:	50                   	push   eax
  109f75:	50                   	push   eax
  109f76:	53                   	push   ebx
  109f77:	68 ec 4f 11 00       	push   0x114fec
  109f7c:	e8 ef 2a 00 00       	call   10ca70 <__ubsan_handle_type_mismatch>
  109f81:	83 c4 10             	add    esp,0x10
  109f84:	e9 91 f3 ff ff       	jmp    10931a <_ZN2os3hal17serial_controller10vprint_fmtEPcS2_+0x31a>
  109f89:	52                   	push   edx
  109f8a:	52                   	push   edx
  109f8b:	ff 74 24 50          	push   DWORD PTR [esp+0x50]
  109f8f:	68 34 55 11 00       	push   0x115534
  109f94:	e8 d7 2a 00 00       	call   10ca70 <__ubsan_handle_type_mismatch>
  109f99:	83 c4 10             	add    esp,0x10
  109f9c:	e9 9c f1 ff ff       	jmp    10913d <_ZN2os3hal17serial_controller10vprint_fmtEPcS2_+0x13d>
  109fa1:	56                   	push   esi
  109fa2:	56                   	push   esi
  109fa3:	53                   	push   ebx
  109fa4:	68 58 55 11 00       	push   0x115558
  109fa9:	e8 c2 2a 00 00       	call   10ca70 <__ubsan_handle_type_mismatch>
  109fae:	83 c4 10             	add    esp,0x10
  109fb1:	e9 66 f1 ff ff       	jmp    10911c <_ZN2os3hal17serial_controller10vprint_fmtEPcS2_+0x11c>
  109fb6:	50                   	push   eax
  109fb7:	50                   	push   eax
  109fb8:	6a 00                	push   0x0
  109fba:	68 48 56 11 00       	push   0x115648
  109fbf:	e8 ac 2a 00 00       	call   10ca70 <__ubsan_handle_type_mismatch>
  109fc4:	83 c4 10             	add    esp,0x10
  109fc7:	e9 2c f1 ff ff       	jmp    1090f8 <_ZN2os3hal17serial_controller10vprint_fmtEPcS2_+0xf8>
  109fcc:	89 4c 24 0c          	mov    DWORD PTR [esp+0xc],ecx
  109fd0:	89 54 24 08          	mov    DWORD PTR [esp+0x8],edx
  109fd4:	51                   	push   ecx
  109fd5:	51                   	push   ecx
  109fd6:	53                   	push   ebx
  109fd7:	68 8c 54 11 00       	push   0x11548c
  109fdc:	e8 8f 2a 00 00       	call   10ca70 <__ubsan_handle_type_mismatch>
  109fe1:	83 c4 10             	add    esp,0x10
  109fe4:	8b 4c 24 0c          	mov    ecx,DWORD PTR [esp+0xc]
  109fe8:	8b 54 24 08          	mov    edx,DWORD PTR [esp+0x8]
  109fec:	e9 cf f4 ff ff       	jmp    1094c0 <_ZN2os3hal17serial_controller10vprint_fmtEPcS2_+0x4c0>
  109ff1:	89 4c 24 08          	mov    DWORD PTR [esp+0x8],ecx
  109ff5:	52                   	push   edx
  109ff6:	52                   	push   edx
  109ff7:	53                   	push   ebx
  109ff8:	68 74 54 11 00       	push   0x115474
  109ffd:	e8 6e 2a 00 00       	call   10ca70 <__ubsan_handle_type_mismatch>
  10a002:	83 c4 10             	add    esp,0x10
  10a005:	8b 4c 24 08          	mov    ecx,DWORD PTR [esp+0x8]
  10a009:	e9 c7 f4 ff ff       	jmp    1094d5 <_ZN2os3hal17serial_controller10vprint_fmtEPcS2_+0x4d5>
  10a00e:	89 54 24 04          	mov    DWORD PTR [esp+0x4],edx
  10a012:	50                   	push   eax
  10a013:	50                   	push   eax
  10a014:	53                   	push   ebx
  10a015:	68 a0 55 11 00       	push   0x1155a0
  10a01a:	e8 51 2a 00 00       	call   10ca70 <__ubsan_handle_type_mismatch>
  10a01f:	83 c4 10             	add    esp,0x10
  10a022:	8b 54 24 04          	mov    edx,DWORD PTR [esp+0x4]
  10a026:	e9 e5 f4 ff ff       	jmp    109510 <_ZN2os3hal17serial_controller10vprint_fmtEPcS2_+0x510>
  10a02b:	89 54 24 04          	mov    DWORD PTR [esp+0x4],edx
  10a02f:	50                   	push   eax
  10a030:	50                   	push   eax
  10a031:	53                   	push   ebx
  10a032:	68 88 55 11 00       	push   0x115588
  10a037:	e8 34 2a 00 00       	call   10ca70 <__ubsan_handle_type_mismatch>
  10a03c:	83 c4 10             	add    esp,0x10
  10a03f:	8b 54 24 04          	mov    edx,DWORD PTR [esp+0x4]
  10a043:	e9 d8 f4 ff ff       	jmp    109520 <_ZN2os3hal17serial_controller10vprint_fmtEPcS2_+0x520>
  10a048:	50                   	push   eax
  10a049:	50                   	push   eax
  10a04a:	53                   	push   ebx
  10a04b:	68 70 55 11 00       	push   0x115570
  10a050:	e8 1b 2a 00 00       	call   10ca70 <__ubsan_handle_type_mismatch>
  10a055:	83 c4 10             	add    esp,0x10
  10a058:	e9 d8 f4 ff ff       	jmp    109535 <_ZN2os3hal17serial_controller10vprint_fmtEPcS2_+0x535>
  10a05d:	50                   	push   eax
  10a05e:	50                   	push   eax
  10a05f:	53                   	push   ebx
  10a060:	68 e8 55 11 00       	push   0x1155e8
  10a065:	e8 06 2a 00 00       	call   10ca70 <__ubsan_handle_type_mismatch>
  10a06a:	83 c4 10             	add    esp,0x10
  10a06d:	e9 1c f2 ff ff       	jmp    10928e <_ZN2os3hal17serial_controller10vprint_fmtEPcS2_+0x28e>
  10a072:	88 4c 24 08          	mov    BYTE PTR [esp+0x8],cl
  10a076:	89 54 24 04          	mov    DWORD PTR [esp+0x4],edx
  10a07a:	50                   	push   eax
  10a07b:	50                   	push   eax
  10a07c:	53                   	push   ebx
  10a07d:	68 b4 4e 11 00       	push   0x114eb4
  10a082:	e8 e9 29 00 00       	call   10ca70 <__ubsan_handle_type_mismatch>
  10a087:	83 c4 10             	add    esp,0x10
  10a08a:	0f b6 4c 24 08       	movzx  ecx,BYTE PTR [esp+0x8]
  10a08f:	8b 54 24 04          	mov    edx,DWORD PTR [esp+0x4]
  10a093:	e9 68 f1 ff ff       	jmp    109200 <_ZN2os3hal17serial_controller10vprint_fmtEPcS2_+0x200>
  10a098:	51                   	push   ecx
  10a099:	51                   	push   ecx
  10a09a:	53                   	push   ebx
  10a09b:	68 18 56 11 00       	push   0x115618
  10a0a0:	e8 cb 29 00 00       	call   10ca70 <__ubsan_handle_type_mismatch>
  10a0a5:	83 c4 10             	add    esp,0x10
  10a0a8:	e9 b3 f1 ff ff       	jmp    109260 <_ZN2os3hal17serial_controller10vprint_fmtEPcS2_+0x260>
  10a0ad:	89 54 24 04          	mov    DWORD PTR [esp+0x4],edx
  10a0b1:	50                   	push   eax
  10a0b2:	50                   	push   eax
  10a0b3:	53                   	push   ebx
  10a0b4:	68 04 54 11 00       	push   0x115404
  10a0b9:	e8 b2 29 00 00       	call   10ca70 <__ubsan_handle_type_mismatch>
  10a0be:	83 c4 10             	add    esp,0x10
  10a0c1:	8b 54 24 04          	mov    edx,DWORD PTR [esp+0x4]
  10a0c5:	e9 29 f3 ff ff       	jmp    1093f3 <_ZN2os3hal17serial_controller10vprint_fmtEPcS2_+0x3f3>
  10a0ca:	50                   	push   eax
  10a0cb:	50                   	push   eax
  10a0cc:	56                   	push   esi
  10a0cd:	68 5c 54 11 00       	push   0x11545c
  10a0d2:	e8 99 29 00 00       	call   10ca70 <__ubsan_handle_type_mismatch>
  10a0d7:	83 c4 10             	add    esp,0x10
  10a0da:	e9 5a f3 ff ff       	jmp    109439 <_ZN2os3hal17serial_controller10vprint_fmtEPcS2_+0x439>
  10a0df:	89 54 24 04          	mov    DWORD PTR [esp+0x4],edx
  10a0e3:	50                   	push   eax
  10a0e4:	50                   	push   eax
  10a0e5:	53                   	push   ebx
  10a0e6:	68 44 54 11 00       	push   0x115444
  10a0eb:	e8 80 29 00 00       	call   10ca70 <__ubsan_handle_type_mismatch>
  10a0f0:	83 c4 10             	add    esp,0x10
  10a0f3:	8b 54 24 04          	mov    edx,DWORD PTR [esp+0x4]
  10a0f7:	e9 73 f3 ff ff       	jmp    10946f <_ZN2os3hal17serial_controller10vprint_fmtEPcS2_+0x46f>
  10a0fc:	89 4c 24 0c          	mov    DWORD PTR [esp+0xc],ecx
  10a100:	89 54 24 08          	mov    DWORD PTR [esp+0x8],edx
  10a104:	50                   	push   eax
  10a105:	50                   	push   eax
  10a106:	53                   	push   ebx
  10a107:	68 a4 54 11 00       	push   0x1154a4
  10a10c:	e8 5f 29 00 00       	call   10ca70 <__ubsan_handle_type_mismatch>
  10a111:	83 c4 10             	add    esp,0x10
  10a114:	8b 4c 24 0c          	mov    ecx,DWORD PTR [esp+0xc]
  10a118:	8b 54 24 08          	mov    edx,DWORD PTR [esp+0x8]
  10a11c:	e9 8f f3 ff ff       	jmp    1094b0 <_ZN2os3hal17serial_controller10vprint_fmtEPcS2_+0x4b0>
  10a121:	89 4c 24 08          	mov    DWORD PTR [esp+0x8],ecx
  10a125:	50                   	push   eax
  10a126:	50                   	push   eax
  10a127:	53                   	push   ebx
  10a128:	68 d4 54 11 00       	push   0x1154d4
  10a12d:	e8 3e 29 00 00       	call   10ca70 <__ubsan_handle_type_mismatch>
  10a132:	83 c4 10             	add    esp,0x10
  10a135:	8b 4c 24 08          	mov    ecx,DWORD PTR [esp+0x8]
  10a139:	e9 65 f0 ff ff       	jmp    1091a3 <_ZN2os3hal17serial_controller10vprint_fmtEPcS2_+0x1a3>
  10a13e:	89 4c 24 08          	mov    DWORD PTR [esp+0x8],ecx
  10a142:	50                   	push   eax
  10a143:	50                   	push   eax
  10a144:	53                   	push   ebx
  10a145:	68 bc 54 11 00       	push   0x1154bc
  10a14a:	e8 21 29 00 00       	call   10ca70 <__ubsan_handle_type_mismatch>
  10a14f:	83 c4 10             	add    esp,0x10
  10a152:	8b 4c 24 08          	mov    ecx,DWORD PTR [esp+0x8]
  10a156:	e9 63 f0 ff ff       	jmp    1091be <_ZN2os3hal17serial_controller10vprint_fmtEPcS2_+0x1be>
  10a15b:	50                   	push   eax
  10a15c:	50                   	push   eax
  10a15d:	56                   	push   esi
  10a15e:	68 1c 54 11 00       	push   0x11541c
  10a163:	e8 08 29 00 00       	call   10ca70 <__ubsan_handle_type_mismatch>
  10a168:	83 c4 10             	add    esp,0x10
  10a16b:	e9 4d f2 ff ff       	jmp    1093bd <_ZN2os3hal17serial_controller10vprint_fmtEPcS2_+0x3bd>
  10a170:	50                   	push   eax
  10a171:	50                   	push   eax
  10a172:	53                   	push   ebx
  10a173:	68 b8 55 11 00       	push   0x1155b8
  10a178:	e8 f3 28 00 00       	call   10ca70 <__ubsan_handle_type_mismatch>
  10a17d:	83 c4 10             	add    esp,0x10
  10a180:	e9 3f f1 ff ff       	jmp    1092c4 <_ZN2os3hal17serial_controller10vprint_fmtEPcS2_+0x2c4>
  10a185:	88 0c 24             	mov    BYTE PTR [esp],cl
  10a188:	50                   	push   eax
  10a189:	50                   	push   eax
  10a18a:	6a 00                	push   0x0
  10a18c:	68 6c 4e 11 00       	push   0x114e6c
  10a191:	e8 da 28 00 00       	call   10ca70 <__ubsan_handle_type_mismatch>
  10a196:	83 c4 10             	add    esp,0x10
  10a199:	0f b6 0c 24          	movzx  ecx,BYTE PTR [esp]
  10a19d:	e9 2b ef ff ff       	jmp    1090cd <_ZN2os3hal17serial_controller10vprint_fmtEPcS2_+0xcd>
  10a1a2:	88 4c 24 04          	mov    BYTE PTR [esp+0x4],cl
  10a1a6:	50                   	push   eax
  10a1a7:	50                   	push   eax
  10a1a8:	53                   	push   ebx
  10a1a9:	68 cc 4e 11 00       	push   0x114ecc
  10a1ae:	e8 bd 28 00 00       	call   10ca70 <__ubsan_handle_type_mismatch>
  10a1b3:	83 c4 10             	add    esp,0x10
  10a1b6:	0f b6 4c 24 04       	movzx  ecx,BYTE PTR [esp+0x4]
  10a1bb:	e9 f4 ee ff ff       	jmp    1090b4 <_ZN2os3hal17serial_controller10vprint_fmtEPcS2_+0xb4>
  10a1c0:	88 4c 24 04          	mov    BYTE PTR [esp+0x4],cl
  10a1c4:	50                   	push   eax
  10a1c5:	50                   	push   eax
  10a1c6:	53                   	push   ebx
  10a1c7:	68 e4 4e 11 00       	push   0x114ee4
  10a1cc:	e8 9f 28 00 00       	call   10ca70 <__ubsan_handle_type_mismatch>
  10a1d1:	83 c4 10             	add    esp,0x10
  10a1d4:	0f b6 4c 24 04       	movzx  ecx,BYTE PTR [esp+0x4]
  10a1d9:	e9 bb ee ff ff       	jmp    109099 <_ZN2os3hal17serial_controller10vprint_fmtEPcS2_+0x99>
  10a1de:	50                   	push   eax
  10a1df:	50                   	push   eax
  10a1e0:	53                   	push   ebx
  10a1e1:	68 d0 55 11 00       	push   0x1155d0
  10a1e6:	e8 85 28 00 00       	call   10ca70 <__ubsan_handle_type_mismatch>
  10a1eb:	83 c4 10             	add    esp,0x10
  10a1ee:	e9 b6 f0 ff ff       	jmp    1092a9 <_ZN2os3hal17serial_controller10vprint_fmtEPcS2_+0x2a9>
  10a1f3:	50                   	push   eax
  10a1f4:	50                   	push   eax
  10a1f5:	53                   	push   ebx
  10a1f6:	68 c4 51 11 00       	push   0x1151c4
  10a1fb:	e8 70 28 00 00       	call   10ca70 <__ubsan_handle_type_mismatch>
  10a200:	83 c4 10             	add    esp,0x10
  10a203:	e9 bd f6 ff ff       	jmp    1098c5 <_ZN2os3hal17serial_controller10vprint_fmtEPcS2_+0x8c5>
  10a208:	89 54 24 08          	mov    DWORD PTR [esp+0x8],edx
  10a20c:	52                   	push   edx
  10a20d:	52                   	push   edx
  10a20e:	53                   	push   ebx
  10a20f:	68 dc 51 11 00       	push   0x1151dc
  10a214:	e8 57 28 00 00       	call   10ca70 <__ubsan_handle_type_mismatch>
  10a219:	83 c4 10             	add    esp,0x10
  10a21c:	8b 54 24 08          	mov    edx,DWORD PTR [esp+0x8]
  10a220:	e9 8b f6 ff ff       	jmp    1098b0 <_ZN2os3hal17serial_controller10vprint_fmtEPcS2_+0x8b0>
  10a225:	89 54 24 08          	mov    DWORD PTR [esp+0x8],edx
  10a229:	51                   	push   ecx
  10a22a:	51                   	push   ecx
  10a22b:	53                   	push   ebx
  10a22c:	68 f4 51 11 00       	push   0x1151f4
  10a231:	e8 3a 28 00 00       	call   10ca70 <__ubsan_handle_type_mismatch>
  10a236:	83 c4 10             	add    esp,0x10
  10a239:	8b 54 24 08          	mov    edx,DWORD PTR [esp+0x8]
  10a23d:	e9 5e f6 ff ff       	jmp    1098a0 <_ZN2os3hal17serial_controller10vprint_fmtEPcS2_+0x8a0>
  10a242:	89 54 24 08          	mov    DWORD PTR [esp+0x8],edx
  10a246:	51                   	push   ecx
  10a247:	51                   	push   ecx
  10a248:	53                   	push   ebx
  10a249:	68 b4 52 11 00       	push   0x1152b4
  10a24e:	e8 1d 28 00 00       	call   10ca70 <__ubsan_handle_type_mismatch>
  10a253:	83 c4 10             	add    esp,0x10
  10a256:	8b 54 24 08          	mov    edx,DWORD PTR [esp+0x8]
  10a25a:	e9 16 f7 ff ff       	jmp    109975 <_ZN2os3hal17serial_controller10vprint_fmtEPcS2_+0x975>
  10a25f:	50                   	push   eax
  10a260:	50                   	push   eax
  10a261:	56                   	push   esi
  10a262:	68 cc 52 11 00       	push   0x1152cc
  10a267:	e8 04 28 00 00       	call   10ca70 <__ubsan_handle_type_mismatch>
  10a26c:	83 c4 10             	add    esp,0x10
  10a26f:	e9 cb f6 ff ff       	jmp    10993f <_ZN2os3hal17serial_controller10vprint_fmtEPcS2_+0x93f>
  10a274:	88 4c 24 04          	mov    BYTE PTR [esp+0x4],cl
  10a278:	50                   	push   eax
  10a279:	50                   	push   eax
  10a27a:	53                   	push   ebx
  10a27b:	68 e4 52 11 00       	push   0x1152e4
  10a280:	e8 eb 27 00 00       	call   10ca70 <__ubsan_handle_type_mismatch>
  10a285:	83 c4 10             	add    esp,0x10
  10a288:	0f b6 4c 24 04       	movzx  ecx,BYTE PTR [esp+0x4]
  10a28d:	e9 83 f6 ff ff       	jmp    109915 <_ZN2os3hal17serial_controller10vprint_fmtEPcS2_+0x915>
  10a292:	88 4c 24 08          	mov    BYTE PTR [esp+0x8],cl
  10a296:	89 54 24 04          	mov    DWORD PTR [esp+0x4],edx
  10a29a:	50                   	push   eax
  10a29b:	50                   	push   eax
  10a29c:	53                   	push   ebx
  10a29d:	68 fc 52 11 00       	push   0x1152fc
  10a2a2:	e8 c9 27 00 00       	call   10ca70 <__ubsan_handle_type_mismatch>
  10a2a7:	83 c4 10             	add    esp,0x10
  10a2aa:	0f b6 4c 24 08       	movzx  ecx,BYTE PTR [esp+0x8]
  10a2af:	8b 54 24 04          	mov    edx,DWORD PTR [esp+0x4]
  10a2b3:	e9 48 f6 ff ff       	jmp    109900 <_ZN2os3hal17serial_controller10vprint_fmtEPcS2_+0x900>
  10a2b8:	88 4c 24 08          	mov    BYTE PTR [esp+0x8],cl
  10a2bc:	89 54 24 04          	mov    DWORD PTR [esp+0x4],edx
  10a2c0:	50                   	push   eax
  10a2c1:	50                   	push   eax
  10a2c2:	53                   	push   ebx
  10a2c3:	68 14 53 11 00       	push   0x115314
  10a2c8:	e8 a3 27 00 00       	call   10ca70 <__ubsan_handle_type_mismatch>
  10a2cd:	83 c4 10             	add    esp,0x10
  10a2d0:	0f b6 4c 24 08       	movzx  ecx,BYTE PTR [esp+0x8]
  10a2d5:	8b 54 24 04          	mov    edx,DWORD PTR [esp+0x4]
  10a2d9:	e9 12 f6 ff ff       	jmp    1098f0 <_ZN2os3hal17serial_controller10vprint_fmtEPcS2_+0x8f0>
  10a2de:	50                   	push   eax
  10a2df:	50                   	push   eax
  10a2e0:	53                   	push   ebx
  10a2e1:	68 0c 52 11 00       	push   0x11520c
  10a2e6:	e8 85 27 00 00       	call   10ca70 <__ubsan_handle_type_mismatch>
  10a2eb:	83 c4 10             	add    esp,0x10
  10a2ee:	e9 82 f5 ff ff       	jmp    109875 <_ZN2os3hal17serial_controller10vprint_fmtEPcS2_+0x875>
  10a2f3:	90                   	nop
  10a2f4:	8d b6 00 00 00 00    	lea    esi,[esi+0x0]
  10a2fa:	8d bf 00 00 00 00    	lea    edi,[edi+0x0]

0010a300 <_ZN2os3hal17serial_controller9print_fmtEPcz>:
  10a300:	83 ec 14             	sub    esp,0x14
  10a303:	8d 44 24 20          	lea    eax,[esp+0x20]
  10a307:	50                   	push   eax
  10a308:	ff 74 24 20          	push   DWORD PTR [esp+0x20]
  10a30c:	e8 df 01 00 00       	call   10a4f0 <vprintf>
  10a311:	83 c4 1c             	add    esp,0x1c
  10a314:	c3                   	ret    
  10a315:	90                   	nop
  10a316:	8d 76 00             	lea    esi,[esi+0x0]
  10a319:	8d bc 27 00 00 00 00 	lea    edi,[edi+eiz*1+0x0]

0010a320 <_ZN2os3hal17serial_controller8can_sendEv>:
  10a320:	53                   	push   ebx
  10a321:	83 ec 08             	sub    esp,0x8
  10a324:	8b 5c 24 10          	mov    ebx,DWORD PTR [esp+0x10]
  10a328:	85 db                	test   ebx,ebx
  10a32a:	74 17                	je     10a343 <_ZN2os3hal17serial_controller8can_sendEv+0x23>
  10a32c:	f6 c3 01             	test   bl,0x1
  10a32f:	75 12                	jne    10a343 <_ZN2os3hal17serial_controller8can_sendEv+0x23>
  10a331:	0f b7 03             	movzx  eax,WORD PTR [ebx]
  10a334:	8d 50 05             	lea    edx,[eax+0x5]
  10a337:	ec                   	in     al,dx
  10a338:	c0 e8 05             	shr    al,0x5
  10a33b:	83 c4 08             	add    esp,0x8
  10a33e:	83 e0 01             	and    eax,0x1
  10a341:	5b                   	pop    ebx
  10a342:	c3                   	ret    
  10a343:	50                   	push   eax
  10a344:	50                   	push   eax
  10a345:	53                   	push   ebx
  10a346:	68 54 4e 11 00       	push   0x114e54
  10a34b:	e8 20 27 00 00       	call   10ca70 <__ubsan_handle_type_mismatch>
  10a350:	83 c4 10             	add    esp,0x10
  10a353:	eb dc                	jmp    10a331 <_ZN2os3hal17serial_controller8can_sendEv+0x11>
  10a355:	90                   	nop
  10a356:	8d 76 00             	lea    esi,[esi+0x0]
  10a359:	8d bc 27 00 00 00 00 	lea    edi,[edi+eiz*1+0x0]

0010a360 <_ZN2os3hal17serial_controller8has_recvEv>:
  10a360:	53                   	push   ebx
  10a361:	83 ec 08             	sub    esp,0x8
  10a364:	8b 5c 24 10          	mov    ebx,DWORD PTR [esp+0x10]
  10a368:	85 db                	test   ebx,ebx
  10a36a:	74 14                	je     10a380 <_ZN2os3hal17serial_controller8has_recvEv+0x20>
  10a36c:	f6 c3 01             	test   bl,0x1
  10a36f:	75 0f                	jne    10a380 <_ZN2os3hal17serial_controller8has_recvEv+0x20>
  10a371:	0f b7 03             	movzx  eax,WORD PTR [ebx]
  10a374:	8d 50 05             	lea    edx,[eax+0x5]
  10a377:	ec                   	in     al,dx
  10a378:	83 c4 08             	add    esp,0x8
  10a37b:	83 e0 01             	and    eax,0x1
  10a37e:	5b                   	pop    ebx
  10a37f:	c3                   	ret    
  10a380:	50                   	push   eax
  10a381:	50                   	push   eax
  10a382:	53                   	push   ebx
  10a383:	68 3c 4e 11 00       	push   0x114e3c
  10a388:	e8 e3 26 00 00       	call   10ca70 <__ubsan_handle_type_mismatch>
  10a38d:	83 c4 10             	add    esp,0x10
  10a390:	eb df                	jmp    10a371 <_ZN2os3hal17serial_controller8has_recvEv+0x11>
  10a392:	8d b4 26 00 00 00 00 	lea    esi,[esi+eiz*1+0x0]
  10a399:	8d bc 27 00 00 00 00 	lea    edi,[edi+eiz*1+0x0]

0010a3a0 <_ZN2os3hal17serial_controller8validateEv>:
  10a3a0:	56                   	push   esi
  10a3a1:	53                   	push   ebx
  10a3a2:	83 ec 04             	sub    esp,0x4
  10a3a5:	8b 5c 24 10          	mov    ebx,DWORD PTR [esp+0x10]
  10a3a9:	85 db                	test   ebx,ebx
  10a3ab:	0f 84 90 00 00 00    	je     10a441 <_ZN2os3hal17serial_controller8validateEv+0xa1>
  10a3b1:	f6 c3 01             	test   bl,0x1
  10a3b4:	0f 85 87 00 00 00    	jne    10a441 <_ZN2os3hal17serial_controller8validateEv+0xa1>
  10a3ba:	0f b7 33             	movzx  esi,WORD PTR [ebx]
  10a3bd:	66 81 fe f8 03       	cmp    si,0x3f8
  10a3c2:	74 3c                	je     10a400 <_ZN2os3hal17serial_controller8validateEv+0x60>
  10a3c4:	85 db                	test   ebx,ebx
  10a3c6:	74 67                	je     10a42f <_ZN2os3hal17serial_controller8validateEv+0x8f>
  10a3c8:	f6 c3 01             	test   bl,0x1
  10a3cb:	75 62                	jne    10a42f <_ZN2os3hal17serial_controller8validateEv+0x8f>
  10a3cd:	66 81 fe f8 02       	cmp    si,0x2f8
  10a3d2:	74 2c                	je     10a400 <_ZN2os3hal17serial_controller8validateEv+0x60>
  10a3d4:	85 db                	test   ebx,ebx
  10a3d6:	74 33                	je     10a40b <_ZN2os3hal17serial_controller8validateEv+0x6b>
  10a3d8:	f6 c3 01             	test   bl,0x1
  10a3db:	75 2e                	jne    10a40b <_ZN2os3hal17serial_controller8validateEv+0x6b>
  10a3dd:	66 81 fe e8 03       	cmp    si,0x3e8
  10a3e2:	74 1c                	je     10a400 <_ZN2os3hal17serial_controller8validateEv+0x60>
  10a3e4:	85 db                	test   ebx,ebx
  10a3e6:	74 35                	je     10a41d <_ZN2os3hal17serial_controller8validateEv+0x7d>
  10a3e8:	f6 c3 01             	test   bl,0x1
  10a3eb:	75 30                	jne    10a41d <_ZN2os3hal17serial_controller8validateEv+0x7d>
  10a3ed:	66 81 fe e8 02       	cmp    si,0x2e8
  10a3f2:	0f 94 c0             	sete   al
  10a3f5:	83 c4 04             	add    esp,0x4
  10a3f8:	5b                   	pop    ebx
  10a3f9:	5e                   	pop    esi
  10a3fa:	c3                   	ret    
  10a3fb:	90                   	nop
  10a3fc:	8d 74 26 00          	lea    esi,[esi+eiz*1+0x0]
  10a400:	83 c4 04             	add    esp,0x4
  10a403:	b8 01 00 00 00       	mov    eax,0x1
  10a408:	5b                   	pop    ebx
  10a409:	5e                   	pop    esi
  10a40a:	c3                   	ret    
  10a40b:	52                   	push   edx
  10a40c:	52                   	push   edx
  10a40d:	53                   	push   ebx
  10a40e:	68 f4 4d 11 00       	push   0x114df4
  10a413:	e8 58 26 00 00       	call   10ca70 <__ubsan_handle_type_mismatch>
  10a418:	83 c4 10             	add    esp,0x10
  10a41b:	eb c0                	jmp    10a3dd <_ZN2os3hal17serial_controller8validateEv+0x3d>
  10a41d:	50                   	push   eax
  10a41e:	50                   	push   eax
  10a41f:	53                   	push   ebx
  10a420:	68 dc 4d 11 00       	push   0x114ddc
  10a425:	e8 46 26 00 00       	call   10ca70 <__ubsan_handle_type_mismatch>
  10a42a:	83 c4 10             	add    esp,0x10
  10a42d:	eb be                	jmp    10a3ed <_ZN2os3hal17serial_controller8validateEv+0x4d>
  10a42f:	51                   	push   ecx
  10a430:	51                   	push   ecx
  10a431:	53                   	push   ebx
  10a432:	68 0c 4e 11 00       	push   0x114e0c
  10a437:	e8 34 26 00 00       	call   10ca70 <__ubsan_handle_type_mismatch>
  10a43c:	83 c4 10             	add    esp,0x10
  10a43f:	eb 8c                	jmp    10a3cd <_ZN2os3hal17serial_controller8validateEv+0x2d>
  10a441:	56                   	push   esi
  10a442:	56                   	push   esi
  10a443:	53                   	push   ebx
  10a444:	68 24 4e 11 00       	push   0x114e24
  10a449:	e8 22 26 00 00       	call   10ca70 <__ubsan_handle_type_mismatch>
  10a44e:	83 c4 10             	add    esp,0x10
  10a451:	e9 64 ff ff ff       	jmp    10a3ba <_ZN2os3hal17serial_controller8validateEv+0x1a>
  10a456:	8d 76 00             	lea    esi,[esi+0x0]
  10a459:	8d bc 27 00 00 00 00 	lea    edi,[edi+eiz*1+0x0]

0010a460 <_ZN2os3hal17serial_controller7portstrENS0_11serial_portE>:
  10a460:	8b 54 24 04          	mov    edx,DWORD PTR [esp+0x4]
  10a464:	66 81 fa f8 02       	cmp    dx,0x2f8
  10a469:	74 45                	je     10a4b0 <_ZN2os3hal17serial_controller7portstrENS0_11serial_portE+0x50>
  10a46b:	76 23                	jbe    10a490 <_ZN2os3hal17serial_controller7portstrENS0_11serial_portE+0x30>
  10a46d:	66 81 fa e8 03       	cmp    dx,0x3e8
  10a472:	b8 c4 13 11 00       	mov    eax,0x1113c4
  10a477:	74 0c                	je     10a485 <_ZN2os3hal17serial_controller7portstrENS0_11serial_portE+0x25>
  10a479:	66 81 fa f8 03       	cmp    dx,0x3f8
  10a47e:	b8 ba 13 11 00       	mov    eax,0x1113ba
  10a483:	75 17                	jne    10a49c <_ZN2os3hal17serial_controller7portstrENS0_11serial_portE+0x3c>
  10a485:	f3 c3                	repz ret 
  10a487:	89 f6                	mov    esi,esi
  10a489:	8d bc 27 00 00 00 00 	lea    edi,[edi+eiz*1+0x0]
  10a490:	66 81 fa e8 02       	cmp    dx,0x2e8
  10a495:	b8 c9 13 11 00       	mov    eax,0x1113c9
  10a49a:	74 e9                	je     10a485 <_ZN2os3hal17serial_controller7portstrENS0_11serial_portE+0x25>
  10a49c:	b8 b1 13 11 00       	mov    eax,0x1113b1
  10a4a1:	c3                   	ret    
  10a4a2:	8d b4 26 00 00 00 00 	lea    esi,[esi+eiz*1+0x0]
  10a4a9:	8d bc 27 00 00 00 00 	lea    edi,[edi+eiz*1+0x0]
  10a4b0:	b8 bf 13 11 00       	mov    eax,0x1113bf
  10a4b5:	c3                   	ret    
  10a4b6:	8d 76 00             	lea    esi,[esi+0x0]
  10a4b9:	8d bc 27 00 00 00 00 	lea    edi,[edi+eiz*1+0x0]

0010a4c0 <_ZN2os3hal17serial_controller4portEv>:
  10a4c0:	53                   	push   ebx
  10a4c1:	83 ec 08             	sub    esp,0x8
  10a4c4:	8b 5c 24 10          	mov    ebx,DWORD PTR [esp+0x10]
  10a4c8:	85 db                	test   ebx,ebx
  10a4ca:	74 0d                	je     10a4d9 <_ZN2os3hal17serial_controller4portEv+0x19>
  10a4cc:	f6 c3 01             	test   bl,0x1
  10a4cf:	75 08                	jne    10a4d9 <_ZN2os3hal17serial_controller4portEv+0x19>
  10a4d1:	0f b7 03             	movzx  eax,WORD PTR [ebx]
  10a4d4:	83 c4 08             	add    esp,0x8
  10a4d7:	5b                   	pop    ebx
  10a4d8:	c3                   	ret    
  10a4d9:	50                   	push   eax
  10a4da:	50                   	push   eax
  10a4db:	53                   	push   ebx
  10a4dc:	68 c4 4d 11 00       	push   0x114dc4
  10a4e1:	e8 8a 25 00 00       	call   10ca70 <__ubsan_handle_type_mismatch>
  10a4e6:	83 c4 10             	add    esp,0x10
  10a4e9:	eb e6                	jmp    10a4d1 <_ZN2os3hal17serial_controller4portEv+0x11>
  10a4eb:	66 90                	xchg   ax,ax
  10a4ed:	66 90                	xchg   ax,ax
  10a4ef:	90                   	nop

0010a4f0 <vprintf>:
  10a4f0:	53                   	push   ebx
  10a4f1:	83 ec 08             	sub    esp,0x8
  10a4f4:	0f b6 1d 00 70 19 00 	movzx  ebx,BYTE PTR ds:0x197000
  10a4fb:	80 fb 01             	cmp    bl,0x1
  10a4fe:	77 22                	ja     10a522 <vprintf+0x32>
  10a500:	83 e3 01             	and    ebx,0x1
  10a503:	74 18                	je     10a51d <vprintf+0x2d>
  10a505:	83 ec 04             	sub    esp,0x4
  10a508:	ff 74 24 18          	push   DWORD PTR [esp+0x18]
  10a50c:	ff 74 24 18          	push   DWORD PTR [esp+0x18]
  10a510:	68 02 70 19 00       	push   0x197002
  10a515:	e8 e6 ea ff ff       	call   109000 <_ZN2os3hal17serial_controller10vprint_fmtEPcS2_>
  10a51a:	83 c4 10             	add    esp,0x10
  10a51d:	83 c4 08             	add    esp,0x8
  10a520:	5b                   	pop    ebx
  10a521:	c3                   	ret    
  10a522:	50                   	push   eax
  10a523:	50                   	push   eax
  10a524:	0f b6 c3             	movzx  eax,bl
  10a527:	50                   	push   eax
  10a528:	68 30 5c 11 00       	push   0x115c30
  10a52d:	e8 fe 27 00 00       	call   10cd30 <__ubsan_handle_load_invalid_value>
  10a532:	83 c4 10             	add    esp,0x10
  10a535:	eb c9                	jmp    10a500 <vprintf+0x10>
  10a537:	89 f6                	mov    esi,esi
  10a539:	8d bc 27 00 00 00 00 	lea    edi,[edi+eiz*1+0x0]

0010a540 <printf>:
  10a540:	83 ec 14             	sub    esp,0x14
  10a543:	8d 44 24 1c          	lea    eax,[esp+0x1c]
  10a547:	50                   	push   eax
  10a548:	ff 74 24 1c          	push   DWORD PTR [esp+0x1c]
  10a54c:	e8 9f ff ff ff       	call   10a4f0 <vprintf>
  10a551:	83 c4 1c             	add    esp,0x1c
  10a554:	c3                   	ret    
  10a555:	66 90                	xchg   ax,ax
  10a557:	66 90                	xchg   ax,ax
  10a559:	66 90                	xchg   ax,ax
  10a55b:	66 90                	xchg   ax,ax
  10a55d:	66 90                	xchg   ax,ax
  10a55f:	90                   	nop

0010a560 <malloc>:
  10a560:	31 c0                	xor    eax,eax
  10a562:	c3                   	ret    
  10a563:	8d b6 00 00 00 00    	lea    esi,[esi+0x0]
  10a569:	8d bc 27 00 00 00 00 	lea    edi,[edi+eiz*1+0x0]

0010a570 <tmalloc>:
  10a570:	31 c0                	xor    eax,eax
  10a572:	c3                   	ret    
  10a573:	8d b6 00 00 00 00    	lea    esi,[esi+0x0]
  10a579:	8d bc 27 00 00 00 00 	lea    edi,[edi+eiz*1+0x0]

0010a580 <free>:
  10a580:	f3 c3                	repz ret 
  10a582:	8d b4 26 00 00 00 00 	lea    esi,[esi+eiz*1+0x0]
  10a589:	8d bc 27 00 00 00 00 	lea    edi,[edi+eiz*1+0x0]

0010a590 <freearray>:
  10a590:	f3 c3                	repz ret 
  10a592:	8d b4 26 00 00 00 00 	lea    esi,[esi+eiz*1+0x0]
  10a599:	8d bc 27 00 00 00 00 	lea    edi,[edi+eiz*1+0x0]

0010a5a0 <atoi>:
  10a5a0:	55                   	push   ebp
  10a5a1:	57                   	push   edi
  10a5a2:	56                   	push   esi
  10a5a3:	53                   	push   ebx
  10a5a4:	83 ec 1c             	sub    esp,0x1c
  10a5a7:	8b 5c 24 30          	mov    ebx,DWORD PTR [esp+0x30]
  10a5ab:	85 db                	test   ebx,ebx
  10a5ad:	75 1a                	jne    10a5c9 <atoi+0x29>
  10a5af:	e9 3f 01 00 00       	jmp    10a6f3 <atoi+0x153>
  10a5b4:	8d b6 00 00 00 00    	lea    esi,[esi+0x0]
  10a5ba:	8d bf 00 00 00 00    	lea    edi,[edi+0x0]
  10a5c0:	83 c3 01             	add    ebx,0x1
  10a5c3:	0f 84 fe 00 00 00    	je     10a6c7 <atoi+0x127>
  10a5c9:	0f b6 03             	movzx  eax,BYTE PTR [ebx]
  10a5cc:	3c 20                	cmp    al,0x20
  10a5ce:	74 f0                	je     10a5c0 <atoi+0x20>
  10a5d0:	85 db                	test   ebx,ebx
  10a5d2:	0f 84 d0 00 00 00    	je     10a6a8 <atoi+0x108>
  10a5d8:	3c 2d                	cmp    al,0x2d
  10a5da:	0f 84 80 00 00 00    	je     10a660 <atoi+0xc0>
  10a5e0:	3c 2b                	cmp    al,0x2b
  10a5e2:	74 5c                	je     10a640 <atoi+0xa0>
  10a5e4:	0f be 33             	movsx  esi,BYTE PTR [ebx]
  10a5e7:	83 ee 30             	sub    esi,0x30
  10a5ea:	83 fe 09             	cmp    esi,0x9
  10a5ed:	0f 87 8d 00 00 00    	ja     10a680 <atoi+0xe0>
  10a5f3:	31 ed                	xor    ebp,ebp
  10a5f5:	31 ff                	xor    edi,edi
  10a5f7:	89 f6                	mov    esi,esi
  10a5f9:	8d bc 27 00 00 00 00 	lea    edi,[edi+eiz*1+0x0]
  10a600:	6b c7 0a             	imul   eax,edi,0xa
  10a603:	0f 80 7f 00 00 00    	jo     10a688 <atoi+0xe8>
  10a609:	01 f0                	add    eax,esi
  10a60b:	83 c3 01             	add    ebx,0x1
  10a60e:	89 c7                	mov    edi,eax
  10a610:	0f 84 22 01 00 00    	je     10a738 <atoi+0x198>
  10a616:	0f be 33             	movsx  esi,BYTE PTR [ebx]
  10a619:	83 ee 30             	sub    esi,0x30
  10a61c:	83 fe 09             	cmp    esi,0x9
  10a61f:	76 df                	jbe    10a600 <atoi+0x60>
  10a621:	85 ed                	test   ebp,ebp
  10a623:	74 0a                	je     10a62f <atoi+0x8f>
  10a625:	f7 df                	neg    edi
  10a627:	0f 80 dc 00 00 00    	jo     10a709 <atoi+0x169>
  10a62d:	89 f8                	mov    eax,edi
  10a62f:	83 c4 1c             	add    esp,0x1c
  10a632:	5b                   	pop    ebx
  10a633:	5e                   	pop    esi
  10a634:	5f                   	pop    edi
  10a635:	5d                   	pop    ebp
  10a636:	c3                   	ret    
  10a637:	89 f6                	mov    esi,esi
  10a639:	8d bc 27 00 00 00 00 	lea    edi,[edi+eiz*1+0x0]
  10a640:	89 df                	mov    edi,ebx
  10a642:	83 c7 01             	add    edi,0x1
  10a645:	0f 84 d7 00 00 00    	je     10a722 <atoi+0x182>
  10a64b:	0f be 73 01          	movsx  esi,BYTE PTR [ebx+0x1]
  10a64f:	83 ee 30             	sub    esi,0x30
  10a652:	83 fe 09             	cmp    esi,0x9
  10a655:	77 29                	ja     10a680 <atoi+0xe0>
  10a657:	89 fb                	mov    ebx,edi
  10a659:	31 ed                	xor    ebp,ebp
  10a65b:	eb 98                	jmp    10a5f5 <atoi+0x55>
  10a65d:	8d 76 00             	lea    esi,[esi+0x0]
  10a660:	89 df                	mov    edi,ebx
  10a662:	83 c7 01             	add    edi,0x1
  10a665:	74 76                	je     10a6dd <atoi+0x13d>
  10a667:	0f be 73 01          	movsx  esi,BYTE PTR [ebx+0x1]
  10a66b:	83 ee 30             	sub    esi,0x30
  10a66e:	83 fe 09             	cmp    esi,0x9
  10a671:	77 11                	ja     10a684 <atoi+0xe4>
  10a673:	89 fb                	mov    ebx,edi
  10a675:	bd 01 00 00 00       	mov    ebp,0x1
  10a67a:	e9 76 ff ff ff       	jmp    10a5f5 <atoi+0x55>
  10a67f:	90                   	nop
  10a680:	31 c0                	xor    eax,eax
  10a682:	eb ab                	jmp    10a62f <atoi+0x8f>
  10a684:	31 ff                	xor    edi,edi
  10a686:	eb 9d                	jmp    10a625 <atoi+0x85>
  10a688:	89 44 24 0c          	mov    DWORD PTR [esp+0xc],eax
  10a68c:	83 ec 04             	sub    esp,0x4
  10a68f:	6a 0a                	push   0xa
  10a691:	57                   	push   edi
  10a692:	68 e4 63 11 00       	push   0x1163e4
  10a697:	e8 54 25 00 00       	call   10cbf0 <__ubsan_handle_mul_overflow>
  10a69c:	83 c4 10             	add    esp,0x10
  10a69f:	8b 44 24 0c          	mov    eax,DWORD PTR [esp+0xc]
  10a6a3:	e9 61 ff ff ff       	jmp    10a609 <atoi+0x69>
  10a6a8:	88 44 24 0c          	mov    BYTE PTR [esp+0xc],al
  10a6ac:	57                   	push   edi
  10a6ad:	57                   	push   edi
  10a6ae:	6a 00                	push   0x0
  10a6b0:	68 3c 64 11 00       	push   0x11643c
  10a6b5:	e8 b6 23 00 00       	call   10ca70 <__ubsan_handle_type_mismatch>
  10a6ba:	83 c4 10             	add    esp,0x10
  10a6bd:	0f b6 44 24 0c       	movzx  eax,BYTE PTR [esp+0xc]
  10a6c2:	e9 11 ff ff ff       	jmp    10a5d8 <atoi+0x38>
  10a6c7:	55                   	push   ebp
  10a6c8:	55                   	push   ebp
  10a6c9:	6a 00                	push   0x0
  10a6cb:	68 54 64 11 00       	push   0x116454
  10a6d0:	e8 9b 23 00 00       	call   10ca70 <__ubsan_handle_type_mismatch>
  10a6d5:	83 c4 10             	add    esp,0x10
  10a6d8:	e9 ec fe ff ff       	jmp    10a5c9 <atoi+0x29>
  10a6dd:	56                   	push   esi
  10a6de:	56                   	push   esi
  10a6df:	6a 00                	push   0x0
  10a6e1:	68 24 64 11 00       	push   0x116424
  10a6e6:	e8 85 23 00 00       	call   10ca70 <__ubsan_handle_type_mismatch>
  10a6eb:	83 c4 10             	add    esp,0x10
  10a6ee:	e9 74 ff ff ff       	jmp    10a667 <atoi+0xc7>
  10a6f3:	50                   	push   eax
  10a6f4:	50                   	push   eax
  10a6f5:	6a 00                	push   0x0
  10a6f7:	68 6c 64 11 00       	push   0x11646c
  10a6fc:	e8 6f 23 00 00       	call   10ca70 <__ubsan_handle_type_mismatch>
  10a701:	83 c4 10             	add    esp,0x10
  10a704:	e9 c0 fe ff ff       	jmp    10a5c9 <atoi+0x29>
  10a709:	50                   	push   eax
  10a70a:	50                   	push   eax
  10a70b:	68 00 00 00 80       	push   0x80000000
  10a710:	68 d4 63 11 00       	push   0x1163d4
  10a715:	e8 26 25 00 00       	call   10cc40 <__ubsan_handle_negate_overflow>
  10a71a:	83 c4 10             	add    esp,0x10
  10a71d:	e9 0b ff ff ff       	jmp    10a62d <atoi+0x8d>
  10a722:	51                   	push   ecx
  10a723:	51                   	push   ecx
  10a724:	6a 00                	push   0x0
  10a726:	68 0c 64 11 00       	push   0x11640c
  10a72b:	e8 40 23 00 00       	call   10ca70 <__ubsan_handle_type_mismatch>
  10a730:	83 c4 10             	add    esp,0x10
  10a733:	e9 13 ff ff ff       	jmp    10a64b <atoi+0xab>
  10a738:	89 44 24 0c          	mov    DWORD PTR [esp+0xc],eax
  10a73c:	52                   	push   edx
  10a73d:	52                   	push   edx
  10a73e:	6a 00                	push   0x0
  10a740:	68 f4 63 11 00       	push   0x1163f4
  10a745:	e8 26 23 00 00       	call   10ca70 <__ubsan_handle_type_mismatch>
  10a74a:	83 c4 10             	add    esp,0x10
  10a74d:	8b 44 24 0c          	mov    eax,DWORD PTR [esp+0xc]
  10a751:	e9 c0 fe ff ff       	jmp    10a616 <atoi+0x76>
  10a756:	8d 76 00             	lea    esi,[esi+0x0]
  10a759:	8d bc 27 00 00 00 00 	lea    edi,[edi+eiz*1+0x0]

0010a760 <atol>:
  10a760:	55                   	push   ebp
  10a761:	57                   	push   edi
  10a762:	56                   	push   esi
  10a763:	53                   	push   ebx
  10a764:	83 ec 1c             	sub    esp,0x1c
  10a767:	8b 5c 24 30          	mov    ebx,DWORD PTR [esp+0x30]
  10a76b:	85 db                	test   ebx,ebx
  10a76d:	75 1a                	jne    10a789 <atol+0x29>
  10a76f:	e9 3f 01 00 00       	jmp    10a8b3 <atol+0x153>
  10a774:	8d b6 00 00 00 00    	lea    esi,[esi+0x0]
  10a77a:	8d bf 00 00 00 00    	lea    edi,[edi+0x0]
  10a780:	83 c3 01             	add    ebx,0x1
  10a783:	0f 84 fe 00 00 00    	je     10a887 <atol+0x127>
  10a789:	0f b6 03             	movzx  eax,BYTE PTR [ebx]
  10a78c:	3c 20                	cmp    al,0x20
  10a78e:	74 f0                	je     10a780 <atol+0x20>
  10a790:	85 db                	test   ebx,ebx
  10a792:	0f 84 d0 00 00 00    	je     10a868 <atol+0x108>
  10a798:	3c 2d                	cmp    al,0x2d
  10a79a:	0f 84 80 00 00 00    	je     10a820 <atol+0xc0>
  10a7a0:	3c 2b                	cmp    al,0x2b
  10a7a2:	74 5c                	je     10a800 <atol+0xa0>
  10a7a4:	0f be 33             	movsx  esi,BYTE PTR [ebx]
  10a7a7:	83 ee 30             	sub    esi,0x30
  10a7aa:	83 fe 09             	cmp    esi,0x9
  10a7ad:	0f 87 8d 00 00 00    	ja     10a840 <atol+0xe0>
  10a7b3:	31 ed                	xor    ebp,ebp
  10a7b5:	31 ff                	xor    edi,edi
  10a7b7:	89 f6                	mov    esi,esi
  10a7b9:	8d bc 27 00 00 00 00 	lea    edi,[edi+eiz*1+0x0]
  10a7c0:	6b c7 0a             	imul   eax,edi,0xa
  10a7c3:	0f 80 7f 00 00 00    	jo     10a848 <atol+0xe8>
  10a7c9:	01 f0                	add    eax,esi
  10a7cb:	83 c3 01             	add    ebx,0x1
  10a7ce:	89 c7                	mov    edi,eax
  10a7d0:	0f 84 22 01 00 00    	je     10a8f8 <atol+0x198>
  10a7d6:	0f be 33             	movsx  esi,BYTE PTR [ebx]
  10a7d9:	83 ee 30             	sub    esi,0x30
  10a7dc:	83 fe 09             	cmp    esi,0x9
  10a7df:	76 df                	jbe    10a7c0 <atol+0x60>
  10a7e1:	85 ed                	test   ebp,ebp
  10a7e3:	74 0a                	je     10a7ef <atol+0x8f>
  10a7e5:	f7 df                	neg    edi
  10a7e7:	0f 80 dc 00 00 00    	jo     10a8c9 <atol+0x169>
  10a7ed:	89 f8                	mov    eax,edi
  10a7ef:	83 c4 1c             	add    esp,0x1c
  10a7f2:	5b                   	pop    ebx
  10a7f3:	5e                   	pop    esi
  10a7f4:	5f                   	pop    edi
  10a7f5:	5d                   	pop    ebp
  10a7f6:	c3                   	ret    
  10a7f7:	89 f6                	mov    esi,esi
  10a7f9:	8d bc 27 00 00 00 00 	lea    edi,[edi+eiz*1+0x0]
  10a800:	89 df                	mov    edi,ebx
  10a802:	83 c7 01             	add    edi,0x1
  10a805:	0f 84 d7 00 00 00    	je     10a8e2 <atol+0x182>
  10a80b:	0f be 73 01          	movsx  esi,BYTE PTR [ebx+0x1]
  10a80f:	83 ee 30             	sub    esi,0x30
  10a812:	83 fe 09             	cmp    esi,0x9
  10a815:	77 29                	ja     10a840 <atol+0xe0>
  10a817:	89 fb                	mov    ebx,edi
  10a819:	31 ed                	xor    ebp,ebp
  10a81b:	eb 98                	jmp    10a7b5 <atol+0x55>
  10a81d:	8d 76 00             	lea    esi,[esi+0x0]
  10a820:	89 df                	mov    edi,ebx
  10a822:	83 c7 01             	add    edi,0x1
  10a825:	74 76                	je     10a89d <atol+0x13d>
  10a827:	0f be 73 01          	movsx  esi,BYTE PTR [ebx+0x1]
  10a82b:	83 ee 30             	sub    esi,0x30
  10a82e:	83 fe 09             	cmp    esi,0x9
  10a831:	77 11                	ja     10a844 <atol+0xe4>
  10a833:	89 fb                	mov    ebx,edi
  10a835:	bd 01 00 00 00       	mov    ebp,0x1
  10a83a:	e9 76 ff ff ff       	jmp    10a7b5 <atol+0x55>
  10a83f:	90                   	nop
  10a840:	31 c0                	xor    eax,eax
  10a842:	eb ab                	jmp    10a7ef <atol+0x8f>
  10a844:	31 ff                	xor    edi,edi
  10a846:	eb 9d                	jmp    10a7e5 <atol+0x85>
  10a848:	89 44 24 0c          	mov    DWORD PTR [esp+0xc],eax
  10a84c:	83 ec 04             	sub    esp,0x4
  10a84f:	6a 0a                	push   0xa
  10a851:	57                   	push   edi
  10a852:	68 34 63 11 00       	push   0x116334
  10a857:	e8 94 23 00 00       	call   10cbf0 <__ubsan_handle_mul_overflow>
  10a85c:	83 c4 10             	add    esp,0x10
  10a85f:	8b 44 24 0c          	mov    eax,DWORD PTR [esp+0xc]
  10a863:	e9 61 ff ff ff       	jmp    10a7c9 <atol+0x69>
  10a868:	88 44 24 0c          	mov    BYTE PTR [esp+0xc],al
  10a86c:	57                   	push   edi
  10a86d:	57                   	push   edi
  10a86e:	6a 00                	push   0x0
  10a870:	68 8c 63 11 00       	push   0x11638c
  10a875:	e8 f6 21 00 00       	call   10ca70 <__ubsan_handle_type_mismatch>
  10a87a:	83 c4 10             	add    esp,0x10
  10a87d:	0f b6 44 24 0c       	movzx  eax,BYTE PTR [esp+0xc]
  10a882:	e9 11 ff ff ff       	jmp    10a798 <atol+0x38>
  10a887:	55                   	push   ebp
  10a888:	55                   	push   ebp
  10a889:	6a 00                	push   0x0
  10a88b:	68 a4 63 11 00       	push   0x1163a4
  10a890:	e8 db 21 00 00       	call   10ca70 <__ubsan_handle_type_mismatch>
  10a895:	83 c4 10             	add    esp,0x10
  10a898:	e9 ec fe ff ff       	jmp    10a789 <atol+0x29>
  10a89d:	56                   	push   esi
  10a89e:	56                   	push   esi
  10a89f:	6a 00                	push   0x0
  10a8a1:	68 74 63 11 00       	push   0x116374
  10a8a6:	e8 c5 21 00 00       	call   10ca70 <__ubsan_handle_type_mismatch>
  10a8ab:	83 c4 10             	add    esp,0x10
  10a8ae:	e9 74 ff ff ff       	jmp    10a827 <atol+0xc7>
  10a8b3:	50                   	push   eax
  10a8b4:	50                   	push   eax
  10a8b5:	6a 00                	push   0x0
  10a8b7:	68 bc 63 11 00       	push   0x1163bc
  10a8bc:	e8 af 21 00 00       	call   10ca70 <__ubsan_handle_type_mismatch>
  10a8c1:	83 c4 10             	add    esp,0x10
  10a8c4:	e9 c0 fe ff ff       	jmp    10a789 <atol+0x29>
  10a8c9:	50                   	push   eax
  10a8ca:	50                   	push   eax
  10a8cb:	68 00 00 00 80       	push   0x80000000
  10a8d0:	68 24 63 11 00       	push   0x116324
  10a8d5:	e8 66 23 00 00       	call   10cc40 <__ubsan_handle_negate_overflow>
  10a8da:	83 c4 10             	add    esp,0x10
  10a8dd:	e9 0b ff ff ff       	jmp    10a7ed <atol+0x8d>
  10a8e2:	51                   	push   ecx
  10a8e3:	51                   	push   ecx
  10a8e4:	6a 00                	push   0x0
  10a8e6:	68 5c 63 11 00       	push   0x11635c
  10a8eb:	e8 80 21 00 00       	call   10ca70 <__ubsan_handle_type_mismatch>
  10a8f0:	83 c4 10             	add    esp,0x10
  10a8f3:	e9 13 ff ff ff       	jmp    10a80b <atol+0xab>
  10a8f8:	89 44 24 0c          	mov    DWORD PTR [esp+0xc],eax
  10a8fc:	52                   	push   edx
  10a8fd:	52                   	push   edx
  10a8fe:	6a 00                	push   0x0
  10a900:	68 44 63 11 00       	push   0x116344
  10a905:	e8 66 21 00 00       	call   10ca70 <__ubsan_handle_type_mismatch>
  10a90a:	83 c4 10             	add    esp,0x10
  10a90d:	8b 44 24 0c          	mov    eax,DWORD PTR [esp+0xc]
  10a911:	e9 c0 fe ff ff       	jmp    10a7d6 <atol+0x76>
  10a916:	8d 76 00             	lea    esi,[esi+0x0]
  10a919:	8d bc 27 00 00 00 00 	lea    edi,[edi+eiz*1+0x0]

0010a920 <atox>:
  10a920:	57                   	push   edi
  10a921:	56                   	push   esi
  10a922:	31 f6                	xor    esi,esi
  10a924:	53                   	push   ebx
  10a925:	8b 7c 24 10          	mov    edi,DWORD PTR [esp+0x10]
  10a929:	31 db                	xor    ebx,ebx
  10a92b:	90                   	nop
  10a92c:	8d 74 26 00          	lea    esi,[esi+eiz*1+0x0]
  10a930:	83 ec 0c             	sub    esp,0xc
  10a933:	57                   	push   edi
  10a934:	e8 a7 18 00 00       	call   10c1e0 <strlen>
  10a939:	83 c4 10             	add    esp,0x10
  10a93c:	39 d8                	cmp    eax,ebx
  10a93e:	76 31                	jbe    10a971 <atox+0x51>
  10a940:	89 f8                	mov    eax,edi
  10a942:	01 d8                	add    eax,ebx
  10a944:	0f 84 dc 00 00 00    	je     10aa26 <atox+0x106>
  10a94a:	83 c3 01             	add    ebx,0x1
  10a94d:	0f be 4c 1f ff       	movsx  ecx,BYTE PTR [edi+ebx*1-0x1]
  10a952:	8d 41 d0             	lea    eax,[ecx-0x30]
  10a955:	3c 09                	cmp    al,0x9
  10a957:	77 27                	ja     10a980 <atox+0x60>
  10a959:	83 ec 0c             	sub    esp,0xc
  10a95c:	8d 51 d0             	lea    edx,[ecx-0x30]
  10a95f:	c1 e6 04             	shl    esi,0x4
  10a962:	57                   	push   edi
  10a963:	09 d6                	or     esi,edx
  10a965:	e8 76 18 00 00       	call   10c1e0 <strlen>
  10a96a:	83 c4 10             	add    esp,0x10
  10a96d:	39 d8                	cmp    eax,ebx
  10a96f:	77 cf                	ja     10a940 <atox+0x20>
  10a971:	89 f0                	mov    eax,esi
  10a973:	5b                   	pop    ebx
  10a974:	5e                   	pop    esi
  10a975:	5f                   	pop    edi
  10a976:	c3                   	ret    
  10a977:	89 f6                	mov    esi,esi
  10a979:	8d bc 27 00 00 00 00 	lea    edi,[edi+eiz*1+0x0]
  10a980:	80 f9 41             	cmp    cl,0x41
  10a983:	74 4b                	je     10a9d0 <atox+0xb0>
  10a985:	80 f9 61             	cmp    cl,0x61
  10a988:	74 46                	je     10a9d0 <atox+0xb0>
  10a98a:	80 f9 42             	cmp    cl,0x42
  10a98d:	74 51                	je     10a9e0 <atox+0xc0>
  10a98f:	80 f9 62             	cmp    cl,0x62
  10a992:	74 4c                	je     10a9e0 <atox+0xc0>
  10a994:	80 f9 43             	cmp    cl,0x43
  10a997:	74 57                	je     10a9f0 <atox+0xd0>
  10a999:	80 f9 63             	cmp    cl,0x63
  10a99c:	74 52                	je     10a9f0 <atox+0xd0>
  10a99e:	80 f9 44             	cmp    cl,0x44
  10a9a1:	74 5d                	je     10aa00 <atox+0xe0>
  10a9a3:	80 f9 64             	cmp    cl,0x64
  10a9a6:	74 58                	je     10aa00 <atox+0xe0>
  10a9a8:	80 f9 45             	cmp    cl,0x45
  10a9ab:	74 63                	je     10aa10 <atox+0xf0>
  10a9ad:	80 f9 65             	cmp    cl,0x65
  10a9b0:	74 5e                	je     10aa10 <atox+0xf0>
  10a9b2:	80 f9 46             	cmp    cl,0x46
  10a9b5:	74 05                	je     10a9bc <atox+0x9c>
  10a9b7:	80 f9 66             	cmp    cl,0x66
  10a9ba:	75 63                	jne    10aa1f <atox+0xff>
  10a9bc:	89 f2                	mov    edx,esi
  10a9be:	c1 e2 04             	shl    edx,0x4
  10a9c1:	83 ca 0f             	or     edx,0xf
  10a9c4:	89 d6                	mov    esi,edx
  10a9c6:	e9 65 ff ff ff       	jmp    10a930 <atox+0x10>
  10a9cb:	90                   	nop
  10a9cc:	8d 74 26 00          	lea    esi,[esi+eiz*1+0x0]
  10a9d0:	89 f2                	mov    edx,esi
  10a9d2:	c1 e2 04             	shl    edx,0x4
  10a9d5:	83 ca 0a             	or     edx,0xa
  10a9d8:	89 d6                	mov    esi,edx
  10a9da:	e9 51 ff ff ff       	jmp    10a930 <atox+0x10>
  10a9df:	90                   	nop
  10a9e0:	c1 e6 04             	shl    esi,0x4
  10a9e3:	83 ce 0b             	or     esi,0xb
  10a9e6:	e9 45 ff ff ff       	jmp    10a930 <atox+0x10>
  10a9eb:	90                   	nop
  10a9ec:	8d 74 26 00          	lea    esi,[esi+eiz*1+0x0]
  10a9f0:	89 f2                	mov    edx,esi
  10a9f2:	c1 e2 04             	shl    edx,0x4
  10a9f5:	83 ca 0c             	or     edx,0xc
  10a9f8:	89 d6                	mov    esi,edx
  10a9fa:	e9 31 ff ff ff       	jmp    10a930 <atox+0x10>
  10a9ff:	90                   	nop
  10aa00:	c1 e6 04             	shl    esi,0x4
  10aa03:	83 ce 0d             	or     esi,0xd
  10aa06:	e9 25 ff ff ff       	jmp    10a930 <atox+0x10>
  10aa0b:	90                   	nop
  10aa0c:	8d 74 26 00          	lea    esi,[esi+eiz*1+0x0]
  10aa10:	89 f2                	mov    edx,esi
  10aa12:	c1 e2 04             	shl    edx,0x4
  10aa15:	89 d6                	mov    esi,edx
  10aa17:	83 ce 0e             	or     esi,0xe
  10aa1a:	e9 11 ff ff ff       	jmp    10a930 <atox+0x10>
  10aa1f:	31 f6                	xor    esi,esi
  10aa21:	e9 4b ff ff ff       	jmp    10a971 <atox+0x51>
  10aa26:	50                   	push   eax
  10aa27:	50                   	push   eax
  10aa28:	6a 00                	push   0x0
  10aa2a:	68 0c 63 11 00       	push   0x11630c
  10aa2f:	e8 3c 20 00 00       	call   10ca70 <__ubsan_handle_type_mismatch>
  10aa34:	83 c4 10             	add    esp,0x10
  10aa37:	e9 0e ff ff ff       	jmp    10a94a <atox+0x2a>
  10aa3c:	8d 74 26 00          	lea    esi,[esi+eiz*1+0x0]

0010aa40 <atof>:
  10aa40:	d9 ee                	fldz   
  10aa42:	c3                   	ret    
  10aa43:	8d b6 00 00 00 00    	lea    esi,[esi+0x0]
  10aa49:	8d bc 27 00 00 00 00 	lea    edi,[edi+eiz*1+0x0]

0010aa50 <rand>:
  10aa50:	31 c0                	xor    eax,eax
  10aa52:	c3                   	ret    
  10aa53:	8d b6 00 00 00 00    	lea    esi,[esi+0x0]
  10aa59:	8d bc 27 00 00 00 00 	lea    edi,[edi+eiz*1+0x0]

0010aa60 <exit>:
  10aa60:	f3 c3                	repz ret 
  10aa62:	8d b4 26 00 00 00 00 	lea    esi,[esi+eiz*1+0x0]
  10aa69:	8d bc 27 00 00 00 00 	lea    edi,[edi+eiz*1+0x0]

0010aa70 <_itoa_swap>:
  10aa70:	56                   	push   esi
  10aa71:	53                   	push   ebx
  10aa72:	83 ec 14             	sub    esp,0x14
  10aa75:	8b 74 24 20          	mov    esi,DWORD PTR [esp+0x20]
  10aa79:	8b 5c 24 24          	mov    ebx,DWORD PTR [esp+0x24]
  10aa7d:	85 f6                	test   esi,esi
  10aa7f:	74 14                	je     10aa95 <_itoa_swap+0x25>
  10aa81:	85 db                	test   ebx,ebx
  10aa83:	0f b6 06             	movzx  eax,BYTE PTR [esi]
  10aa86:	74 20                	je     10aaa8 <_itoa_swap+0x38>
  10aa88:	0f b6 13             	movzx  edx,BYTE PTR [ebx]
  10aa8b:	88 16                	mov    BYTE PTR [esi],dl
  10aa8d:	88 03                	mov    BYTE PTR [ebx],al
  10aa8f:	83 c4 14             	add    esp,0x14
  10aa92:	5b                   	pop    ebx
  10aa93:	5e                   	pop    esi
  10aa94:	c3                   	ret    
  10aa95:	52                   	push   edx
  10aa96:	52                   	push   edx
  10aa97:	6a 00                	push   0x0
  10aa99:	68 e8 62 11 00       	push   0x1162e8
  10aa9e:	e8 cd 1f 00 00       	call   10ca70 <__ubsan_handle_type_mismatch>
  10aaa3:	83 c4 10             	add    esp,0x10
  10aaa6:	eb d9                	jmp    10aa81 <_itoa_swap+0x11>
  10aaa8:	88 44 24 0f          	mov    BYTE PTR [esp+0xf],al
  10aaac:	50                   	push   eax
  10aaad:	50                   	push   eax
  10aaae:	6a 00                	push   0x0
  10aab0:	68 d0 62 11 00       	push   0x1162d0
  10aab5:	e8 b6 1f 00 00       	call   10ca70 <__ubsan_handle_type_mismatch>
  10aaba:	83 c4 10             	add    esp,0x10
  10aabd:	0f b6 44 24 0f       	movzx  eax,BYTE PTR [esp+0xf]
  10aac2:	eb c4                	jmp    10aa88 <_itoa_swap+0x18>
  10aac4:	8d b6 00 00 00 00    	lea    esi,[esi+0x0]
  10aaca:	8d bf 00 00 00 00    	lea    edi,[edi+0x0]

0010aad0 <_itoa_rev>:
  10aad0:	55                   	push   ebp
  10aad1:	57                   	push   edi
  10aad2:	56                   	push   esi
  10aad3:	53                   	push   ebx
  10aad4:	83 ec 1c             	sub    esp,0x1c
  10aad7:	8b 74 24 34          	mov    esi,DWORD PTR [esp+0x34]
  10aadb:	8b 5c 24 38          	mov    ebx,DWORD PTR [esp+0x38]
  10aadf:	8b 44 24 30          	mov    eax,DWORD PTR [esp+0x30]
  10aae3:	39 de                	cmp    esi,ebx
  10aae5:	7d 33                	jge    10ab1a <_itoa_rev+0x4a>
  10aae7:	89 f6                	mov    esi,esi
  10aae9:	8d bc 27 00 00 00 00 	lea    edi,[edi+eiz*1+0x0]
  10aaf0:	89 df                	mov    edi,ebx
  10aaf2:	83 ef 01             	sub    edi,0x1
  10aaf5:	70 2b                	jo     10ab22 <_itoa_rev+0x52>
  10aaf7:	89 f5                	mov    ebp,esi
  10aaf9:	01 c3                	add    ebx,eax
  10aafb:	83 c5 01             	add    ebp,0x1
  10aafe:	70 3f                	jo     10ab3f <_itoa_rev+0x6f>
  10ab00:	01 c6                	add    esi,eax
  10ab02:	74 7c                	je     10ab80 <_itoa_rev+0xb0>
  10ab04:	85 db                	test   ebx,ebx
  10ab06:	0f b6 0e             	movzx  ecx,BYTE PTR [esi]
  10ab09:	74 51                	je     10ab5c <_itoa_rev+0x8c>
  10ab0b:	0f b6 13             	movzx  edx,BYTE PTR [ebx]
  10ab0e:	39 ef                	cmp    edi,ebp
  10ab10:	88 16                	mov    BYTE PTR [esi],dl
  10ab12:	88 0b                	mov    BYTE PTR [ebx],cl
  10ab14:	89 ee                	mov    esi,ebp
  10ab16:	89 fb                	mov    ebx,edi
  10ab18:	7f d6                	jg     10aaf0 <_itoa_rev+0x20>
  10ab1a:	83 c4 1c             	add    esp,0x1c
  10ab1d:	5b                   	pop    ebx
  10ab1e:	5e                   	pop    esi
  10ab1f:	5f                   	pop    edi
  10ab20:	5d                   	pop    ebp
  10ab21:	c3                   	ret    
  10ab22:	89 44 24 08          	mov    DWORD PTR [esp+0x8],eax
  10ab26:	83 ec 04             	sub    esp,0x4
  10ab29:	6a 01                	push   0x1
  10ab2b:	53                   	push   ebx
  10ab2c:	68 90 62 11 00       	push   0x116290
  10ab31:	e8 6a 20 00 00       	call   10cba0 <__ubsan_handle_sub_overflow>
  10ab36:	83 c4 10             	add    esp,0x10
  10ab39:	8b 44 24 08          	mov    eax,DWORD PTR [esp+0x8]
  10ab3d:	eb b8                	jmp    10aaf7 <_itoa_rev+0x27>
  10ab3f:	89 44 24 08          	mov    DWORD PTR [esp+0x8],eax
  10ab43:	83 ec 04             	sub    esp,0x4
  10ab46:	6a 01                	push   0x1
  10ab48:	56                   	push   esi
  10ab49:	68 80 62 11 00       	push   0x116280
  10ab4e:	e8 fd 1f 00 00       	call   10cb50 <__ubsan_handle_add_overflow>
  10ab53:	83 c4 10             	add    esp,0x10
  10ab56:	8b 44 24 08          	mov    eax,DWORD PTR [esp+0x8]
  10ab5a:	eb a4                	jmp    10ab00 <_itoa_rev+0x30>
  10ab5c:	89 44 24 0c          	mov    DWORD PTR [esp+0xc],eax
  10ab60:	88 4c 24 08          	mov    BYTE PTR [esp+0x8],cl
  10ab64:	50                   	push   eax
  10ab65:	50                   	push   eax
  10ab66:	6a 00                	push   0x0
  10ab68:	68 a0 62 11 00       	push   0x1162a0
  10ab6d:	e8 fe 1e 00 00       	call   10ca70 <__ubsan_handle_type_mismatch>
  10ab72:	83 c4 10             	add    esp,0x10
  10ab75:	8b 44 24 0c          	mov    eax,DWORD PTR [esp+0xc]
  10ab79:	0f b6 4c 24 08       	movzx  ecx,BYTE PTR [esp+0x8]
  10ab7e:	eb 8b                	jmp    10ab0b <_itoa_rev+0x3b>
  10ab80:	89 44 24 08          	mov    DWORD PTR [esp+0x8],eax
  10ab84:	52                   	push   edx
  10ab85:	52                   	push   edx
  10ab86:	6a 00                	push   0x0
  10ab88:	68 b8 62 11 00       	push   0x1162b8
  10ab8d:	e8 de 1e 00 00       	call   10ca70 <__ubsan_handle_type_mismatch>
  10ab92:	83 c4 10             	add    esp,0x10
  10ab95:	8b 44 24 08          	mov    eax,DWORD PTR [esp+0x8]
  10ab99:	e9 66 ff ff ff       	jmp    10ab04 <_itoa_rev+0x34>
  10ab9e:	66 90                	xchg   ax,ax

0010aba0 <itoa>:
  10aba0:	55                   	push   ebp
  10aba1:	57                   	push   edi
  10aba2:	56                   	push   esi
  10aba3:	53                   	push   ebx
  10aba4:	83 ec 1c             	sub    esp,0x1c
  10aba7:	8b 7c 24 38          	mov    edi,DWORD PTR [esp+0x38]
  10abab:	8b 5c 24 34          	mov    ebx,DWORD PTR [esp+0x34]
  10abaf:	8d 47 fe             	lea    eax,[edi-0x2]
  10abb2:	83 f8 1e             	cmp    eax,0x1e
  10abb5:	76 19                	jbe    10abd0 <itoa+0x30>
  10abb7:	83 c4 1c             	add    esp,0x1c
  10abba:	89 d8                	mov    eax,ebx
  10abbc:	5b                   	pop    ebx
  10abbd:	5e                   	pop    esi
  10abbe:	5f                   	pop    edi
  10abbf:	5d                   	pop    ebp
  10abc0:	c3                   	ret    
  10abc1:	eb 0d                	jmp    10abd0 <itoa+0x30>
  10abc3:	90                   	nop
  10abc4:	90                   	nop
  10abc5:	90                   	nop
  10abc6:	90                   	nop
  10abc7:	90                   	nop
  10abc8:	90                   	nop
  10abc9:	90                   	nop
  10abca:	90                   	nop
  10abcb:	90                   	nop
  10abcc:	90                   	nop
  10abcd:	90                   	nop
  10abce:	90                   	nop
  10abcf:	90                   	nop
  10abd0:	83 ec 0c             	sub    esp,0xc
  10abd3:	31 f6                	xor    esi,esi
  10abd5:	ff 74 24 3c          	push   DWORD PTR [esp+0x3c]
  10abd9:	e8 72 d6 ff ff       	call   108250 <abs>
  10abde:	83 c4 10             	add    esp,0x10
  10abe1:	85 c0                	test   eax,eax
  10abe3:	75 28                	jne    10ac0d <itoa+0x6d>
  10abe5:	e9 16 01 00 00       	jmp    10ad00 <itoa+0x160>
  10abea:	8d b6 00 00 00 00    	lea    esi,[esi+0x0]
  10abf0:	83 c1 01             	add    ecx,0x1
  10abf3:	0f 80 21 01 00 00    	jo     10ad1a <itoa+0x17a>
  10abf9:	83 c2 37             	add    edx,0x37
  10abfc:	85 ed                	test   ebp,ebp
  10abfe:	89 ce                	mov    esi,ecx
  10ac00:	0f 84 ba 01 00 00    	je     10adc0 <itoa+0x220>
  10ac06:	85 c0                	test   eax,eax
  10ac08:	88 55 00             	mov    BYTE PTR [ebp+0x0],dl
  10ac0b:	74 43                	je     10ac50 <itoa+0xb0>
  10ac0d:	99                   	cdq    
  10ac0e:	8d 2c 33             	lea    ebp,[ebx+esi*1]
  10ac11:	89 f1                	mov    ecx,esi
  10ac13:	f7 ff                	idiv   edi
  10ac15:	83 fa 09             	cmp    edx,0x9
  10ac18:	7f d6                	jg     10abf0 <itoa+0x50>
  10ac1a:	83 c1 01             	add    ecx,0x1
  10ac1d:	0f 80 25 01 00 00    	jo     10ad48 <itoa+0x1a8>
  10ac23:	83 c2 30             	add    edx,0x30
  10ac26:	85 ed                	test   ebp,ebp
  10ac28:	89 ce                	mov    esi,ecx
  10ac2a:	75 da                	jne    10ac06 <itoa+0x66>
  10ac2c:	89 44 24 08          	mov    DWORD PTR [esp+0x8],eax
  10ac30:	88 54 24 04          	mov    BYTE PTR [esp+0x4],dl
  10ac34:	50                   	push   eax
  10ac35:	50                   	push   eax
  10ac36:	6a 00                	push   0x0
  10ac38:	68 38 62 11 00       	push   0x116238
  10ac3d:	e8 2e 1e 00 00       	call   10ca70 <__ubsan_handle_type_mismatch>
  10ac42:	83 c4 10             	add    esp,0x10
  10ac45:	8b 44 24 08          	mov    eax,DWORD PTR [esp+0x8]
  10ac49:	0f b6 54 24 04       	movzx  edx,BYTE PTR [esp+0x4]
  10ac4e:	eb b6                	jmp    10ac06 <itoa+0x66>
  10ac50:	85 f6                	test   esi,esi
  10ac52:	0f 84 a8 00 00 00    	je     10ad00 <itoa+0x160>
  10ac58:	89 f5                	mov    ebp,esi
  10ac5a:	8b 44 24 30          	mov    eax,DWORD PTR [esp+0x30]
  10ac5e:	01 dd                	add    ebp,ebx
  10ac60:	85 c0                	test   eax,eax
  10ac62:	79 21                	jns    10ac85 <itoa+0xe5>
  10ac64:	83 ff 0a             	cmp    edi,0xa
  10ac67:	75 1c                	jne    10ac85 <itoa+0xe5>
  10ac69:	89 f7                	mov    edi,esi
  10ac6b:	83 c7 01             	add    edi,0x1
  10ac6e:	0f 80 36 01 00 00    	jo     10adaa <itoa+0x20a>
  10ac74:	85 ed                	test   ebp,ebp
  10ac76:	89 fe                	mov    esi,edi
  10ac78:	0f 84 16 01 00 00    	je     10ad94 <itoa+0x1f4>
  10ac7e:	c6 45 00 2d          	mov    BYTE PTR [ebp+0x0],0x2d
  10ac82:	8d 2c 3b             	lea    ebp,[ebx+edi*1]
  10ac85:	85 ed                	test   ebp,ebp
  10ac87:	0f 84 5a 01 00 00    	je     10ade7 <itoa+0x247>
  10ac8d:	89 f0                	mov    eax,esi
  10ac8f:	c6 45 00 00          	mov    BYTE PTR [ebp+0x0],0x0
  10ac93:	83 e8 01             	sub    eax,0x1
  10ac96:	0f 80 da 00 00 00    	jo     10ad76 <itoa+0x1d6>
  10ac9c:	85 c0                	test   eax,eax
  10ac9e:	0f 8e 13 ff ff ff    	jle    10abb7 <itoa+0x17>
  10aca4:	31 d2                	xor    edx,edx
  10aca6:	eb 28                	jmp    10acd0 <itoa+0x130>
  10aca8:	90                   	nop
  10aca9:	8d b4 26 00 00 00 00 	lea    esi,[esi+eiz*1+0x0]
  10acb0:	85 c0                	test   eax,eax
  10acb2:	0f b6 2a             	movzx  ebp,BYTE PTR [edx]
  10acb5:	0f 84 58 01 00 00    	je     10ae13 <itoa+0x273>
  10acbb:	0f b6 08             	movzx  ecx,BYTE PTR [eax]
  10acbe:	39 fe                	cmp    esi,edi
  10acc0:	88 0a                	mov    BYTE PTR [edx],cl
  10acc2:	89 e9                	mov    ecx,ebp
  10acc4:	89 fa                	mov    edx,edi
  10acc6:	88 08                	mov    BYTE PTR [eax],cl
  10acc8:	89 f0                	mov    eax,esi
  10acca:	0f 8e e7 fe ff ff    	jle    10abb7 <itoa+0x17>
  10acd0:	8d 70 ff             	lea    esi,[eax-0x1]
  10acd3:	8d 7a 01             	lea    edi,[edx+0x1]
  10acd6:	01 d8                	add    eax,ebx
  10acd8:	01 da                	add    edx,ebx
  10acda:	75 d4                	jne    10acb0 <itoa+0x110>
  10acdc:	89 54 24 08          	mov    DWORD PTR [esp+0x8],edx
  10ace0:	89 44 24 04          	mov    DWORD PTR [esp+0x4],eax
  10ace4:	52                   	push   edx
  10ace5:	52                   	push   edx
  10ace6:	6a 00                	push   0x0
  10ace8:	68 f0 61 11 00       	push   0x1161f0
  10aced:	e8 7e 1d 00 00       	call   10ca70 <__ubsan_handle_type_mismatch>
  10acf2:	83 c4 10             	add    esp,0x10
  10acf5:	8b 54 24 08          	mov    edx,DWORD PTR [esp+0x8]
  10acf9:	8b 44 24 04          	mov    eax,DWORD PTR [esp+0x4]
  10acfd:	eb b1                	jmp    10acb0 <itoa+0x110>
  10acff:	90                   	nop
  10ad00:	85 db                	test   ebx,ebx
  10ad02:	0f 84 f5 00 00 00    	je     10adfd <itoa+0x25d>
  10ad08:	c6 03 30             	mov    BYTE PTR [ebx],0x30
  10ad0b:	bd 01 00 00 00       	mov    ebp,0x1
  10ad10:	be 01 00 00 00       	mov    esi,0x1
  10ad15:	e9 40 ff ff ff       	jmp    10ac5a <itoa+0xba>
  10ad1a:	89 54 24 08          	mov    DWORD PTR [esp+0x8],edx
  10ad1e:	89 4c 24 0c          	mov    DWORD PTR [esp+0xc],ecx
  10ad22:	89 44 24 04          	mov    DWORD PTR [esp+0x4],eax
  10ad26:	52                   	push   edx
  10ad27:	6a 01                	push   0x1
  10ad29:	56                   	push   esi
  10ad2a:	68 c8 61 11 00       	push   0x1161c8
  10ad2f:	e8 1c 1e 00 00       	call   10cb50 <__ubsan_handle_add_overflow>
  10ad34:	83 c4 10             	add    esp,0x10
  10ad37:	8b 4c 24 0c          	mov    ecx,DWORD PTR [esp+0xc]
  10ad3b:	8b 54 24 08          	mov    edx,DWORD PTR [esp+0x8]
  10ad3f:	8b 44 24 04          	mov    eax,DWORD PTR [esp+0x4]
  10ad43:	e9 b1 fe ff ff       	jmp    10abf9 <itoa+0x59>
  10ad48:	89 44 24 04          	mov    DWORD PTR [esp+0x4],eax
  10ad4c:	89 4c 24 0c          	mov    DWORD PTR [esp+0xc],ecx
  10ad50:	89 54 24 08          	mov    DWORD PTR [esp+0x8],edx
  10ad54:	50                   	push   eax
  10ad55:	6a 01                	push   0x1
  10ad57:	56                   	push   esi
  10ad58:	68 b8 61 11 00       	push   0x1161b8
  10ad5d:	e8 ee 1d 00 00       	call   10cb50 <__ubsan_handle_add_overflow>
  10ad62:	83 c4 10             	add    esp,0x10
  10ad65:	8b 4c 24 0c          	mov    ecx,DWORD PTR [esp+0xc]
  10ad69:	8b 54 24 08          	mov    edx,DWORD PTR [esp+0x8]
  10ad6d:	8b 44 24 04          	mov    eax,DWORD PTR [esp+0x4]
  10ad71:	e9 ad fe ff ff       	jmp    10ac23 <itoa+0x83>
  10ad76:	89 44 24 04          	mov    DWORD PTR [esp+0x4],eax
  10ad7a:	51                   	push   ecx
  10ad7b:	6a 01                	push   0x1
  10ad7d:	56                   	push   esi
  10ad7e:	68 98 61 11 00       	push   0x116198
  10ad83:	e8 18 1e 00 00       	call   10cba0 <__ubsan_handle_sub_overflow>
  10ad88:	83 c4 10             	add    esp,0x10
  10ad8b:	8b 44 24 04          	mov    eax,DWORD PTR [esp+0x4]
  10ad8f:	e9 08 ff ff ff       	jmp    10ac9c <itoa+0xfc>
  10ad94:	50                   	push   eax
  10ad95:	50                   	push   eax
  10ad96:	6a 00                	push   0x0
  10ad98:	68 20 62 11 00       	push   0x116220
  10ad9d:	e8 ce 1c 00 00       	call   10ca70 <__ubsan_handle_type_mismatch>
  10ada2:	83 c4 10             	add    esp,0x10
  10ada5:	e9 d4 fe ff ff       	jmp    10ac7e <itoa+0xde>
  10adaa:	50                   	push   eax
  10adab:	6a 01                	push   0x1
  10adad:	56                   	push   esi
  10adae:	68 a8 61 11 00       	push   0x1161a8
  10adb3:	e8 98 1d 00 00       	call   10cb50 <__ubsan_handle_add_overflow>
  10adb8:	83 c4 10             	add    esp,0x10
  10adbb:	e9 b4 fe ff ff       	jmp    10ac74 <itoa+0xd4>
  10adc0:	89 44 24 08          	mov    DWORD PTR [esp+0x8],eax
  10adc4:	88 54 24 04          	mov    BYTE PTR [esp+0x4],dl
  10adc8:	50                   	push   eax
  10adc9:	50                   	push   eax
  10adca:	6a 00                	push   0x0
  10adcc:	68 50 62 11 00       	push   0x116250
  10add1:	e8 9a 1c 00 00       	call   10ca70 <__ubsan_handle_type_mismatch>
  10add6:	83 c4 10             	add    esp,0x10
  10add9:	8b 44 24 08          	mov    eax,DWORD PTR [esp+0x8]
  10addd:	0f b6 54 24 04       	movzx  edx,BYTE PTR [esp+0x4]
  10ade2:	e9 1f fe ff ff       	jmp    10ac06 <itoa+0x66>
  10ade7:	57                   	push   edi
  10ade8:	57                   	push   edi
  10ade9:	6a 00                	push   0x0
  10adeb:	68 08 62 11 00       	push   0x116208
  10adf0:	e8 7b 1c 00 00       	call   10ca70 <__ubsan_handle_type_mismatch>
  10adf5:	83 c4 10             	add    esp,0x10
  10adf8:	e9 90 fe ff ff       	jmp    10ac8d <itoa+0xed>
  10adfd:	51                   	push   ecx
  10adfe:	51                   	push   ecx
  10adff:	6a 00                	push   0x0
  10ae01:	68 68 62 11 00       	push   0x116268
  10ae06:	e8 65 1c 00 00       	call   10ca70 <__ubsan_handle_type_mismatch>
  10ae0b:	83 c4 10             	add    esp,0x10
  10ae0e:	e9 f5 fe ff ff       	jmp    10ad08 <itoa+0x168>
  10ae13:	89 e9                	mov    ecx,ebp
  10ae15:	89 44 24 04          	mov    DWORD PTR [esp+0x4],eax
  10ae19:	89 54 24 08          	mov    DWORD PTR [esp+0x8],edx
  10ae1d:	88 4c 24 0c          	mov    BYTE PTR [esp+0xc],cl
  10ae21:	50                   	push   eax
  10ae22:	50                   	push   eax
  10ae23:	6a 00                	push   0x0
  10ae25:	68 d8 61 11 00       	push   0x1161d8
  10ae2a:	e8 41 1c 00 00       	call   10ca70 <__ubsan_handle_type_mismatch>
  10ae2f:	83 c4 10             	add    esp,0x10
  10ae32:	0f b6 6c 24 0c       	movzx  ebp,BYTE PTR [esp+0xc]
  10ae37:	8b 54 24 08          	mov    edx,DWORD PTR [esp+0x8]
  10ae3b:	8b 44 24 04          	mov    eax,DWORD PTR [esp+0x4]
  10ae3f:	e9 77 fe ff ff       	jmp    10acbb <itoa+0x11b>
  10ae44:	8d b6 00 00 00 00    	lea    esi,[esi+0x0]
  10ae4a:	8d bf 00 00 00 00    	lea    edi,[edi+0x0]

0010ae50 <_ultoa>:
  10ae50:	55                   	push   ebp
  10ae51:	57                   	push   edi
  10ae52:	b8 01 00 00 00       	mov    eax,0x1
  10ae57:	56                   	push   esi
  10ae58:	53                   	push   ebx
  10ae59:	b9 20 00 00 00       	mov    ecx,0x20
  10ae5e:	83 ec 4c             	sub    esp,0x4c
  10ae61:	8d 54 24 20          	lea    edx,[esp+0x20]
  10ae65:	8b 7c 24 68          	mov    edi,DWORD PTR [esp+0x68]
  10ae69:	8b 6c 24 60          	mov    ebp,DWORD PTR [esp+0x60]
  10ae6d:	88 4c 24 0b          	mov    BYTE PTR [esp+0xb],cl
  10ae71:	29 d0                	sub    eax,edx
  10ae73:	89 44 24 10          	mov    DWORD PTR [esp+0x10],eax
  10ae77:	89 f6                	mov    esi,esi
  10ae79:	8d bc 27 00 00 00 00 	lea    edi,[edi+eiz*1+0x0]
  10ae80:	85 ff                	test   edi,edi
  10ae82:	0f 84 e6 00 00 00    	je     10af6e <_ultoa+0x11e>
  10ae88:	31 d2                	xor    edx,edx
  10ae8a:	89 e8                	mov    eax,ebp
  10ae8c:	80 6c 24 0b 01       	sub    BYTE PTR [esp+0xb],0x1
  10ae91:	f7 f7                	div    edi
  10ae93:	0f b6 5c 24 0b       	movzx  ebx,BYTE PTR [esp+0xb]
  10ae98:	83 fb 1f             	cmp    ebx,0x1f
  10ae9b:	89 44 24 0c          	mov    DWORD PTR [esp+0xc],eax
  10ae9f:	8d 42 30             	lea    eax,[edx+0x30]
  10aea2:	0f 87 74 02 00 00    	ja     10b11c <_ultoa+0x2cc>
  10aea8:	8d 4c 24 20          	lea    ecx,[esp+0x20]
  10aeac:	8d 34 19             	lea    esi,[ecx+ebx*1]
  10aeaf:	89 74 24 14          	mov    DWORD PTR [esp+0x14],esi
  10aeb3:	03 74 24 10          	add    esi,DWORD PTR [esp+0x10]
  10aeb7:	83 fe 20             	cmp    esi,0x20
  10aeba:	0f 87 27 02 00 00    	ja     10b0e7 <_ultoa+0x297>
  10aec0:	83 fb 1f             	cmp    ebx,0x1f
  10aec3:	88 44 1c 20          	mov    BYTE PTR [esp+ebx*1+0x20],al
  10aec7:	0f 87 f4 01 00 00    	ja     10b0c1 <_ultoa+0x271>
  10aecd:	83 fe 20             	cmp    esi,0x20
  10aed0:	0f 87 b6 01 00 00    	ja     10b08c <_ultoa+0x23c>
  10aed6:	3c 39                	cmp    al,0x39
  10aed8:	7e 22                	jle    10aefc <_ultoa+0xac>
  10aeda:	83 fe 20             	cmp    esi,0x20
  10aedd:	0f 87 04 01 00 00    	ja     10afe7 <_ultoa+0x197>
  10aee3:	83 c2 37             	add    edx,0x37
  10aee6:	83 fb 1f             	cmp    ebx,0x1f
  10aee9:	0f 87 da 00 00 00    	ja     10afc9 <_ultoa+0x179>
  10aeef:	83 fe 20             	cmp    esi,0x20
  10aef2:	0f 87 a6 00 00 00    	ja     10af9e <_ultoa+0x14e>
  10aef8:	88 54 1c 20          	mov    BYTE PTR [esp+ebx*1+0x20],dl
  10aefc:	85 ff                	test   edi,edi
  10aefe:	0f 84 82 00 00 00    	je     10af86 <_ultoa+0x136>
  10af04:	8b 6c 24 0c          	mov    ebp,DWORD PTR [esp+0xc]
  10af08:	85 ed                	test   ebp,ebp
  10af0a:	0f 85 70 ff ff ff    	jne    10ae80 <_ultoa+0x30>
  10af10:	0f b6 4c 24 0b       	movzx  ecx,BYTE PTR [esp+0xb]
  10af15:	8b 6c 24 64          	mov    ebp,DWORD PTR [esp+0x64]
  10af19:	8b 7c 24 10          	mov    edi,DWORD PTR [esp+0x10]
  10af1d:	eb 06                	jmp    10af25 <_ultoa+0xd5>
  10af1f:	90                   	nop
  10af20:	89 f5                	mov    ebp,esi
  10af22:	0f b6 d9             	movzx  ebx,cl
  10af25:	83 c1 01             	add    ecx,0x1
  10af28:	83 fb 1f             	cmp    ebx,0x1f
  10af2b:	0f 87 3d 01 00 00    	ja     10b06e <_ultoa+0x21e>
  10af31:	8d 44 24 20          	lea    eax,[esp+0x20]
  10af35:	8d 75 01             	lea    esi,[ebp+0x1]
  10af38:	01 d8                	add    eax,ebx
  10af3a:	8d 14 38             	lea    edx,[eax+edi*1]
  10af3d:	83 fa 20             	cmp    edx,0x20
  10af40:	0f 87 02 01 00 00    	ja     10b048 <_ultoa+0x1f8>
  10af46:	85 ed                	test   ebp,ebp
  10af48:	0f b6 5c 1c 20       	movzx  ebx,BYTE PTR [esp+ebx*1+0x20]
  10af4d:	0f 84 d6 00 00 00    	je     10b029 <_ultoa+0x1d9>
  10af53:	80 f9 1f             	cmp    cl,0x1f
  10af56:	88 5e ff             	mov    BYTE PTR [esi-0x1],bl
  10af59:	76 c5                	jbe    10af20 <_ultoa+0xd0>
  10af5b:	85 f6                	test   esi,esi
  10af5d:	0f 84 b0 00 00 00    	je     10b013 <_ultoa+0x1c3>
  10af63:	c6 06 00             	mov    BYTE PTR [esi],0x0
  10af66:	83 c4 4c             	add    esp,0x4c
  10af69:	5b                   	pop    ebx
  10af6a:	5e                   	pop    esi
  10af6b:	5f                   	pop    edi
  10af6c:	5d                   	pop    ebp
  10af6d:	c3                   	ret    
  10af6e:	83 ec 04             	sub    esp,0x4
  10af71:	6a 00                	push   0x0
  10af73:	55                   	push   ebp
  10af74:	68 b4 64 11 00       	push   0x1164b4
  10af79:	e8 12 1d 00 00       	call   10cc90 <__ubsan_handle_divrem_overflow>
  10af7e:	83 c4 10             	add    esp,0x10
  10af81:	e9 02 ff ff ff       	jmp    10ae88 <_ultoa+0x38>
  10af86:	83 ec 04             	sub    esp,0x4
  10af89:	6a 00                	push   0x0
  10af8b:	55                   	push   ebp
  10af8c:	68 a4 64 11 00       	push   0x1164a4
  10af91:	e8 fa 1c 00 00       	call   10cc90 <__ubsan_handle_divrem_overflow>
  10af96:	83 c4 10             	add    esp,0x10
  10af99:	e9 66 ff ff ff       	jmp    10af04 <_ultoa+0xb4>
  10af9e:	03 74 24 14          	add    esi,DWORD PTR [esp+0x14]
  10afa2:	0f 82 50 ff ff ff    	jb     10aef8 <_ultoa+0xa8>
  10afa8:	88 54 24 18          	mov    BYTE PTR [esp+0x18],dl
  10afac:	50                   	push   eax
  10afad:	50                   	push   eax
  10afae:	ff 74 24 1c          	push   DWORD PTR [esp+0x1c]
  10afb2:	68 cc 60 11 00       	push   0x1160cc
  10afb7:	e8 b4 1a 00 00       	call   10ca70 <__ubsan_handle_type_mismatch>
  10afbc:	83 c4 10             	add    esp,0x10
  10afbf:	0f b6 54 24 18       	movzx  edx,BYTE PTR [esp+0x18]
  10afc4:	e9 2f ff ff ff       	jmp    10aef8 <_ultoa+0xa8>
  10afc9:	88 54 24 18          	mov    BYTE PTR [esp+0x18],dl
  10afcd:	50                   	push   eax
  10afce:	50                   	push   eax
  10afcf:	53                   	push   ebx
  10afd0:	68 e4 60 11 00       	push   0x1160e4
  10afd5:	e8 46 1a 00 00       	call   10ca20 <__ubsan_handle_out_of_bounds>
  10afda:	83 c4 10             	add    esp,0x10
  10afdd:	0f b6 54 24 18       	movzx  edx,BYTE PTR [esp+0x18]
  10afe2:	e9 08 ff ff ff       	jmp    10aeef <_ultoa+0x9f>
  10afe7:	8b 44 24 14          	mov    eax,DWORD PTR [esp+0x14]
  10afeb:	01 f0                	add    eax,esi
  10afed:	0f 82 f0 fe ff ff    	jb     10aee3 <_ultoa+0x93>
  10aff3:	89 54 24 18          	mov    DWORD PTR [esp+0x18],edx
  10aff7:	50                   	push   eax
  10aff8:	50                   	push   eax
  10aff9:	ff 74 24 1c          	push   DWORD PTR [esp+0x1c]
  10affd:	68 08 61 11 00       	push   0x116108
  10b002:	e8 69 1a 00 00       	call   10ca70 <__ubsan_handle_type_mismatch>
  10b007:	83 c4 10             	add    esp,0x10
  10b00a:	8b 54 24 18          	mov    edx,DWORD PTR [esp+0x18]
  10b00e:	e9 d0 fe ff ff       	jmp    10aee3 <_ultoa+0x93>
  10b013:	50                   	push   eax
  10b014:	50                   	push   eax
  10b015:	6a 00                	push   0x0
  10b017:	68 60 60 11 00       	push   0x116060
  10b01c:	e8 4f 1a 00 00       	call   10ca70 <__ubsan_handle_type_mismatch>
  10b021:	83 c4 10             	add    esp,0x10
  10b024:	e9 3a ff ff ff       	jmp    10af63 <_ultoa+0x113>
  10b029:	88 4c 24 0b          	mov    BYTE PTR [esp+0xb],cl
  10b02d:	52                   	push   edx
  10b02e:	52                   	push   edx
  10b02f:	6a 00                	push   0x0
  10b031:	68 78 60 11 00       	push   0x116078
  10b036:	e8 35 1a 00 00       	call   10ca70 <__ubsan_handle_type_mismatch>
  10b03b:	83 c4 10             	add    esp,0x10
  10b03e:	0f b6 4c 24 0b       	movzx  ecx,BYTE PTR [esp+0xb]
  10b043:	e9 0b ff ff ff       	jmp    10af53 <_ultoa+0x103>
  10b048:	01 c2                	add    edx,eax
  10b04a:	0f 82 f6 fe ff ff    	jb     10af46 <_ultoa+0xf6>
  10b050:	88 4c 24 0b          	mov    BYTE PTR [esp+0xb],cl
  10b054:	51                   	push   ecx
  10b055:	51                   	push   ecx
  10b056:	50                   	push   eax
  10b057:	68 90 60 11 00       	push   0x116090
  10b05c:	e8 0f 1a 00 00       	call   10ca70 <__ubsan_handle_type_mismatch>
  10b061:	83 c4 10             	add    esp,0x10
  10b064:	0f b6 4c 24 0b       	movzx  ecx,BYTE PTR [esp+0xb]
  10b069:	e9 d8 fe ff ff       	jmp    10af46 <_ultoa+0xf6>
  10b06e:	88 4c 24 0b          	mov    BYTE PTR [esp+0xb],cl
  10b072:	56                   	push   esi
  10b073:	56                   	push   esi
  10b074:	53                   	push   ebx
  10b075:	68 a8 60 11 00       	push   0x1160a8
  10b07a:	e8 a1 19 00 00       	call   10ca20 <__ubsan_handle_out_of_bounds>
  10b07f:	83 c4 10             	add    esp,0x10
  10b082:	0f b6 4c 24 0b       	movzx  ecx,BYTE PTR [esp+0xb]
  10b087:	e9 a5 fe ff ff       	jmp    10af31 <_ultoa+0xe1>
  10b08c:	8b 4c 24 14          	mov    ecx,DWORD PTR [esp+0x14]
  10b090:	01 f1                	add    ecx,esi
  10b092:	0f 82 3e fe ff ff    	jb     10aed6 <_ultoa+0x86>
  10b098:	88 44 24 18          	mov    BYTE PTR [esp+0x18],al
  10b09c:	89 54 24 1c          	mov    DWORD PTR [esp+0x1c],edx
  10b0a0:	50                   	push   eax
  10b0a1:	50                   	push   eax
  10b0a2:	ff 74 24 1c          	push   DWORD PTR [esp+0x1c]
  10b0a6:	68 20 61 11 00       	push   0x116120
  10b0ab:	e8 c0 19 00 00       	call   10ca70 <__ubsan_handle_type_mismatch>
  10b0b0:	83 c4 10             	add    esp,0x10
  10b0b3:	8b 54 24 1c          	mov    edx,DWORD PTR [esp+0x1c]
  10b0b7:	0f b6 44 24 18       	movzx  eax,BYTE PTR [esp+0x18]
  10b0bc:	e9 15 fe ff ff       	jmp    10aed6 <_ultoa+0x86>
  10b0c1:	88 44 24 18          	mov    BYTE PTR [esp+0x18],al
  10b0c5:	89 54 24 1c          	mov    DWORD PTR [esp+0x1c],edx
  10b0c9:	50                   	push   eax
  10b0ca:	50                   	push   eax
  10b0cb:	53                   	push   ebx
  10b0cc:	68 38 61 11 00       	push   0x116138
  10b0d1:	e8 4a 19 00 00       	call   10ca20 <__ubsan_handle_out_of_bounds>
  10b0d6:	83 c4 10             	add    esp,0x10
  10b0d9:	8b 54 24 1c          	mov    edx,DWORD PTR [esp+0x1c]
  10b0dd:	0f b6 44 24 18       	movzx  eax,BYTE PTR [esp+0x18]
  10b0e2:	e9 e6 fd ff ff       	jmp    10aecd <_ultoa+0x7d>
  10b0e7:	8b 4c 24 14          	mov    ecx,DWORD PTR [esp+0x14]
  10b0eb:	01 f1                	add    ecx,esi
  10b0ed:	0f 82 cd fd ff ff    	jb     10aec0 <_ultoa+0x70>
  10b0f3:	88 44 24 18          	mov    BYTE PTR [esp+0x18],al
  10b0f7:	89 54 24 1c          	mov    DWORD PTR [esp+0x1c],edx
  10b0fb:	50                   	push   eax
  10b0fc:	50                   	push   eax
  10b0fd:	ff 74 24 1c          	push   DWORD PTR [esp+0x1c]
  10b101:	68 5c 61 11 00       	push   0x11615c
  10b106:	e8 65 19 00 00       	call   10ca70 <__ubsan_handle_type_mismatch>
  10b10b:	83 c4 10             	add    esp,0x10
  10b10e:	8b 54 24 1c          	mov    edx,DWORD PTR [esp+0x1c]
  10b112:	0f b6 44 24 18       	movzx  eax,BYTE PTR [esp+0x18]
  10b117:	e9 a4 fd ff ff       	jmp    10aec0 <_ultoa+0x70>
  10b11c:	89 54 24 18          	mov    DWORD PTR [esp+0x18],edx
  10b120:	88 44 24 14          	mov    BYTE PTR [esp+0x14],al
  10b124:	52                   	push   edx
  10b125:	52                   	push   edx
  10b126:	53                   	push   ebx
  10b127:	68 74 61 11 00       	push   0x116174
  10b12c:	e8 ef 18 00 00       	call   10ca20 <__ubsan_handle_out_of_bounds>
  10b131:	83 c4 10             	add    esp,0x10
  10b134:	8b 54 24 18          	mov    edx,DWORD PTR [esp+0x18]
  10b138:	0f b6 44 24 14       	movzx  eax,BYTE PTR [esp+0x14]
  10b13d:	e9 66 fd ff ff       	jmp    10aea8 <_ultoa+0x58>
  10b142:	8d b4 26 00 00 00 00 	lea    esi,[esi+eiz*1+0x0]
  10b149:	8d bc 27 00 00 00 00 	lea    edi,[edi+eiz*1+0x0]

0010b150 <ltoa>:
  10b150:	53                   	push   ebx
  10b151:	83 ec 0c             	sub    esp,0xc
  10b154:	8b 5c 24 18          	mov    ebx,DWORD PTR [esp+0x18]
  10b158:	ff 74 24 1c          	push   DWORD PTR [esp+0x1c]
  10b15c:	53                   	push   ebx
  10b15d:	ff 74 24 1c          	push   DWORD PTR [esp+0x1c]
  10b161:	e8 ea fc ff ff       	call   10ae50 <_ultoa>
  10b166:	83 c4 18             	add    esp,0x18
  10b169:	89 d8                	mov    eax,ebx
  10b16b:	5b                   	pop    ebx
  10b16c:	c3                   	ret    
  10b16d:	8d 76 00             	lea    esi,[esi+0x0]

0010b170 <strhex>:
  10b170:	55                   	push   ebp
  10b171:	57                   	push   edi
  10b172:	56                   	push   esi
  10b173:	53                   	push   ebx
  10b174:	83 ec 1c             	sub    esp,0x1c
  10b177:	8b 44 24 34          	mov    eax,DWORD PTR [esp+0x34]
  10b17b:	8b 4c 24 38          	mov    ecx,DWORD PTR [esp+0x38]
  10b17f:	8b 54 24 3c          	mov    edx,DWORD PTR [esp+0x3c]
  10b183:	85 c0                	test   eax,eax
  10b185:	0f 84 7a 03 00 00    	je     10b505 <strhex+0x395>
  10b18b:	84 c9                	test   cl,cl
  10b18d:	c6 00 00             	mov    BYTE PTR [eax],0x0
  10b190:	89 c3                	mov    ebx,eax
  10b192:	74 13                	je     10b1a7 <strhex+0x37>
  10b194:	83 f8 ff             	cmp    eax,0xffffffff
  10b197:	c6 00 30             	mov    BYTE PTR [eax],0x30
  10b19a:	0f 84 cc 02 00 00    	je     10b46c <strhex+0x2fc>
  10b1a0:	8d 58 02             	lea    ebx,[eax+0x2]
  10b1a3:	c6 40 01 78          	mov    BYTE PTR [eax+0x1],0x78
  10b1a7:	80 fa 01             	cmp    dl,0x1
  10b1aa:	0f 84 e0 00 00 00    	je     10b290 <strhex+0x120>
  10b1b0:	80 fa 02             	cmp    dl,0x2
  10b1b3:	74 1b                	je     10b1d0 <strhex+0x60>
  10b1b5:	80 fa 04             	cmp    dl,0x4
  10b1b8:	0f 84 32 01 00 00    	je     10b2f0 <strhex+0x180>
  10b1be:	83 c4 1c             	add    esp,0x1c
  10b1c1:	5b                   	pop    ebx
  10b1c2:	5e                   	pop    esi
  10b1c3:	5f                   	pop    edi
  10b1c4:	5d                   	pop    ebp
  10b1c5:	c3                   	ret    
  10b1c6:	8d 76 00             	lea    esi,[esi+0x0]
  10b1c9:	8d bc 27 00 00 00 00 	lea    edi,[edi+eiz*1+0x0]
  10b1d0:	8b 7c 24 30          	mov    edi,DWORD PTR [esp+0x30]
  10b1d4:	be 01 00 00 00       	mov    esi,0x1
  10b1d9:	81 ee 04 d0 10 00    	sub    esi,0x10d004
  10b1df:	c1 ef 0c             	shr    edi,0xc
  10b1e2:	83 e7 0f             	and    edi,0xf
  10b1e5:	8d 97 04 d0 10 00    	lea    edx,[edi+0x10d004]
  10b1eb:	8d 0c 32             	lea    ecx,[edx+esi*1]
  10b1ee:	83 f9 11             	cmp    ecx,0x11
  10b1f1:	0f 87 22 04 00 00    	ja     10b619 <strhex+0x4a9>
  10b1f7:	85 db                	test   ebx,ebx
  10b1f9:	0f b6 97 04 d0 10 00 	movzx  edx,BYTE PTR [edi+0x10d004]
  10b200:	0f 84 c7 03 00 00    	je     10b5cd <strhex+0x45d>
  10b206:	8b 7c 24 30          	mov    edi,DWORD PTR [esp+0x30]
  10b20a:	88 13                	mov    BYTE PTR [ebx],dl
  10b20c:	8d 6b 01             	lea    ebp,[ebx+0x1]
  10b20f:	c1 ef 08             	shr    edi,0x8
  10b212:	83 e7 0f             	and    edi,0xf
  10b215:	8d 97 04 d0 10 00    	lea    edx,[edi+0x10d004]
  10b21b:	8d 0c 32             	lea    ecx,[edx+esi*1]
  10b21e:	83 f9 11             	cmp    ecx,0x11
  10b221:	0f 87 cd 03 00 00    	ja     10b5f4 <strhex+0x484>
  10b227:	85 ed                	test   ebp,ebp
  10b229:	0f b6 97 04 d0 10 00 	movzx  edx,BYTE PTR [edi+0x10d004]
  10b230:	0f 84 fd 02 00 00    	je     10b533 <strhex+0x3c3>
  10b236:	8b 7c 24 30          	mov    edi,DWORD PTR [esp+0x30]
  10b23a:	88 53 01             	mov    BYTE PTR [ebx+0x1],dl
  10b23d:	8d 6b 02             	lea    ebp,[ebx+0x2]
  10b240:	c1 ef 04             	shr    edi,0x4
  10b243:	83 e7 0f             	and    edi,0xf
  10b246:	8d 97 04 d0 10 00    	lea    edx,[edi+0x10d004]
  10b24c:	01 d6                	add    esi,edx
  10b24e:	83 fe 11             	cmp    esi,0x11
  10b251:	0f 87 03 03 00 00    	ja     10b55a <strhex+0x3ea>
  10b257:	85 ed                	test   ebp,ebp
  10b259:	0f b6 97 04 d0 10 00 	movzx  edx,BYTE PTR [edi+0x10d004]
  10b260:	0f 84 19 03 00 00    	je     10b57f <strhex+0x40f>
  10b266:	88 53 02             	mov    BYTE PTR [ebx+0x2],dl
  10b269:	8b 54 24 30          	mov    edx,DWORD PTR [esp+0x30]
  10b26d:	83 e2 0f             	and    edx,0xf
  10b270:	83 fb fd             	cmp    ebx,0xfffffffd
  10b273:	0f b6 92 04 d0 10 00 	movzx  edx,BYTE PTR [edx+0x10d004]
  10b27a:	0f 84 26 03 00 00    	je     10b5a6 <strhex+0x436>
  10b280:	88 53 03             	mov    BYTE PTR [ebx+0x3],dl
  10b283:	83 c4 1c             	add    esp,0x1c
  10b286:	5b                   	pop    ebx
  10b287:	5e                   	pop    esi
  10b288:	5f                   	pop    edi
  10b289:	5d                   	pop    ebp
  10b28a:	c3                   	ret    
  10b28b:	90                   	nop
  10b28c:	8d 74 26 00          	lea    esi,[esi+eiz*1+0x0]
  10b290:	8b 74 24 30          	mov    esi,DWORD PTR [esp+0x30]
  10b294:	c1 ee 04             	shr    esi,0x4
  10b297:	83 e6 0f             	and    esi,0xf
  10b29a:	8d 96 04 d0 10 00    	lea    edx,[esi+0x10d004]
  10b2a0:	89 d1                	mov    ecx,edx
  10b2a2:	81 e9 03 d0 10 00    	sub    ecx,0x10d003
  10b2a8:	83 f9 11             	cmp    ecx,0x11
  10b2ab:	0f 87 e1 01 00 00    	ja     10b492 <strhex+0x322>
  10b2b1:	85 db                	test   ebx,ebx
  10b2b3:	0f b6 96 04 d0 10 00 	movzx  edx,BYTE PTR [esi+0x10d004]
  10b2ba:	0f 84 f7 01 00 00    	je     10b4b7 <strhex+0x347>
  10b2c0:	88 13                	mov    BYTE PTR [ebx],dl
  10b2c2:	8b 54 24 30          	mov    edx,DWORD PTR [esp+0x30]
  10b2c6:	83 e2 0f             	and    edx,0xf
  10b2c9:	83 fb ff             	cmp    ebx,0xffffffff
  10b2cc:	0f b6 92 04 d0 10 00 	movzx  edx,BYTE PTR [edx+0x10d004]
  10b2d3:	0f 84 05 02 00 00    	je     10b4de <strhex+0x36e>
  10b2d9:	88 53 01             	mov    BYTE PTR [ebx+0x1],dl
  10b2dc:	83 c4 1c             	add    esp,0x1c
  10b2df:	5b                   	pop    ebx
  10b2e0:	5e                   	pop    esi
  10b2e1:	5f                   	pop    edi
  10b2e2:	5d                   	pop    ebp
  10b2e3:	c3                   	ret    
  10b2e4:	8d b6 00 00 00 00    	lea    esi,[esi+0x0]
  10b2ea:	8d bf 00 00 00 00    	lea    edi,[edi+0x0]
  10b2f0:	8b 7c 24 30          	mov    edi,DWORD PTR [esp+0x30]
  10b2f4:	be 01 00 00 00       	mov    esi,0x1
  10b2f9:	81 ee 04 d0 10 00    	sub    esi,0x10d004
  10b2ff:	c1 ef 1c             	shr    edi,0x1c
  10b302:	8d 97 04 d0 10 00    	lea    edx,[edi+0x10d004]
  10b308:	8d 0c 32             	lea    ecx,[edx+esi*1]
  10b30b:	83 f9 11             	cmp    ecx,0x11
  10b30e:	0f 87 40 05 00 00    	ja     10b854 <strhex+0x6e4>
  10b314:	85 db                	test   ebx,ebx
  10b316:	0f b6 97 04 d0 10 00 	movzx  edx,BYTE PTR [edi+0x10d004]
  10b31d:	0f 84 0a 05 00 00    	je     10b82d <strhex+0x6bd>
  10b323:	8b 7c 24 30          	mov    edi,DWORD PTR [esp+0x30]
  10b327:	88 13                	mov    BYTE PTR [ebx],dl
  10b329:	8d 6b 01             	lea    ebp,[ebx+0x1]
  10b32c:	c1 ef 18             	shr    edi,0x18
  10b32f:	83 e7 0f             	and    edi,0xf
  10b332:	8d 97 04 d0 10 00    	lea    edx,[edi+0x10d004]
  10b338:	8d 0c 32             	lea    ecx,[edx+esi*1]
  10b33b:	83 f9 11             	cmp    ecx,0x11
  10b33e:	0f 87 c4 04 00 00    	ja     10b808 <strhex+0x698>
  10b344:	85 ed                	test   ebp,ebp
  10b346:	0f b6 97 04 d0 10 00 	movzx  edx,BYTE PTR [edi+0x10d004]
  10b34d:	0f 84 8e 04 00 00    	je     10b7e1 <strhex+0x671>
  10b353:	8b 7c 24 30          	mov    edi,DWORD PTR [esp+0x30]
  10b357:	88 53 01             	mov    BYTE PTR [ebx+0x1],dl
  10b35a:	8d 6b 02             	lea    ebp,[ebx+0x2]
  10b35d:	c1 ef 14             	shr    edi,0x14
  10b360:	83 e7 0f             	and    edi,0xf
  10b363:	8d 97 04 d0 10 00    	lea    edx,[edi+0x10d004]
  10b369:	8d 0c 32             	lea    ecx,[edx+esi*1]
  10b36c:	83 f9 11             	cmp    ecx,0x11
  10b36f:	0f 87 47 04 00 00    	ja     10b7bc <strhex+0x64c>
  10b375:	85 ed                	test   ebp,ebp
  10b377:	0f b6 97 04 d0 10 00 	movzx  edx,BYTE PTR [edi+0x10d004]
  10b37e:	0f 84 11 04 00 00    	je     10b795 <strhex+0x625>
  10b384:	8b 7c 24 30          	mov    edi,DWORD PTR [esp+0x30]
  10b388:	88 53 02             	mov    BYTE PTR [ebx+0x2],dl
  10b38b:	8d 6b 03             	lea    ebp,[ebx+0x3]
  10b38e:	c1 ef 10             	shr    edi,0x10
  10b391:	83 e7 0f             	and    edi,0xf
  10b394:	8d 97 04 d0 10 00    	lea    edx,[edi+0x10d004]
  10b39a:	8d 0c 32             	lea    ecx,[edx+esi*1]
  10b39d:	83 f9 11             	cmp    ecx,0x11
  10b3a0:	0f 87 ca 03 00 00    	ja     10b770 <strhex+0x600>
  10b3a6:	85 ed                	test   ebp,ebp
  10b3a8:	0f b6 97 04 d0 10 00 	movzx  edx,BYTE PTR [edi+0x10d004]
  10b3af:	0f 84 94 03 00 00    	je     10b749 <strhex+0x5d9>
  10b3b5:	8b 7c 24 30          	mov    edi,DWORD PTR [esp+0x30]
  10b3b9:	88 53 03             	mov    BYTE PTR [ebx+0x3],dl
  10b3bc:	8d 6b 04             	lea    ebp,[ebx+0x4]
  10b3bf:	c1 ef 0c             	shr    edi,0xc
  10b3c2:	83 e7 0f             	and    edi,0xf
  10b3c5:	8d 97 04 d0 10 00    	lea    edx,[edi+0x10d004]
  10b3cb:	8d 0c 32             	lea    ecx,[edx+esi*1]
  10b3ce:	83 f9 11             	cmp    ecx,0x11
  10b3d1:	0f 87 4d 03 00 00    	ja     10b724 <strhex+0x5b4>
  10b3d7:	85 ed                	test   ebp,ebp
  10b3d9:	0f b6 97 04 d0 10 00 	movzx  edx,BYTE PTR [edi+0x10d004]
  10b3e0:	0f 84 17 03 00 00    	je     10b6fd <strhex+0x58d>
  10b3e6:	8b 7c 24 30          	mov    edi,DWORD PTR [esp+0x30]
  10b3ea:	88 53 04             	mov    BYTE PTR [ebx+0x4],dl
  10b3ed:	8d 6b 05             	lea    ebp,[ebx+0x5]
  10b3f0:	c1 ef 08             	shr    edi,0x8
  10b3f3:	83 e7 0f             	and    edi,0xf
  10b3f6:	8d 97 04 d0 10 00    	lea    edx,[edi+0x10d004]
  10b3fc:	8d 0c 32             	lea    ecx,[edx+esi*1]
  10b3ff:	83 f9 11             	cmp    ecx,0x11
  10b402:	0f 87 d0 02 00 00    	ja     10b6d8 <strhex+0x568>
  10b408:	85 ed                	test   ebp,ebp
  10b40a:	0f b6 97 04 d0 10 00 	movzx  edx,BYTE PTR [edi+0x10d004]
  10b411:	0f 84 9a 02 00 00    	je     10b6b1 <strhex+0x541>
  10b417:	8b 7c 24 30          	mov    edi,DWORD PTR [esp+0x30]
  10b41b:	88 53 05             	mov    BYTE PTR [ebx+0x5],dl
  10b41e:	8d 6b 06             	lea    ebp,[ebx+0x6]
  10b421:	c1 ef 04             	shr    edi,0x4
  10b424:	83 e7 0f             	and    edi,0xf
  10b427:	8d 97 04 d0 10 00    	lea    edx,[edi+0x10d004]
  10b42d:	01 d6                	add    esi,edx
  10b42f:	83 fe 11             	cmp    esi,0x11
  10b432:	0f 87 54 02 00 00    	ja     10b68c <strhex+0x51c>
  10b438:	85 ed                	test   ebp,ebp
  10b43a:	0f b6 97 04 d0 10 00 	movzx  edx,BYTE PTR [edi+0x10d004]
  10b441:	0f 84 1e 02 00 00    	je     10b665 <strhex+0x4f5>
  10b447:	88 53 06             	mov    BYTE PTR [ebx+0x6],dl
  10b44a:	8b 54 24 30          	mov    edx,DWORD PTR [esp+0x30]
  10b44e:	83 e2 0f             	and    edx,0xf
  10b451:	83 fb f9             	cmp    ebx,0xfffffff9
  10b454:	0f b6 92 04 d0 10 00 	movzx  edx,BYTE PTR [edx+0x10d004]
  10b45b:	0f 84 dd 01 00 00    	je     10b63e <strhex+0x4ce>
  10b461:	88 53 07             	mov    BYTE PTR [ebx+0x7],dl
  10b464:	83 c4 1c             	add    esp,0x1c
  10b467:	5b                   	pop    ebx
  10b468:	5e                   	pop    esi
  10b469:	5f                   	pop    edi
  10b46a:	5d                   	pop    ebp
  10b46b:	c3                   	ret    
  10b46c:	89 44 24 04          	mov    DWORD PTR [esp+0x4],eax
  10b470:	89 54 24 08          	mov    DWORD PTR [esp+0x8],edx
  10b474:	50                   	push   eax
  10b475:	50                   	push   eax
  10b476:	6a 00                	push   0x0
  10b478:	68 30 60 11 00       	push   0x116030
  10b47d:	e8 ee 15 00 00       	call   10ca70 <__ubsan_handle_type_mismatch>
  10b482:	83 c4 10             	add    esp,0x10
  10b485:	8b 54 24 08          	mov    edx,DWORD PTR [esp+0x8]
  10b489:	8b 44 24 04          	mov    eax,DWORD PTR [esp+0x4]
  10b48d:	e9 0e fd ff ff       	jmp    10b1a0 <strhex+0x30>
  10b492:	01 d1                	add    ecx,edx
  10b494:	0f 82 17 fe ff ff    	jb     10b2b1 <strhex+0x141>
  10b49a:	89 44 24 04          	mov    DWORD PTR [esp+0x4],eax
  10b49e:	50                   	push   eax
  10b49f:	50                   	push   eax
  10b4a0:	52                   	push   edx
  10b4a1:	68 f4 5f 11 00       	push   0x115ff4
  10b4a6:	e8 c5 15 00 00       	call   10ca70 <__ubsan_handle_type_mismatch>
  10b4ab:	83 c4 10             	add    esp,0x10
  10b4ae:	8b 44 24 04          	mov    eax,DWORD PTR [esp+0x4]
  10b4b2:	e9 fa fd ff ff       	jmp    10b2b1 <strhex+0x141>
  10b4b7:	89 44 24 08          	mov    DWORD PTR [esp+0x8],eax
  10b4bb:	88 54 24 04          	mov    BYTE PTR [esp+0x4],dl
  10b4bf:	50                   	push   eax
  10b4c0:	50                   	push   eax
  10b4c1:	6a 00                	push   0x0
  10b4c3:	68 dc 5f 11 00       	push   0x115fdc
  10b4c8:	e8 a3 15 00 00       	call   10ca70 <__ubsan_handle_type_mismatch>
  10b4cd:	83 c4 10             	add    esp,0x10
  10b4d0:	8b 44 24 08          	mov    eax,DWORD PTR [esp+0x8]
  10b4d4:	0f b6 54 24 04       	movzx  edx,BYTE PTR [esp+0x4]
  10b4d9:	e9 e2 fd ff ff       	jmp    10b2c0 <strhex+0x150>
  10b4de:	89 44 24 08          	mov    DWORD PTR [esp+0x8],eax
  10b4e2:	88 54 24 04          	mov    BYTE PTR [esp+0x4],dl
  10b4e6:	50                   	push   eax
  10b4e7:	50                   	push   eax
  10b4e8:	6a 00                	push   0x0
  10b4ea:	68 c4 5f 11 00       	push   0x115fc4
  10b4ef:	e8 7c 15 00 00       	call   10ca70 <__ubsan_handle_type_mismatch>
  10b4f4:	83 c4 10             	add    esp,0x10
  10b4f7:	8b 44 24 08          	mov    eax,DWORD PTR [esp+0x8]
  10b4fb:	0f b6 54 24 04       	movzx  edx,BYTE PTR [esp+0x4]
  10b500:	e9 d4 fd ff ff       	jmp    10b2d9 <strhex+0x169>
  10b505:	89 44 24 04          	mov    DWORD PTR [esp+0x4],eax
  10b509:	89 54 24 0c          	mov    DWORD PTR [esp+0xc],edx
  10b50d:	89 4c 24 08          	mov    DWORD PTR [esp+0x8],ecx
  10b511:	50                   	push   eax
  10b512:	50                   	push   eax
  10b513:	6a 00                	push   0x0
  10b515:	68 48 60 11 00       	push   0x116048
  10b51a:	e8 51 15 00 00       	call   10ca70 <__ubsan_handle_type_mismatch>
  10b51f:	83 c4 10             	add    esp,0x10
  10b522:	8b 54 24 0c          	mov    edx,DWORD PTR [esp+0xc]
  10b526:	8b 4c 24 08          	mov    ecx,DWORD PTR [esp+0x8]
  10b52a:	8b 44 24 04          	mov    eax,DWORD PTR [esp+0x4]
  10b52e:	e9 58 fc ff ff       	jmp    10b18b <strhex+0x1b>
  10b533:	88 54 24 04          	mov    BYTE PTR [esp+0x4],dl
  10b537:	89 44 24 08          	mov    DWORD PTR [esp+0x8],eax
  10b53b:	52                   	push   edx
  10b53c:	52                   	push   edx
  10b53d:	6a 00                	push   0x0
  10b53f:	68 1c 5f 11 00       	push   0x115f1c
  10b544:	e8 27 15 00 00       	call   10ca70 <__ubsan_handle_type_mismatch>
  10b549:	83 c4 10             	add    esp,0x10
  10b54c:	8b 44 24 08          	mov    eax,DWORD PTR [esp+0x8]
  10b550:	0f b6 54 24 04       	movzx  edx,BYTE PTR [esp+0x4]
  10b555:	e9 dc fc ff ff       	jmp    10b236 <strhex+0xc6>
  10b55a:	01 d6                	add    esi,edx
  10b55c:	0f 82 f5 fc ff ff    	jb     10b257 <strhex+0xe7>
  10b562:	89 44 24 04          	mov    DWORD PTR [esp+0x4],eax
  10b566:	50                   	push   eax
  10b567:	50                   	push   eax
  10b568:	52                   	push   edx
  10b569:	68 e0 5e 11 00       	push   0x115ee0
  10b56e:	e8 fd 14 00 00       	call   10ca70 <__ubsan_handle_type_mismatch>
  10b573:	83 c4 10             	add    esp,0x10
  10b576:	8b 44 24 04          	mov    eax,DWORD PTR [esp+0x4]
  10b57a:	e9 d8 fc ff ff       	jmp    10b257 <strhex+0xe7>
  10b57f:	89 44 24 08          	mov    DWORD PTR [esp+0x8],eax
  10b583:	88 54 24 04          	mov    BYTE PTR [esp+0x4],dl
  10b587:	50                   	push   eax
  10b588:	50                   	push   eax
  10b589:	6a 00                	push   0x0
  10b58b:	68 c8 5e 11 00       	push   0x115ec8
  10b590:	e8 db 14 00 00       	call   10ca70 <__ubsan_handle_type_mismatch>
  10b595:	83 c4 10             	add    esp,0x10
  10b598:	8b 44 24 08          	mov    eax,DWORD PTR [esp+0x8]
  10b59c:	0f b6 54 24 04       	movzx  edx,BYTE PTR [esp+0x4]
  10b5a1:	e9 c0 fc ff ff       	jmp    10b266 <strhex+0xf6>
  10b5a6:	89 44 24 08          	mov    DWORD PTR [esp+0x8],eax
  10b5aa:	88 54 24 04          	mov    BYTE PTR [esp+0x4],dl
  10b5ae:	50                   	push   eax
  10b5af:	50                   	push   eax
  10b5b0:	6a 00                	push   0x0
  10b5b2:	68 b0 5e 11 00       	push   0x115eb0
  10b5b7:	e8 b4 14 00 00       	call   10ca70 <__ubsan_handle_type_mismatch>
  10b5bc:	83 c4 10             	add    esp,0x10
  10b5bf:	8b 44 24 08          	mov    eax,DWORD PTR [esp+0x8]
  10b5c3:	0f b6 54 24 04       	movzx  edx,BYTE PTR [esp+0x4]
  10b5c8:	e9 b3 fc ff ff       	jmp    10b280 <strhex+0x110>
  10b5cd:	89 44 24 08          	mov    DWORD PTR [esp+0x8],eax
  10b5d1:	88 54 24 04          	mov    BYTE PTR [esp+0x4],dl
  10b5d5:	57                   	push   edi
  10b5d6:	57                   	push   edi
  10b5d7:	6a 00                	push   0x0
  10b5d9:	68 70 5f 11 00       	push   0x115f70
  10b5de:	e8 8d 14 00 00       	call   10ca70 <__ubsan_handle_type_mismatch>
  10b5e3:	83 c4 10             	add    esp,0x10
  10b5e6:	8b 44 24 08          	mov    eax,DWORD PTR [esp+0x8]
  10b5ea:	0f b6 54 24 04       	movzx  edx,BYTE PTR [esp+0x4]
  10b5ef:	e9 12 fc ff ff       	jmp    10b206 <strhex+0x96>
  10b5f4:	01 d1                	add    ecx,edx
  10b5f6:	0f 82 2b fc ff ff    	jb     10b227 <strhex+0xb7>
  10b5fc:	89 44 24 04          	mov    DWORD PTR [esp+0x4],eax
  10b600:	51                   	push   ecx
  10b601:	51                   	push   ecx
  10b602:	52                   	push   edx
  10b603:	68 34 5f 11 00       	push   0x115f34
  10b608:	e8 63 14 00 00       	call   10ca70 <__ubsan_handle_type_mismatch>
  10b60d:	83 c4 10             	add    esp,0x10
  10b610:	8b 44 24 04          	mov    eax,DWORD PTR [esp+0x4]
  10b614:	e9 0e fc ff ff       	jmp    10b227 <strhex+0xb7>
  10b619:	01 d1                	add    ecx,edx
  10b61b:	0f 82 d6 fb ff ff    	jb     10b1f7 <strhex+0x87>
  10b621:	89 44 24 04          	mov    DWORD PTR [esp+0x4],eax
  10b625:	55                   	push   ebp
  10b626:	55                   	push   ebp
  10b627:	52                   	push   edx
  10b628:	68 88 5f 11 00       	push   0x115f88
  10b62d:	e8 3e 14 00 00       	call   10ca70 <__ubsan_handle_type_mismatch>
  10b632:	83 c4 10             	add    esp,0x10
  10b635:	8b 44 24 04          	mov    eax,DWORD PTR [esp+0x4]
  10b639:	e9 b9 fb ff ff       	jmp    10b1f7 <strhex+0x87>
  10b63e:	89 44 24 08          	mov    DWORD PTR [esp+0x8],eax
  10b642:	88 54 24 04          	mov    BYTE PTR [esp+0x4],dl
  10b646:	50                   	push   eax
  10b647:	50                   	push   eax
  10b648:	6a 00                	push   0x0
  10b64a:	68 4c 5c 11 00       	push   0x115c4c
  10b64f:	e8 1c 14 00 00       	call   10ca70 <__ubsan_handle_type_mismatch>
  10b654:	83 c4 10             	add    esp,0x10
  10b657:	8b 44 24 08          	mov    eax,DWORD PTR [esp+0x8]
  10b65b:	0f b6 54 24 04       	movzx  edx,BYTE PTR [esp+0x4]
  10b660:	e9 fc fd ff ff       	jmp    10b461 <strhex+0x2f1>
  10b665:	88 54 24 04          	mov    BYTE PTR [esp+0x4],dl
  10b669:	89 44 24 08          	mov    DWORD PTR [esp+0x8],eax
  10b66d:	52                   	push   edx
  10b66e:	52                   	push   edx
  10b66f:	6a 00                	push   0x0
  10b671:	68 64 5c 11 00       	push   0x115c64
  10b676:	e8 f5 13 00 00       	call   10ca70 <__ubsan_handle_type_mismatch>
  10b67b:	83 c4 10             	add    esp,0x10
  10b67e:	8b 44 24 08          	mov    eax,DWORD PTR [esp+0x8]
  10b682:	0f b6 54 24 04       	movzx  edx,BYTE PTR [esp+0x4]
  10b687:	e9 bb fd ff ff       	jmp    10b447 <strhex+0x2d7>
  10b68c:	01 d6                	add    esi,edx
  10b68e:	0f 82 a4 fd ff ff    	jb     10b438 <strhex+0x2c8>
  10b694:	89 44 24 04          	mov    DWORD PTR [esp+0x4],eax
  10b698:	51                   	push   ecx
  10b699:	51                   	push   ecx
  10b69a:	52                   	push   edx
  10b69b:	68 7c 5c 11 00       	push   0x115c7c
  10b6a0:	e8 cb 13 00 00       	call   10ca70 <__ubsan_handle_type_mismatch>
  10b6a5:	83 c4 10             	add    esp,0x10
  10b6a8:	8b 44 24 04          	mov    eax,DWORD PTR [esp+0x4]
  10b6ac:	e9 87 fd ff ff       	jmp    10b438 <strhex+0x2c8>
  10b6b1:	89 44 24 08          	mov    DWORD PTR [esp+0x8],eax
  10b6b5:	88 54 24 04          	mov    BYTE PTR [esp+0x4],dl
  10b6b9:	57                   	push   edi
  10b6ba:	57                   	push   edi
  10b6bb:	6a 00                	push   0x0
  10b6bd:	68 b8 5c 11 00       	push   0x115cb8
  10b6c2:	e8 a9 13 00 00       	call   10ca70 <__ubsan_handle_type_mismatch>
  10b6c7:	83 c4 10             	add    esp,0x10
  10b6ca:	8b 44 24 08          	mov    eax,DWORD PTR [esp+0x8]
  10b6ce:	0f b6 54 24 04       	movzx  edx,BYTE PTR [esp+0x4]
  10b6d3:	e9 3f fd ff ff       	jmp    10b417 <strhex+0x2a7>
  10b6d8:	01 d1                	add    ecx,edx
  10b6da:	0f 82 28 fd ff ff    	jb     10b408 <strhex+0x298>
  10b6e0:	89 44 24 04          	mov    DWORD PTR [esp+0x4],eax
  10b6e4:	50                   	push   eax
  10b6e5:	50                   	push   eax
  10b6e6:	52                   	push   edx
  10b6e7:	68 d0 5c 11 00       	push   0x115cd0
  10b6ec:	e8 7f 13 00 00       	call   10ca70 <__ubsan_handle_type_mismatch>
  10b6f1:	83 c4 10             	add    esp,0x10
  10b6f4:	8b 44 24 04          	mov    eax,DWORD PTR [esp+0x4]
  10b6f8:	e9 0b fd ff ff       	jmp    10b408 <strhex+0x298>
  10b6fd:	89 44 24 08          	mov    DWORD PTR [esp+0x8],eax
  10b701:	88 54 24 04          	mov    BYTE PTR [esp+0x4],dl
  10b705:	50                   	push   eax
  10b706:	50                   	push   eax
  10b707:	6a 00                	push   0x0
  10b709:	68 0c 5d 11 00       	push   0x115d0c
  10b70e:	e8 5d 13 00 00       	call   10ca70 <__ubsan_handle_type_mismatch>
  10b713:	83 c4 10             	add    esp,0x10
  10b716:	8b 44 24 08          	mov    eax,DWORD PTR [esp+0x8]
  10b71a:	0f b6 54 24 04       	movzx  edx,BYTE PTR [esp+0x4]
  10b71f:	e9 c2 fc ff ff       	jmp    10b3e6 <strhex+0x276>
  10b724:	01 d1                	add    ecx,edx
  10b726:	0f 82 ab fc ff ff    	jb     10b3d7 <strhex+0x267>
  10b72c:	89 44 24 04          	mov    DWORD PTR [esp+0x4],eax
  10b730:	50                   	push   eax
  10b731:	50                   	push   eax
  10b732:	52                   	push   edx
  10b733:	68 24 5d 11 00       	push   0x115d24
  10b738:	e8 33 13 00 00       	call   10ca70 <__ubsan_handle_type_mismatch>
  10b73d:	83 c4 10             	add    esp,0x10
  10b740:	8b 44 24 04          	mov    eax,DWORD PTR [esp+0x4]
  10b744:	e9 8e fc ff ff       	jmp    10b3d7 <strhex+0x267>
  10b749:	89 44 24 08          	mov    DWORD PTR [esp+0x8],eax
  10b74d:	88 54 24 04          	mov    BYTE PTR [esp+0x4],dl
  10b751:	50                   	push   eax
  10b752:	50                   	push   eax
  10b753:	6a 00                	push   0x0
  10b755:	68 60 5d 11 00       	push   0x115d60
  10b75a:	e8 11 13 00 00       	call   10ca70 <__ubsan_handle_type_mismatch>
  10b75f:	83 c4 10             	add    esp,0x10
  10b762:	8b 44 24 08          	mov    eax,DWORD PTR [esp+0x8]
  10b766:	0f b6 54 24 04       	movzx  edx,BYTE PTR [esp+0x4]
  10b76b:	e9 45 fc ff ff       	jmp    10b3b5 <strhex+0x245>
  10b770:	01 d1                	add    ecx,edx
  10b772:	0f 82 2e fc ff ff    	jb     10b3a6 <strhex+0x236>
  10b778:	89 44 24 04          	mov    DWORD PTR [esp+0x4],eax
  10b77c:	50                   	push   eax
  10b77d:	50                   	push   eax
  10b77e:	52                   	push   edx
  10b77f:	68 78 5d 11 00       	push   0x115d78
  10b784:	e8 e7 12 00 00       	call   10ca70 <__ubsan_handle_type_mismatch>
  10b789:	83 c4 10             	add    esp,0x10
  10b78c:	8b 44 24 04          	mov    eax,DWORD PTR [esp+0x4]
  10b790:	e9 11 fc ff ff       	jmp    10b3a6 <strhex+0x236>
  10b795:	89 44 24 08          	mov    DWORD PTR [esp+0x8],eax
  10b799:	88 54 24 04          	mov    BYTE PTR [esp+0x4],dl
  10b79d:	50                   	push   eax
  10b79e:	50                   	push   eax
  10b79f:	6a 00                	push   0x0
  10b7a1:	68 b4 5d 11 00       	push   0x115db4
  10b7a6:	e8 c5 12 00 00       	call   10ca70 <__ubsan_handle_type_mismatch>
  10b7ab:	83 c4 10             	add    esp,0x10
  10b7ae:	8b 44 24 08          	mov    eax,DWORD PTR [esp+0x8]
  10b7b2:	0f b6 54 24 04       	movzx  edx,BYTE PTR [esp+0x4]
  10b7b7:	e9 c8 fb ff ff       	jmp    10b384 <strhex+0x214>
  10b7bc:	01 d1                	add    ecx,edx
  10b7be:	0f 82 b1 fb ff ff    	jb     10b375 <strhex+0x205>
  10b7c4:	89 44 24 04          	mov    DWORD PTR [esp+0x4],eax
  10b7c8:	51                   	push   ecx
  10b7c9:	51                   	push   ecx
  10b7ca:	52                   	push   edx
  10b7cb:	68 cc 5d 11 00       	push   0x115dcc
  10b7d0:	e8 9b 12 00 00       	call   10ca70 <__ubsan_handle_type_mismatch>
  10b7d5:	83 c4 10             	add    esp,0x10
  10b7d8:	8b 44 24 04          	mov    eax,DWORD PTR [esp+0x4]
  10b7dc:	e9 94 fb ff ff       	jmp    10b375 <strhex+0x205>
  10b7e1:	89 44 24 08          	mov    DWORD PTR [esp+0x8],eax
  10b7e5:	88 54 24 04          	mov    BYTE PTR [esp+0x4],dl
  10b7e9:	57                   	push   edi
  10b7ea:	57                   	push   edi
  10b7eb:	6a 00                	push   0x0
  10b7ed:	68 08 5e 11 00       	push   0x115e08
  10b7f2:	e8 79 12 00 00       	call   10ca70 <__ubsan_handle_type_mismatch>
  10b7f7:	83 c4 10             	add    esp,0x10
  10b7fa:	8b 44 24 08          	mov    eax,DWORD PTR [esp+0x8]
  10b7fe:	0f b6 54 24 04       	movzx  edx,BYTE PTR [esp+0x4]
  10b803:	e9 4b fb ff ff       	jmp    10b353 <strhex+0x1e3>
  10b808:	01 d1                	add    ecx,edx
  10b80a:	0f 82 34 fb ff ff    	jb     10b344 <strhex+0x1d4>
  10b810:	89 44 24 04          	mov    DWORD PTR [esp+0x4],eax
  10b814:	50                   	push   eax
  10b815:	50                   	push   eax
  10b816:	52                   	push   edx
  10b817:	68 20 5e 11 00       	push   0x115e20
  10b81c:	e8 4f 12 00 00       	call   10ca70 <__ubsan_handle_type_mismatch>
  10b821:	83 c4 10             	add    esp,0x10
  10b824:	8b 44 24 04          	mov    eax,DWORD PTR [esp+0x4]
  10b828:	e9 17 fb ff ff       	jmp    10b344 <strhex+0x1d4>
  10b82d:	89 44 24 08          	mov    DWORD PTR [esp+0x8],eax
  10b831:	88 54 24 04          	mov    BYTE PTR [esp+0x4],dl
  10b835:	50                   	push   eax
  10b836:	50                   	push   eax
  10b837:	6a 00                	push   0x0
  10b839:	68 5c 5e 11 00       	push   0x115e5c
  10b83e:	e8 2d 12 00 00       	call   10ca70 <__ubsan_handle_type_mismatch>
  10b843:	83 c4 10             	add    esp,0x10
  10b846:	8b 44 24 08          	mov    eax,DWORD PTR [esp+0x8]
  10b84a:	0f b6 54 24 04       	movzx  edx,BYTE PTR [esp+0x4]
  10b84f:	e9 cf fa ff ff       	jmp    10b323 <strhex+0x1b3>
  10b854:	01 d1                	add    ecx,edx
  10b856:	0f 82 b8 fa ff ff    	jb     10b314 <strhex+0x1a4>
  10b85c:	89 44 24 04          	mov    DWORD PTR [esp+0x4],eax
  10b860:	50                   	push   eax
  10b861:	50                   	push   eax
  10b862:	52                   	push   edx
  10b863:	68 74 5e 11 00       	push   0x115e74
  10b868:	e8 03 12 00 00       	call   10ca70 <__ubsan_handle_type_mismatch>
  10b86d:	83 c4 10             	add    esp,0x10
  10b870:	8b 44 24 04          	mov    eax,DWORD PTR [esp+0x4]
  10b874:	e9 9b fa ff ff       	jmp    10b314 <strhex+0x1a4>
  10b879:	8d b4 26 00 00 00 00 	lea    esi,[esi+eiz*1+0x0]

0010b880 <system>:
  10b880:	31 c0                	xor    eax,eax
  10b882:	c3                   	ret    
  10b883:	8d b6 00 00 00 00    	lea    esi,[esi+0x0]
  10b889:	8d bc 27 00 00 00 00 	lea    edi,[edi+eiz*1+0x0]

0010b890 <strerror>:
  10b890:	83 ec 18             	sub    esp,0x18
  10b893:	68 98 64 11 00       	push   0x116498
  10b898:	e8 43 14 00 00       	call   10cce0 <__ubsan_handle_missing_return>
  10b89d:	8d 76 00             	lea    esi,[esi+0x0]

0010b8a0 <perror>:
  10b8a0:	83 ec 14             	sub    esp,0x14
  10b8a3:	fa                   	cli    
  10b8a4:	68 b4 10 11 00       	push   0x1110b4
  10b8a9:	68 e0 13 11 00       	push   0x1113e0
  10b8ae:	e8 8d ec ff ff       	call   10a540 <printf>
  10b8b3:	58                   	pop    eax
  10b8b4:	5a                   	pop    edx
  10b8b5:	8d 44 24 1c          	lea    eax,[esp+0x1c]
  10b8b9:	50                   	push   eax
  10b8ba:	ff 74 24 1c          	push   DWORD PTR [esp+0x1c]
  10b8be:	e8 2d ec ff ff       	call   10a4f0 <vprintf>
  10b8c3:	c7 04 24 41 14 11 00 	mov    DWORD PTR [esp],0x111441
  10b8ca:	e8 71 ec ff ff       	call   10a540 <printf>
  10b8cf:	f4                   	hlt    
  10b8d0:	83 c4 1c             	add    esp,0x1c
  10b8d3:	c3                   	ret    
  10b8d4:	66 90                	xchg   ax,ax
  10b8d6:	66 90                	xchg   ax,ax
  10b8d8:	66 90                	xchg   ax,ax
  10b8da:	66 90                	xchg   ax,ax
  10b8dc:	66 90                	xchg   ax,ax
  10b8de:	66 90                	xchg   ax,ax

0010b8e0 <memchr>:
  10b8e0:	53                   	push   ebx
  10b8e1:	83 ec 18             	sub    esp,0x18
  10b8e4:	8b 44 24 20          	mov    eax,DWORD PTR [esp+0x20]
  10b8e8:	8b 4c 24 24          	mov    ecx,DWORD PTR [esp+0x24]
  10b8ec:	8b 5c 24 28          	mov    ebx,DWORD PTR [esp+0x28]
  10b8f0:	85 c0                	test   eax,eax
  10b8f2:	74 2b                	je     10b91f <memchr+0x3f>
  10b8f4:	85 db                	test   ebx,ebx
  10b8f6:	74 27                	je     10b91f <memchr+0x3f>
  10b8f8:	38 08                	cmp    BYTE PTR [eax],cl
  10b8fa:	89 ca                	mov    edx,ecx
  10b8fc:	74 23                	je     10b921 <memchr+0x41>
  10b8fe:	01 c3                	add    ebx,eax
  10b900:	eb 16                	jmp    10b918 <memchr+0x38>
  10b902:	8d b4 26 00 00 00 00 	lea    esi,[esi+eiz*1+0x0]
  10b909:	8d bc 27 00 00 00 00 	lea    edi,[edi+eiz*1+0x0]
  10b910:	85 c0                	test   eax,eax
  10b912:	74 12                	je     10b926 <memchr+0x46>
  10b914:	38 10                	cmp    BYTE PTR [eax],dl
  10b916:	74 09                	je     10b921 <memchr+0x41>
  10b918:	83 c0 01             	add    eax,0x1
  10b91b:	39 c3                	cmp    ebx,eax
  10b91d:	75 f1                	jne    10b910 <memchr+0x30>
  10b91f:	31 c0                	xor    eax,eax
  10b921:	83 c4 18             	add    esp,0x18
  10b924:	5b                   	pop    ebx
  10b925:	c3                   	ret    
  10b926:	89 44 24 0c          	mov    DWORD PTR [esp+0xc],eax
  10b92a:	88 54 24 0b          	mov    BYTE PTR [esp+0xb],dl
  10b92e:	50                   	push   eax
  10b92f:	50                   	push   eax
  10b930:	6a 00                	push   0x0
  10b932:	68 88 6a 11 00       	push   0x116a88
  10b937:	e8 34 11 00 00       	call   10ca70 <__ubsan_handle_type_mismatch>
  10b93c:	83 c4 10             	add    esp,0x10
  10b93f:	8b 44 24 0c          	mov    eax,DWORD PTR [esp+0xc]
  10b943:	0f b6 54 24 0b       	movzx  edx,BYTE PTR [esp+0xb]
  10b948:	eb ca                	jmp    10b914 <memchr+0x34>
  10b94a:	8d b6 00 00 00 00    	lea    esi,[esi+0x0]

0010b950 <memcmp>:
  10b950:	57                   	push   edi
  10b951:	56                   	push   esi
  10b952:	53                   	push   ebx
  10b953:	83 ec 10             	sub    esp,0x10
  10b956:	8b 7c 24 28          	mov    edi,DWORD PTR [esp+0x28]
  10b95a:	8b 5c 24 20          	mov    ebx,DWORD PTR [esp+0x20]
  10b95e:	8b 74 24 24          	mov    esi,DWORD PTR [esp+0x24]
  10b962:	85 ff                	test   edi,edi
  10b964:	74 36                	je     10b99c <memcmp+0x4c>
  10b966:	85 db                	test   ebx,ebx
  10b968:	74 3b                	je     10b9a5 <memcmp+0x55>
  10b96a:	85 f6                	test   esi,esi
  10b96c:	0f b6 03             	movzx  eax,BYTE PTR [ebx]
  10b96f:	74 75                	je     10b9e6 <memcmp+0x96>
  10b971:	0f b6 16             	movzx  edx,BYTE PTR [esi]
  10b974:	29 d0                	sub    eax,edx
  10b976:	75 26                	jne    10b99e <memcmp+0x4e>
  10b978:	01 df                	add    edi,ebx
  10b97a:	eb 16                	jmp    10b992 <memcmp+0x42>
  10b97c:	8d 74 26 00          	lea    esi,[esi+eiz*1+0x0]
  10b980:	85 db                	test   ebx,ebx
  10b982:	74 4f                	je     10b9d3 <memcmp+0x83>
  10b984:	85 f6                	test   esi,esi
  10b986:	0f b6 03             	movzx  eax,BYTE PTR [ebx]
  10b989:	74 2d                	je     10b9b8 <memcmp+0x68>
  10b98b:	0f b6 16             	movzx  edx,BYTE PTR [esi]
  10b98e:	29 d0                	sub    eax,edx
  10b990:	75 0c                	jne    10b99e <memcmp+0x4e>
  10b992:	83 c3 01             	add    ebx,0x1
  10b995:	83 c6 01             	add    esi,0x1
  10b998:	39 df                	cmp    edi,ebx
  10b99a:	75 e4                	jne    10b980 <memcmp+0x30>
  10b99c:	31 c0                	xor    eax,eax
  10b99e:	83 c4 10             	add    esp,0x10
  10b9a1:	5b                   	pop    ebx
  10b9a2:	5e                   	pop    esi
  10b9a3:	5f                   	pop    edi
  10b9a4:	c3                   	ret    
  10b9a5:	50                   	push   eax
  10b9a6:	50                   	push   eax
  10b9a7:	6a 00                	push   0x0
  10b9a9:	68 70 6a 11 00       	push   0x116a70
  10b9ae:	e8 bd 10 00 00       	call   10ca70 <__ubsan_handle_type_mismatch>
  10b9b3:	83 c4 10             	add    esp,0x10
  10b9b6:	eb b2                	jmp    10b96a <memcmp+0x1a>
  10b9b8:	89 44 24 0c          	mov    DWORD PTR [esp+0xc],eax
  10b9bc:	50                   	push   eax
  10b9bd:	50                   	push   eax
  10b9be:	6a 00                	push   0x0
  10b9c0:	68 28 6a 11 00       	push   0x116a28
  10b9c5:	e8 a6 10 00 00       	call   10ca70 <__ubsan_handle_type_mismatch>
  10b9ca:	83 c4 10             	add    esp,0x10
  10b9cd:	8b 44 24 0c          	mov    eax,DWORD PTR [esp+0xc]
  10b9d1:	eb b8                	jmp    10b98b <memcmp+0x3b>
  10b9d3:	52                   	push   edx
  10b9d4:	52                   	push   edx
  10b9d5:	6a 00                	push   0x0
  10b9d7:	68 40 6a 11 00       	push   0x116a40
  10b9dc:	e8 8f 10 00 00       	call   10ca70 <__ubsan_handle_type_mismatch>
  10b9e1:	83 c4 10             	add    esp,0x10
  10b9e4:	eb 9e                	jmp    10b984 <memcmp+0x34>
  10b9e6:	89 44 24 0c          	mov    DWORD PTR [esp+0xc],eax
  10b9ea:	51                   	push   ecx
  10b9eb:	51                   	push   ecx
  10b9ec:	6a 00                	push   0x0
  10b9ee:	68 58 6a 11 00       	push   0x116a58
  10b9f3:	e8 78 10 00 00       	call   10ca70 <__ubsan_handle_type_mismatch>
  10b9f8:	83 c4 10             	add    esp,0x10
  10b9fb:	8b 44 24 0c          	mov    eax,DWORD PTR [esp+0xc]
  10b9ff:	e9 6d ff ff ff       	jmp    10b971 <memcmp+0x21>
  10ba04:	8d b6 00 00 00 00    	lea    esi,[esi+0x0]
  10ba0a:	8d bf 00 00 00 00    	lea    edi,[edi+0x0]

0010ba10 <memcpy>:
  10ba10:	57                   	push   edi
  10ba11:	56                   	push   esi
  10ba12:	8b 4c 24 14          	mov    ecx,DWORD PTR [esp+0x14]
  10ba16:	f6 c1 03             	test   cl,0x3
  10ba19:	74 35                	je     10ba50 <memcpy+0x40>
  10ba1b:	f6 c1 01             	test   cl,0x1
  10ba1e:	74 10                	je     10ba30 <memcpy+0x20>
  10ba20:	8b 7c 24 0c          	mov    edi,DWORD PTR [esp+0xc]
  10ba24:	8b 74 24 10          	mov    esi,DWORD PTR [esp+0x10]
  10ba28:	fc                   	cld    
  10ba29:	f3 a4                	rep movs BYTE PTR es:[edi],BYTE PTR ds:[esi]
  10ba2b:	89 f8                	mov    eax,edi
  10ba2d:	5e                   	pop    esi
  10ba2e:	5f                   	pop    edi
  10ba2f:	c3                   	ret    
  10ba30:	d1 e9                	shr    ecx,1
  10ba32:	8b 7c 24 0c          	mov    edi,DWORD PTR [esp+0xc]
  10ba36:	8b 74 24 10          	mov    esi,DWORD PTR [esp+0x10]
  10ba3a:	fc                   	cld    
  10ba3b:	66 f3 a5             	rep movs WORD PTR es:[edi],WORD PTR ds:[esi]
  10ba3e:	89 f8                	mov    eax,edi
  10ba40:	5e                   	pop    esi
  10ba41:	5f                   	pop    edi
  10ba42:	c3                   	ret    
  10ba43:	8d b6 00 00 00 00    	lea    esi,[esi+0x0]
  10ba49:	8d bc 27 00 00 00 00 	lea    edi,[edi+eiz*1+0x0]
  10ba50:	c1 e9 02             	shr    ecx,0x2
  10ba53:	8b 7c 24 0c          	mov    edi,DWORD PTR [esp+0xc]
  10ba57:	8b 74 24 10          	mov    esi,DWORD PTR [esp+0x10]
  10ba5b:	fc                   	cld    
  10ba5c:	f3 a5                	rep movs DWORD PTR es:[edi],DWORD PTR ds:[esi]
  10ba5e:	89 f8                	mov    eax,edi
  10ba60:	5e                   	pop    esi
  10ba61:	5f                   	pop    edi
  10ba62:	c3                   	ret    
  10ba63:	8d b6 00 00 00 00    	lea    esi,[esi+0x0]
  10ba69:	8d bc 27 00 00 00 00 	lea    edi,[edi+eiz*1+0x0]

0010ba70 <memset>:
  10ba70:	57                   	push   edi
  10ba71:	8b 4c 24 10          	mov    ecx,DWORD PTR [esp+0x10]
  10ba75:	f6 c1 03             	test   cl,0x3
  10ba78:	74 36                	je     10bab0 <memset+0x40>
  10ba7a:	f6 c1 01             	test   cl,0x1
  10ba7d:	74 11                	je     10ba90 <memset+0x20>
  10ba7f:	8b 7c 24 08          	mov    edi,DWORD PTR [esp+0x8]
  10ba83:	8b 44 24 0c          	mov    eax,DWORD PTR [esp+0xc]
  10ba87:	fc                   	cld    
  10ba88:	f3 aa                	rep stos BYTE PTR es:[edi],al
  10ba8a:	89 f8                	mov    eax,edi
  10ba8c:	5f                   	pop    edi
  10ba8d:	c3                   	ret    
  10ba8e:	66 90                	xchg   ax,ax
  10ba90:	d1 e9                	shr    ecx,1
  10ba92:	8b 7c 24 08          	mov    edi,DWORD PTR [esp+0x8]
  10ba96:	8b 44 24 0c          	mov    eax,DWORD PTR [esp+0xc]
  10ba9a:	fc                   	cld    
  10ba9b:	66 f3 ab             	rep stos WORD PTR es:[edi],ax
  10ba9e:	89 f8                	mov    eax,edi
  10baa0:	5f                   	pop    edi
  10baa1:	c3                   	ret    
  10baa2:	8d b4 26 00 00 00 00 	lea    esi,[esi+eiz*1+0x0]
  10baa9:	8d bc 27 00 00 00 00 	lea    edi,[edi+eiz*1+0x0]
  10bab0:	c1 e9 02             	shr    ecx,0x2
  10bab3:	8b 7c 24 08          	mov    edi,DWORD PTR [esp+0x8]
  10bab7:	8b 44 24 0c          	mov    eax,DWORD PTR [esp+0xc]
  10babb:	fc                   	cld    
  10babc:	f3 ab                	rep stos DWORD PTR es:[edi],eax
  10babe:	89 f8                	mov    eax,edi
  10bac0:	5f                   	pop    edi
  10bac1:	c3                   	ret    
  10bac2:	8d b4 26 00 00 00 00 	lea    esi,[esi+eiz*1+0x0]
  10bac9:	8d bc 27 00 00 00 00 	lea    edi,[edi+eiz*1+0x0]

0010bad0 <memmove>:
  10bad0:	31 c0                	xor    eax,eax
  10bad2:	c3                   	ret    
  10bad3:	8d b6 00 00 00 00    	lea    esi,[esi+0x0]
  10bad9:	8d bc 27 00 00 00 00 	lea    edi,[edi+eiz*1+0x0]

0010bae0 <strcat>:
  10bae0:	55                   	push   ebp
  10bae1:	57                   	push   edi
  10bae2:	56                   	push   esi
  10bae3:	53                   	push   ebx
  10bae4:	83 ec 2c             	sub    esp,0x2c
  10bae7:	8b 44 24 40          	mov    eax,DWORD PTR [esp+0x40]
  10baeb:	8b 7c 24 44          	mov    edi,DWORD PTR [esp+0x44]
  10baef:	85 c0                	test   eax,eax
  10baf1:	0f 84 bb 00 00 00    	je     10bbb2 <strcat+0xd2>
  10baf7:	85 ff                	test   edi,edi
  10baf9:	0f 84 b3 00 00 00    	je     10bbb2 <strcat+0xd2>
  10baff:	89 fb                	mov    ebx,edi
  10bb01:	31 f6                	xor    esi,esi
  10bb03:	eb 0d                	jmp    10bb12 <strcat+0x32>
  10bb05:	8d 74 26 00          	lea    esi,[esi+eiz*1+0x0]
  10bb09:	8d bc 27 00 00 00 00 	lea    edi,[edi+eiz*1+0x0]
  10bb10:	89 c6                	mov    esi,eax
  10bb12:	85 db                	test   ebx,ebx
  10bb14:	0f 84 a4 00 00 00    	je     10bbbe <strcat+0xde>
  10bb1a:	83 c3 01             	add    ebx,0x1
  10bb1d:	8d 46 01             	lea    eax,[esi+0x1]
  10bb20:	80 7b ff 00          	cmp    BYTE PTR [ebx-0x1],0x0
  10bb24:	75 ea                	jne    10bb10 <strcat+0x30>
  10bb26:	89 74 24 08          	mov    DWORD PTR [esp+0x8],esi
  10bb2a:	8b 74 24 40          	mov    esi,DWORD PTR [esp+0x40]
  10bb2e:	31 db                	xor    ebx,ebx
  10bb30:	c7 44 24 0c 00 00 00 00 	mov    DWORD PTR [esp+0xc],0x0
  10bb38:	89 f5                	mov    ebp,esi
  10bb3a:	eb 06                	jmp    10bb42 <strcat+0x62>
  10bb3c:	8d 74 26 00          	lea    esi,[esi+eiz*1+0x0]
  10bb40:	89 c3                	mov    ebx,eax
  10bb42:	85 ed                	test   ebp,ebp
  10bb44:	0f 84 f2 00 00 00    	je     10bc3c <strcat+0x15c>
  10bb4a:	83 c5 01             	add    ebp,0x1
  10bb4d:	8d 43 01             	lea    eax,[ebx+0x1]
  10bb50:	80 7d ff 00          	cmp    BYTE PTR [ebp-0x1],0x0
  10bb54:	75 ea                	jne    10bb40 <strcat+0x60>
  10bb56:	8b 54 24 08          	mov    edx,DWORD PTR [esp+0x8]
  10bb5a:	8b 4c 24 0c          	mov    ecx,DWORD PTR [esp+0xc]
  10bb5e:	89 d0                	mov    eax,edx
  10bb60:	89 ca                	mov    edx,ecx
  10bb62:	09 c2                	or     edx,eax
  10bb64:	74 3a                	je     10bba0 <strcat+0xc0>
  10bb66:	03 5c 24 40          	add    ebx,DWORD PTR [esp+0x40]
  10bb6a:	31 c0                	xor    eax,eax
  10bb6c:	31 d2                	xor    edx,edx
  10bb6e:	66 90                	xchg   ax,ax
  10bb70:	85 ff                	test   edi,edi
  10bb72:	0f 84 9e 00 00 00    	je     10bc16 <strcat+0x136>
  10bb78:	85 db                	test   ebx,ebx
  10bb7a:	0f b6 0f             	movzx  ecx,BYTE PTR [edi]
  10bb7d:	74 68                	je     10bbe7 <strcat+0x107>
  10bb7f:	88 0b                	mov    BYTE PTR [ebx],cl
  10bb81:	8b 6c 24 0c          	mov    ebp,DWORD PTR [esp+0xc]
  10bb85:	83 c0 01             	add    eax,0x1
  10bb88:	8b 4c 24 08          	mov    ecx,DWORD PTR [esp+0x8]
  10bb8c:	83 d2 00             	adc    edx,0x0
  10bb8f:	83 c7 01             	add    edi,0x1
  10bb92:	83 c3 01             	add    ebx,0x1
  10bb95:	31 d5                	xor    ebp,edx
  10bb97:	31 c1                	xor    ecx,eax
  10bb99:	09 cd                	or     ebp,ecx
  10bb9b:	75 d3                	jne    10bb70 <strcat+0x90>
  10bb9d:	8d 76 00             	lea    esi,[esi+0x0]
  10bba0:	85 f6                	test   esi,esi
  10bba2:	89 f3                	mov    ebx,esi
  10bba4:	74 2e                	je     10bbd4 <strcat+0xf4>
  10bba6:	83 c6 01             	add    esi,0x1
  10bba9:	80 7e ff 00          	cmp    BYTE PTR [esi-0x1],0x0
  10bbad:	75 f1                	jne    10bba0 <strcat+0xc0>
  10bbaf:	c6 03 00             	mov    BYTE PTR [ebx],0x0
  10bbb2:	8b 44 24 40          	mov    eax,DWORD PTR [esp+0x40]
  10bbb6:	83 c4 2c             	add    esp,0x2c
  10bbb9:	5b                   	pop    ebx
  10bbba:	5e                   	pop    esi
  10bbbb:	5f                   	pop    edi
  10bbbc:	5d                   	pop    ebp
  10bbbd:	c3                   	ret    
  10bbbe:	50                   	push   eax
  10bbbf:	50                   	push   eax
  10bbc0:	6a 00                	push   0x0
  10bbc2:	68 fc 69 11 00       	push   0x1169fc
  10bbc7:	e8 a4 0e 00 00       	call   10ca70 <__ubsan_handle_type_mismatch>
  10bbcc:	83 c4 10             	add    esp,0x10
  10bbcf:	e9 46 ff ff ff       	jmp    10bb1a <strcat+0x3a>
  10bbd4:	50                   	push   eax
  10bbd5:	50                   	push   eax
  10bbd6:	6a 00                	push   0x0
  10bbd8:	68 90 69 11 00       	push   0x116990
  10bbdd:	e8 8e 0e 00 00       	call   10ca70 <__ubsan_handle_type_mismatch>
  10bbe2:	83 c4 10             	add    esp,0x10
  10bbe5:	eb bf                	jmp    10bba6 <strcat+0xc6>
  10bbe7:	89 54 24 1c          	mov    DWORD PTR [esp+0x1c],edx
  10bbeb:	89 44 24 18          	mov    DWORD PTR [esp+0x18],eax
  10bbef:	88 4c 24 10          	mov    BYTE PTR [esp+0x10],cl
  10bbf3:	52                   	push   edx
  10bbf4:	52                   	push   edx
  10bbf5:	6a 00                	push   0x0
  10bbf7:	68 a8 69 11 00       	push   0x1169a8
  10bbfc:	e8 6f 0e 00 00       	call   10ca70 <__ubsan_handle_type_mismatch>
  10bc01:	83 c4 10             	add    esp,0x10
  10bc04:	8b 44 24 18          	mov    eax,DWORD PTR [esp+0x18]
  10bc08:	8b 54 24 1c          	mov    edx,DWORD PTR [esp+0x1c]
  10bc0c:	0f b6 4c 24 10       	movzx  ecx,BYTE PTR [esp+0x10]
  10bc11:	e9 69 ff ff ff       	jmp    10bb7f <strcat+0x9f>
  10bc16:	89 44 24 10          	mov    DWORD PTR [esp+0x10],eax
  10bc1a:	89 54 24 14          	mov    DWORD PTR [esp+0x14],edx
  10bc1e:	51                   	push   ecx
  10bc1f:	51                   	push   ecx
  10bc20:	6a 00                	push   0x0
  10bc22:	68 cc 69 11 00       	push   0x1169cc
  10bc27:	e8 44 0e 00 00       	call   10ca70 <__ubsan_handle_type_mismatch>
  10bc2c:	83 c4 10             	add    esp,0x10
  10bc2f:	8b 44 24 10          	mov    eax,DWORD PTR [esp+0x10]
  10bc33:	8b 54 24 14          	mov    edx,DWORD PTR [esp+0x14]
  10bc37:	e9 3c ff ff ff       	jmp    10bb78 <strcat+0x98>
  10bc3c:	50                   	push   eax
  10bc3d:	50                   	push   eax
  10bc3e:	6a 00                	push   0x0
  10bc40:	68 e4 69 11 00       	push   0x1169e4
  10bc45:	e8 26 0e 00 00       	call   10ca70 <__ubsan_handle_type_mismatch>
  10bc4a:	83 c4 10             	add    esp,0x10
  10bc4d:	e9 f8 fe ff ff       	jmp    10bb4a <strcat+0x6a>
  10bc52:	8d b4 26 00 00 00 00 	lea    esi,[esi+eiz*1+0x0]
  10bc59:	8d bc 27 00 00 00 00 	lea    edi,[edi+eiz*1+0x0]

0010bc60 <strncat>:
  10bc60:	55                   	push   ebp
  10bc61:	57                   	push   edi
  10bc62:	56                   	push   esi
  10bc63:	53                   	push   ebx
  10bc64:	83 ec 2c             	sub    esp,0x2c
  10bc67:	8b 44 24 40          	mov    eax,DWORD PTR [esp+0x40]
  10bc6b:	8b 7c 24 44          	mov    edi,DWORD PTR [esp+0x44]
  10bc6f:	85 c0                	test   eax,eax
  10bc71:	0f 84 8b 00 00 00    	je     10bd02 <strncat+0xa2>
  10bc77:	85 ff                	test   edi,edi
  10bc79:	0f 84 83 00 00 00    	je     10bd02 <strncat+0xa2>
  10bc7f:	8b 74 24 40          	mov    esi,DWORD PTR [esp+0x40]
  10bc83:	31 db                	xor    ebx,ebx
  10bc85:	89 f5                	mov    ebp,esi
  10bc87:	eb 09                	jmp    10bc92 <strncat+0x32>
  10bc89:	8d b4 26 00 00 00 00 	lea    esi,[esi+eiz*1+0x0]
  10bc90:	89 c3                	mov    ebx,eax
  10bc92:	85 ed                	test   ebp,ebp
  10bc94:	74 78                	je     10bd0e <strncat+0xae>
  10bc96:	83 c5 01             	add    ebp,0x1
  10bc99:	8d 43 01             	lea    eax,[ebx+0x1]
  10bc9c:	80 7d ff 00          	cmp    BYTE PTR [ebp-0x1],0x0
  10bca0:	75 ee                	jne    10bc90 <strncat+0x30>
  10bca2:	8b 6c 24 48          	mov    ebp,DWORD PTR [esp+0x48]
  10bca6:	8b 44 24 48          	mov    eax,DWORD PTR [esp+0x48]
  10bcaa:	31 d2                	xor    edx,edx
  10bcac:	89 54 24 0c          	mov    DWORD PTR [esp+0xc],edx
  10bcb0:	85 ed                	test   ebp,ebp
  10bcb2:	89 44 24 08          	mov    DWORD PTR [esp+0x8],eax
  10bcb6:	74 38                	je     10bcf0 <strncat+0x90>
  10bcb8:	03 5c 24 40          	add    ebx,DWORD PTR [esp+0x40]
  10bcbc:	31 c0                	xor    eax,eax
  10bcbe:	31 d2                	xor    edx,edx
  10bcc0:	85 ff                	test   edi,edi
  10bcc2:	0f 84 9e 00 00 00    	je     10bd66 <strncat+0x106>
  10bcc8:	85 db                	test   ebx,ebx
  10bcca:	0f b6 0f             	movzx  ecx,BYTE PTR [edi]
  10bccd:	74 68                	je     10bd37 <strncat+0xd7>
  10bccf:	88 0b                	mov    BYTE PTR [ebx],cl
  10bcd1:	8b 6c 24 0c          	mov    ebp,DWORD PTR [esp+0xc]
  10bcd5:	83 c0 01             	add    eax,0x1
  10bcd8:	8b 4c 24 08          	mov    ecx,DWORD PTR [esp+0x8]
  10bcdc:	83 d2 00             	adc    edx,0x0
  10bcdf:	83 c7 01             	add    edi,0x1
  10bce2:	83 c3 01             	add    ebx,0x1
  10bce5:	31 d5                	xor    ebp,edx
  10bce7:	31 c1                	xor    ecx,eax
  10bce9:	09 cd                	or     ebp,ecx
  10bceb:	75 d3                	jne    10bcc0 <strncat+0x60>
  10bced:	8d 76 00             	lea    esi,[esi+0x0]
  10bcf0:	85 f6                	test   esi,esi
  10bcf2:	89 f3                	mov    ebx,esi
  10bcf4:	74 2e                	je     10bd24 <strncat+0xc4>
  10bcf6:	83 c6 01             	add    esi,0x1
  10bcf9:	80 7e ff 00          	cmp    BYTE PTR [esi-0x1],0x0
  10bcfd:	75 f1                	jne    10bcf0 <strncat+0x90>
  10bcff:	c6 03 00             	mov    BYTE PTR [ebx],0x0
  10bd02:	8b 44 24 40          	mov    eax,DWORD PTR [esp+0x40]
  10bd06:	83 c4 2c             	add    esp,0x2c
  10bd09:	5b                   	pop    ebx
  10bd0a:	5e                   	pop    esi
  10bd0b:	5f                   	pop    edi
  10bd0c:	5d                   	pop    ebp
  10bd0d:	c3                   	ret    
  10bd0e:	50                   	push   eax
  10bd0f:	50                   	push   eax
  10bd10:	6a 00                	push   0x0
  10bd12:	68 78 69 11 00       	push   0x116978
  10bd17:	e8 54 0d 00 00       	call   10ca70 <__ubsan_handle_type_mismatch>
  10bd1c:	83 c4 10             	add    esp,0x10
  10bd1f:	e9 72 ff ff ff       	jmp    10bc96 <strncat+0x36>
  10bd24:	50                   	push   eax
  10bd25:	50                   	push   eax
  10bd26:	6a 00                	push   0x0
  10bd28:	68 30 69 11 00       	push   0x116930
  10bd2d:	e8 3e 0d 00 00       	call   10ca70 <__ubsan_handle_type_mismatch>
  10bd32:	83 c4 10             	add    esp,0x10
  10bd35:	eb bf                	jmp    10bcf6 <strncat+0x96>
  10bd37:	89 54 24 1c          	mov    DWORD PTR [esp+0x1c],edx
  10bd3b:	89 44 24 18          	mov    DWORD PTR [esp+0x18],eax
  10bd3f:	88 4c 24 10          	mov    BYTE PTR [esp+0x10],cl
  10bd43:	52                   	push   edx
  10bd44:	52                   	push   edx
  10bd45:	6a 00                	push   0x0
  10bd47:	68 48 69 11 00       	push   0x116948
  10bd4c:	e8 1f 0d 00 00       	call   10ca70 <__ubsan_handle_type_mismatch>
  10bd51:	83 c4 10             	add    esp,0x10
  10bd54:	8b 44 24 18          	mov    eax,DWORD PTR [esp+0x18]
  10bd58:	8b 54 24 1c          	mov    edx,DWORD PTR [esp+0x1c]
  10bd5c:	0f b6 4c 24 10       	movzx  ecx,BYTE PTR [esp+0x10]
  10bd61:	e9 69 ff ff ff       	jmp    10bccf <strncat+0x6f>
  10bd66:	89 44 24 10          	mov    DWORD PTR [esp+0x10],eax
  10bd6a:	89 54 24 14          	mov    DWORD PTR [esp+0x14],edx
  10bd6e:	51                   	push   ecx
  10bd6f:	51                   	push   ecx
  10bd70:	6a 00                	push   0x0
  10bd72:	68 60 69 11 00       	push   0x116960
  10bd77:	e8 f4 0c 00 00       	call   10ca70 <__ubsan_handle_type_mismatch>
  10bd7c:	83 c4 10             	add    esp,0x10
  10bd7f:	8b 44 24 10          	mov    eax,DWORD PTR [esp+0x10]
  10bd83:	8b 54 24 14          	mov    edx,DWORD PTR [esp+0x14]
  10bd87:	e9 3c ff ff ff       	jmp    10bcc8 <strncat+0x68>
  10bd8c:	8d 74 26 00          	lea    esi,[esi+eiz*1+0x0]

0010bd90 <strchr>:
  10bd90:	53                   	push   ebx
  10bd91:	83 ec 18             	sub    esp,0x18
  10bd94:	8b 44 24 20          	mov    eax,DWORD PTR [esp+0x20]
  10bd98:	8b 5c 24 24          	mov    ebx,DWORD PTR [esp+0x24]
  10bd9c:	eb 09                	jmp    10bda7 <strchr+0x17>
  10bd9e:	66 90                	xchg   ax,ax
  10bda0:	83 c0 01             	add    eax,0x1
  10bda3:	84 c9                	test   cl,cl
  10bda5:	74 19                	je     10bdc0 <strchr+0x30>
  10bda7:	85 c0                	test   eax,eax
  10bda9:	74 1c                	je     10bdc7 <strchr+0x37>
  10bdab:	0f be 08             	movsx  ecx,BYTE PTR [eax]
  10bdae:	39 d9                	cmp    ecx,ebx
  10bdb0:	75 ee                	jne    10bda0 <strchr+0x10>
  10bdb2:	83 c4 18             	add    esp,0x18
  10bdb5:	5b                   	pop    ebx
  10bdb6:	c3                   	ret    
  10bdb7:	89 f6                	mov    esi,esi
  10bdb9:	8d bc 27 00 00 00 00 	lea    edi,[edi+eiz*1+0x0]
  10bdc0:	83 c4 18             	add    esp,0x18
  10bdc3:	31 c0                	xor    eax,eax
  10bdc5:	5b                   	pop    ebx
  10bdc6:	c3                   	ret    
  10bdc7:	89 44 24 0c          	mov    DWORD PTR [esp+0xc],eax
  10bdcb:	50                   	push   eax
  10bdcc:	50                   	push   eax
  10bdcd:	6a 00                	push   0x0
  10bdcf:	68 18 69 11 00       	push   0x116918
  10bdd4:	e8 97 0c 00 00       	call   10ca70 <__ubsan_handle_type_mismatch>
  10bdd9:	83 c4 10             	add    esp,0x10
  10bddc:	8b 44 24 0c          	mov    eax,DWORD PTR [esp+0xc]
  10bde0:	eb c9                	jmp    10bdab <strchr+0x1b>
  10bde2:	8d b4 26 00 00 00 00 	lea    esi,[esi+eiz*1+0x0]
  10bde9:	8d bc 27 00 00 00 00 	lea    edi,[edi+eiz*1+0x0]

0010bdf0 <strcmp>:
  10bdf0:	57                   	push   edi
  10bdf1:	56                   	push   esi
  10bdf2:	53                   	push   ebx
  10bdf3:	83 ec 10             	sub    esp,0x10
  10bdf6:	8b 5c 24 20          	mov    ebx,DWORD PTR [esp+0x20]
  10bdfa:	8b 7c 24 24          	mov    edi,DWORD PTR [esp+0x24]
  10bdfe:	85 db                	test   ebx,ebx
  10be00:	0f 84 b7 00 00 00    	je     10bebd <strcmp+0xcd>
  10be06:	0f be 03             	movsx  eax,BYTE PTR [ebx]
  10be09:	0f be 17             	movsx  edx,BYTE PTR [edi]
  10be0c:	84 c0                	test   al,al
  10be0e:	74 50                	je     10be60 <strcmp+0x70>
  10be10:	85 ff                	test   edi,edi
  10be12:	0f 84 7d 00 00 00    	je     10be95 <strcmp+0xa5>
  10be18:	38 d0                	cmp    al,dl
  10be1a:	89 fe                	mov    esi,edi
  10be1c:	74 0f                	je     10be2d <strcmp+0x3d>
  10be1e:	eb 22                	jmp    10be42 <strcmp+0x52>
  10be20:	85 f6                	test   esi,esi
  10be22:	74 42                	je     10be66 <strcmp+0x76>
  10be24:	0f be 16             	movsx  edx,BYTE PTR [esi]
  10be27:	89 f7                	mov    edi,esi
  10be29:	38 d0                	cmp    al,dl
  10be2b:	75 15                	jne    10be42 <strcmp+0x52>
  10be2d:	83 c3 01             	add    ebx,0x1
  10be30:	8d 77 01             	lea    esi,[edi+0x1]
  10be33:	74 4d                	je     10be82 <strcmp+0x92>
  10be35:	0f be 03             	movsx  eax,BYTE PTR [ebx]
  10be38:	84 c0                	test   al,al
  10be3a:	75 e4                	jne    10be20 <strcmp+0x30>
  10be3c:	0f be 57 01          	movsx  edx,BYTE PTR [edi+0x1]
  10be40:	31 c0                	xor    eax,eax
  10be42:	85 db                	test   ebx,ebx
  10be44:	0f 84 b0 00 00 00    	je     10befa <strcmp+0x10a>
  10be4a:	85 f6                	test   esi,esi
  10be4c:	0f 84 81 00 00 00    	je     10bed3 <strcmp+0xe3>
  10be52:	83 c4 10             	add    esp,0x10
  10be55:	29 d0                	sub    eax,edx
  10be57:	5b                   	pop    ebx
  10be58:	5e                   	pop    esi
  10be59:	5f                   	pop    edi
  10be5a:	c3                   	ret    
  10be5b:	90                   	nop
  10be5c:	8d 74 26 00          	lea    esi,[esi+eiz*1+0x0]
  10be60:	89 fe                	mov    esi,edi
  10be62:	31 c0                	xor    eax,eax
  10be64:	eb dc                	jmp    10be42 <strcmp+0x52>
  10be66:	88 44 24 08          	mov    BYTE PTR [esp+0x8],al
  10be6a:	57                   	push   edi
  10be6b:	57                   	push   edi
  10be6c:	6a 00                	push   0x0
  10be6e:	68 d0 68 11 00       	push   0x1168d0
  10be73:	e8 f8 0b 00 00       	call   10ca70 <__ubsan_handle_type_mismatch>
  10be78:	83 c4 10             	add    esp,0x10
  10be7b:	0f be 44 24 08       	movsx  eax,BYTE PTR [esp+0x8]
  10be80:	eb a2                	jmp    10be24 <strcmp+0x34>
  10be82:	51                   	push   ecx
  10be83:	51                   	push   ecx
  10be84:	6a 00                	push   0x0
  10be86:	68 b8 68 11 00       	push   0x1168b8
  10be8b:	e8 e0 0b 00 00       	call   10ca70 <__ubsan_handle_type_mismatch>
  10be90:	83 c4 10             	add    esp,0x10
  10be93:	eb a0                	jmp    10be35 <strcmp+0x45>
  10be95:	88 44 24 08          	mov    BYTE PTR [esp+0x8],al
  10be99:	88 54 24 0f          	mov    BYTE PTR [esp+0xf],dl
  10be9d:	50                   	push   eax
  10be9e:	50                   	push   eax
  10be9f:	6a 00                	push   0x0
  10bea1:	68 e8 68 11 00       	push   0x1168e8
  10bea6:	e8 c5 0b 00 00       	call   10ca70 <__ubsan_handle_type_mismatch>
  10beab:	83 c4 10             	add    esp,0x10
  10beae:	0f be 54 24 0f       	movsx  edx,BYTE PTR [esp+0xf]
  10beb3:	0f be 44 24 08       	movsx  eax,BYTE PTR [esp+0x8]
  10beb8:	e9 5b ff ff ff       	jmp    10be18 <strcmp+0x28>
  10bebd:	50                   	push   eax
  10bebe:	50                   	push   eax
  10bebf:	6a 00                	push   0x0
  10bec1:	68 00 69 11 00       	push   0x116900
  10bec6:	e8 a5 0b 00 00       	call   10ca70 <__ubsan_handle_type_mismatch>
  10becb:	83 c4 10             	add    esp,0x10
  10bece:	e9 33 ff ff ff       	jmp    10be06 <strcmp+0x16>
  10bed3:	89 44 24 08          	mov    DWORD PTR [esp+0x8],eax
  10bed7:	88 54 24 0f          	mov    BYTE PTR [esp+0xf],dl
  10bedb:	50                   	push   eax
  10bedc:	50                   	push   eax
  10bedd:	6a 00                	push   0x0
  10bedf:	68 88 68 11 00       	push   0x116888
  10bee4:	e8 87 0b 00 00       	call   10ca70 <__ubsan_handle_type_mismatch>
  10bee9:	83 c4 10             	add    esp,0x10
  10beec:	0f be 54 24 0f       	movsx  edx,BYTE PTR [esp+0xf]
  10bef1:	8b 44 24 08          	mov    eax,DWORD PTR [esp+0x8]
  10bef5:	e9 58 ff ff ff       	jmp    10be52 <strcmp+0x62>
  10befa:	88 54 24 0f          	mov    BYTE PTR [esp+0xf],dl
  10befe:	89 44 24 08          	mov    DWORD PTR [esp+0x8],eax
  10bf02:	52                   	push   edx
  10bf03:	52                   	push   edx
  10bf04:	6a 00                	push   0x0
  10bf06:	68 a0 68 11 00       	push   0x1168a0
  10bf0b:	e8 60 0b 00 00       	call   10ca70 <__ubsan_handle_type_mismatch>
  10bf10:	83 c4 10             	add    esp,0x10
  10bf13:	0f be 54 24 0f       	movsx  edx,BYTE PTR [esp+0xf]
  10bf18:	8b 44 24 08          	mov    eax,DWORD PTR [esp+0x8]
  10bf1c:	e9 29 ff ff ff       	jmp    10be4a <strcmp+0x5a>
  10bf21:	eb 0d                	jmp    10bf30 <strncmp>
  10bf23:	90                   	nop
  10bf24:	90                   	nop
  10bf25:	90                   	nop
  10bf26:	90                   	nop
  10bf27:	90                   	nop
  10bf28:	90                   	nop
  10bf29:	90                   	nop
  10bf2a:	90                   	nop
  10bf2b:	90                   	nop
  10bf2c:	90                   	nop
  10bf2d:	90                   	nop
  10bf2e:	90                   	nop
  10bf2f:	90                   	nop

0010bf30 <strncmp>:
  10bf30:	55                   	push   ebp
  10bf31:	57                   	push   edi
  10bf32:	56                   	push   esi
  10bf33:	53                   	push   ebx
  10bf34:	83 ec 1c             	sub    esp,0x1c
  10bf37:	8b 6c 24 38          	mov    ebp,DWORD PTR [esp+0x38]
  10bf3b:	8b 5c 24 30          	mov    ebx,DWORD PTR [esp+0x30]
  10bf3f:	8b 7c 24 34          	mov    edi,DWORD PTR [esp+0x34]
  10bf43:	85 ed                	test   ebp,ebp
  10bf45:	74 53                	je     10bf9a <strncmp+0x6a>
  10bf47:	85 db                	test   ebx,ebx
  10bf49:	0f 84 04 01 00 00    	je     10c053 <strncmp+0x123>
  10bf4f:	0f b6 13             	movzx  edx,BYTE PTR [ebx]
  10bf52:	0f be 07             	movsx  eax,BYTE PTR [edi]
  10bf55:	84 d2                	test   dl,dl
  10bf57:	74 77                	je     10bfd0 <strncmp+0xa0>
  10bf59:	85 ff                	test   edi,edi
  10bf5b:	74 77                	je     10bfd4 <strncmp+0xa4>
  10bf5d:	38 d0                	cmp    al,dl
  10bf5f:	75 6f                	jne    10bfd0 <strncmp+0xa0>
  10bf61:	01 dd                	add    ebp,ebx
  10bf63:	eb 2b                	jmp    10bf90 <strncmp+0x60>
  10bf65:	8d 74 26 00          	lea    esi,[esi+eiz*1+0x0]
  10bf69:	8d bc 27 00 00 00 00 	lea    edi,[edi+eiz*1+0x0]
  10bf70:	85 db                	test   ebx,ebx
  10bf72:	0f 84 f1 00 00 00    	je     10c069 <strncmp+0x139>
  10bf78:	0f b6 13             	movzx  edx,BYTE PTR [ebx]
  10bf7b:	84 d2                	test   dl,dl
  10bf7d:	74 31                	je     10bfb0 <strncmp+0x80>
  10bf7f:	85 f6                	test   esi,esi
  10bf81:	0f 84 ad 00 00 00    	je     10c034 <strncmp+0x104>
  10bf87:	0f be 06             	movsx  eax,BYTE PTR [esi]
  10bf8a:	89 f7                	mov    edi,esi
  10bf8c:	38 c2                	cmp    dl,al
  10bf8e:	75 24                	jne    10bfb4 <strncmp+0x84>
  10bf90:	83 c3 01             	add    ebx,0x1
  10bf93:	8d 77 01             	lea    esi,[edi+0x1]
  10bf96:	39 eb                	cmp    ebx,ebp
  10bf98:	75 d6                	jne    10bf70 <strncmp+0x40>
  10bf9a:	83 c4 1c             	add    esp,0x1c
  10bf9d:	31 c0                	xor    eax,eax
  10bf9f:	5b                   	pop    ebx
  10bfa0:	5e                   	pop    esi
  10bfa1:	5f                   	pop    edi
  10bfa2:	5d                   	pop    ebp
  10bfa3:	c3                   	ret    
  10bfa4:	8d b6 00 00 00 00    	lea    esi,[esi+0x0]
  10bfaa:	8d bf 00 00 00 00    	lea    edi,[edi+0x0]
  10bfb0:	0f be 47 01          	movsx  eax,BYTE PTR [edi+0x1]
  10bfb4:	85 f6                	test   esi,esi
  10bfb6:	74 60                	je     10c018 <strncmp+0xe8>
  10bfb8:	85 db                	test   ebx,ebx
  10bfba:	74 40                	je     10bffc <strncmp+0xcc>
  10bfbc:	88 03                	mov    BYTE PTR [ebx],al
  10bfbe:	83 c4 1c             	add    esp,0x1c
  10bfc1:	5b                   	pop    ebx
  10bfc2:	5e                   	pop    esi
  10bfc3:	5f                   	pop    edi
  10bfc4:	5d                   	pop    ebp
  10bfc5:	c3                   	ret    
  10bfc6:	8d 76 00             	lea    esi,[esi+0x0]
  10bfc9:	8d bc 27 00 00 00 00 	lea    edi,[edi+eiz*1+0x0]
  10bfd0:	89 fe                	mov    esi,edi
  10bfd2:	eb e0                	jmp    10bfb4 <strncmp+0x84>
  10bfd4:	88 44 24 0e          	mov    BYTE PTR [esp+0xe],al
  10bfd8:	88 54 24 0f          	mov    BYTE PTR [esp+0xf],dl
  10bfdc:	50                   	push   eax
  10bfdd:	50                   	push   eax
  10bfde:	6a 00                	push   0x0
  10bfe0:	68 58 68 11 00       	push   0x116858
  10bfe5:	e8 86 0a 00 00       	call   10ca70 <__ubsan_handle_type_mismatch>
  10bfea:	83 c4 10             	add    esp,0x10
  10bfed:	0f b6 54 24 0f       	movzx  edx,BYTE PTR [esp+0xf]
  10bff2:	0f be 44 24 0e       	movsx  eax,BYTE PTR [esp+0xe]
  10bff7:	e9 61 ff ff ff       	jmp    10bf5d <strncmp+0x2d>
  10bffc:	88 44 24 0e          	mov    BYTE PTR [esp+0xe],al
  10c000:	50                   	push   eax
  10c001:	50                   	push   eax
  10c002:	6a 00                	push   0x0
  10c004:	68 f8 67 11 00       	push   0x1167f8
  10c009:	e8 62 0a 00 00       	call   10ca70 <__ubsan_handle_type_mismatch>
  10c00e:	83 c4 10             	add    esp,0x10
  10c011:	0f be 44 24 0e       	movsx  eax,BYTE PTR [esp+0xe]
  10c016:	eb a4                	jmp    10bfbc <strncmp+0x8c>
  10c018:	88 44 24 0e          	mov    BYTE PTR [esp+0xe],al
  10c01c:	52                   	push   edx
  10c01d:	52                   	push   edx
  10c01e:	6a 00                	push   0x0
  10c020:	68 10 68 11 00       	push   0x116810
  10c025:	e8 46 0a 00 00       	call   10ca70 <__ubsan_handle_type_mismatch>
  10c02a:	83 c4 10             	add    esp,0x10
  10c02d:	0f be 44 24 0e       	movsx  eax,BYTE PTR [esp+0xe]
  10c032:	eb 84                	jmp    10bfb8 <strncmp+0x88>
  10c034:	88 54 24 0e          	mov    BYTE PTR [esp+0xe],dl
  10c038:	51                   	push   ecx
  10c039:	51                   	push   ecx
  10c03a:	6a 00                	push   0x0
  10c03c:	68 28 68 11 00       	push   0x116828
  10c041:	e8 2a 0a 00 00       	call   10ca70 <__ubsan_handle_type_mismatch>
  10c046:	83 c4 10             	add    esp,0x10
  10c049:	0f b6 54 24 0e       	movzx  edx,BYTE PTR [esp+0xe]
  10c04e:	e9 34 ff ff ff       	jmp    10bf87 <strncmp+0x57>
  10c053:	50                   	push   eax
  10c054:	50                   	push   eax
  10c055:	6a 00                	push   0x0
  10c057:	68 70 68 11 00       	push   0x116870
  10c05c:	e8 0f 0a 00 00       	call   10ca70 <__ubsan_handle_type_mismatch>
  10c061:	83 c4 10             	add    esp,0x10
  10c064:	e9 e6 fe ff ff       	jmp    10bf4f <strncmp+0x1f>
  10c069:	50                   	push   eax
  10c06a:	50                   	push   eax
  10c06b:	6a 00                	push   0x0
  10c06d:	68 40 68 11 00       	push   0x116840
  10c072:	e8 f9 09 00 00       	call   10ca70 <__ubsan_handle_type_mismatch>
  10c077:	83 c4 10             	add    esp,0x10
  10c07a:	e9 f9 fe ff ff       	jmp    10bf78 <strncmp+0x48>
  10c07f:	90                   	nop

0010c080 <strcpy>:
  10c080:	55                   	push   ebp
  10c081:	57                   	push   edi
  10c082:	56                   	push   esi
  10c083:	53                   	push   ebx
  10c084:	83 ec 0c             	sub    esp,0xc
  10c087:	8b 44 24 24          	mov    eax,DWORD PTR [esp+0x24]
  10c08b:	85 c0                	test   eax,eax
  10c08d:	74 08                	je     10c097 <strcpy+0x17>
  10c08f:	8b 44 24 20          	mov    eax,DWORD PTR [esp+0x20]
  10c093:	85 c0                	test   eax,eax
  10c095:	75 0a                	jne    10c0a1 <strcpy+0x21>
  10c097:	83 c4 0c             	add    esp,0xc
  10c09a:	31 c0                	xor    eax,eax
  10c09c:	5b                   	pop    ebx
  10c09d:	5e                   	pop    esi
  10c09e:	5f                   	pop    edi
  10c09f:	5d                   	pop    ebp
  10c0a0:	c3                   	ret    
  10c0a1:	83 7c 24 24 00       	cmp    DWORD PTR [esp+0x24],0x0
  10c0a6:	74 45                	je     10c0ed <strcpy+0x6d>
  10c0a8:	8b 44 24 24          	mov    eax,DWORD PTR [esp+0x24]
  10c0ac:	0f b6 18             	movzx  ebx,BYTE PTR [eax]
  10c0af:	84 db                	test   bl,bl
  10c0b1:	74 2d                	je     10c0e0 <strcpy+0x60>
  10c0b3:	89 c5                	mov    ebp,eax
  10c0b5:	31 f6                	xor    esi,esi
  10c0b7:	31 ff                	xor    edi,edi
  10c0b9:	03 7c 24 20          	add    edi,DWORD PTR [esp+0x20]
  10c0bd:	85 ed                	test   ebp,ebp
  10c0bf:	74 78                	je     10c139 <strcpy+0xb9>
  10c0c1:	85 ff                	test   edi,edi
  10c0c3:	74 61                	je     10c126 <strcpy+0xa6>
  10c0c5:	88 1f                	mov    BYTE PTR [edi],bl
  10c0c7:	89 f7                	mov    edi,esi
  10c0c9:	83 c7 01             	add    edi,0x1
  10c0cc:	70 45                	jo     10c113 <strcpy+0x93>
  10c0ce:	89 fd                	mov    ebp,edi
  10c0d0:	03 6c 24 24          	add    ebp,DWORD PTR [esp+0x24]
  10c0d4:	89 fe                	mov    esi,edi
  10c0d6:	74 28                	je     10c100 <strcpy+0x80>
  10c0d8:	0f b6 5d 00          	movzx  ebx,BYTE PTR [ebp+0x0]
  10c0dc:	84 db                	test   bl,bl
  10c0de:	75 d9                	jne    10c0b9 <strcpy+0x39>
  10c0e0:	83 ec 0c             	sub    esp,0xc
  10c0e3:	68 c8 6a 11 00       	push   0x116ac8
  10c0e8:	e8 f3 0b 00 00       	call   10cce0 <__ubsan_handle_missing_return>
  10c0ed:	50                   	push   eax
  10c0ee:	50                   	push   eax
  10c0ef:	6a 00                	push   0x0
  10c0f1:	68 e0 67 11 00       	push   0x1167e0
  10c0f6:	e8 75 09 00 00       	call   10ca70 <__ubsan_handle_type_mismatch>
  10c0fb:	83 c4 10             	add    esp,0x10
  10c0fe:	eb a8                	jmp    10c0a8 <strcpy+0x28>
  10c100:	50                   	push   eax
  10c101:	50                   	push   eax
  10c102:	6a 00                	push   0x0
  10c104:	68 98 67 11 00       	push   0x116798
  10c109:	e8 62 09 00 00       	call   10ca70 <__ubsan_handle_type_mismatch>
  10c10e:	83 c4 10             	add    esp,0x10
  10c111:	eb c5                	jmp    10c0d8 <strcpy+0x58>
  10c113:	52                   	push   edx
  10c114:	6a 01                	push   0x1
  10c116:	56                   	push   esi
  10c117:	68 7c 67 11 00       	push   0x11677c
  10c11c:	e8 2f 0a 00 00       	call   10cb50 <__ubsan_handle_add_overflow>
  10c121:	83 c4 10             	add    esp,0x10
  10c124:	eb a8                	jmp    10c0ce <strcpy+0x4e>
  10c126:	51                   	push   ecx
  10c127:	51                   	push   ecx
  10c128:	6a 00                	push   0x0
  10c12a:	68 b0 67 11 00       	push   0x1167b0
  10c12f:	e8 3c 09 00 00       	call   10ca70 <__ubsan_handle_type_mismatch>
  10c134:	83 c4 10             	add    esp,0x10
  10c137:	eb 8c                	jmp    10c0c5 <strcpy+0x45>
  10c139:	55                   	push   ebp
  10c13a:	55                   	push   ebp
  10c13b:	6a 00                	push   0x0
  10c13d:	68 c8 67 11 00       	push   0x1167c8
  10c142:	e8 29 09 00 00       	call   10ca70 <__ubsan_handle_type_mismatch>
  10c147:	83 c4 10             	add    esp,0x10
  10c14a:	e9 72 ff ff ff       	jmp    10c0c1 <strcpy+0x41>
  10c14f:	90                   	nop

0010c150 <strncpy>:
  10c150:	57                   	push   edi
  10c151:	56                   	push   esi
  10c152:	53                   	push   ebx
  10c153:	83 ec 10             	sub    esp,0x10
  10c156:	8b 7c 24 28          	mov    edi,DWORD PTR [esp+0x28]
  10c15a:	8b 44 24 20          	mov    eax,DWORD PTR [esp+0x20]
  10c15e:	85 ff                	test   edi,edi
  10c160:	74 25                	je     10c187 <strncpy+0x37>
  10c162:	8b 5c 24 24          	mov    ebx,DWORD PTR [esp+0x24]
  10c166:	89 c6                	mov    esi,eax
  10c168:	01 df                	add    edi,ebx
  10c16a:	8d b6 00 00 00 00    	lea    esi,[esi+0x0]
  10c170:	85 db                	test   ebx,ebx
  10c172:	74 1a                	je     10c18e <strncpy+0x3e>
  10c174:	85 f6                	test   esi,esi
  10c176:	0f b6 13             	movzx  edx,BYTE PTR [ebx]
  10c179:	74 2e                	je     10c1a9 <strncpy+0x59>
  10c17b:	83 c3 01             	add    ebx,0x1
  10c17e:	88 16                	mov    BYTE PTR [esi],dl
  10c180:	83 c6 01             	add    esi,0x1
  10c183:	39 fb                	cmp    ebx,edi
  10c185:	75 e9                	jne    10c170 <strncpy+0x20>
  10c187:	83 c4 10             	add    esp,0x10
  10c18a:	5b                   	pop    ebx
  10c18b:	5e                   	pop    esi
  10c18c:	5f                   	pop    edi
  10c18d:	c3                   	ret    
  10c18e:	89 44 24 08          	mov    DWORD PTR [esp+0x8],eax
  10c192:	52                   	push   edx
  10c193:	52                   	push   edx
  10c194:	6a 00                	push   0x0
  10c196:	68 64 67 11 00       	push   0x116764
  10c19b:	e8 d0 08 00 00       	call   10ca70 <__ubsan_handle_type_mismatch>
  10c1a0:	83 c4 10             	add    esp,0x10
  10c1a3:	8b 44 24 08          	mov    eax,DWORD PTR [esp+0x8]
  10c1a7:	eb cb                	jmp    10c174 <strncpy+0x24>
  10c1a9:	89 44 24 0c          	mov    DWORD PTR [esp+0xc],eax
  10c1ad:	88 54 24 08          	mov    BYTE PTR [esp+0x8],dl
  10c1b1:	50                   	push   eax
  10c1b2:	50                   	push   eax
  10c1b3:	6a 00                	push   0x0
  10c1b5:	68 4c 67 11 00       	push   0x11674c
  10c1ba:	e8 b1 08 00 00       	call   10ca70 <__ubsan_handle_type_mismatch>
  10c1bf:	83 c4 10             	add    esp,0x10
  10c1c2:	8b 44 24 0c          	mov    eax,DWORD PTR [esp+0xc]
  10c1c6:	0f b6 54 24 08       	movzx  edx,BYTE PTR [esp+0x8]
  10c1cb:	eb ae                	jmp    10c17b <strncpy+0x2b>
  10c1cd:	8d 76 00             	lea    esi,[esi+0x0]

0010c1d0 <strcspn>:
  10c1d0:	31 c0                	xor    eax,eax
  10c1d2:	c3                   	ret    
  10c1d3:	8d b6 00 00 00 00    	lea    esi,[esi+0x0]
  10c1d9:	8d bc 27 00 00 00 00 	lea    edi,[edi+eiz*1+0x0]

0010c1e0 <strlen>:
  10c1e0:	53                   	push   ebx
  10c1e1:	31 c0                	xor    eax,eax
  10c1e3:	83 ec 18             	sub    esp,0x18
  10c1e6:	8b 5c 24 20          	mov    ebx,DWORD PTR [esp+0x20]
  10c1ea:	eb 06                	jmp    10c1f2 <strlen+0x12>
  10c1ec:	8d 74 26 00          	lea    esi,[esi+eiz*1+0x0]
  10c1f0:	89 d0                	mov    eax,edx
  10c1f2:	85 db                	test   ebx,ebx
  10c1f4:	74 11                	je     10c207 <strlen+0x27>
  10c1f6:	83 c3 01             	add    ebx,0x1
  10c1f9:	8d 50 01             	lea    edx,[eax+0x1]
  10c1fc:	80 7b ff 00          	cmp    BYTE PTR [ebx-0x1],0x0
  10c200:	75 ee                	jne    10c1f0 <strlen+0x10>
  10c202:	83 c4 18             	add    esp,0x18
  10c205:	5b                   	pop    ebx
  10c206:	c3                   	ret    
  10c207:	89 44 24 0c          	mov    DWORD PTR [esp+0xc],eax
  10c20b:	50                   	push   eax
  10c20c:	50                   	push   eax
  10c20d:	6a 00                	push   0x0
  10c20f:	68 34 67 11 00       	push   0x116734
  10c214:	e8 57 08 00 00       	call   10ca70 <__ubsan_handle_type_mismatch>
  10c219:	83 c4 10             	add    esp,0x10
  10c21c:	8b 44 24 0c          	mov    eax,DWORD PTR [esp+0xc]
  10c220:	eb d4                	jmp    10c1f6 <strlen+0x16>
  10c222:	8d b4 26 00 00 00 00 	lea    esi,[esi+eiz*1+0x0]
  10c229:	8d bc 27 00 00 00 00 	lea    edi,[edi+eiz*1+0x0]

0010c230 <strpbrk>:
  10c230:	31 c0                	xor    eax,eax
  10c232:	c3                   	ret    
  10c233:	8d b6 00 00 00 00    	lea    esi,[esi+0x0]
  10c239:	8d bc 27 00 00 00 00 	lea    edi,[edi+eiz*1+0x0]

0010c240 <strrchr>:
  10c240:	31 c0                	xor    eax,eax
  10c242:	c3                   	ret    
  10c243:	8d b6 00 00 00 00    	lea    esi,[esi+0x0]
  10c249:	8d bc 27 00 00 00 00 	lea    edi,[edi+eiz*1+0x0]

0010c250 <strspn>:
  10c250:	31 c0                	xor    eax,eax
  10c252:	c3                   	ret    
  10c253:	8d b6 00 00 00 00    	lea    esi,[esi+0x0]
  10c259:	8d bc 27 00 00 00 00 	lea    edi,[edi+eiz*1+0x0]

0010c260 <strstr>:
  10c260:	31 c0                	xor    eax,eax
  10c262:	c3                   	ret    
  10c263:	8d b6 00 00 00 00    	lea    esi,[esi+0x0]
  10c269:	8d bc 27 00 00 00 00 	lea    edi,[edi+eiz*1+0x0]

0010c270 <strtok>:
  10c270:	31 c0                	xor    eax,eax
  10c272:	c3                   	ret    
  10c273:	8d b6 00 00 00 00    	lea    esi,[esi+0x0]
  10c279:	8d bc 27 00 00 00 00 	lea    edi,[edi+eiz*1+0x0]

0010c280 <strxfrm>:
  10c280:	31 c0                	xor    eax,eax
  10c282:	c3                   	ret    
  10c283:	8d b6 00 00 00 00    	lea    esi,[esi+0x0]
  10c289:	8d bc 27 00 00 00 00 	lea    edi,[edi+eiz*1+0x0]

0010c290 <stradd>:
  10c290:	57                   	push   edi
  10c291:	56                   	push   esi
  10c292:	53                   	push   ebx
  10c293:	83 ec 10             	sub    esp,0x10
  10c296:	8b 44 24 20          	mov    eax,DWORD PTR [esp+0x20]
  10c29a:	8b 54 24 24          	mov    edx,DWORD PTR [esp+0x24]
  10c29e:	85 c0                	test   eax,eax
  10c2a0:	74 29                	je     10c2cb <stradd+0x3b>
  10c2a2:	89 c3                	mov    ebx,eax
  10c2a4:	31 f6                	xor    esi,esi
  10c2a6:	8d 76 00             	lea    esi,[esi+0x0]
  10c2a9:	8d bc 27 00 00 00 00 	lea    edi,[edi+eiz*1+0x0]
  10c2b0:	85 db                	test   ebx,ebx
  10c2b2:	89 df                	mov    edi,ebx
  10c2b4:	74 1c                	je     10c2d2 <stradd+0x42>
  10c2b6:	83 c3 01             	add    ebx,0x1
  10c2b9:	83 c6 01             	add    esi,0x1
  10c2bc:	80 7b ff 00          	cmp    BYTE PTR [ebx-0x1],0x0
  10c2c0:	75 ee                	jne    10c2b0 <stradd+0x20>
  10c2c2:	01 c6                	add    esi,eax
  10c2c4:	88 17                	mov    BYTE PTR [edi],dl
  10c2c6:	74 2d                	je     10c2f5 <stradd+0x65>
  10c2c8:	c6 06 00             	mov    BYTE PTR [esi],0x0
  10c2cb:	83 c4 10             	add    esp,0x10
  10c2ce:	5b                   	pop    ebx
  10c2cf:	5e                   	pop    esi
  10c2d0:	5f                   	pop    edi
  10c2d1:	c3                   	ret    
  10c2d2:	89 54 24 0c          	mov    DWORD PTR [esp+0xc],edx
  10c2d6:	89 44 24 08          	mov    DWORD PTR [esp+0x8],eax
  10c2da:	52                   	push   edx
  10c2db:	52                   	push   edx
  10c2dc:	6a 00                	push   0x0
  10c2de:	68 1c 67 11 00       	push   0x11671c
  10c2e3:	e8 88 07 00 00       	call   10ca70 <__ubsan_handle_type_mismatch>
  10c2e8:	83 c4 10             	add    esp,0x10
  10c2eb:	8b 54 24 0c          	mov    edx,DWORD PTR [esp+0xc]
  10c2ef:	8b 44 24 08          	mov    eax,DWORD PTR [esp+0x8]
  10c2f3:	eb c1                	jmp    10c2b6 <stradd+0x26>
  10c2f5:	89 44 24 08          	mov    DWORD PTR [esp+0x8],eax
  10c2f9:	50                   	push   eax
  10c2fa:	50                   	push   eax
  10c2fb:	6a 00                	push   0x0
  10c2fd:	68 04 67 11 00       	push   0x116704
  10c302:	e8 69 07 00 00       	call   10ca70 <__ubsan_handle_type_mismatch>
  10c307:	83 c4 10             	add    esp,0x10
  10c30a:	8b 44 24 08          	mov    eax,DWORD PTR [esp+0x8]
  10c30e:	eb b8                	jmp    10c2c8 <stradd+0x38>

0010c310 <strsplit>:
  10c310:	55                   	push   ebp
  10c311:	57                   	push   edi
  10c312:	31 ff                	xor    edi,edi
  10c314:	56                   	push   esi
  10c315:	53                   	push   ebx
  10c316:	83 ec 2c             	sub    esp,0x2c
  10c319:	8b 74 24 40          	mov    esi,DWORD PTR [esp+0x40]
  10c31d:	0f b6 44 24 44       	movzx  eax,BYTE PTR [esp+0x44]
  10c322:	85 f6                	test   esi,esi
  10c324:	89 f3                	mov    ebx,esi
  10c326:	88 44 24 10          	mov    BYTE PTR [esp+0x10],al
  10c32a:	75 16                	jne    10c342 <strsplit+0x32>
  10c32c:	e9 47 02 00 00       	jmp    10c578 <strsplit+0x268>
  10c331:	eb 0d                	jmp    10c340 <strsplit+0x30>
  10c333:	90                   	nop
  10c334:	90                   	nop
  10c335:	90                   	nop
  10c336:	90                   	nop
  10c337:	90                   	nop
  10c338:	90                   	nop
  10c339:	90                   	nop
  10c33a:	90                   	nop
  10c33b:	90                   	nop
  10c33c:	90                   	nop
  10c33d:	90                   	nop
  10c33e:	90                   	nop
  10c33f:	90                   	nop
  10c340:	89 c7                	mov    edi,eax
  10c342:	85 db                	test   ebx,ebx
  10c344:	0f 84 8f 02 00 00    	je     10c5d9 <strsplit+0x2c9>
  10c34a:	83 c3 01             	add    ebx,0x1
  10c34d:	8d 47 01             	lea    eax,[edi+0x1]
  10c350:	80 7b ff 00          	cmp    BYTE PTR [ebx-0x1],0x0
  10c354:	75 ea                	jne    10c340 <strsplit+0x30>
  10c356:	85 ff                	test   edi,edi
  10c358:	0f 84 1a 02 00 00    	je     10c578 <strsplit+0x268>
  10c35e:	31 d2                	xor    edx,edx
  10c360:	89 d3                	mov    ebx,edx
  10c362:	eb 0e                	jmp    10c372 <strsplit+0x62>
  10c364:	8d b6 00 00 00 00    	lea    esi,[esi+0x0]
  10c36a:	8d bf 00 00 00 00    	lea    edi,[edi+0x0]
  10c370:	89 c3                	mov    ebx,eax
  10c372:	85 f6                	test   esi,esi
  10c374:	0f 84 d3 02 00 00    	je     10c64d <strsplit+0x33d>
  10c37a:	83 c6 01             	add    esi,0x1
  10c37d:	8d 43 01             	lea    eax,[ebx+0x1]
  10c380:	80 7e ff 00          	cmp    BYTE PTR [esi-0x1],0x0
  10c384:	75 ea                	jne    10c370 <strsplit+0x60>
  10c386:	89 dd                	mov    ebp,ebx
  10c388:	89 da                	mov    edx,ebx
  10c38a:	83 c5 ff             	add    ebp,0xffffffff
  10c38d:	0f 80 62 03 00 00    	jo     10c6f5 <strsplit+0x3e5>
  10c393:	85 ed                	test   ebp,ebp
  10c395:	0f 8e c6 01 00 00    	jle    10c561 <strsplit+0x251>
  10c39b:	89 54 24 08          	mov    DWORD PTR [esp+0x8],edx
  10c39f:	0f b6 54 24 10       	movzx  edx,BYTE PTR [esp+0x10]
  10c3a4:	31 db                	xor    ebx,ebx
  10c3a6:	8b 74 24 40          	mov    esi,DWORD PTR [esp+0x40]
  10c3aa:	31 ff                	xor    edi,edi
  10c3ac:	8d 74 26 00          	lea    esi,[esi+eiz*1+0x0]
  10c3b0:	89 f1                	mov    ecx,esi
  10c3b2:	01 d9                	add    ecx,ebx
  10c3b4:	0f 84 4d 02 00 00    	je     10c607 <strsplit+0x2f7>
  10c3ba:	38 11                	cmp    BYTE PTR [ecx],dl
  10c3bc:	8d 47 01             	lea    eax,[edi+0x1]
  10c3bf:	75 07                	jne    10c3c8 <strsplit+0xb8>
  10c3c1:	8d 4f 02             	lea    ecx,[edi+0x2]
  10c3c4:	89 c7                	mov    edi,eax
  10c3c6:	89 c8                	mov    eax,ecx
  10c3c8:	83 c3 01             	add    ebx,0x1
  10c3cb:	39 eb                	cmp    ebx,ebp
  10c3cd:	7c e1                	jl     10c3b0 <strsplit+0xa0>
  10c3cf:	8b 54 24 08          	mov    edx,DWORD PTR [esp+0x8]
  10c3d3:	c1 e0 02             	shl    eax,0x2
  10c3d6:	89 54 24 08          	mov    DWORD PTR [esp+0x8],edx
  10c3da:	83 ec 08             	sub    esp,0x8
  10c3dd:	6a 03                	push   0x3
  10c3df:	50                   	push   eax
  10c3e0:	e8 8b e1 ff ff       	call   10a570 <tmalloc>
  10c3e5:	89 44 24 24          	mov    DWORD PTR [esp+0x24],eax
  10c3e9:	83 c4 10             	add    esp,0x10
  10c3ec:	8b 54 24 08          	mov    edx,DWORD PTR [esp+0x8]
  10c3f0:	85 d2                	test   edx,edx
  10c3f2:	0f 8e 73 01 00 00    	jle    10c56b <strsplit+0x25b>
  10c3f8:	89 54 24 0c          	mov    DWORD PTR [esp+0xc],edx
  10c3fc:	0f b6 54 24 10       	movzx  edx,BYTE PTR [esp+0x10]
  10c401:	31 ff                	xor    edi,edi
  10c403:	c7 44 24 08 00 00 00 00 	mov    DWORD PTR [esp+0x8],0x0
  10c40b:	90                   	nop
  10c40c:	8d 74 26 00          	lea    esi,[esi+eiz*1+0x0]
  10c410:	89 fe                	mov    esi,edi
  10c412:	03 74 24 40          	add    esi,DWORD PTR [esp+0x40]
  10c416:	0f 84 12 02 00 00    	je     10c62e <strsplit+0x31e>
  10c41c:	38 16                	cmp    BYTE PTR [esi],dl
  10c41e:	0f 84 1c 01 00 00    	je     10c540 <strsplit+0x230>
  10c424:	8b 4c 24 0c          	mov    ecx,DWORD PTR [esp+0xc]
  10c428:	39 f9                	cmp    ecx,edi
  10c42a:	0f 8e 10 01 00 00    	jle    10c540 <strsplit+0x230>
  10c430:	89 fb                	mov    ebx,edi
  10c432:	8b 6c 24 40          	mov    ebp,DWORD PTR [esp+0x40]
  10c436:	eb 0c                	jmp    10c444 <strsplit+0x134>
  10c438:	90                   	nop
  10c439:	8d b4 26 00 00 00 00 	lea    esi,[esi+eiz*1+0x0]
  10c440:	39 d9                	cmp    ecx,ebx
  10c442:	7e 11                	jle    10c455 <strsplit+0x145>
  10c444:	83 c3 01             	add    ebx,0x1
  10c447:	89 e8                	mov    eax,ebp
  10c449:	01 d8                	add    eax,ebx
  10c44b:	0f 84 12 02 00 00    	je     10c663 <strsplit+0x353>
  10c451:	38 10                	cmp    BYTE PTR [eax],dl
  10c453:	75 eb                	jne    10c440 <strsplit+0x130>
  10c455:	89 dd                	mov    ebp,ebx
  10c457:	29 fd                	sub    ebp,edi
  10c459:	0f 80 78 02 00 00    	jo     10c6d7 <strsplit+0x3c7>
  10c45f:	89 ef                	mov    edi,ebp
  10c461:	83 c7 01             	add    edi,0x1
  10c464:	0f 80 4e 02 00 00    	jo     10c6b8 <strsplit+0x3a8>
  10c46a:	88 54 24 10          	mov    BYTE PTR [esp+0x10],dl
  10c46e:	83 ec 08             	sub    esp,0x8
  10c471:	6a 03                	push   0x3
  10c473:	57                   	push   edi
  10c474:	e8 f7 e0 ff ff       	call   10a570 <tmalloc>
  10c479:	83 c4 10             	add    esp,0x10
  10c47c:	f7 c5 03 00 00 00    	test   ebp,0x3
  10c482:	89 e9                	mov    ecx,ebp
  10c484:	0f b6 54 24 10       	movzx  edx,BYTE PTR [esp+0x10]
  10c489:	0f 85 81 00 00 00    	jne    10c510 <strsplit+0x200>
  10c48f:	c1 e9 02             	shr    ecx,0x2
  10c492:	89 c7                	mov    edi,eax
  10c494:	fc                   	cld    
  10c495:	f3 a5                	rep movs DWORD PTR es:[edi],DWORD PTR ds:[esi]
  10c497:	89 de                	mov    esi,ebx
  10c499:	83 c6 01             	add    esi,0x1
  10c49c:	0f 80 ea 00 00 00    	jo     10c58c <strsplit+0x27c>
  10c4a2:	8b 4c 24 14          	mov    ecx,DWORD PTR [esp+0x14]
  10c4a6:	8b 5c 24 08          	mov    ebx,DWORD PTR [esp+0x8]
  10c4aa:	89 f7                	mov    edi,esi
  10c4ac:	8d 1c 99             	lea    ebx,[ecx+ebx*4]
  10c4af:	85 db                	test   ebx,ebx
  10c4b1:	0f 84 db 01 00 00    	je     10c692 <strsplit+0x382>
  10c4b7:	f6 c3 03             	test   bl,0x3
  10c4ba:	0f 85 d2 01 00 00    	jne    10c692 <strsplit+0x382>
  10c4c0:	89 03                	mov    DWORD PTR [ebx],eax
  10c4c2:	8b 5c 24 08          	mov    ebx,DWORD PTR [esp+0x8]
  10c4c6:	83 c3 01             	add    ebx,0x1
  10c4c9:	0f 80 e6 00 00 00    	jo     10c5b5 <strsplit+0x2a5>
  10c4cf:	39 74 24 0c          	cmp    DWORD PTR [esp+0xc],esi
  10c4d3:	89 5c 24 08          	mov    DWORD PTR [esp+0x8],ebx
  10c4d7:	0f 8f 33 ff ff ff    	jg     10c410 <strsplit+0x100>
  10c4dd:	8b 54 24 48          	mov    edx,DWORD PTR [esp+0x48]
  10c4e1:	85 d2                	test   edx,edx
  10c4e3:	0f 84 06 01 00 00    	je     10c5ef <strsplit+0x2df>
  10c4e9:	f6 44 24 48 03       	test   BYTE PTR [esp+0x48],0x3
  10c4ee:	0f 85 fb 00 00 00    	jne    10c5ef <strsplit+0x2df>
  10c4f4:	8b 44 24 48          	mov    eax,DWORD PTR [esp+0x48]
  10c4f8:	8b 54 24 08          	mov    edx,DWORD PTR [esp+0x8]
  10c4fc:	89 10                	mov    DWORD PTR [eax],edx
  10c4fe:	8b 44 24 14          	mov    eax,DWORD PTR [esp+0x14]
  10c502:	83 c4 2c             	add    esp,0x2c
  10c505:	5b                   	pop    ebx
  10c506:	5e                   	pop    esi
  10c507:	5f                   	pop    edi
  10c508:	5d                   	pop    ebp
  10c509:	c3                   	ret    
  10c50a:	8d b6 00 00 00 00    	lea    esi,[esi+0x0]
  10c510:	f7 c5 01 00 00 00    	test   ebp,0x1
  10c516:	74 18                	je     10c530 <strsplit+0x220>
  10c518:	89 c7                	mov    edi,eax
  10c51a:	fc                   	cld    
  10c51b:	f3 a4                	rep movs BYTE PTR es:[edi],BYTE PTR ds:[esi]
  10c51d:	e9 75 ff ff ff       	jmp    10c497 <strsplit+0x187>
  10c522:	8d b4 26 00 00 00 00 	lea    esi,[esi+eiz*1+0x0]
  10c529:	8d bc 27 00 00 00 00 	lea    edi,[edi+eiz*1+0x0]
  10c530:	d1 e9                	shr    ecx,1
  10c532:	89 c7                	mov    edi,eax
  10c534:	fc                   	cld    
  10c535:	66 f3 a5             	rep movs WORD PTR es:[edi],WORD PTR ds:[esi]
  10c538:	e9 5a ff ff ff       	jmp    10c497 <strsplit+0x187>
  10c53d:	8d 76 00             	lea    esi,[esi+0x0]
  10c540:	88 54 24 10          	mov    BYTE PTR [esp+0x10],dl
  10c544:	83 ec 08             	sub    esp,0x8
  10c547:	89 fb                	mov    ebx,edi
  10c549:	6a 03                	push   0x3
  10c54b:	6a 01                	push   0x1
  10c54d:	e8 1e e0 ff ff       	call   10a570 <tmalloc>
  10c552:	83 c4 10             	add    esp,0x10
  10c555:	31 c9                	xor    ecx,ecx
  10c557:	0f b6 54 24 10       	movzx  edx,BYTE PTR [esp+0x10]
  10c55c:	e9 2e ff ff ff       	jmp    10c48f <strsplit+0x17f>
  10c561:	b8 04 00 00 00       	mov    eax,0x4
  10c566:	e9 6b fe ff ff       	jmp    10c3d6 <strsplit+0xc6>
  10c56b:	c7 44 24 08 00 00 00 00 	mov    DWORD PTR [esp+0x8],0x0
  10c573:	e9 65 ff ff ff       	jmp    10c4dd <strsplit+0x1cd>
  10c578:	c7 44 24 14 00 00 00 00 	mov    DWORD PTR [esp+0x14],0x0
  10c580:	8b 44 24 14          	mov    eax,DWORD PTR [esp+0x14]
  10c584:	83 c4 2c             	add    esp,0x2c
  10c587:	5b                   	pop    ebx
  10c588:	5e                   	pop    esi
  10c589:	5f                   	pop    edi
  10c58a:	5d                   	pop    ebp
  10c58b:	c3                   	ret    
  10c58c:	88 54 24 18          	mov    BYTE PTR [esp+0x18],dl
  10c590:	89 44 24 10          	mov    DWORD PTR [esp+0x10],eax
  10c594:	83 ec 04             	sub    esp,0x4
  10c597:	6a 01                	push   0x1
  10c599:	53                   	push   ebx
  10c59a:	68 00 66 11 00       	push   0x116600
  10c59f:	e8 ac 05 00 00       	call   10cb50 <__ubsan_handle_add_overflow>
  10c5a4:	83 c4 10             	add    esp,0x10
  10c5a7:	0f b6 54 24 18       	movzx  edx,BYTE PTR [esp+0x18]
  10c5ac:	8b 44 24 10          	mov    eax,DWORD PTR [esp+0x10]
  10c5b0:	e9 ed fe ff ff       	jmp    10c4a2 <strsplit+0x192>
  10c5b5:	88 54 24 10          	mov    BYTE PTR [esp+0x10],dl
  10c5b9:	83 ec 04             	sub    esp,0x4
  10c5bc:	6a 01                	push   0x1
  10c5be:	ff 74 24 10          	push   DWORD PTR [esp+0x10]
  10c5c2:	68 f0 65 11 00       	push   0x1165f0
  10c5c7:	e8 84 05 00 00       	call   10cb50 <__ubsan_handle_add_overflow>
  10c5cc:	83 c4 10             	add    esp,0x10
  10c5cf:	0f b6 54 24 10       	movzx  edx,BYTE PTR [esp+0x10]
  10c5d4:	e9 f6 fe ff ff       	jmp    10c4cf <strsplit+0x1bf>
  10c5d9:	51                   	push   ecx
  10c5da:	51                   	push   ecx
  10c5db:	6a 00                	push   0x0
  10c5dd:	68 ec 66 11 00       	push   0x1166ec
  10c5e2:	e8 89 04 00 00       	call   10ca70 <__ubsan_handle_type_mismatch>
  10c5e7:	83 c4 10             	add    esp,0x10
  10c5ea:	e9 5b fd ff ff       	jmp    10c34a <strsplit+0x3a>
  10c5ef:	50                   	push   eax
  10c5f0:	50                   	push   eax
  10c5f1:	ff 74 24 50          	push   DWORD PTR [esp+0x50]
  10c5f5:	68 40 66 11 00       	push   0x116640
  10c5fa:	e8 71 04 00 00       	call   10ca70 <__ubsan_handle_type_mismatch>
  10c5ff:	83 c4 10             	add    esp,0x10
  10c602:	e9 ed fe ff ff       	jmp    10c4f4 <strsplit+0x1e4>
  10c607:	88 54 24 14          	mov    BYTE PTR [esp+0x14],dl
  10c60b:	89 4c 24 0c          	mov    DWORD PTR [esp+0xc],ecx
  10c60f:	50                   	push   eax
  10c610:	50                   	push   eax
  10c611:	6a 00                	push   0x0
  10c613:	68 bc 66 11 00       	push   0x1166bc
  10c618:	e8 53 04 00 00       	call   10ca70 <__ubsan_handle_type_mismatch>
  10c61d:	83 c4 10             	add    esp,0x10
  10c620:	0f b6 54 24 14       	movzx  edx,BYTE PTR [esp+0x14]
  10c625:	8b 4c 24 0c          	mov    ecx,DWORD PTR [esp+0xc]
  10c629:	e9 8c fd ff ff       	jmp    10c3ba <strsplit+0xaa>
  10c62e:	88 54 24 10          	mov    BYTE PTR [esp+0x10],dl
  10c632:	50                   	push   eax
  10c633:	50                   	push   eax
  10c634:	6a 00                	push   0x0
  10c636:	68 a4 66 11 00       	push   0x1166a4
  10c63b:	e8 30 04 00 00       	call   10ca70 <__ubsan_handle_type_mismatch>
  10c640:	83 c4 10             	add    esp,0x10
  10c643:	0f b6 54 24 10       	movzx  edx,BYTE PTR [esp+0x10]
  10c648:	e9 cf fd ff ff       	jmp    10c41c <strsplit+0x10c>
  10c64d:	52                   	push   edx
  10c64e:	52                   	push   edx
  10c64f:	6a 00                	push   0x0
  10c651:	68 d4 66 11 00       	push   0x1166d4
  10c656:	e8 15 04 00 00       	call   10ca70 <__ubsan_handle_type_mismatch>
  10c65b:	83 c4 10             	add    esp,0x10
  10c65e:	e9 17 fd ff ff       	jmp    10c37a <strsplit+0x6a>
  10c663:	89 44 24 10          	mov    DWORD PTR [esp+0x10],eax
  10c667:	88 54 24 1f          	mov    BYTE PTR [esp+0x1f],dl
  10c66b:	89 4c 24 18          	mov    DWORD PTR [esp+0x18],ecx
  10c66f:	50                   	push   eax
  10c670:	50                   	push   eax
  10c671:	6a 00                	push   0x0
  10c673:	68 8c 66 11 00       	push   0x11668c
  10c678:	e8 f3 03 00 00       	call   10ca70 <__ubsan_handle_type_mismatch>
  10c67d:	83 c4 10             	add    esp,0x10
  10c680:	0f b6 54 24 1f       	movzx  edx,BYTE PTR [esp+0x1f]
  10c685:	8b 4c 24 18          	mov    ecx,DWORD PTR [esp+0x18]
  10c689:	8b 44 24 10          	mov    eax,DWORD PTR [esp+0x10]
  10c68d:	e9 bf fd ff ff       	jmp    10c451 <strsplit+0x141>
  10c692:	88 54 24 18          	mov    BYTE PTR [esp+0x18],dl
  10c696:	89 44 24 10          	mov    DWORD PTR [esp+0x10],eax
  10c69a:	51                   	push   ecx
  10c69b:	51                   	push   ecx
  10c69c:	53                   	push   ebx
  10c69d:	68 64 66 11 00       	push   0x116664
  10c6a2:	e8 c9 03 00 00       	call   10ca70 <__ubsan_handle_type_mismatch>
  10c6a7:	83 c4 10             	add    esp,0x10
  10c6aa:	0f b6 54 24 18       	movzx  edx,BYTE PTR [esp+0x18]
  10c6af:	8b 44 24 10          	mov    eax,DWORD PTR [esp+0x10]
  10c6b3:	e9 08 fe ff ff       	jmp    10c4c0 <strsplit+0x1b0>
  10c6b8:	88 54 24 10          	mov    BYTE PTR [esp+0x10],dl
  10c6bc:	50                   	push   eax
  10c6bd:	6a 01                	push   0x1
  10c6bf:	55                   	push   ebp
  10c6c0:	68 10 66 11 00       	push   0x116610
  10c6c5:	e8 86 04 00 00       	call   10cb50 <__ubsan_handle_add_overflow>
  10c6ca:	83 c4 10             	add    esp,0x10
  10c6cd:	0f b6 54 24 10       	movzx  edx,BYTE PTR [esp+0x10]
  10c6d2:	e9 93 fd ff ff       	jmp    10c46a <strsplit+0x15a>
  10c6d7:	88 54 24 10          	mov    BYTE PTR [esp+0x10],dl
  10c6db:	50                   	push   eax
  10c6dc:	57                   	push   edi
  10c6dd:	53                   	push   ebx
  10c6de:	68 20 66 11 00       	push   0x116620
  10c6e3:	e8 b8 04 00 00       	call   10cba0 <__ubsan_handle_sub_overflow>
  10c6e8:	83 c4 10             	add    esp,0x10
  10c6eb:	0f b6 54 24 10       	movzx  edx,BYTE PTR [esp+0x10]
  10c6f0:	e9 6a fd ff ff       	jmp    10c45f <strsplit+0x14f>
  10c6f5:	50                   	push   eax
  10c6f6:	6a 01                	push   0x1
  10c6f8:	53                   	push   ebx
  10c6f9:	89 5c 24 14          	mov    DWORD PTR [esp+0x14],ebx
  10c6fd:	68 30 66 11 00       	push   0x116630
  10c702:	e8 99 04 00 00       	call   10cba0 <__ubsan_handle_sub_overflow>
  10c707:	83 c4 10             	add    esp,0x10
  10c70a:	8b 54 24 08          	mov    edx,DWORD PTR [esp+0x8]
  10c70e:	e9 80 fc ff ff       	jmp    10c393 <strsplit+0x83>
  10c713:	8d b6 00 00 00 00    	lea    esi,[esi+0x0]
  10c719:	8d bc 27 00 00 00 00 	lea    edi,[edi+eiz*1+0x0]

0010c720 <strwhite>:
  10c720:	55                   	push   ebp
  10c721:	57                   	push   edi
  10c722:	56                   	push   esi
  10c723:	53                   	push   ebx
  10c724:	83 ec 0c             	sub    esp,0xc
  10c727:	8b 7c 24 20          	mov    edi,DWORD PTR [esp+0x20]
  10c72b:	85 ff                	test   edi,edi
  10c72d:	0f 84 8d 00 00 00    	je     10c7c0 <strwhite+0xa0>
  10c733:	89 fb                	mov    ebx,edi
  10c735:	31 f6                	xor    esi,esi
  10c737:	eb 09                	jmp    10c742 <strwhite+0x22>
  10c739:	8d b4 26 00 00 00 00 	lea    esi,[esi+eiz*1+0x0]
  10c740:	89 c6                	mov    esi,eax
  10c742:	85 db                	test   ebx,ebx
  10c744:	0f 84 ad 00 00 00    	je     10c7f7 <strwhite+0xd7>
  10c74a:	83 c3 01             	add    ebx,0x1
  10c74d:	8d 46 01             	lea    eax,[esi+0x1]
  10c750:	80 7b ff 00          	cmp    BYTE PTR [ebx-0x1],0x0
  10c754:	75 ea                	jne    10c740 <strwhite+0x20>
  10c756:	85 f6                	test   esi,esi
  10c758:	74 66                	je     10c7c0 <strwhite+0xa0>
  10c75a:	31 ed                	xor    ebp,ebp
  10c75c:	8d 74 26 00          	lea    esi,[esi+eiz*1+0x0]
  10c760:	89 fb                	mov    ebx,edi
  10c762:	31 f6                	xor    esi,esi
  10c764:	eb 0c                	jmp    10c772 <strwhite+0x52>
  10c766:	8d 76 00             	lea    esi,[esi+0x0]
  10c769:	8d bc 27 00 00 00 00 	lea    edi,[edi+eiz*1+0x0]
  10c770:	89 c6                	mov    esi,eax
  10c772:	85 db                	test   ebx,ebx
  10c774:	0f 84 93 00 00 00    	je     10c80d <strwhite+0xed>
  10c77a:	83 c3 01             	add    ebx,0x1
  10c77d:	8d 46 01             	lea    eax,[esi+0x1]
  10c780:	80 7b ff 00          	cmp    BYTE PTR [ebx-0x1],0x0
  10c784:	75 ea                	jne    10c770 <strwhite+0x50>
  10c786:	39 f5                	cmp    ebp,esi
  10c788:	73 46                	jae    10c7d0 <strwhite+0xb0>
  10c78a:	89 fb                	mov    ebx,edi
  10c78c:	01 eb                	add    ebx,ebp
  10c78e:	0f 84 8f 00 00 00    	je     10c823 <strwhite+0x103>
  10c794:	0f be 03             	movsx  eax,BYTE PTR [ebx]
  10c797:	83 ec 0c             	sub    esp,0xc
  10c79a:	50                   	push   eax
  10c79b:	e8 c0 39 ff ff       	call   100160 <isspace>
  10c7a0:	83 c4 10             	add    esp,0x10
  10c7a3:	85 c0                	test   eax,eax
  10c7a5:	74 19                	je     10c7c0 <strwhite+0xa0>
  10c7a7:	89 eb                	mov    ebx,ebp
  10c7a9:	83 c3 01             	add    ebx,0x1
  10c7ac:	70 2f                	jo     10c7dd <strwhite+0xbd>
  10c7ae:	89 dd                	mov    ebp,ebx
  10c7b0:	eb ae                	jmp    10c760 <strwhite+0x40>
  10c7b2:	8d b4 26 00 00 00 00 	lea    esi,[esi+eiz*1+0x0]
  10c7b9:	8d bc 27 00 00 00 00 	lea    edi,[edi+eiz*1+0x0]
  10c7c0:	83 c4 0c             	add    esp,0xc
  10c7c3:	31 c0                	xor    eax,eax
  10c7c5:	5b                   	pop    ebx
  10c7c6:	5e                   	pop    esi
  10c7c7:	5f                   	pop    edi
  10c7c8:	5d                   	pop    ebp
  10c7c9:	c3                   	ret    
  10c7ca:	8d b6 00 00 00 00    	lea    esi,[esi+0x0]
  10c7d0:	83 c4 0c             	add    esp,0xc
  10c7d3:	b8 01 00 00 00       	mov    eax,0x1
  10c7d8:	5b                   	pop    ebx
  10c7d9:	5e                   	pop    esi
  10c7da:	5f                   	pop    edi
  10c7db:	5d                   	pop    ebp
  10c7dc:	c3                   	ret    
  10c7dd:	83 ec 04             	sub    esp,0x4
  10c7e0:	6a 01                	push   0x1
  10c7e2:	55                   	push   ebp
  10c7e3:	89 dd                	mov    ebp,ebx
  10c7e5:	68 98 65 11 00       	push   0x116598
  10c7ea:	e8 61 03 00 00       	call   10cb50 <__ubsan_handle_add_overflow>
  10c7ef:	83 c4 10             	add    esp,0x10
  10c7f2:	e9 69 ff ff ff       	jmp    10c760 <strwhite+0x40>
  10c7f7:	51                   	push   ecx
  10c7f8:	51                   	push   ecx
  10c7f9:	6a 00                	push   0x0
  10c7fb:	68 d8 65 11 00       	push   0x1165d8
  10c800:	e8 6b 02 00 00       	call   10ca70 <__ubsan_handle_type_mismatch>
  10c805:	83 c4 10             	add    esp,0x10
  10c808:	e9 3d ff ff ff       	jmp    10c74a <strwhite+0x2a>
  10c80d:	52                   	push   edx
  10c80e:	52                   	push   edx
  10c80f:	6a 00                	push   0x0
  10c811:	68 c0 65 11 00       	push   0x1165c0
  10c816:	e8 55 02 00 00       	call   10ca70 <__ubsan_handle_type_mismatch>
  10c81b:	83 c4 10             	add    esp,0x10
  10c81e:	e9 57 ff ff ff       	jmp    10c77a <strwhite+0x5a>
  10c823:	50                   	push   eax
  10c824:	50                   	push   eax
  10c825:	6a 00                	push   0x0
  10c827:	68 a8 65 11 00       	push   0x1165a8
  10c82c:	e8 3f 02 00 00       	call   10ca70 <__ubsan_handle_type_mismatch>
  10c831:	83 c4 10             	add    esp,0x10
  10c834:	e9 5b ff ff ff       	jmp    10c794 <strwhite+0x74>
  10c839:	8d b4 26 00 00 00 00 	lea    esi,[esi+eiz*1+0x0]

0010c840 <strupper>:
  10c840:	55                   	push   ebp
  10c841:	57                   	push   edi
  10c842:	31 ff                	xor    edi,edi
  10c844:	56                   	push   esi
  10c845:	53                   	push   ebx
  10c846:	83 ec 0c             	sub    esp,0xc
  10c849:	8b 6c 24 20          	mov    ebp,DWORD PTR [esp+0x20]
  10c84d:	8d 76 00             	lea    esi,[esi+0x0]
  10c850:	89 eb                	mov    ebx,ebp
  10c852:	31 f6                	xor    esi,esi
  10c854:	eb 0c                	jmp    10c862 <strupper+0x22>
  10c856:	8d 76 00             	lea    esi,[esi+0x0]
  10c859:	8d bc 27 00 00 00 00 	lea    edi,[edi+eiz*1+0x0]
  10c860:	89 c6                	mov    esi,eax
  10c862:	85 db                	test   ebx,ebx
  10c864:	74 6e                	je     10c8d4 <strupper+0x94>
  10c866:	83 c3 01             	add    ebx,0x1
  10c869:	8d 46 01             	lea    eax,[esi+0x1]
  10c86c:	80 7b ff 00          	cmp    BYTE PTR [ebx-0x1],0x0
  10c870:	75 ee                	jne    10c860 <strupper+0x20>
  10c872:	39 f7                	cmp    edi,esi
  10c874:	73 2a                	jae    10c8a0 <strupper+0x60>
  10c876:	89 eb                	mov    ebx,ebp
  10c878:	01 fb                	add    ebx,edi
  10c87a:	74 45                	je     10c8c1 <strupper+0x81>
  10c87c:	0f be 03             	movsx  eax,BYTE PTR [ebx]
  10c87f:	83 ec 0c             	sub    esp,0xc
  10c882:	50                   	push   eax
  10c883:	e8 68 39 ff ff       	call   1001f0 <toupper>
  10c888:	88 03                	mov    BYTE PTR [ebx],al
  10c88a:	89 fb                	mov    ebx,edi
  10c88c:	83 c4 10             	add    esp,0x10
  10c88f:	83 c3 01             	add    ebx,0x1
  10c892:	70 16                	jo     10c8aa <strupper+0x6a>
  10c894:	89 df                	mov    edi,ebx
  10c896:	eb b8                	jmp    10c850 <strupper+0x10>
  10c898:	90                   	nop
  10c899:	8d b4 26 00 00 00 00 	lea    esi,[esi+eiz*1+0x0]
  10c8a0:	83 c4 0c             	add    esp,0xc
  10c8a3:	89 e8                	mov    eax,ebp
  10c8a5:	5b                   	pop    ebx
  10c8a6:	5e                   	pop    esi
  10c8a7:	5f                   	pop    edi
  10c8a8:	5d                   	pop    ebp
  10c8a9:	c3                   	ret    
  10c8aa:	83 ec 04             	sub    esp,0x4
  10c8ad:	6a 01                	push   0x1
  10c8af:	57                   	push   edi
  10c8b0:	89 df                	mov    edi,ebx
  10c8b2:	68 58 65 11 00       	push   0x116558
  10c8b7:	e8 94 02 00 00       	call   10cb50 <__ubsan_handle_add_overflow>
  10c8bc:	83 c4 10             	add    esp,0x10
  10c8bf:	eb 8f                	jmp    10c850 <strupper+0x10>
  10c8c1:	50                   	push   eax
  10c8c2:	50                   	push   eax
  10c8c3:	6a 00                	push   0x0
  10c8c5:	68 68 65 11 00       	push   0x116568
  10c8ca:	e8 a1 01 00 00       	call   10ca70 <__ubsan_handle_type_mismatch>
  10c8cf:	83 c4 10             	add    esp,0x10
  10c8d2:	eb a8                	jmp    10c87c <strupper+0x3c>
  10c8d4:	52                   	push   edx
  10c8d5:	52                   	push   edx
  10c8d6:	6a 00                	push   0x0
  10c8d8:	68 80 65 11 00       	push   0x116580
  10c8dd:	e8 8e 01 00 00       	call   10ca70 <__ubsan_handle_type_mismatch>
  10c8e2:	83 c4 10             	add    esp,0x10
  10c8e5:	e9 7c ff ff ff       	jmp    10c866 <strupper+0x26>
  10c8ea:	8d b6 00 00 00 00    	lea    esi,[esi+0x0]

0010c8f0 <strlower>:
  10c8f0:	55                   	push   ebp
  10c8f1:	57                   	push   edi
  10c8f2:	31 ff                	xor    edi,edi
  10c8f4:	56                   	push   esi
  10c8f5:	53                   	push   ebx
  10c8f6:	83 ec 0c             	sub    esp,0xc
  10c8f9:	8b 6c 24 20          	mov    ebp,DWORD PTR [esp+0x20]
  10c8fd:	8d 76 00             	lea    esi,[esi+0x0]
  10c900:	89 eb                	mov    ebx,ebp
  10c902:	31 f6                	xor    esi,esi
  10c904:	eb 0c                	jmp    10c912 <strlower+0x22>
  10c906:	8d 76 00             	lea    esi,[esi+0x0]
  10c909:	8d bc 27 00 00 00 00 	lea    edi,[edi+eiz*1+0x0]
  10c910:	89 c6                	mov    esi,eax
  10c912:	85 db                	test   ebx,ebx
  10c914:	74 6e                	je     10c984 <strlower+0x94>
  10c916:	83 c3 01             	add    ebx,0x1
  10c919:	8d 46 01             	lea    eax,[esi+0x1]
  10c91c:	80 7b ff 00          	cmp    BYTE PTR [ebx-0x1],0x0
  10c920:	75 ee                	jne    10c910 <strlower+0x20>
  10c922:	39 f7                	cmp    edi,esi
  10c924:	73 2a                	jae    10c950 <strlower+0x60>
  10c926:	89 eb                	mov    ebx,ebp
  10c928:	01 fb                	add    ebx,edi
  10c92a:	74 45                	je     10c971 <strlower+0x81>
  10c92c:	0f be 03             	movsx  eax,BYTE PTR [ebx]
  10c92f:	83 ec 0c             	sub    esp,0xc
  10c932:	50                   	push   eax
  10c933:	e8 98 38 ff ff       	call   1001d0 <tolower>
  10c938:	88 03                	mov    BYTE PTR [ebx],al
  10c93a:	89 fb                	mov    ebx,edi
  10c93c:	83 c4 10             	add    esp,0x10
  10c93f:	83 c3 01             	add    ebx,0x1
  10c942:	70 16                	jo     10c95a <strlower+0x6a>
  10c944:	89 df                	mov    edi,ebx
  10c946:	eb b8                	jmp    10c900 <strlower+0x10>
  10c948:	90                   	nop
  10c949:	8d b4 26 00 00 00 00 	lea    esi,[esi+eiz*1+0x0]
  10c950:	83 c4 0c             	add    esp,0xc
  10c953:	89 e8                	mov    eax,ebp
  10c955:	5b                   	pop    ebx
  10c956:	5e                   	pop    esi
  10c957:	5f                   	pop    edi
  10c958:	5d                   	pop    ebp
  10c959:	c3                   	ret    
  10c95a:	83 ec 04             	sub    esp,0x4
  10c95d:	6a 01                	push   0x1
  10c95f:	57                   	push   edi
  10c960:	89 df                	mov    edi,ebx
  10c962:	68 18 65 11 00       	push   0x116518
  10c967:	e8 e4 01 00 00       	call   10cb50 <__ubsan_handle_add_overflow>
  10c96c:	83 c4 10             	add    esp,0x10
  10c96f:	eb 8f                	jmp    10c900 <strlower+0x10>
  10c971:	50                   	push   eax
  10c972:	50                   	push   eax
  10c973:	6a 00                	push   0x0
  10c975:	68 28 65 11 00       	push   0x116528
  10c97a:	e8 f1 00 00 00       	call   10ca70 <__ubsan_handle_type_mismatch>
  10c97f:	83 c4 10             	add    esp,0x10
  10c982:	eb a8                	jmp    10c92c <strlower+0x3c>
  10c984:	52                   	push   edx
  10c985:	52                   	push   edx
  10c986:	6a 00                	push   0x0
  10c988:	68 40 65 11 00       	push   0x116540
  10c98d:	e8 de 00 00 00       	call   10ca70 <__ubsan_handle_type_mismatch>
  10c992:	83 c4 10             	add    esp,0x10
  10c995:	e9 7c ff ff ff       	jmp    10c916 <strlower+0x26>
  10c99a:	8d b6 00 00 00 00    	lea    esi,[esi+0x0]

0010c9a0 <strback>:
  10c9a0:	56                   	push   esi
  10c9a1:	53                   	push   ebx
  10c9a2:	83 ec 14             	sub    esp,0x14
  10c9a5:	8b 44 24 20          	mov    eax,DWORD PTR [esp+0x20]
  10c9a9:	85 c0                	test   eax,eax
  10c9ab:	74 30                	je     10c9dd <strback+0x3d>
  10c9ad:	89 c3                	mov    ebx,eax
  10c9af:	31 f6                	xor    esi,esi
  10c9b1:	eb 0f                	jmp    10c9c2 <strback+0x22>
  10c9b3:	8d b6 00 00 00 00    	lea    esi,[esi+0x0]
  10c9b9:	8d bc 27 00 00 00 00 	lea    edi,[edi+eiz*1+0x0]
  10c9c0:	89 d6                	mov    esi,edx
  10c9c2:	85 db                	test   ebx,ebx
  10c9c4:	74 1d                	je     10c9e3 <strback+0x43>
  10c9c6:	83 c3 01             	add    ebx,0x1
  10c9c9:	8d 56 01             	lea    edx,[esi+0x1]
  10c9cc:	80 7b ff 00          	cmp    BYTE PTR [ebx-0x1],0x0
  10c9d0:	75 ee                	jne    10c9c0 <strback+0x20>
  10c9d2:	8d 5c 30 ff          	lea    ebx,[eax+esi*1-0x1]
  10c9d6:	85 db                	test   ebx,ebx
  10c9d8:	74 24                	je     10c9fe <strback+0x5e>
  10c9da:	c6 03 00             	mov    BYTE PTR [ebx],0x0
  10c9dd:	83 c4 14             	add    esp,0x14
  10c9e0:	5b                   	pop    ebx
  10c9e1:	5e                   	pop    esi
  10c9e2:	c3                   	ret    
  10c9e3:	89 44 24 0c          	mov    DWORD PTR [esp+0xc],eax
  10c9e7:	52                   	push   edx
  10c9e8:	52                   	push   edx
  10c9e9:	6a 00                	push   0x0
  10c9eb:	68 00 65 11 00       	push   0x116500
  10c9f0:	e8 7b 00 00 00       	call   10ca70 <__ubsan_handle_type_mismatch>
  10c9f5:	83 c4 10             	add    esp,0x10
  10c9f8:	8b 44 24 0c          	mov    eax,DWORD PTR [esp+0xc]
  10c9fc:	eb c8                	jmp    10c9c6 <strback+0x26>
  10c9fe:	89 44 24 0c          	mov    DWORD PTR [esp+0xc],eax
  10ca02:	50                   	push   eax
  10ca03:	50                   	push   eax
  10ca04:	6a 00                	push   0x0
  10ca06:	68 e8 64 11 00       	push   0x1164e8
  10ca0b:	e8 60 00 00 00       	call   10ca70 <__ubsan_handle_type_mismatch>
  10ca10:	83 c4 10             	add    esp,0x10
  10ca13:	8b 44 24 0c          	mov    eax,DWORD PTR [esp+0xc]
  10ca17:	eb c1                	jmp    10c9da <strback+0x3a>
  10ca19:	66 90                	xchg   ax,ax
  10ca1b:	66 90                	xchg   ax,ax
  10ca1d:	66 90                	xchg   ax,ax
  10ca1f:	90                   	nop

0010ca20 <__ubsan_handle_out_of_bounds>:
  10ca20:	53                   	push   ebx
  10ca21:	83 ec 10             	sub    esp,0x10
  10ca24:	8b 5c 24 18          	mov    ebx,DWORD PTR [esp+0x18]
  10ca28:	68 b4 10 11 00       	push   0x1110b4
  10ca2d:	68 0a 14 11 00       	push   0x11140a
  10ca32:	e8 09 db ff ff       	call   10a540 <printf>
  10ca37:	83 c4 10             	add    esp,0x10
  10ca3a:	85 db                	test   ebx,ebx
  10ca3c:	74 1c                	je     10ca5a <__ubsan_handle_out_of_bounds+0x3a>
  10ca3e:	f6 c3 03             	test   bl,0x3
  10ca41:	75 17                	jne    10ca5a <__ubsan_handle_out_of_bounds+0x3a>
  10ca43:	ff 33                	push   DWORD PTR [ebx]
  10ca45:	ff 73 08             	push   DWORD PTR [ebx+0x8]
  10ca48:	ff 73 04             	push   DWORD PTR [ebx+0x4]
  10ca4b:	68 26 14 11 00       	push   0x111426
  10ca50:	e8 4b ee ff ff       	call   10b8a0 <perror>
  10ca55:	83 c4 18             	add    esp,0x18
  10ca58:	5b                   	pop    ebx
  10ca59:	c3                   	ret    
  10ca5a:	50                   	push   eax
  10ca5b:	50                   	push   eax
  10ca5c:	53                   	push   ebx
  10ca5d:	68 d0 6c 11 00       	push   0x116cd0
  10ca62:	e8 09 00 00 00       	call   10ca70 <__ubsan_handle_type_mismatch>
  10ca67:	83 c4 10             	add    esp,0x10
  10ca6a:	eb d7                	jmp    10ca43 <__ubsan_handle_out_of_bounds+0x23>
  10ca6c:	8d 74 26 00          	lea    esi,[esi+eiz*1+0x0]

0010ca70 <__ubsan_handle_type_mismatch>:
  10ca70:	57                   	push   edi
  10ca71:	56                   	push   esi
  10ca72:	53                   	push   ebx
  10ca73:	8b 7c 24 14          	mov    edi,DWORD PTR [esp+0x14]
  10ca77:	8b 5c 24 10          	mov    ebx,DWORD PTR [esp+0x10]
  10ca7b:	85 ff                	test   edi,edi
  10ca7d:	74 31                	je     10cab0 <__ubsan_handle_type_mismatch+0x40>
  10ca7f:	85 db                	test   ebx,ebx
  10ca81:	0f 84 b3 00 00 00    	je     10cb3a <__ubsan_handle_type_mismatch+0xca>
  10ca87:	f6 c3 03             	test   bl,0x3
  10ca8a:	0f 85 aa 00 00 00    	jne    10cb3a <__ubsan_handle_type_mismatch+0xca>
  10ca90:	8b 73 10             	mov    esi,DWORD PTR [ebx+0x10]
  10ca93:	85 f6                	test   esi,esi
  10ca95:	74 10                	je     10caa7 <__ubsan_handle_type_mismatch+0x37>
  10ca97:	85 db                	test   ebx,ebx
  10ca99:	74 78                	je     10cb13 <__ubsan_handle_type_mismatch+0xa3>
  10ca9b:	f6 c3 03             	test   bl,0x3
  10ca9e:	75 73                	jne    10cb13 <__ubsan_handle_type_mismatch+0xa3>
  10caa0:	83 ee 01             	sub    esi,0x1
  10caa3:	85 fe                	test   esi,edi
  10caa5:	74 49                	je     10caf0 <__ubsan_handle_type_mismatch+0x80>
  10caa7:	5b                   	pop    ebx
  10caa8:	5e                   	pop    esi
  10caa9:	5f                   	pop    edi
  10caaa:	c3                   	ret    
  10caab:	90                   	nop
  10caac:	8d 74 26 00          	lea    esi,[esi+eiz*1+0x0]
  10cab0:	83 ec 0c             	sub    esp,0xc
  10cab3:	68 43 14 11 00       	push   0x111443
  10cab8:	e8 83 da ff ff       	call   10a540 <printf>
  10cabd:	83 c4 10             	add    esp,0x10
  10cac0:	85 db                	test   ebx,ebx
  10cac2:	74 64                	je     10cb28 <__ubsan_handle_type_mismatch+0xb8>
  10cac4:	f6 c3 03             	test   bl,0x3
  10cac7:	75 5f                	jne    10cb28 <__ubsan_handle_type_mismatch+0xb8>
  10cac9:	ff 33                	push   DWORD PTR [ebx]
  10cacb:	ff 73 08             	push   DWORD PTR [ebx+0x8]
  10cace:	ff 73 04             	push   DWORD PTR [ebx+0x4]
  10cad1:	68 26 14 11 00       	push   0x111426
  10cad6:	e8 c5 ed ff ff       	call   10b8a0 <perror>
  10cadb:	83 c4 10             	add    esp,0x10
  10cade:	5b                   	pop    ebx
  10cadf:	5e                   	pop    esi
  10cae0:	5f                   	pop    edi
  10cae1:	c3                   	ret    
  10cae2:	8d b4 26 00 00 00 00 	lea    esi,[esi+eiz*1+0x0]
  10cae9:	8d bc 27 00 00 00 00 	lea    edi,[edi+eiz*1+0x0]
  10caf0:	83 ec 08             	sub    esp,0x8
  10caf3:	68 b4 10 11 00       	push   0x1110b4
  10caf8:	68 58 14 11 00       	push   0x111458
  10cafd:	e8 3e da ff ff       	call   10a540 <printf>
  10cb02:	c7 04 24 74 14 11 00 	mov    DWORD PTR [esp],0x111474
  10cb09:	e8 32 da ff ff       	call   10a540 <printf>
  10cb0e:	83 c4 10             	add    esp,0x10
  10cb11:	eb ad                	jmp    10cac0 <__ubsan_handle_type_mismatch+0x50>
  10cb13:	52                   	push   edx
  10cb14:	52                   	push   edx
  10cb15:	53                   	push   ebx
  10cb16:	68 7c 6c 11 00       	push   0x116c7c
  10cb1b:	e8 50 ff ff ff       	call   10ca70 <__ubsan_handle_type_mismatch>
  10cb20:	83 c4 10             	add    esp,0x10
  10cb23:	e9 78 ff ff ff       	jmp    10caa0 <__ubsan_handle_type_mismatch+0x30>
  10cb28:	50                   	push   eax
  10cb29:	50                   	push   eax
  10cb2a:	53                   	push   ebx
  10cb2b:	68 64 6c 11 00       	push   0x116c64
  10cb30:	e8 3b ff ff ff       	call   10ca70 <__ubsan_handle_type_mismatch>
  10cb35:	83 c4 10             	add    esp,0x10
  10cb38:	eb 8f                	jmp    10cac9 <__ubsan_handle_type_mismatch+0x59>
  10cb3a:	51                   	push   ecx
  10cb3b:	51                   	push   ecx
  10cb3c:	53                   	push   ebx
  10cb3d:	68 94 6c 11 00       	push   0x116c94
  10cb42:	e8 29 ff ff ff       	call   10ca70 <__ubsan_handle_type_mismatch>
  10cb47:	83 c4 10             	add    esp,0x10
  10cb4a:	e9 41 ff ff ff       	jmp    10ca90 <__ubsan_handle_type_mismatch+0x20>
  10cb4f:	90                   	nop

0010cb50 <__ubsan_handle_add_overflow>:
  10cb50:	53                   	push   ebx
  10cb51:	83 ec 10             	sub    esp,0x10
  10cb54:	8b 5c 24 18          	mov    ebx,DWORD PTR [esp+0x18]
  10cb58:	68 b4 10 11 00       	push   0x1110b4
  10cb5d:	68 8d 14 11 00       	push   0x11148d
  10cb62:	e8 d9 d9 ff ff       	call   10a540 <printf>
  10cb67:	83 c4 10             	add    esp,0x10
  10cb6a:	85 db                	test   ebx,ebx
  10cb6c:	74 1c                	je     10cb8a <__ubsan_handle_add_overflow+0x3a>
  10cb6e:	f6 c3 03             	test   bl,0x3
  10cb71:	75 17                	jne    10cb8a <__ubsan_handle_add_overflow+0x3a>
  10cb73:	ff 33                	push   DWORD PTR [ebx]
  10cb75:	ff 73 08             	push   DWORD PTR [ebx+0x8]
  10cb78:	ff 73 04             	push   DWORD PTR [ebx+0x4]
  10cb7b:	68 26 14 11 00       	push   0x111426
  10cb80:	e8 1b ed ff ff       	call   10b8a0 <perror>
  10cb85:	83 c4 18             	add    esp,0x18
  10cb88:	5b                   	pop    ebx
  10cb89:	c3                   	ret    
  10cb8a:	50                   	push   eax
  10cb8b:	50                   	push   eax
  10cb8c:	53                   	push   ebx
  10cb8d:	68 2c 6c 11 00       	push   0x116c2c
  10cb92:	e8 d9 fe ff ff       	call   10ca70 <__ubsan_handle_type_mismatch>
  10cb97:	83 c4 10             	add    esp,0x10
  10cb9a:	eb d7                	jmp    10cb73 <__ubsan_handle_add_overflow+0x23>
  10cb9c:	8d 74 26 00          	lea    esi,[esi+eiz*1+0x0]

0010cba0 <__ubsan_handle_sub_overflow>:
  10cba0:	53                   	push   ebx
  10cba1:	83 ec 10             	sub    esp,0x10
  10cba4:	8b 5c 24 18          	mov    ebx,DWORD PTR [esp+0x18]
  10cba8:	68 b4 10 11 00       	push   0x1110b4
  10cbad:	68 a8 14 11 00       	push   0x1114a8
  10cbb2:	e8 89 d9 ff ff       	call   10a540 <printf>
  10cbb7:	83 c4 10             	add    esp,0x10
  10cbba:	85 db                	test   ebx,ebx
  10cbbc:	74 1c                	je     10cbda <__ubsan_handle_sub_overflow+0x3a>
  10cbbe:	f6 c3 03             	test   bl,0x3
  10cbc1:	75 17                	jne    10cbda <__ubsan_handle_sub_overflow+0x3a>
  10cbc3:	ff 33                	push   DWORD PTR [ebx]
  10cbc5:	ff 73 08             	push   DWORD PTR [ebx+0x8]
  10cbc8:	ff 73 04             	push   DWORD PTR [ebx+0x4]
  10cbcb:	68 26 14 11 00       	push   0x111426
  10cbd0:	e8 cb ec ff ff       	call   10b8a0 <perror>
  10cbd5:	83 c4 18             	add    esp,0x18
  10cbd8:	5b                   	pop    ebx
  10cbd9:	c3                   	ret    
  10cbda:	50                   	push   eax
  10cbdb:	50                   	push   eax
  10cbdc:	53                   	push   ebx
  10cbdd:	68 14 6c 11 00       	push   0x116c14
  10cbe2:	e8 89 fe ff ff       	call   10ca70 <__ubsan_handle_type_mismatch>
  10cbe7:	83 c4 10             	add    esp,0x10
  10cbea:	eb d7                	jmp    10cbc3 <__ubsan_handle_sub_overflow+0x23>
  10cbec:	8d 74 26 00          	lea    esi,[esi+eiz*1+0x0]

0010cbf0 <__ubsan_handle_mul_overflow>:
  10cbf0:	53                   	push   ebx
  10cbf1:	83 ec 10             	sub    esp,0x10
  10cbf4:	8b 5c 24 18          	mov    ebx,DWORD PTR [esp+0x18]
  10cbf8:	68 b4 10 11 00       	push   0x1110b4
  10cbfd:	68 c3 14 11 00       	push   0x1114c3
  10cc02:	e8 39 d9 ff ff       	call   10a540 <printf>
  10cc07:	83 c4 10             	add    esp,0x10
  10cc0a:	85 db                	test   ebx,ebx
  10cc0c:	74 1c                	je     10cc2a <__ubsan_handle_mul_overflow+0x3a>
  10cc0e:	f6 c3 03             	test   bl,0x3
  10cc11:	75 17                	jne    10cc2a <__ubsan_handle_mul_overflow+0x3a>
  10cc13:	ff 33                	push   DWORD PTR [ebx]
  10cc15:	ff 73 08             	push   DWORD PTR [ebx+0x8]
  10cc18:	ff 73 04             	push   DWORD PTR [ebx+0x4]
  10cc1b:	68 26 14 11 00       	push   0x111426
  10cc20:	e8 7b ec ff ff       	call   10b8a0 <perror>
  10cc25:	83 c4 18             	add    esp,0x18
  10cc28:	5b                   	pop    ebx
  10cc29:	c3                   	ret    
  10cc2a:	50                   	push   eax
  10cc2b:	50                   	push   eax
  10cc2c:	53                   	push   ebx
  10cc2d:	68 fc 6b 11 00       	push   0x116bfc
  10cc32:	e8 39 fe ff ff       	call   10ca70 <__ubsan_handle_type_mismatch>
  10cc37:	83 c4 10             	add    esp,0x10
  10cc3a:	eb d7                	jmp    10cc13 <__ubsan_handle_mul_overflow+0x23>
  10cc3c:	8d 74 26 00          	lea    esi,[esi+eiz*1+0x0]

0010cc40 <__ubsan_handle_negate_overflow>:
  10cc40:	53                   	push   ebx
  10cc41:	83 ec 10             	sub    esp,0x10
  10cc44:	8b 5c 24 18          	mov    ebx,DWORD PTR [esp+0x18]
  10cc48:	68 b4 10 11 00       	push   0x1110b4
  10cc4d:	68 de 14 11 00       	push   0x1114de
  10cc52:	e8 e9 d8 ff ff       	call   10a540 <printf>
  10cc57:	83 c4 10             	add    esp,0x10
  10cc5a:	85 db                	test   ebx,ebx
  10cc5c:	74 1c                	je     10cc7a <__ubsan_handle_negate_overflow+0x3a>
  10cc5e:	f6 c3 03             	test   bl,0x3
  10cc61:	75 17                	jne    10cc7a <__ubsan_handle_negate_overflow+0x3a>
  10cc63:	ff 33                	push   DWORD PTR [ebx]
  10cc65:	ff 73 08             	push   DWORD PTR [ebx+0x8]
  10cc68:	ff 73 04             	push   DWORD PTR [ebx+0x4]
  10cc6b:	68 26 14 11 00       	push   0x111426
  10cc70:	e8 2b ec ff ff       	call   10b8a0 <perror>
  10cc75:	83 c4 18             	add    esp,0x18
  10cc78:	5b                   	pop    ebx
  10cc79:	c3                   	ret    
  10cc7a:	50                   	push   eax
  10cc7b:	50                   	push   eax
  10cc7c:	53                   	push   ebx
  10cc7d:	68 e4 6b 11 00       	push   0x116be4
  10cc82:	e8 e9 fd ff ff       	call   10ca70 <__ubsan_handle_type_mismatch>
  10cc87:	83 c4 10             	add    esp,0x10
  10cc8a:	eb d7                	jmp    10cc63 <__ubsan_handle_negate_overflow+0x23>
  10cc8c:	8d 74 26 00          	lea    esi,[esi+eiz*1+0x0]

0010cc90 <__ubsan_handle_divrem_overflow>:
  10cc90:	53                   	push   ebx
  10cc91:	83 ec 10             	sub    esp,0x10
  10cc94:	8b 5c 24 18          	mov    ebx,DWORD PTR [esp+0x18]
  10cc98:	68 b4 10 11 00       	push   0x1110b4
  10cc9d:	68 fc 14 11 00       	push   0x1114fc
  10cca2:	e8 99 d8 ff ff       	call   10a540 <printf>
  10cca7:	83 c4 10             	add    esp,0x10
  10ccaa:	85 db                	test   ebx,ebx
  10ccac:	74 1c                	je     10ccca <__ubsan_handle_divrem_overflow+0x3a>
  10ccae:	f6 c3 03             	test   bl,0x3
  10ccb1:	75 17                	jne    10ccca <__ubsan_handle_divrem_overflow+0x3a>
  10ccb3:	ff 33                	push   DWORD PTR [ebx]
  10ccb5:	ff 73 08             	push   DWORD PTR [ebx+0x8]
  10ccb8:	ff 73 04             	push   DWORD PTR [ebx+0x4]
  10ccbb:	68 26 14 11 00       	push   0x111426
  10ccc0:	e8 db eb ff ff       	call   10b8a0 <perror>
  10ccc5:	83 c4 18             	add    esp,0x18
  10ccc8:	5b                   	pop    ebx
  10ccc9:	c3                   	ret    
  10ccca:	50                   	push   eax
  10cccb:	50                   	push   eax
  10cccc:	53                   	push   ebx
  10cccd:	68 cc 6b 11 00       	push   0x116bcc
  10ccd2:	e8 99 fd ff ff       	call   10ca70 <__ubsan_handle_type_mismatch>
  10ccd7:	83 c4 10             	add    esp,0x10
  10ccda:	eb d7                	jmp    10ccb3 <__ubsan_handle_divrem_overflow+0x23>
  10ccdc:	8d 74 26 00          	lea    esi,[esi+eiz*1+0x0]

0010cce0 <__ubsan_handle_missing_return>:
  10cce0:	53                   	push   ebx
  10cce1:	83 ec 10             	sub    esp,0x10
  10cce4:	8b 5c 24 18          	mov    ebx,DWORD PTR [esp+0x18]
  10cce8:	68 b4 10 11 00       	push   0x1110b4
  10cced:	68 1a 15 11 00       	push   0x11151a
  10ccf2:	e8 49 d8 ff ff       	call   10a540 <printf>
  10ccf7:	83 c4 10             	add    esp,0x10
  10ccfa:	85 db                	test   ebx,ebx
  10ccfc:	74 1c                	je     10cd1a <__ubsan_handle_missing_return+0x3a>
  10ccfe:	f6 c3 03             	test   bl,0x3
  10cd01:	75 17                	jne    10cd1a <__ubsan_handle_missing_return+0x3a>
  10cd03:	ff 33                	push   DWORD PTR [ebx]
  10cd05:	ff 73 08             	push   DWORD PTR [ebx+0x8]
  10cd08:	ff 73 04             	push   DWORD PTR [ebx+0x4]
  10cd0b:	68 26 14 11 00       	push   0x111426
  10cd10:	e8 8b eb ff ff       	call   10b8a0 <perror>
  10cd15:	83 c4 18             	add    esp,0x18
  10cd18:	5b                   	pop    ebx
  10cd19:	c3                   	ret    
  10cd1a:	50                   	push   eax
  10cd1b:	50                   	push   eax
  10cd1c:	53                   	push   ebx
  10cd1d:	68 8c 6b 11 00       	push   0x116b8c
  10cd22:	e8 49 fd ff ff       	call   10ca70 <__ubsan_handle_type_mismatch>
  10cd27:	83 c4 10             	add    esp,0x10
  10cd2a:	eb d7                	jmp    10cd03 <__ubsan_handle_missing_return+0x23>
  10cd2c:	8d 74 26 00          	lea    esi,[esi+eiz*1+0x0]

0010cd30 <__ubsan_handle_load_invalid_value>:
  10cd30:	53                   	push   ebx
  10cd31:	83 ec 10             	sub    esp,0x10
  10cd34:	8b 5c 24 18          	mov    ebx,DWORD PTR [esp+0x18]
  10cd38:	68 b4 10 11 00       	push   0x1110b4
  10cd3d:	68 37 15 11 00       	push   0x111537
  10cd42:	e8 f9 d7 ff ff       	call   10a540 <printf>
  10cd47:	83 c4 10             	add    esp,0x10
  10cd4a:	85 db                	test   ebx,ebx
  10cd4c:	74 1c                	je     10cd6a <__ubsan_handle_load_invalid_value+0x3a>
  10cd4e:	f6 c3 03             	test   bl,0x3
  10cd51:	75 17                	jne    10cd6a <__ubsan_handle_load_invalid_value+0x3a>
  10cd53:	ff 33                	push   DWORD PTR [ebx]
  10cd55:	ff 73 08             	push   DWORD PTR [ebx+0x8]
  10cd58:	ff 73 04             	push   DWORD PTR [ebx+0x4]
  10cd5b:	68 26 14 11 00       	push   0x111426
  10cd60:	e8 3b eb ff ff       	call   10b8a0 <perror>
  10cd65:	83 c4 18             	add    esp,0x18
  10cd68:	5b                   	pop    ebx
  10cd69:	c3                   	ret    
  10cd6a:	50                   	push   eax
  10cd6b:	50                   	push   eax
  10cd6c:	53                   	push   ebx
  10cd6d:	68 50 6b 11 00       	push   0x116b50
  10cd72:	e8 f9 fc ff ff       	call   10ca70 <__ubsan_handle_type_mismatch>
  10cd77:	83 c4 10             	add    esp,0x10
  10cd7a:	eb d7                	jmp    10cd53 <__ubsan_handle_load_invalid_value+0x23>
  10cd7c:	8d 74 26 00          	lea    esi,[esi+eiz*1+0x0]

0010cd80 <__ubsan_handle_shift_out_of_bounds>:
  10cd80:	53                   	push   ebx
  10cd81:	83 ec 10             	sub    esp,0x10
  10cd84:	8b 5c 24 18          	mov    ebx,DWORD PTR [esp+0x18]
  10cd88:	68 b4 10 11 00       	push   0x1110b4
  10cd8d:	68 3c 18 11 00       	push   0x11183c
  10cd92:	e8 a9 d7 ff ff       	call   10a540 <printf>
  10cd97:	83 c4 10             	add    esp,0x10
  10cd9a:	85 db                	test   ebx,ebx
  10cd9c:	74 1c                	je     10cdba <__ubsan_handle_shift_out_of_bounds+0x3a>
  10cd9e:	f6 c3 03             	test   bl,0x3
  10cda1:	75 17                	jne    10cdba <__ubsan_handle_shift_out_of_bounds+0x3a>
  10cda3:	ff 33                	push   DWORD PTR [ebx]
  10cda5:	ff 73 08             	push   DWORD PTR [ebx+0x8]
  10cda8:	ff 73 04             	push   DWORD PTR [ebx+0x4]
  10cdab:	68 26 14 11 00       	push   0x111426
  10cdb0:	e8 eb ea ff ff       	call   10b8a0 <perror>
  10cdb5:	83 c4 18             	add    esp,0x18
  10cdb8:	5b                   	pop    ebx
  10cdb9:	c3                   	ret    
  10cdba:	50                   	push   eax
  10cdbb:	50                   	push   eax
  10cdbc:	53                   	push   ebx
  10cdbd:	68 10 6b 11 00       	push   0x116b10
  10cdc2:	e8 a9 fc ff ff       	call   10ca70 <__ubsan_handle_type_mismatch>
  10cdc7:	83 c4 10             	add    esp,0x10
  10cdca:	eb d7                	jmp    10cda3 <__ubsan_handle_shift_out_of_bounds+0x23>
  10cdcc:	8d 74 26 00          	lea    esi,[esi+eiz*1+0x0]

0010cdd0 <__ubsan_handle_vla_bound_not_positive>:
  10cdd0:	53                   	push   ebx
  10cdd1:	83 ec 10             	sub    esp,0x10
  10cdd4:	8b 5c 24 18          	mov    ebx,DWORD PTR [esp+0x18]
  10cdd8:	68 b4 10 11 00       	push   0x1110b4
  10cddd:	68 60 18 11 00       	push   0x111860
  10cde2:	e8 59 d7 ff ff       	call   10a540 <printf>
  10cde7:	83 c4 10             	add    esp,0x10
  10cdea:	85 db                	test   ebx,ebx
  10cdec:	74 1c                	je     10ce0a <__ubsan_handle_vla_bound_not_positive+0x3a>
  10cdee:	f6 c3 03             	test   bl,0x3
  10cdf1:	75 17                	jne    10ce0a <__ubsan_handle_vla_bound_not_positive+0x3a>
  10cdf3:	ff 33                	push   DWORD PTR [ebx]
  10cdf5:	ff 73 08             	push   DWORD PTR [ebx+0x8]
  10cdf8:	ff 73 04             	push   DWORD PTR [ebx+0x4]
  10cdfb:	68 26 14 11 00       	push   0x111426
  10ce00:	e8 9b ea ff ff       	call   10b8a0 <perror>
  10ce05:	83 c4 18             	add    esp,0x18
  10ce08:	5b                   	pop    ebx
  10ce09:	c3                   	ret    
  10ce0a:	50                   	push   eax
  10ce0b:	50                   	push   eax
  10ce0c:	53                   	push   ebx
  10ce0d:	68 d4 6a 11 00       	push   0x116ad4
  10ce12:	e8 59 fc ff ff       	call   10ca70 <__ubsan_handle_type_mismatch>
  10ce17:	83 c4 10             	add    esp,0x10
  10ce1a:	eb d7                	jmp    10cdf3 <__ubsan_handle_vla_bound_not_positive+0x23>

Disassembly of section .text.startup:

0010ce20 <_ZN2os6kernel4mainEv>:
  10ce20:	83 ec 14             	sub    esp,0x14
  10ce23:	68 74 10 11 00       	push   0x111074
  10ce28:	68 6d 13 11 00       	push   0x11136d
  10ce2d:	e8 0e d7 ff ff       	call   10a540 <printf>
  10ce32:	83 c4 10             	add    esp,0x10
  10ce35:	eb fe                	jmp    10ce35 <_ZN2os6kernel4mainEv+0x15>
