
bin/kernel.bin:     file format elf32-i386
bin/kernel.bin
architecture: i386, flags 0x00000112:
EXEC_P, HAS_SYMS, D_PAGED
start address 0x00100030

SYMBOL TABLE:
00100000 l    d  .text	00000000 .text
00104e80 l    d  .text.startup	00000000 .text.startup
00105000 l    d  .rodata	00000000 .rodata
00105014 l    d  .eh_frame	00000000 .eh_frame
00107344 l    d  .rodata.str1.1	00000000 .rodata.str1.1
001075bc l    d  .rodata.str1.4	00000000 .rodata.str1.4
00107654 l    d  .rodata.cst4	00000000 .rodata.cst4
00108000 l    d  .data	00000000 .data
0010a000 l    d  .bss	00000000 .bss
00000000 l    df *ABS*	00000000 kernel/src/asm/boot.asm
00000001 l       *ABS*	00000000 MBOOT_PAGE_ALIGN
00000002 l       *ABS*	00000000 MBOOT_MEM_INFO
00000004 l       *ABS*	00000000 MBOOT_VID_INFO
1badb002 l       *ABS*	00000000 MBOOT_HEADER_MAGIC
00000007 l       *ABS*	00000000 MBOOT_HEADER_FLAGS
e4524ff7 l       *ABS*	00000000 MBOOT_CHECKSUM
00000000 l    df *ABS*	00000000 ctype.cpp
00000000 l    df *ABS*	00000000 debug.cpp
00000000 l    df *ABS*	00000000 kernel.cpp
00000000 l    df *ABS*	00000000 math.cpp
00000000 l    df *ABS*	00000000 serial.cpp
00000000 l    df *ABS*	00000000 stdio.cpp
00000000 l    df *ABS*	00000000 stdlib.cpp
00105000 l     O .rodata	00000011 _ZL10HEX_VALUES
00000000 l    df *ABS*	00000000 string.cpp
00000000 l    df *ABS*	00000000 ubsan.cpp
00104ad0 g     F .text	000000df __ubsan_handle_type_mismatch
001040e0 g     F .text	000000cf strcpy
00102360 g     F .text	00000015 _ZN2os3hal17serial_controller9print_fmtEPcz
001025a0 g     F .text	00000015 printf
001007b0 g     F .text	0000002d _ZN2os3hal17serial_controller3endEv
00104bb0 g     F .text	0000004c __ubsan_handle_add_overflow
00104370 g     F .text	00000403 strsplit
00100250 g     F .text	0000008d _ZN2os6kernel4bootEv
001038f0 g     F .text	0000000d strerror
00102b30 g     F .text	000000ce _itoa_rev
00103b30 g     F .text	00000003 memmove
001027c0 g     F .text	000001b6 atol
00104950 g     F .text	000000aa strlower
00100380 g     F .text	0000005e ceil
001003e0 g     F .text	000000e8 floor
001007e0 g     F .text	00000167 _ZN2os3hal17serial_controller4readEv
0018a020 g     O .bss	00000060 _ZN2os6kernel9multibootE
00103a70 g     F .text	00000053 memcpy
00102eb0 g     F .text	000002f2 _ultoa
00103900 g     F .text	00000034 perror
00108000 g       .data	00000000 start_ctors
001000f0 g     F .text	00000011 islower
001001d0 g     F .text	00000011 tolower
001038e0 g     F .text	00000003 system
00102980 g     F .text	0000011c atox
001025c0 g     F .text	00000003 malloc
00100550 g     F .text	00000254 _ZN2os3hal17serial_controller5beginENS0_11serial_portE
00104e30 g     F .text	0000004c __ubsan_handle_vla_bound_not_positive
00102c00 g     F .text	000002a4 itoa
00100130 g     F .text	0000002e ispunct
00100e80 g     F .text	000001d7 _ZN2os3hal17serial_controller7printlnEPc
0018a002 g     O .bss	00000002 _ZN2os3sys5debug6serialE
00100160 g     F .text	0000001b isspace
001042f0 g     F .text	00000080 stradd
00100210 g     F .text	0000003d _ZN2os3sys5debug4initENS_3hal11serial_portE
001001a0 g     F .text	00000026 isxdigit
0018b000 g       .bss	00000000 _kernel_end
001042a0 g     F .text	00000003 strrchr
001002e0 g     F .text	00000036 kernel_main
00104a80 g     F .text	0000004c __ubsan_handle_out_of_bounds
0018a000 g       .bss	00000000 _stack_top
001023c0 g     F .text	00000032 _ZN2os3hal17serial_controller8has_recvEv
00102aa0 g     F .text	00000003 atof
00104780 g     F .text	00000119 strwhite
00103b40 g     F .text	00000172 strcat
00102550 g     F .text	00000047 vprintf
00100000 g       .text	00000000 _mboot
00104ca0 g     F .text	0000004c __ubsan_handle_negate_overflow
00103940 g     F .text	0000006a memchr
00100030 g       .text	00000000 _start
001042c0 g     F .text	00000003 strstr
00102ab0 g     F .text	00000003 rand
00104e80 g     F .text.startup	00000017 _ZN2os6kernel4mainEv
00100180 g     F .text	00000011 isupper
00103f90 g     F .text	0000014f strncmp
001004d0 g     F .text	00000078 pow
001041b0 g     F .text	0000007d strncpy
00102ad0 g     F .text	00000054 _itoa_swap
00104c50 g     F .text	0000004c __ubsan_handle_mul_overflow
001042d0 g     F .text	00000003 strtok
001039b0 g     F .text	000000b4 memcmp
001025f0 g     F .text	00000002 freearray
00100070 g     F .text	00000014 isalpha
00102400 g     F .text	000000b6 _ZN2os3hal17serial_controller8validateEv
00103cc0 g     F .text	0000012c strncat
00104cf0 g     F .text	0000004c __ubsan_handle_divrem_overflow
001025d0 g     F .text	00000003 tmalloc
00104d40 g     F .text	0000004c __ubsan_handle_missing_return
00108000 g       .data	00000000 end_ctors
00103ad0 g     F .text	00000052 memset
0018a000 g     O .bss	00000001 _ZN2os3sys5debug14stdout_enabledE
00104a00 g     F .text	00000079 strback
001042e0 g     F .text	00000003 strxfrm
001000d0 g     F .text	00000011 isgraph
00100040 g     F .text	00000026 isalnum
00100110 g     F .text	0000001c isprint
00103e50 g     F .text	00000131 strcmp
00104230 g     F .text	00000003 strcspn
00104de0 g     F .text	0000004c __ubsan_handle_shift_out_of_bounds
001031b0 g     F .text	0000001d ltoa
00102380 g     F .text	00000035 _ZN2os3hal17serial_controller8can_sendEv
00104c00 g     F .text	0000004c __ubsan_handle_sub_overflow
0010a000 g       .bss	00000000 _stack_bottom
001000b0 g     F .text	00000011 isdigit
001031d0 g     F .text	00000709 strhex
00102ac0 g     F .text	00000002 exit
001048a0 g     F .text	000000aa strupper
00102600 g     F .text	000001b6 atoi
00100090 g     F .text	00000016 iscntrl
00100360 g     F .text	00000017 clamp
00102520 g     F .text	0000002b _ZN2os3hal17serial_controller4portEv
001042b0 g     F .text	00000003 strspn
00104d90 g     F .text	0000004c __ubsan_handle_load_invalid_value
00104240 g     F .text	00000042 strlen
00100000 g       .text	00000000 _kernel_start
001001f0 g     F .text	00000011 toupper
00100320 g     F .text	00000032 abs
001024c0 g     F .text	00000056 _ZN2os3hal17serial_controller7portstrENS0_11serial_portE
00103df0 g     F .text	00000052 strchr
00100950 g     F .text	00000183 _ZN2os3hal17serial_controller5writeEc
00101060 g     F .text	000012f3 _ZN2os3hal17serial_controller10vprint_fmtEPcS2_
00100ae0 g     F .text	0000039e _ZN2os3hal17serial_controller5printEPc
00104290 g     F .text	00000003 strpbrk
001025e0 g     F .text	00000002 free



Disassembly of section .text:

00100000 <_kernel_start>:
  100000:	02 b0 ad 1b 07 00    	add    dh,BYTE PTR [eax+0x71bad]
  100006:	00 00                	add    BYTE PTR [eax],al
  100008:	f7 4f 52 e4 00 00 10 	test   DWORD PTR [edi+0x52],0x100000e4
	...
  10001b:	00 30                	add    BYTE PTR [eax],dh
  10001d:	00 10                	add    BYTE PTR [eax],dl
  10001f:	00 00                	add    BYTE PTR [eax],al
  100021:	00 00                	add    BYTE PTR [eax],al
  100023:	00 80 02 00 00 e0    	add    BYTE PTR [eax-0x1ffffffe],al
  100029:	01 00                	add    DWORD PTR [eax],eax
  10002b:	00 20                	add    BYTE PTR [eax],ah
  10002d:	00 00                	add    BYTE PTR [eax],al
	...

00100030 <_start>:
  100030:	fa                   	cli    
  100031:	bd 00 a0 18 00       	mov    ebp,0x18a000
  100036:	89 ec                	mov    esp,ebp
  100038:	53                   	push   ebx
  100039:	e8 a2 02 00 00       	call   1002e0 <kernel_main>
  10003e:	fa                   	cli    
  10003f:	f4                   	hlt    

00100040 <isalnum>:
  100040:	8b 54 24 04          	mov    edx,DWORD PTR [esp+0x4]
  100044:	b8 01 00 00 00       	mov    eax,0x1
  100049:	83 e2 df             	and    edx,0xffffffdf
  10004c:	83 ea 41             	sub    edx,0x41
  10004f:	83 fa 19             	cmp    edx,0x19
  100052:	76 10                	jbe    100064 <isalnum+0x24>
  100054:	8b 44 24 04          	mov    eax,DWORD PTR [esp+0x4]
  100058:	83 e8 30             	sub    eax,0x30
  10005b:	83 f8 09             	cmp    eax,0x9
  10005e:	0f 96 c0             	setbe  al
  100061:	0f b6 c0             	movzx  eax,al
  100064:	f3 c3                	repz ret 
  100066:	8d 76 00             	lea    esi,[esi+0x0]
  100069:	8d bc 27 00 00 00 00 	lea    edi,[edi+eiz*1+0x0]

00100070 <isalpha>:
  100070:	8b 44 24 04          	mov    eax,DWORD PTR [esp+0x4]
  100074:	83 e0 df             	and    eax,0xffffffdf
  100077:	83 e8 41             	sub    eax,0x41
  10007a:	83 f8 19             	cmp    eax,0x19
  10007d:	0f 96 c0             	setbe  al
  100080:	0f b6 c0             	movzx  eax,al
  100083:	c3                   	ret    
  100084:	8d b6 00 00 00 00    	lea    esi,[esi+0x0]
  10008a:	8d bf 00 00 00 00    	lea    edi,[edi+0x0]

00100090 <iscntrl>:
  100090:	8b 54 24 04          	mov    edx,DWORD PTR [esp+0x4]
  100094:	83 fa 7f             	cmp    edx,0x7f
  100097:	0f 94 c0             	sete   al
  10009a:	83 fa 1f             	cmp    edx,0x1f
  10009d:	0f 9e c2             	setle  dl
  1000a0:	09 d0                	or     eax,edx
  1000a2:	0f b6 c0             	movzx  eax,al
  1000a5:	c3                   	ret    
  1000a6:	8d 76 00             	lea    esi,[esi+0x0]
  1000a9:	8d bc 27 00 00 00 00 	lea    edi,[edi+eiz*1+0x0]

001000b0 <isdigit>:
  1000b0:	8b 44 24 04          	mov    eax,DWORD PTR [esp+0x4]
  1000b4:	83 e8 30             	sub    eax,0x30
  1000b7:	83 f8 09             	cmp    eax,0x9
  1000ba:	0f 96 c0             	setbe  al
  1000bd:	0f b6 c0             	movzx  eax,al
  1000c0:	c3                   	ret    
  1000c1:	eb 0d                	jmp    1000d0 <isgraph>
  1000c3:	90                   	nop
  1000c4:	90                   	nop
  1000c5:	90                   	nop
  1000c6:	90                   	nop
  1000c7:	90                   	nop
  1000c8:	90                   	nop
  1000c9:	90                   	nop
  1000ca:	90                   	nop
  1000cb:	90                   	nop
  1000cc:	90                   	nop
  1000cd:	90                   	nop
  1000ce:	90                   	nop
  1000cf:	90                   	nop

001000d0 <isgraph>:
  1000d0:	8b 44 24 04          	mov    eax,DWORD PTR [esp+0x4]
  1000d4:	83 e8 21             	sub    eax,0x21
  1000d7:	83 f8 5d             	cmp    eax,0x5d
  1000da:	0f 96 c0             	setbe  al
  1000dd:	0f b6 c0             	movzx  eax,al
  1000e0:	c3                   	ret    
  1000e1:	eb 0d                	jmp    1000f0 <islower>
  1000e3:	90                   	nop
  1000e4:	90                   	nop
  1000e5:	90                   	nop
  1000e6:	90                   	nop
  1000e7:	90                   	nop
  1000e8:	90                   	nop
  1000e9:	90                   	nop
  1000ea:	90                   	nop
  1000eb:	90                   	nop
  1000ec:	90                   	nop
  1000ed:	90                   	nop
  1000ee:	90                   	nop
  1000ef:	90                   	nop

001000f0 <islower>:
  1000f0:	8b 44 24 04          	mov    eax,DWORD PTR [esp+0x4]
  1000f4:	83 e8 61             	sub    eax,0x61
  1000f7:	83 f8 19             	cmp    eax,0x19
  1000fa:	0f 96 c0             	setbe  al
  1000fd:	0f b6 c0             	movzx  eax,al
  100100:	c3                   	ret    
  100101:	eb 0d                	jmp    100110 <isprint>
  100103:	90                   	nop
  100104:	90                   	nop
  100105:	90                   	nop
  100106:	90                   	nop
  100107:	90                   	nop
  100108:	90                   	nop
  100109:	90                   	nop
  10010a:	90                   	nop
  10010b:	90                   	nop
  10010c:	90                   	nop
  10010d:	90                   	nop
  10010e:	90                   	nop
  10010f:	90                   	nop

00100110 <isprint>:
  100110:	8b 54 24 04          	mov    edx,DWORD PTR [esp+0x4]
  100114:	52                   	push   edx
  100115:	e8 b6 ff ff ff       	call   1000d0 <isgraph>
  10011a:	83 fa 20             	cmp    edx,0x20
  10011d:	0f 94 c2             	sete   dl
  100120:	85 c0                	test   eax,eax
  100122:	0f 95 c0             	setne  al
  100125:	09 d0                	or     eax,edx
  100127:	59                   	pop    ecx
  100128:	0f b6 c0             	movzx  eax,al
  10012b:	c3                   	ret    
  10012c:	8d 74 26 00          	lea    esi,[esi+eiz*1+0x0]

00100130 <ispunct>:
  100130:	8b 54 24 04          	mov    edx,DWORD PTR [esp+0x4]
  100134:	b8 01 00 00 00       	mov    eax,0x1
  100139:	8d 4a df             	lea    ecx,[edx-0x21]
  10013c:	83 f9 0e             	cmp    ecx,0xe
  10013f:	76 1b                	jbe    10015c <ispunct+0x2c>
  100141:	8d 4a c6             	lea    ecx,[edx-0x3a]
  100144:	83 f9 06             	cmp    ecx,0x6
  100147:	76 13                	jbe    10015c <ispunct+0x2c>
  100149:	8d 4a a5             	lea    ecx,[edx-0x5b]
  10014c:	83 f9 05             	cmp    ecx,0x5
  10014f:	76 0b                	jbe    10015c <ispunct+0x2c>
  100151:	83 ea 7b             	sub    edx,0x7b
  100154:	31 c0                	xor    eax,eax
  100156:	83 fa 03             	cmp    edx,0x3
  100159:	0f 96 c0             	setbe  al
  10015c:	f3 c3                	repz ret 
  10015e:	66 90                	xchg   ax,ax

00100160 <isspace>:
  100160:	8b 54 24 04          	mov    edx,DWORD PTR [esp+0x4]
  100164:	b8 01 00 00 00       	mov    eax,0x1
  100169:	83 fa 20             	cmp    edx,0x20
  10016c:	74 0b                	je     100179 <isspace+0x19>
  10016e:	83 ea 0c             	sub    edx,0xc
  100171:	31 c0                	xor    eax,eax
  100173:	83 fa 03             	cmp    edx,0x3
  100176:	0f 96 c0             	setbe  al
  100179:	f3 c3                	repz ret 
  10017b:	90                   	nop
  10017c:	8d 74 26 00          	lea    esi,[esi+eiz*1+0x0]

00100180 <isupper>:
  100180:	8b 44 24 04          	mov    eax,DWORD PTR [esp+0x4]
  100184:	83 e8 41             	sub    eax,0x41
  100187:	83 f8 19             	cmp    eax,0x19
  10018a:	0f 96 c0             	setbe  al
  10018d:	0f b6 c0             	movzx  eax,al
  100190:	c3                   	ret    
  100191:	eb 0d                	jmp    1001a0 <isxdigit>
  100193:	90                   	nop
  100194:	90                   	nop
  100195:	90                   	nop
  100196:	90                   	nop
  100197:	90                   	nop
  100198:	90                   	nop
  100199:	90                   	nop
  10019a:	90                   	nop
  10019b:	90                   	nop
  10019c:	90                   	nop
  10019d:	90                   	nop
  10019e:	90                   	nop
  10019f:	90                   	nop

001001a0 <isxdigit>:
  1001a0:	8b 54 24 04          	mov    edx,DWORD PTR [esp+0x4]
  1001a4:	b8 01 00 00 00       	mov    eax,0x1
  1001a9:	8d 4a d0             	lea    ecx,[edx-0x30]
  1001ac:	83 f9 09             	cmp    ecx,0x9
  1001af:	76 13                	jbe    1001c4 <isxdigit+0x24>
  1001b1:	8d 4a bf             	lea    ecx,[edx-0x41]
  1001b4:	83 f9 05             	cmp    ecx,0x5
  1001b7:	76 0b                	jbe    1001c4 <isxdigit+0x24>
  1001b9:	83 ea 61             	sub    edx,0x61
  1001bc:	31 c0                	xor    eax,eax
  1001be:	83 fa 04             	cmp    edx,0x4
  1001c1:	0f 96 c0             	setbe  al
  1001c4:	f3 c3                	repz ret 
  1001c6:	8d 76 00             	lea    esi,[esi+0x0]
  1001c9:	8d bc 27 00 00 00 00 	lea    edi,[edi+eiz*1+0x0]

001001d0 <tolower>:
  1001d0:	8b 54 24 04          	mov    edx,DWORD PTR [esp+0x4]
  1001d4:	8d 4a bf             	lea    ecx,[edx-0x41]
  1001d7:	8d 42 20             	lea    eax,[edx+0x20]
  1001da:	83 f9 1a             	cmp    ecx,0x1a
  1001dd:	0f 43 c2             	cmovae eax,edx
  1001e0:	c3                   	ret    
  1001e1:	eb 0d                	jmp    1001f0 <toupper>
  1001e3:	90                   	nop
  1001e4:	90                   	nop
  1001e5:	90                   	nop
  1001e6:	90                   	nop
  1001e7:	90                   	nop
  1001e8:	90                   	nop
  1001e9:	90                   	nop
  1001ea:	90                   	nop
  1001eb:	90                   	nop
  1001ec:	90                   	nop
  1001ed:	90                   	nop
  1001ee:	90                   	nop
  1001ef:	90                   	nop

001001f0 <toupper>:
  1001f0:	8b 54 24 04          	mov    edx,DWORD PTR [esp+0x4]
  1001f4:	8d 4a 9f             	lea    ecx,[edx-0x61]
  1001f7:	8d 42 e0             	lea    eax,[edx-0x20]
  1001fa:	83 f9 1a             	cmp    ecx,0x1a
  1001fd:	0f 43 c2             	cmovae eax,edx
  100200:	c3                   	ret    
  100201:	66 90                	xchg   ax,ax
  100203:	66 90                	xchg   ax,ax
  100205:	66 90                	xchg   ax,ax
  100207:	66 90                	xchg   ax,ax
  100209:	66 90                	xchg   ax,ax
  10020b:	66 90                	xchg   ax,ax
  10020d:	66 90                	xchg   ax,ax
  10020f:	90                   	nop

00100210 <_ZN2os3sys5debug4initENS_3hal11serial_portE>:
  100210:	53                   	push   ebx
  100211:	83 ec 10             	sub    esp,0x10
  100214:	c6 05 00 a0 18 00 01 	mov    BYTE PTR ds:0x18a000,0x1
  10021b:	8b 5c 24 18          	mov    ebx,DWORD PTR [esp+0x18]
  10021f:	53                   	push   ebx
  100220:	68 02 a0 18 00       	push   0x18a002
  100225:	e8 26 03 00 00       	call   100550 <_ZN2os3hal17serial_controller5beginENS0_11serial_portE>
  10022a:	66 89 1c 24          	mov    WORD PTR [esp],bx
  10022e:	e8 8d 22 00 00       	call   1024c0 <_ZN2os3hal17serial_controller7portstrENS0_11serial_portE>
  100233:	50                   	push   eax
  100234:	68 44 73 10 00       	push   0x107344
  100239:	68 bc 75 10 00       	push   0x1075bc
  10023e:	68 02 a0 18 00       	push   0x18a002
  100243:	e8 18 21 00 00       	call   102360 <_ZN2os3hal17serial_controller9print_fmtEPcz>
  100248:	83 c4 28             	add    esp,0x28
  10024b:	5b                   	pop    ebx
  10024c:	c3                   	ret    
  10024d:	66 90                	xchg   ax,ax
  10024f:	90                   	nop

00100250 <_ZN2os6kernel4bootEv>:
  100250:	53                   	push   ebx
  100251:	83 ec 14             	sub    esp,0x14
  100254:	68 f8 03 00 00       	push   0x3f8
  100259:	e8 b2 ff ff ff       	call   100210 <_ZN2os3sys5debug4initENS_3hal11serial_portE>
  10025e:	c7 04 24 56 73 10 00 	mov    DWORD PTR [esp],0x107356
  100265:	e8 36 23 00 00       	call   1025a0 <printf>
  10026a:	5a                   	pop    edx
  10026b:	59                   	pop    ecx
  10026c:	ff 35 60 a0 18 00    	push   DWORD PTR ds:0x18a060
  100272:	68 69 73 10 00       	push   0x107369
  100277:	e8 24 23 00 00       	call   1025a0 <printf>
  10027c:	5b                   	pop    ebx
  10027d:	58                   	pop    eax
  10027e:	ff 35 38 a0 18 00    	push   DWORD PTR ds:0x18a038
  100284:	68 80 73 10 00       	push   0x107380
  100289:	bb 00 00 00 fd       	mov    ebx,0xfd000000
  10028e:	e8 0d 23 00 00       	call   1025a0 <printf>
  100293:	58                   	pop    eax
  100294:	5a                   	pop    edx
  100295:	ff 35 34 a0 18 00    	push   DWORD PTR ds:0x18a034
  10029b:	68 9a 73 10 00       	push   0x10739a
  1002a0:	e8 fb 22 00 00       	call   1025a0 <printf>
  1002a5:	83 c4 10             	add    esp,0x10
  1002a8:	90                   	nop
  1002a9:	8d b4 26 00 00 00 00 	lea    esi,[esi+eiz*1+0x0]
  1002b0:	85 db                	test   ebx,ebx
  1002b2:	74 16                	je     1002ca <_ZN2os6kernel4bootEv+0x7a>
  1002b4:	c7 03 7f 7f 00 ff    	mov    DWORD PTR [ebx],0xff007f7f
  1002ba:	83 c3 04             	add    ebx,0x4
  1002bd:	81 fb 00 c0 12 fd    	cmp    ebx,0xfd12c000
  1002c3:	75 eb                	jne    1002b0 <_ZN2os6kernel4bootEv+0x60>
  1002c5:	83 c4 08             	add    esp,0x8
  1002c8:	5b                   	pop    ebx
  1002c9:	c3                   	ret    
  1002ca:	50                   	push   eax
  1002cb:	50                   	push   eax
  1002cc:	6a 00                	push   0x0
  1002ce:	68 38 80 10 00       	push   0x108038
  1002d3:	e8 f8 47 00 00       	call   104ad0 <__ubsan_handle_type_mismatch>
  1002d8:	83 c4 10             	add    esp,0x10
  1002db:	eb d7                	jmp    1002b4 <_ZN2os6kernel4bootEv+0x64>
  1002dd:	8d 76 00             	lea    esi,[esi+0x0]

001002e0 <kernel_main>:
  1002e0:	57                   	push   edi
  1002e1:	56                   	push   esi
  1002e2:	83 ec 04             	sub    esp,0x4
  1002e5:	8b 74 24 10          	mov    esi,DWORD PTR [esp+0x10]
  1002e9:	85 f6                	test   esi,esi
  1002eb:	74 16                	je     100303 <kernel_main+0x23>
  1002ed:	bf 20 a0 18 00       	mov    edi,0x18a020
  1002f2:	b9 18 00 00 00       	mov    ecx,0x18
  1002f7:	f3 a5                	rep movs DWORD PTR es:[edi],DWORD PTR ds:[esi]
  1002f9:	e8 52 ff ff ff       	call   100250 <_ZN2os6kernel4bootEv>
  1002fe:	e8 7d 4b 00 00       	call   104e80 <_ZN2os6kernel4mainEv>
  100303:	50                   	push   eax
  100304:	50                   	push   eax
  100305:	6a 00                	push   0x0
  100307:	68 00 80 10 00       	push   0x108000
  10030c:	e8 bf 47 00 00       	call   104ad0 <__ubsan_handle_type_mismatch>
  100311:	83 c4 10             	add    esp,0x10
  100314:	eb d7                	jmp    1002ed <kernel_main+0xd>
  100316:	66 90                	xchg   ax,ax
  100318:	66 90                	xchg   ax,ax
  10031a:	66 90                	xchg   ax,ax
  10031c:	66 90                	xchg   ax,ax
  10031e:	66 90                	xchg   ax,ax

00100320 <abs>:
  100320:	83 ec 1c             	sub    esp,0x1c
  100323:	8b 44 24 20          	mov    eax,DWORD PTR [esp+0x20]
  100327:	f7 d8                	neg    eax
  100329:	70 09                	jo     100334 <abs+0x14>
  10032b:	99                   	cdq    
  10032c:	83 c4 1c             	add    esp,0x1c
  10032f:	31 d0                	xor    eax,edx
  100331:	29 d0                	sub    eax,edx
  100333:	c3                   	ret    
  100334:	89 44 24 0c          	mov    DWORD PTR [esp+0xc],eax
  100338:	50                   	push   eax
  100339:	50                   	push   eax
  10033a:	68 00 00 00 80       	push   0x80000000
  10033f:	68 74 80 10 00       	push   0x108074
  100344:	e8 57 49 00 00       	call   104ca0 <__ubsan_handle_negate_overflow>
  100349:	83 c4 10             	add    esp,0x10
  10034c:	8b 44 24 0c          	mov    eax,DWORD PTR [esp+0xc]
  100350:	eb d9                	jmp    10032b <abs+0xb>
  100352:	8d b4 26 00 00 00 00 	lea    esi,[esi+eiz*1+0x0]
  100359:	8d bc 27 00 00 00 00 	lea    edi,[edi+eiz*1+0x0]

00100360 <clamp>:
  100360:	8b 44 24 04          	mov    eax,DWORD PTR [esp+0x4]
  100364:	8b 4c 24 08          	mov    ecx,DWORD PTR [esp+0x8]
  100368:	8b 54 24 0c          	mov    edx,DWORD PTR [esp+0xc]
  10036c:	39 c8                	cmp    eax,ecx
  10036e:	0f 4c c1             	cmovl  eax,ecx
  100371:	39 c2                	cmp    edx,eax
  100373:	0f 4e c2             	cmovle eax,edx
  100376:	c3                   	ret    
  100377:	89 f6                	mov    esi,esi
  100379:	8d bc 27 00 00 00 00 	lea    edi,[edi+eiz*1+0x0]

00100380 <ceil>:
  100380:	53                   	push   ebx
  100381:	83 ec 18             	sub    esp,0x18
  100384:	d9 7c 24 0e          	fnstcw WORD PTR [esp+0xe]
  100388:	0f b7 44 24 0e       	movzx  eax,WORD PTR [esp+0xe]
  10038d:	dd 44 24 20          	fld    QWORD PTR [esp+0x20]
  100391:	b4 0c                	mov    ah,0xc
  100393:	66 89 44 24 0c       	mov    WORD PTR [esp+0xc],ax
  100398:	d9 6c 24 0c          	fldcw  WORD PTR [esp+0xc]
  10039c:	db 54 24 04          	fist   DWORD PTR [esp+0x4]
  1003a0:	d9 6c 24 0e          	fldcw  WORD PTR [esp+0xe]
  1003a4:	db 44 24 04          	fild   DWORD PTR [esp+0x4]
  1003a8:	df e9                	fucomip st,st(1)
  1003aa:	dd d8                	fstp   st(0)
  1003ac:	7a 02                	jp     1003b0 <ceil+0x30>
  1003ae:	74 0f                	je     1003bf <ceil+0x3f>
  1003b0:	8b 44 24 04          	mov    eax,DWORD PTR [esp+0x4]
  1003b4:	83 c0 01             	add    eax,0x1
  1003b7:	89 c3                	mov    ebx,eax
  1003b9:	70 0d                	jo     1003c8 <ceil+0x48>
  1003bb:	89 5c 24 04          	mov    DWORD PTR [esp+0x4],ebx
  1003bf:	db 44 24 04          	fild   DWORD PTR [esp+0x4]
  1003c3:	83 c4 18             	add    esp,0x18
  1003c6:	5b                   	pop    ebx
  1003c7:	c3                   	ret    
  1003c8:	50                   	push   eax
  1003c9:	6a 01                	push   0x1
  1003cb:	ff 74 24 0c          	push   DWORD PTR [esp+0xc]
  1003cf:	68 64 80 10 00       	push   0x108064
  1003d4:	e8 d7 47 00 00       	call   104bb0 <__ubsan_handle_add_overflow>
  1003d9:	83 c4 10             	add    esp,0x10
  1003dc:	eb dd                	jmp    1003bb <ceil+0x3b>
  1003de:	66 90                	xchg   ax,ax

001003e0 <floor>:
  1003e0:	83 ec 24             	sub    esp,0x24
  1003e3:	d9 05 54 76 10 00    	fld    DWORD PTR ds:0x107654
  1003e9:	dd 44 24 28          	fld    QWORD PTR [esp+0x28]
  1003ed:	db e9                	fucomi st,st(1)
  1003ef:	73 6f                	jae    100460 <floor+0x80>
  1003f1:	d9 05 58 76 10 00    	fld    DWORD PTR ds:0x107658
  1003f7:	df e9                	fucomip st,st(1)
  1003f9:	73 75                	jae    100470 <floor+0x90>
  1003fb:	db e8                	fucomi st,st(0)
  1003fd:	7a 75                	jp     100474 <floor+0x94>
  1003ff:	db e9                	fucomi st,st(1)
  100401:	73 7d                	jae    100480 <floor+0xa0>
  100403:	dd d9                	fstp   st(1)
  100405:	d9 7c 24 16          	fnstcw WORD PTR [esp+0x16]
  100409:	0f b7 44 24 16       	movzx  eax,WORD PTR [esp+0x16]
  10040e:	b4 0c                	mov    ah,0xc
  100410:	66 89 44 24 14       	mov    WORD PTR [esp+0x14],ax
  100415:	d9 c0                	fld    st(0)
  100417:	d9 6c 24 14          	fldcw  WORD PTR [esp+0x14]
  10041b:	df 3c 24             	fistp  QWORD PTR [esp]
  10041e:	d9 6c 24 16          	fldcw  WORD PTR [esp+0x16]
  100422:	8b 44 24 04          	mov    eax,DWORD PTR [esp+0x4]
  100426:	df 2c 24             	fild   QWORD PTR [esp]
  100429:	85 c0                	test   eax,eax
  10042b:	79 06                	jns    100433 <floor+0x53>
  10042d:	d8 05 5c 76 10 00    	fadd   DWORD PTR ds:0x10765c
  100433:	dd 5c 24 18          	fstp   QWORD PTR [esp+0x18]
  100437:	dd 44 24 18          	fld    QWORD PTR [esp+0x18]
  10043b:	d9 c9                	fxch   st(1)
  10043d:	db e9                	fucomi st,st(1)
  10043f:	7a 02                	jp     100443 <floor+0x63>
  100441:	74 0d                	je     100450 <floor+0x70>
  100443:	d9 ee                	fldz   
  100445:	d9 c9                	fxch   st(1)
  100447:	df e9                	fucomip st,st(1)
  100449:	dd d8                	fstp   st(0)
  10044b:	72 73                	jb     1004c0 <floor+0xe0>
  10044d:	eb 03                	jmp    100452 <floor+0x72>
  10044f:	90                   	nop
  100450:	dd d8                	fstp   st(0)
  100452:	eb 22                	jmp    100476 <floor+0x96>
  100454:	8d b6 00 00 00 00    	lea    esi,[esi+0x0]
  10045a:	8d bf 00 00 00 00    	lea    edi,[edi+0x0]
  100460:	dd d9                	fstp   st(1)
  100462:	eb 12                	jmp    100476 <floor+0x96>
  100464:	8d b6 00 00 00 00    	lea    esi,[esi+0x0]
  10046a:	8d bf 00 00 00 00    	lea    edi,[edi+0x0]
  100470:	dd d9                	fstp   st(1)
  100472:	eb 02                	jmp    100476 <floor+0x96>
  100474:	dd d9                	fstp   st(1)
  100476:	83 c4 24             	add    esp,0x24
  100479:	c3                   	ret    
  10047a:	8d b6 00 00 00 00    	lea    esi,[esi+0x0]
  100480:	d9 7c 24 16          	fnstcw WORD PTR [esp+0x16]
  100484:	0f b7 44 24 16       	movzx  eax,WORD PTR [esp+0x16]
  100489:	dc e1                	fsubr  st(1),st
  10048b:	d9 c9                	fxch   st(1)
  10048d:	b4 0c                	mov    ah,0xc
  10048f:	66 89 44 24 14       	mov    WORD PTR [esp+0x14],ax
  100494:	d9 6c 24 14          	fldcw  WORD PTR [esp+0x14]
  100498:	df 3c 24             	fistp  QWORD PTR [esp]
  10049b:	d9 6c 24 16          	fldcw  WORD PTR [esp+0x16]
  10049f:	8b 44 24 04          	mov    eax,DWORD PTR [esp+0x4]
  1004a3:	05 00 00 00 80       	add    eax,0x80000000
  1004a8:	89 44 24 04          	mov    DWORD PTR [esp+0x4],eax
  1004ac:	e9 71 ff ff ff       	jmp    100422 <floor+0x42>
  1004b1:	eb 0d                	jmp    1004c0 <floor+0xe0>
  1004b3:	90                   	nop
  1004b4:	90                   	nop
  1004b5:	90                   	nop
  1004b6:	90                   	nop
  1004b7:	90                   	nop
  1004b8:	90                   	nop
  1004b9:	90                   	nop
  1004ba:	90                   	nop
  1004bb:	90                   	nop
  1004bc:	90                   	nop
  1004bd:	90                   	nop
  1004be:	90                   	nop
  1004bf:	90                   	nop
  1004c0:	d8 25 60 76 10 00    	fsub   DWORD PTR ds:0x107660
  1004c6:	eb ae                	jmp    100476 <floor+0x96>
  1004c8:	90                   	nop
  1004c9:	8d b4 26 00 00 00 00 	lea    esi,[esi+eiz*1+0x0]

001004d0 <pow>:
  1004d0:	53                   	push   ebx
  1004d1:	83 ec 18             	sub    esp,0x18
  1004d4:	8b 5c 24 28          	mov    ebx,DWORD PTR [esp+0x28]
  1004d8:	dd 44 24 20          	fld    QWORD PTR [esp+0x20]
  1004dc:	85 db                	test   ebx,ebx
  1004de:	75 10                	jne    1004f0 <pow+0x20>
  1004e0:	dd d8                	fstp   st(0)
  1004e2:	d9 e8                	fld1   
  1004e4:	83 c4 18             	add    esp,0x18
  1004e7:	5b                   	pop    ebx
  1004e8:	c3                   	ret    
  1004e9:	8d b4 26 00 00 00 00 	lea    esi,[esi+eiz*1+0x0]
  1004f0:	89 d8                	mov    eax,ebx
  1004f2:	83 ec 04             	sub    esp,0x4
  1004f5:	c1 e8 1f             	shr    eax,0x1f
  1004f8:	01 d8                	add    eax,ebx
  1004fa:	d1 f8                	sar    eax,1
  1004fc:	50                   	push   eax
  1004fd:	83 ec 08             	sub    esp,0x8
  100500:	dd 14 24             	fst    QWORD PTR [esp]
  100503:	dd 5c 24 18          	fstp   QWORD PTR [esp+0x18]
  100507:	e8 c4 ff ff ff       	call   1004d0 <pow>
  10050c:	83 c4 10             	add    esp,0x10
  10050f:	f6 c3 01             	test   bl,0x1
  100512:	dd 44 24 08          	fld    QWORD PTR [esp+0x8]
  100516:	74 18                	je     100530 <pow+0x60>
  100518:	85 db                	test   ebx,ebx
  10051a:	7e 24                	jle    100540 <pow+0x70>
  10051c:	d8 c9                	fmul   st,st(1)
  10051e:	de c9                	fmulp  st(1),st
  100520:	eb c2                	jmp    1004e4 <pow+0x14>
  100522:	8d b4 26 00 00 00 00 	lea    esi,[esi+eiz*1+0x0]
  100529:	8d bc 27 00 00 00 00 	lea    edi,[edi+eiz*1+0x0]
  100530:	dd d8                	fstp   st(0)
  100532:	d8 c8                	fmul   st,st(0)
  100534:	eb ae                	jmp    1004e4 <pow+0x14>
  100536:	8d 76 00             	lea    esi,[esi+0x0]
  100539:	8d bc 27 00 00 00 00 	lea    edi,[edi+eiz*1+0x0]
  100540:	d9 c9                	fxch   st(1)
  100542:	d8 c8                	fmul   st,st(0)
  100544:	de f1                	fdivrp st(1),st
  100546:	eb 9c                	jmp    1004e4 <pow+0x14>
  100548:	66 90                	xchg   ax,ax
  10054a:	66 90                	xchg   ax,ax
  10054c:	66 90                	xchg   ax,ax
  10054e:	66 90                	xchg   ax,ax

00100550 <_ZN2os3hal17serial_controller5beginENS0_11serial_portE>:
  100550:	55                   	push   ebp
  100551:	57                   	push   edi
  100552:	56                   	push   esi
  100553:	53                   	push   ebx
  100554:	83 ec 0c             	sub    esp,0xc
  100557:	8b 5c 24 20          	mov    ebx,DWORD PTR [esp+0x20]
  10055b:	8b 74 24 24          	mov    esi,DWORD PTR [esp+0x24]
  10055f:	85 db                	test   ebx,ebx
  100561:	0f 84 13 02 00 00    	je     10077a <_ZN2os3hal17serial_controller5beginENS0_11serial_portE+0x22a>
  100567:	f6 c3 01             	test   bl,0x1
  10056a:	0f 85 0a 02 00 00    	jne    10077a <_ZN2os3hal17serial_controller5beginENS0_11serial_portE+0x22a>
  100570:	85 db                	test   ebx,ebx
  100572:	66 89 33             	mov    WORD PTR [ebx],si
  100575:	0f 84 ea 01 00 00    	je     100765 <_ZN2os3hal17serial_controller5beginENS0_11serial_portE+0x215>
  10057b:	f6 c3 01             	test   bl,0x1
  10057e:	0f 85 e1 01 00 00    	jne    100765 <_ZN2os3hal17serial_controller5beginENS0_11serial_portE+0x215>
  100584:	8d 6e 01             	lea    ebp,[esi+0x1]
  100587:	31 c0                	xor    eax,eax
  100589:	89 ea                	mov    edx,ebp
  10058b:	ee                   	out    dx,al
  10058c:	85 db                	test   ebx,ebx
  10058e:	0f 84 bc 01 00 00    	je     100750 <_ZN2os3hal17serial_controller5beginENS0_11serial_portE+0x200>
  100594:	f6 c3 01             	test   bl,0x1
  100597:	0f 85 b3 01 00 00    	jne    100750 <_ZN2os3hal17serial_controller5beginENS0_11serial_portE+0x200>
  10059d:	8d 7e 03             	lea    edi,[esi+0x3]
  1005a0:	b8 80 ff ff ff       	mov    eax,0xffffff80
  1005a5:	89 fa                	mov    edx,edi
  1005a7:	ee                   	out    dx,al
  1005a8:	85 db                	test   ebx,ebx
  1005aa:	0f 84 8b 01 00 00    	je     10073b <_ZN2os3hal17serial_controller5beginENS0_11serial_portE+0x1eb>
  1005b0:	f6 c3 01             	test   bl,0x1
  1005b3:	0f 85 82 01 00 00    	jne    10073b <_ZN2os3hal17serial_controller5beginENS0_11serial_portE+0x1eb>
  1005b9:	b8 03 00 00 00       	mov    eax,0x3
  1005be:	89 f2                	mov    edx,esi
  1005c0:	ee                   	out    dx,al
  1005c1:	85 db                	test   ebx,ebx
  1005c3:	0f 84 5d 01 00 00    	je     100726 <_ZN2os3hal17serial_controller5beginENS0_11serial_portE+0x1d6>
  1005c9:	f6 c3 01             	test   bl,0x1
  1005cc:	0f 85 54 01 00 00    	jne    100726 <_ZN2os3hal17serial_controller5beginENS0_11serial_portE+0x1d6>
  1005d2:	31 c0                	xor    eax,eax
  1005d4:	89 ea                	mov    edx,ebp
  1005d6:	ee                   	out    dx,al
  1005d7:	85 db                	test   ebx,ebx
  1005d9:	0f 84 32 01 00 00    	je     100711 <_ZN2os3hal17serial_controller5beginENS0_11serial_portE+0x1c1>
  1005df:	f6 c3 01             	test   bl,0x1
  1005e2:	0f 85 29 01 00 00    	jne    100711 <_ZN2os3hal17serial_controller5beginENS0_11serial_portE+0x1c1>
  1005e8:	b8 03 00 00 00       	mov    eax,0x3
  1005ed:	89 fa                	mov    edx,edi
  1005ef:	ee                   	out    dx,al
  1005f0:	85 db                	test   ebx,ebx
  1005f2:	0f 84 04 01 00 00    	je     1006fc <_ZN2os3hal17serial_controller5beginENS0_11serial_portE+0x1ac>
  1005f8:	f6 c3 01             	test   bl,0x1
  1005fb:	0f 85 fb 00 00 00    	jne    1006fc <_ZN2os3hal17serial_controller5beginENS0_11serial_portE+0x1ac>
  100601:	8d 56 02             	lea    edx,[esi+0x2]
  100604:	b8 c7 ff ff ff       	mov    eax,0xffffffc7
  100609:	ee                   	out    dx,al
  10060a:	85 db                	test   ebx,ebx
  10060c:	0f 84 d5 00 00 00    	je     1006e7 <_ZN2os3hal17serial_controller5beginENS0_11serial_portE+0x197>
  100612:	f6 c3 01             	test   bl,0x1
  100615:	0f 85 cc 00 00 00    	jne    1006e7 <_ZN2os3hal17serial_controller5beginENS0_11serial_portE+0x197>
  10061b:	8d 7e 04             	lea    edi,[esi+0x4]
  10061e:	b8 0b 00 00 00       	mov    eax,0xb
  100623:	89 fa                	mov    edx,edi
  100625:	ee                   	out    dx,al
  100626:	85 db                	test   ebx,ebx
  100628:	0f 84 a4 00 00 00    	je     1006d2 <_ZN2os3hal17serial_controller5beginENS0_11serial_portE+0x182>
  10062e:	f6 c3 01             	test   bl,0x1
  100631:	0f 85 9b 00 00 00    	jne    1006d2 <_ZN2os3hal17serial_controller5beginENS0_11serial_portE+0x182>
  100637:	b8 1e 00 00 00       	mov    eax,0x1e
  10063c:	89 fa                	mov    edx,edi
  10063e:	ee                   	out    dx,al
  10063f:	85 db                	test   ebx,ebx
  100641:	74 7a                	je     1006bd <_ZN2os3hal17serial_controller5beginENS0_11serial_portE+0x16d>
  100643:	f6 c3 01             	test   bl,0x1
  100646:	75 75                	jne    1006bd <_ZN2os3hal17serial_controller5beginENS0_11serial_portE+0x16d>
  100648:	b8 ae ff ff ff       	mov    eax,0xffffffae
  10064d:	89 f2                	mov    edx,esi
  10064f:	ee                   	out    dx,al
  100650:	85 db                	test   ebx,ebx
  100652:	74 57                	je     1006ab <_ZN2os3hal17serial_controller5beginENS0_11serial_portE+0x15b>
  100654:	f6 c3 01             	test   bl,0x1
  100657:	75 52                	jne    1006ab <_ZN2os3hal17serial_controller5beginENS0_11serial_portE+0x15b>
  100659:	89 f2                	mov    edx,esi
  10065b:	ec                   	in     al,dx
  10065c:	3c ae                	cmp    al,0xae
  10065e:	74 20                	je     100680 <_ZN2os3hal17serial_controller5beginENS0_11serial_portE+0x130>
  100660:	85 db                	test   ebx,ebx
  100662:	0f 84 27 01 00 00    	je     10078f <_ZN2os3hal17serial_controller5beginENS0_11serial_portE+0x23f>
  100668:	f6 c3 01             	test   bl,0x1
  10066b:	0f 85 1e 01 00 00    	jne    10078f <_ZN2os3hal17serial_controller5beginENS0_11serial_portE+0x23f>
  100671:	31 d2                	xor    edx,edx
  100673:	66 89 13             	mov    WORD PTR [ebx],dx
  100676:	83 c4 0c             	add    esp,0xc
  100679:	5b                   	pop    ebx
  10067a:	5e                   	pop    esi
  10067b:	5f                   	pop    edi
  10067c:	5d                   	pop    ebp
  10067d:	c3                   	ret    
  10067e:	66 90                	xchg   ax,ax
  100680:	85 db                	test   ebx,ebx
  100682:	74 15                	je     100699 <_ZN2os3hal17serial_controller5beginENS0_11serial_portE+0x149>
  100684:	f6 c3 01             	test   bl,0x1
  100687:	75 10                	jne    100699 <_ZN2os3hal17serial_controller5beginENS0_11serial_portE+0x149>
  100689:	b8 0f 00 00 00       	mov    eax,0xf
  10068e:	89 fa                	mov    edx,edi
  100690:	ee                   	out    dx,al
  100691:	83 c4 0c             	add    esp,0xc
  100694:	5b                   	pop    ebx
  100695:	5e                   	pop    esi
  100696:	5f                   	pop    edi
  100697:	5d                   	pop    ebp
  100698:	c3                   	ret    
  100699:	50                   	push   eax
  10069a:	50                   	push   eax
  10069b:	53                   	push   ebx
  10069c:	68 a4 8d 10 00       	push   0x108da4
  1006a1:	e8 2a 44 00 00       	call   104ad0 <__ubsan_handle_type_mismatch>
  1006a6:	83 c4 10             	add    esp,0x10
  1006a9:	eb de                	jmp    100689 <_ZN2os3hal17serial_controller5beginENS0_11serial_portE+0x139>
  1006ab:	55                   	push   ebp
  1006ac:	55                   	push   ebp
  1006ad:	53                   	push   ebx
  1006ae:	68 d4 8d 10 00       	push   0x108dd4
  1006b3:	e8 18 44 00 00       	call   104ad0 <__ubsan_handle_type_mismatch>
  1006b8:	83 c4 10             	add    esp,0x10
  1006bb:	eb 9c                	jmp    100659 <_ZN2os3hal17serial_controller5beginENS0_11serial_portE+0x109>
  1006bd:	50                   	push   eax
  1006be:	50                   	push   eax
  1006bf:	53                   	push   ebx
  1006c0:	68 ec 8d 10 00       	push   0x108dec
  1006c5:	e8 06 44 00 00       	call   104ad0 <__ubsan_handle_type_mismatch>
  1006ca:	83 c4 10             	add    esp,0x10
  1006cd:	e9 76 ff ff ff       	jmp    100648 <_ZN2os3hal17serial_controller5beginENS0_11serial_portE+0xf8>
  1006d2:	50                   	push   eax
  1006d3:	50                   	push   eax
  1006d4:	53                   	push   ebx
  1006d5:	68 04 8e 10 00       	push   0x108e04
  1006da:	e8 f1 43 00 00       	call   104ad0 <__ubsan_handle_type_mismatch>
  1006df:	83 c4 10             	add    esp,0x10
  1006e2:	e9 50 ff ff ff       	jmp    100637 <_ZN2os3hal17serial_controller5beginENS0_11serial_portE+0xe7>
  1006e7:	50                   	push   eax
  1006e8:	50                   	push   eax
  1006e9:	53                   	push   ebx
  1006ea:	68 1c 8e 10 00       	push   0x108e1c
  1006ef:	e8 dc 43 00 00       	call   104ad0 <__ubsan_handle_type_mismatch>
  1006f4:	83 c4 10             	add    esp,0x10
  1006f7:	e9 1f ff ff ff       	jmp    10061b <_ZN2os3hal17serial_controller5beginENS0_11serial_portE+0xcb>
  1006fc:	50                   	push   eax
  1006fd:	50                   	push   eax
  1006fe:	53                   	push   ebx
  1006ff:	68 34 8e 10 00       	push   0x108e34
  100704:	e8 c7 43 00 00       	call   104ad0 <__ubsan_handle_type_mismatch>
  100709:	83 c4 10             	add    esp,0x10
  10070c:	e9 f0 fe ff ff       	jmp    100601 <_ZN2os3hal17serial_controller5beginENS0_11serial_portE+0xb1>
  100711:	50                   	push   eax
  100712:	50                   	push   eax
  100713:	53                   	push   ebx
  100714:	68 4c 8e 10 00       	push   0x108e4c
  100719:	e8 b2 43 00 00       	call   104ad0 <__ubsan_handle_type_mismatch>
  10071e:	83 c4 10             	add    esp,0x10
  100721:	e9 c2 fe ff ff       	jmp    1005e8 <_ZN2os3hal17serial_controller5beginENS0_11serial_portE+0x98>
  100726:	50                   	push   eax
  100727:	50                   	push   eax
  100728:	53                   	push   ebx
  100729:	68 64 8e 10 00       	push   0x108e64
  10072e:	e8 9d 43 00 00       	call   104ad0 <__ubsan_handle_type_mismatch>
  100733:	83 c4 10             	add    esp,0x10
  100736:	e9 97 fe ff ff       	jmp    1005d2 <_ZN2os3hal17serial_controller5beginENS0_11serial_portE+0x82>
  10073b:	52                   	push   edx
  10073c:	52                   	push   edx
  10073d:	53                   	push   ebx
  10073e:	68 7c 8e 10 00       	push   0x108e7c
  100743:	e8 88 43 00 00       	call   104ad0 <__ubsan_handle_type_mismatch>
  100748:	83 c4 10             	add    esp,0x10
  10074b:	e9 69 fe ff ff       	jmp    1005b9 <_ZN2os3hal17serial_controller5beginENS0_11serial_portE+0x69>
  100750:	51                   	push   ecx
  100751:	51                   	push   ecx
  100752:	53                   	push   ebx
  100753:	68 94 8e 10 00       	push   0x108e94
  100758:	e8 73 43 00 00       	call   104ad0 <__ubsan_handle_type_mismatch>
  10075d:	83 c4 10             	add    esp,0x10
  100760:	e9 38 fe ff ff       	jmp    10059d <_ZN2os3hal17serial_controller5beginENS0_11serial_portE+0x4d>
  100765:	57                   	push   edi
  100766:	57                   	push   edi
  100767:	53                   	push   ebx
  100768:	68 ac 8e 10 00       	push   0x108eac
  10076d:	e8 5e 43 00 00       	call   104ad0 <__ubsan_handle_type_mismatch>
  100772:	83 c4 10             	add    esp,0x10
  100775:	e9 0a fe ff ff       	jmp    100584 <_ZN2os3hal17serial_controller5beginENS0_11serial_portE+0x34>
  10077a:	55                   	push   ebp
  10077b:	55                   	push   ebp
  10077c:	53                   	push   ebx
  10077d:	68 c4 8e 10 00       	push   0x108ec4
  100782:	e8 49 43 00 00       	call   104ad0 <__ubsan_handle_type_mismatch>
  100787:	83 c4 10             	add    esp,0x10
  10078a:	e9 e1 fd ff ff       	jmp    100570 <_ZN2os3hal17serial_controller5beginENS0_11serial_portE+0x20>
  10078f:	51                   	push   ecx
  100790:	51                   	push   ecx
  100791:	53                   	push   ebx
  100792:	68 bc 8d 10 00       	push   0x108dbc
  100797:	e8 34 43 00 00       	call   104ad0 <__ubsan_handle_type_mismatch>
  10079c:	83 c4 10             	add    esp,0x10
  10079f:	e9 cd fe ff ff       	jmp    100671 <_ZN2os3hal17serial_controller5beginENS0_11serial_portE+0x121>
  1007a4:	8d b6 00 00 00 00    	lea    esi,[esi+0x0]
  1007aa:	8d bf 00 00 00 00    	lea    edi,[edi+0x0]

001007b0 <_ZN2os3hal17serial_controller3endEv>:
  1007b0:	53                   	push   ebx
  1007b1:	83 ec 08             	sub    esp,0x8
  1007b4:	8b 5c 24 10          	mov    ebx,DWORD PTR [esp+0x10]
  1007b8:	85 db                	test   ebx,ebx
  1007ba:	74 0f                	je     1007cb <_ZN2os3hal17serial_controller3endEv+0x1b>
  1007bc:	f6 c3 01             	test   bl,0x1
  1007bf:	75 0a                	jne    1007cb <_ZN2os3hal17serial_controller3endEv+0x1b>
  1007c1:	31 c0                	xor    eax,eax
  1007c3:	66 89 03             	mov    WORD PTR [ebx],ax
  1007c6:	83 c4 08             	add    esp,0x8
  1007c9:	5b                   	pop    ebx
  1007ca:	c3                   	ret    
  1007cb:	52                   	push   edx
  1007cc:	52                   	push   edx
  1007cd:	53                   	push   ebx
  1007ce:	68 8c 8d 10 00       	push   0x108d8c
  1007d3:	e8 f8 42 00 00       	call   104ad0 <__ubsan_handle_type_mismatch>
  1007d8:	83 c4 10             	add    esp,0x10
  1007db:	eb e4                	jmp    1007c1 <_ZN2os3hal17serial_controller3endEv+0x11>
  1007dd:	90                   	nop
  1007de:	66 90                	xchg   ax,ax

001007e0 <_ZN2os3hal17serial_controller4readEv>:
  1007e0:	57                   	push   edi
  1007e1:	56                   	push   esi
  1007e2:	53                   	push   ebx
  1007e3:	83 ec 10             	sub    esp,0x10
  1007e6:	8b 5c 24 20          	mov    ebx,DWORD PTR [esp+0x20]
  1007ea:	85 db                	test   ebx,ebx
  1007ec:	0f 84 f4 00 00 00    	je     1008e6 <_ZN2os3hal17serial_controller4readEv+0x106>
  1007f2:	f6 c3 01             	test   bl,0x1
  1007f5:	0f 85 eb 00 00 00    	jne    1008e6 <_ZN2os3hal17serial_controller4readEv+0x106>
  1007fb:	85 db                	test   ebx,ebx
  1007fd:	0f 84 ce 00 00 00    	je     1008d1 <_ZN2os3hal17serial_controller4readEv+0xf1>
  100803:	f6 c3 01             	test   bl,0x1
  100806:	0f 85 c5 00 00 00    	jne    1008d1 <_ZN2os3hal17serial_controller4readEv+0xf1>
  10080c:	0f b7 3b             	movzx  edi,WORD PTR [ebx]
  10080f:	66 81 ff f8 03       	cmp    di,0x3f8
  100814:	74 3a                	je     100850 <_ZN2os3hal17serial_controller4readEv+0x70>
  100816:	85 db                	test   ebx,ebx
  100818:	0f 84 9e 00 00 00    	je     1008bc <_ZN2os3hal17serial_controller4readEv+0xdc>
  10081e:	f6 c3 01             	test   bl,0x1
  100821:	0f 85 95 00 00 00    	jne    1008bc <_ZN2os3hal17serial_controller4readEv+0xdc>
  100827:	66 81 ff f8 02       	cmp    di,0x2f8
  10082c:	74 22                	je     100850 <_ZN2os3hal17serial_controller4readEv+0x70>
  10082e:	85 db                	test   ebx,ebx
  100830:	74 66                	je     100898 <_ZN2os3hal17serial_controller4readEv+0xb8>
  100832:	f6 c3 01             	test   bl,0x1
  100835:	75 61                	jne    100898 <_ZN2os3hal17serial_controller4readEv+0xb8>
  100837:	66 81 ff e8 03       	cmp    di,0x3e8
  10083c:	74 12                	je     100850 <_ZN2os3hal17serial_controller4readEv+0x70>
  10083e:	85 db                	test   ebx,ebx
  100840:	74 68                	je     1008aa <_ZN2os3hal17serial_controller4readEv+0xca>
  100842:	f6 c3 01             	test   bl,0x1
  100845:	75 63                	jne    1008aa <_ZN2os3hal17serial_controller4readEv+0xca>
  100847:	31 c0                	xor    eax,eax
  100849:	66 81 ff e8 02       	cmp    di,0x2e8
  10084e:	75 41                	jne    100891 <_ZN2os3hal17serial_controller4readEv+0xb1>
  100850:	89 de                	mov    esi,ebx
  100852:	8d 57 05             	lea    edx,[edi+0x5]
  100855:	83 e6 01             	and    esi,0x1
  100858:	90                   	nop
  100859:	8d b4 26 00 00 00 00 	lea    esi,[esi+eiz*1+0x0]
  100860:	85 db                	test   ebx,ebx
  100862:	0f 84 c2 00 00 00    	je     10092a <_ZN2os3hal17serial_controller4readEv+0x14a>
  100868:	85 f6                	test   esi,esi
  10086a:	0f 85 ba 00 00 00    	jne    10092a <_ZN2os3hal17serial_controller4readEv+0x14a>
  100870:	85 db                	test   ebx,ebx
  100872:	0f 84 95 00 00 00    	je     10090d <_ZN2os3hal17serial_controller4readEv+0x12d>
  100878:	85 f6                	test   esi,esi
  10087a:	0f 85 8d 00 00 00    	jne    10090d <_ZN2os3hal17serial_controller4readEv+0x12d>
  100880:	ec                   	in     al,dx
  100881:	a8 01                	test   al,0x1
  100883:	74 db                	je     100860 <_ZN2os3hal17serial_controller4readEv+0x80>
  100885:	85 db                	test   ebx,ebx
  100887:	74 72                	je     1008fb <_ZN2os3hal17serial_controller4readEv+0x11b>
  100889:	f6 c3 01             	test   bl,0x1
  10088c:	75 6d                	jne    1008fb <_ZN2os3hal17serial_controller4readEv+0x11b>
  10088e:	89 fa                	mov    edx,edi
  100890:	ec                   	in     al,dx
  100891:	83 c4 10             	add    esp,0x10
  100894:	5b                   	pop    ebx
  100895:	5e                   	pop    esi
  100896:	5f                   	pop    edi
  100897:	c3                   	ret    
  100898:	50                   	push   eax
  100899:	50                   	push   eax
  10089a:	53                   	push   ebx
  10089b:	68 2c 8d 10 00       	push   0x108d2c
  1008a0:	e8 2b 42 00 00       	call   104ad0 <__ubsan_handle_type_mismatch>
  1008a5:	83 c4 10             	add    esp,0x10
  1008a8:	eb 8d                	jmp    100837 <_ZN2os3hal17serial_controller4readEv+0x57>
  1008aa:	56                   	push   esi
  1008ab:	56                   	push   esi
  1008ac:	53                   	push   ebx
  1008ad:	68 14 8d 10 00       	push   0x108d14
  1008b2:	e8 19 42 00 00       	call   104ad0 <__ubsan_handle_type_mismatch>
  1008b7:	83 c4 10             	add    esp,0x10
  1008ba:	eb 8b                	jmp    100847 <_ZN2os3hal17serial_controller4readEv+0x67>
  1008bc:	50                   	push   eax
  1008bd:	50                   	push   eax
  1008be:	53                   	push   ebx
  1008bf:	68 44 8d 10 00       	push   0x108d44
  1008c4:	e8 07 42 00 00       	call   104ad0 <__ubsan_handle_type_mismatch>
  1008c9:	83 c4 10             	add    esp,0x10
  1008cc:	e9 56 ff ff ff       	jmp    100827 <_ZN2os3hal17serial_controller4readEv+0x47>
  1008d1:	50                   	push   eax
  1008d2:	50                   	push   eax
  1008d3:	53                   	push   ebx
  1008d4:	68 5c 8d 10 00       	push   0x108d5c
  1008d9:	e8 f2 41 00 00       	call   104ad0 <__ubsan_handle_type_mismatch>
  1008de:	83 c4 10             	add    esp,0x10
  1008e1:	e9 26 ff ff ff       	jmp    10080c <_ZN2os3hal17serial_controller4readEv+0x2c>
  1008e6:	50                   	push   eax
  1008e7:	50                   	push   eax
  1008e8:	53                   	push   ebx
  1008e9:	68 74 8d 10 00       	push   0x108d74
  1008ee:	e8 dd 41 00 00       	call   104ad0 <__ubsan_handle_type_mismatch>
  1008f3:	83 c4 10             	add    esp,0x10
  1008f6:	e9 00 ff ff ff       	jmp    1007fb <_ZN2os3hal17serial_controller4readEv+0x1b>
  1008fb:	50                   	push   eax
  1008fc:	50                   	push   eax
  1008fd:	53                   	push   ebx
  1008fe:	68 cc 8c 10 00       	push   0x108ccc
  100903:	e8 c8 41 00 00       	call   104ad0 <__ubsan_handle_type_mismatch>
  100908:	83 c4 10             	add    esp,0x10
  10090b:	eb 81                	jmp    10088e <_ZN2os3hal17serial_controller4readEv+0xae>
  10090d:	89 54 24 0c          	mov    DWORD PTR [esp+0xc],edx
  100911:	52                   	push   edx
  100912:	52                   	push   edx
  100913:	53                   	push   ebx
  100914:	68 e4 8c 10 00       	push   0x108ce4
  100919:	e8 b2 41 00 00       	call   104ad0 <__ubsan_handle_type_mismatch>
  10091e:	83 c4 10             	add    esp,0x10
  100921:	8b 54 24 0c          	mov    edx,DWORD PTR [esp+0xc]
  100925:	e9 56 ff ff ff       	jmp    100880 <_ZN2os3hal17serial_controller4readEv+0xa0>
  10092a:	89 54 24 0c          	mov    DWORD PTR [esp+0xc],edx
  10092e:	51                   	push   ecx
  10092f:	51                   	push   ecx
  100930:	53                   	push   ebx
  100931:	68 fc 8c 10 00       	push   0x108cfc
  100936:	e8 95 41 00 00       	call   104ad0 <__ubsan_handle_type_mismatch>
  10093b:	83 c4 10             	add    esp,0x10
  10093e:	8b 54 24 0c          	mov    edx,DWORD PTR [esp+0xc]
  100942:	e9 29 ff ff ff       	jmp    100870 <_ZN2os3hal17serial_controller4readEv+0x90>
  100947:	90                   	nop
  100948:	90                   	nop
  100949:	8d b4 26 00 00 00 00 	lea    esi,[esi+eiz*1+0x0]

00100950 <_ZN2os3hal17serial_controller5writeEc>:
  100950:	55                   	push   ebp
  100951:	57                   	push   edi
  100952:	56                   	push   esi
  100953:	53                   	push   ebx
  100954:	83 ec 1c             	sub    esp,0x1c
  100957:	8b 5c 24 30          	mov    ebx,DWORD PTR [esp+0x30]
  10095b:	8b 6c 24 34          	mov    ebp,DWORD PTR [esp+0x34]
  10095f:	85 db                	test   ebx,ebx
  100961:	0f 84 08 01 00 00    	je     100a6f <_ZN2os3hal17serial_controller5writeEc+0x11f>
  100967:	f6 c3 01             	test   bl,0x1
  10096a:	0f 85 ff 00 00 00    	jne    100a6f <_ZN2os3hal17serial_controller5writeEc+0x11f>
  100970:	85 db                	test   ebx,ebx
  100972:	0f 84 e2 00 00 00    	je     100a5a <_ZN2os3hal17serial_controller5writeEc+0x10a>
  100978:	f6 c3 01             	test   bl,0x1
  10097b:	0f 85 d9 00 00 00    	jne    100a5a <_ZN2os3hal17serial_controller5writeEc+0x10a>
  100981:	0f b7 3b             	movzx  edi,WORD PTR [ebx]
  100984:	66 81 ff f8 03       	cmp    di,0x3f8
  100989:	74 45                	je     1009d0 <_ZN2os3hal17serial_controller5writeEc+0x80>
  10098b:	85 db                	test   ebx,ebx
  10098d:	0f 84 b2 00 00 00    	je     100a45 <_ZN2os3hal17serial_controller5writeEc+0xf5>
  100993:	f6 c3 01             	test   bl,0x1
  100996:	0f 85 a9 00 00 00    	jne    100a45 <_ZN2os3hal17serial_controller5writeEc+0xf5>
  10099c:	66 81 ff f8 02       	cmp    di,0x2f8
  1009a1:	74 2d                	je     1009d0 <_ZN2os3hal17serial_controller5writeEc+0x80>
  1009a3:	85 db                	test   ebx,ebx
  1009a5:	74 74                	je     100a1b <_ZN2os3hal17serial_controller5writeEc+0xcb>
  1009a7:	f6 c3 01             	test   bl,0x1
  1009aa:	75 6f                	jne    100a1b <_ZN2os3hal17serial_controller5writeEc+0xcb>
  1009ac:	66 81 ff e8 03       	cmp    di,0x3e8
  1009b1:	74 1d                	je     1009d0 <_ZN2os3hal17serial_controller5writeEc+0x80>
  1009b3:	85 db                	test   ebx,ebx
  1009b5:	74 79                	je     100a30 <_ZN2os3hal17serial_controller5writeEc+0xe0>
  1009b7:	f6 c3 01             	test   bl,0x1
  1009ba:	75 74                	jne    100a30 <_ZN2os3hal17serial_controller5writeEc+0xe0>
  1009bc:	66 81 ff e8 02       	cmp    di,0x2e8
  1009c1:	75 50                	jne    100a13 <_ZN2os3hal17serial_controller5writeEc+0xc3>
  1009c3:	8d b6 00 00 00 00    	lea    esi,[esi+0x0]
  1009c9:	8d bc 27 00 00 00 00 	lea    edi,[edi+eiz*1+0x0]
  1009d0:	89 de                	mov    esi,ebx
  1009d2:	8d 57 05             	lea    edx,[edi+0x5]
  1009d5:	83 e6 01             	and    esi,0x1
  1009d8:	90                   	nop
  1009d9:	8d b4 26 00 00 00 00 	lea    esi,[esi+eiz*1+0x0]
  1009e0:	85 db                	test   ebx,ebx
  1009e2:	0f 84 ce 00 00 00    	je     100ab6 <_ZN2os3hal17serial_controller5writeEc+0x166>
  1009e8:	85 f6                	test   esi,esi
  1009ea:	0f 85 c6 00 00 00    	jne    100ab6 <_ZN2os3hal17serial_controller5writeEc+0x166>
  1009f0:	85 db                	test   ebx,ebx
  1009f2:	0f 84 a1 00 00 00    	je     100a99 <_ZN2os3hal17serial_controller5writeEc+0x149>
  1009f8:	85 f6                	test   esi,esi
  1009fa:	0f 85 99 00 00 00    	jne    100a99 <_ZN2os3hal17serial_controller5writeEc+0x149>
  100a00:	ec                   	in     al,dx
  100a01:	a8 20                	test   al,0x20
  100a03:	74 db                	je     1009e0 <_ZN2os3hal17serial_controller5writeEc+0x90>
  100a05:	85 db                	test   ebx,ebx
  100a07:	74 7b                	je     100a84 <_ZN2os3hal17serial_controller5writeEc+0x134>
  100a09:	f6 c3 01             	test   bl,0x1
  100a0c:	75 76                	jne    100a84 <_ZN2os3hal17serial_controller5writeEc+0x134>
  100a0e:	89 e8                	mov    eax,ebp
  100a10:	89 fa                	mov    edx,edi
  100a12:	ee                   	out    dx,al
  100a13:	83 c4 1c             	add    esp,0x1c
  100a16:	5b                   	pop    ebx
  100a17:	5e                   	pop    esi
  100a18:	5f                   	pop    edi
  100a19:	5d                   	pop    ebp
  100a1a:	c3                   	ret    
  100a1b:	50                   	push   eax
  100a1c:	50                   	push   eax
  100a1d:	53                   	push   ebx
  100a1e:	68 6c 8c 10 00       	push   0x108c6c
  100a23:	e8 a8 40 00 00       	call   104ad0 <__ubsan_handle_type_mismatch>
  100a28:	83 c4 10             	add    esp,0x10
  100a2b:	e9 7c ff ff ff       	jmp    1009ac <_ZN2os3hal17serial_controller5writeEc+0x5c>
  100a30:	56                   	push   esi
  100a31:	56                   	push   esi
  100a32:	53                   	push   ebx
  100a33:	68 54 8c 10 00       	push   0x108c54
  100a38:	e8 93 40 00 00       	call   104ad0 <__ubsan_handle_type_mismatch>
  100a3d:	83 c4 10             	add    esp,0x10
  100a40:	e9 77 ff ff ff       	jmp    1009bc <_ZN2os3hal17serial_controller5writeEc+0x6c>
  100a45:	50                   	push   eax
  100a46:	50                   	push   eax
  100a47:	53                   	push   ebx
  100a48:	68 84 8c 10 00       	push   0x108c84
  100a4d:	e8 7e 40 00 00       	call   104ad0 <__ubsan_handle_type_mismatch>
  100a52:	83 c4 10             	add    esp,0x10
  100a55:	e9 42 ff ff ff       	jmp    10099c <_ZN2os3hal17serial_controller5writeEc+0x4c>
  100a5a:	50                   	push   eax
  100a5b:	50                   	push   eax
  100a5c:	53                   	push   ebx
  100a5d:	68 9c 8c 10 00       	push   0x108c9c
  100a62:	e8 69 40 00 00       	call   104ad0 <__ubsan_handle_type_mismatch>
  100a67:	83 c4 10             	add    esp,0x10
  100a6a:	e9 12 ff ff ff       	jmp    100981 <_ZN2os3hal17serial_controller5writeEc+0x31>
  100a6f:	50                   	push   eax
  100a70:	50                   	push   eax
  100a71:	53                   	push   ebx
  100a72:	68 b4 8c 10 00       	push   0x108cb4
  100a77:	e8 54 40 00 00       	call   104ad0 <__ubsan_handle_type_mismatch>
  100a7c:	83 c4 10             	add    esp,0x10
  100a7f:	e9 ec fe ff ff       	jmp    100970 <_ZN2os3hal17serial_controller5writeEc+0x20>
  100a84:	50                   	push   eax
  100a85:	50                   	push   eax
  100a86:	53                   	push   ebx
  100a87:	68 0c 8c 10 00       	push   0x108c0c
  100a8c:	e8 3f 40 00 00       	call   104ad0 <__ubsan_handle_type_mismatch>
  100a91:	83 c4 10             	add    esp,0x10
  100a94:	e9 75 ff ff ff       	jmp    100a0e <_ZN2os3hal17serial_controller5writeEc+0xbe>
  100a99:	89 54 24 0c          	mov    DWORD PTR [esp+0xc],edx
  100a9d:	52                   	push   edx
  100a9e:	52                   	push   edx
  100a9f:	53                   	push   ebx
  100aa0:	68 24 8c 10 00       	push   0x108c24
  100aa5:	e8 26 40 00 00       	call   104ad0 <__ubsan_handle_type_mismatch>
  100aaa:	83 c4 10             	add    esp,0x10
  100aad:	8b 54 24 0c          	mov    edx,DWORD PTR [esp+0xc]
  100ab1:	e9 4a ff ff ff       	jmp    100a00 <_ZN2os3hal17serial_controller5writeEc+0xb0>
  100ab6:	89 54 24 0c          	mov    DWORD PTR [esp+0xc],edx
  100aba:	51                   	push   ecx
  100abb:	51                   	push   ecx
  100abc:	53                   	push   ebx
  100abd:	68 3c 8c 10 00       	push   0x108c3c
  100ac2:	e8 09 40 00 00       	call   104ad0 <__ubsan_handle_type_mismatch>
  100ac7:	83 c4 10             	add    esp,0x10
  100aca:	8b 54 24 0c          	mov    edx,DWORD PTR [esp+0xc]
  100ace:	e9 1d ff ff ff       	jmp    1009f0 <_ZN2os3hal17serial_controller5writeEc+0xa0>
  100ad3:	90                   	nop
  100ad4:	8d b6 00 00 00 00    	lea    esi,[esi+0x0]
  100ada:	8d bf 00 00 00 00    	lea    edi,[edi+0x0]

00100ae0 <_ZN2os3hal17serial_controller5printEPc>:
  100ae0:	55                   	push   ebp
  100ae1:	57                   	push   edi
  100ae2:	56                   	push   esi
  100ae3:	53                   	push   ebx
  100ae4:	83 ec 1c             	sub    esp,0x1c
  100ae7:	8b 44 24 34          	mov    eax,DWORD PTR [esp+0x34]
  100aeb:	8b 5c 24 30          	mov    ebx,DWORD PTR [esp+0x30]
  100aef:	85 c0                	test   eax,eax
  100af1:	74 74                	je     100b67 <_ZN2os3hal17serial_controller5printEPc+0x87>
  100af3:	85 db                	test   ebx,ebx
  100af5:	0f 84 a4 01 00 00    	je     100c9f <_ZN2os3hal17serial_controller5printEPc+0x1bf>
  100afb:	f6 c3 01             	test   bl,0x1
  100afe:	0f 85 9b 01 00 00    	jne    100c9f <_ZN2os3hal17serial_controller5printEPc+0x1bf>
  100b04:	85 db                	test   ebx,ebx
  100b06:	0f 84 c3 01 00 00    	je     100ccf <_ZN2os3hal17serial_controller5printEPc+0x1ef>
  100b0c:	f6 c3 01             	test   bl,0x1
  100b0f:	0f 85 ba 01 00 00    	jne    100ccf <_ZN2os3hal17serial_controller5printEPc+0x1ef>
  100b15:	0f b7 2b             	movzx  ebp,WORD PTR [ebx]
  100b18:	66 81 fd f8 03       	cmp    bp,0x3f8
  100b1d:	74 51                	je     100b70 <_ZN2os3hal17serial_controller5printEPc+0x90>
  100b1f:	85 db                	test   ebx,ebx
  100b21:	0f 84 18 03 00 00    	je     100e3f <_ZN2os3hal17serial_controller5printEPc+0x35f>
  100b27:	f6 c3 01             	test   bl,0x1
  100b2a:	0f 85 0f 03 00 00    	jne    100e3f <_ZN2os3hal17serial_controller5printEPc+0x35f>
  100b30:	66 81 fd f8 02       	cmp    bp,0x2f8
  100b35:	74 39                	je     100b70 <_ZN2os3hal17serial_controller5printEPc+0x90>
  100b37:	85 db                	test   ebx,ebx
  100b39:	0f 84 15 03 00 00    	je     100e54 <_ZN2os3hal17serial_controller5printEPc+0x374>
  100b3f:	f6 c3 01             	test   bl,0x1
  100b42:	0f 85 0c 03 00 00    	jne    100e54 <_ZN2os3hal17serial_controller5printEPc+0x374>
  100b48:	66 81 fd e8 03       	cmp    bp,0x3e8
  100b4d:	74 21                	je     100b70 <_ZN2os3hal17serial_controller5printEPc+0x90>
  100b4f:	85 db                	test   ebx,ebx
  100b51:	0f 84 12 03 00 00    	je     100e69 <_ZN2os3hal17serial_controller5printEPc+0x389>
  100b57:	f6 c3 01             	test   bl,0x1
  100b5a:	0f 85 09 03 00 00    	jne    100e69 <_ZN2os3hal17serial_controller5printEPc+0x389>
  100b60:	66 81 fd e8 02       	cmp    bp,0x2e8
  100b65:	74 09                	je     100b70 <_ZN2os3hal17serial_controller5printEPc+0x90>
  100b67:	83 c4 1c             	add    esp,0x1c
  100b6a:	5b                   	pop    ebx
  100b6b:	5e                   	pop    esi
  100b6c:	5f                   	pop    edi
  100b6d:	5d                   	pop    ebp
  100b6e:	c3                   	ret    
  100b6f:	90                   	nop
  100b70:	8b 44 24 34          	mov    eax,DWORD PTR [esp+0x34]
  100b74:	85 c0                	test   eax,eax
  100b76:	0f 84 ad 02 00 00    	je     100e29 <_ZN2os3hal17serial_controller5printEPc+0x349>
  100b7c:	8b 44 24 34          	mov    eax,DWORD PTR [esp+0x34]
  100b80:	0f b6 08             	movzx  ecx,BYTE PTR [eax]
  100b83:	84 c9                	test   cl,cl
  100b85:	74 e0                	je     100b67 <_ZN2os3hal17serial_controller5printEPc+0x87>
  100b87:	89 de                	mov    esi,ebx
  100b89:	31 ff                	xor    edi,edi
  100b8b:	83 e6 01             	and    esi,0x1
  100b8e:	eb 74                	jmp    100c04 <_ZN2os3hal17serial_controller5printEPc+0x124>
  100b90:	85 db                	test   ebx,ebx
  100b92:	0f 84 f2 01 00 00    	je     100d8a <_ZN2os3hal17serial_controller5printEPc+0x2aa>
  100b98:	85 f6                	test   esi,esi
  100b9a:	0f 85 ea 01 00 00    	jne    100d8a <_ZN2os3hal17serial_controller5printEPc+0x2aa>
  100ba0:	66 81 fd f8 02       	cmp    bp,0x2f8
  100ba5:	0f 84 9c 00 00 00    	je     100c47 <_ZN2os3hal17serial_controller5printEPc+0x167>
  100bab:	85 db                	test   ebx,ebx
  100bad:	0f 84 b9 01 00 00    	je     100d6c <_ZN2os3hal17serial_controller5printEPc+0x28c>
  100bb3:	85 f6                	test   esi,esi
  100bb5:	0f 85 b1 01 00 00    	jne    100d6c <_ZN2os3hal17serial_controller5printEPc+0x28c>
  100bbb:	66 81 fd e8 03       	cmp    bp,0x3e8
  100bc0:	0f 84 81 00 00 00    	je     100c47 <_ZN2os3hal17serial_controller5printEPc+0x167>
  100bc6:	85 db                	test   ebx,ebx
  100bc8:	0f 84 80 01 00 00    	je     100d4e <_ZN2os3hal17serial_controller5printEPc+0x26e>
  100bce:	85 f6                	test   esi,esi
  100bd0:	0f 85 78 01 00 00    	jne    100d4e <_ZN2os3hal17serial_controller5printEPc+0x26e>
  100bd6:	66 81 fd e8 02       	cmp    bp,0x2e8
  100bdb:	74 6a                	je     100c47 <_ZN2os3hal17serial_controller5printEPc+0x167>
  100bdd:	89 fd                	mov    ebp,edi
  100bdf:	83 c5 01             	add    ebp,0x1
  100be2:	0f 80 9f 00 00 00    	jo     100c87 <_ZN2os3hal17serial_controller5printEPc+0x1a7>
  100be8:	89 e8                	mov    eax,ebp
  100bea:	03 44 24 34          	add    eax,DWORD PTR [esp+0x34]
  100bee:	89 ef                	mov    edi,ebp
  100bf0:	0f 84 ee 00 00 00    	je     100ce4 <_ZN2os3hal17serial_controller5printEPc+0x204>
  100bf6:	0f b6 08             	movzx  ecx,BYTE PTR [eax]
  100bf9:	84 c9                	test   cl,cl
  100bfb:	0f 84 66 ff ff ff    	je     100b67 <_ZN2os3hal17serial_controller5printEPc+0x87>
  100c01:	0f b7 2b             	movzx  ebp,WORD PTR [ebx]
  100c04:	85 db                	test   ebx,ebx
  100c06:	0f 84 f7 01 00 00    	je     100e03 <_ZN2os3hal17serial_controller5printEPc+0x323>
  100c0c:	85 f6                	test   esi,esi
  100c0e:	0f 85 ef 01 00 00    	jne    100e03 <_ZN2os3hal17serial_controller5printEPc+0x323>
  100c14:	85 c0                	test   eax,eax
  100c16:	0f 84 c8 01 00 00    	je     100de4 <_ZN2os3hal17serial_controller5printEPc+0x304>
  100c1c:	85 db                	test   ebx,ebx
  100c1e:	0f 84 a2 01 00 00    	je     100dc6 <_ZN2os3hal17serial_controller5printEPc+0x2e6>
  100c24:	85 f6                	test   esi,esi
  100c26:	0f 85 9a 01 00 00    	jne    100dc6 <_ZN2os3hal17serial_controller5printEPc+0x2e6>
  100c2c:	85 db                	test   ebx,ebx
  100c2e:	0f 84 74 01 00 00    	je     100da8 <_ZN2os3hal17serial_controller5printEPc+0x2c8>
  100c34:	85 f6                	test   esi,esi
  100c36:	0f 85 6c 01 00 00    	jne    100da8 <_ZN2os3hal17serial_controller5printEPc+0x2c8>
  100c3c:	66 81 fd f8 03       	cmp    bp,0x3f8
  100c41:	0f 85 49 ff ff ff    	jne    100b90 <_ZN2os3hal17serial_controller5printEPc+0xb0>
  100c47:	8d 55 05             	lea    edx,[ebp+0x5]
  100c4a:	8d b6 00 00 00 00    	lea    esi,[esi+0x0]
  100c50:	85 db                	test   ebx,ebx
  100c52:	0f 84 d0 00 00 00    	je     100d28 <_ZN2os3hal17serial_controller5printEPc+0x248>
  100c58:	85 f6                	test   esi,esi
  100c5a:	0f 85 c8 00 00 00    	jne    100d28 <_ZN2os3hal17serial_controller5printEPc+0x248>
  100c60:	85 db                	test   ebx,ebx
  100c62:	0f 84 9a 00 00 00    	je     100d02 <_ZN2os3hal17serial_controller5printEPc+0x222>
  100c68:	85 f6                	test   esi,esi
  100c6a:	0f 85 92 00 00 00    	jne    100d02 <_ZN2os3hal17serial_controller5printEPc+0x222>
  100c70:	ec                   	in     al,dx
  100c71:	a8 20                	test   al,0x20
  100c73:	74 db                	je     100c50 <_ZN2os3hal17serial_controller5printEPc+0x170>
  100c75:	85 db                	test   ebx,ebx
  100c77:	74 3b                	je     100cb4 <_ZN2os3hal17serial_controller5printEPc+0x1d4>
  100c79:	85 f6                	test   esi,esi
  100c7b:	75 37                	jne    100cb4 <_ZN2os3hal17serial_controller5printEPc+0x1d4>
  100c7d:	89 c8                	mov    eax,ecx
  100c7f:	89 ea                	mov    edx,ebp
  100c81:	ee                   	out    dx,al
  100c82:	e9 56 ff ff ff       	jmp    100bdd <_ZN2os3hal17serial_controller5printEPc+0xfd>
  100c87:	83 ec 04             	sub    esp,0x4
  100c8a:	6a 01                	push   0x1
  100c8c:	57                   	push   edi
  100c8d:	68 4c 8a 10 00       	push   0x108a4c
  100c92:	e8 19 3f 00 00       	call   104bb0 <__ubsan_handle_add_overflow>
  100c97:	83 c4 10             	add    esp,0x10
  100c9a:	e9 49 ff ff ff       	jmp    100be8 <_ZN2os3hal17serial_controller5printEPc+0x108>
  100c9f:	50                   	push   eax
  100ca0:	50                   	push   eax
  100ca1:	53                   	push   ebx
  100ca2:	68 f4 8b 10 00       	push   0x108bf4
  100ca7:	e8 24 3e 00 00       	call   104ad0 <__ubsan_handle_type_mismatch>
  100cac:	83 c4 10             	add    esp,0x10
  100caf:	e9 50 fe ff ff       	jmp    100b04 <_ZN2os3hal17serial_controller5printEPc+0x24>
  100cb4:	88 4c 24 08          	mov    BYTE PTR [esp+0x8],cl
  100cb8:	52                   	push   edx
  100cb9:	52                   	push   edx
  100cba:	53                   	push   ebx
  100cbb:	68 80 8a 10 00       	push   0x108a80
  100cc0:	e8 0b 3e 00 00       	call   104ad0 <__ubsan_handle_type_mismatch>
  100cc5:	83 c4 10             	add    esp,0x10
  100cc8:	0f b6 4c 24 08       	movzx  ecx,BYTE PTR [esp+0x8]
  100ccd:	eb ae                	jmp    100c7d <_ZN2os3hal17serial_controller5printEPc+0x19d>
  100ccf:	50                   	push   eax
  100cd0:	50                   	push   eax
  100cd1:	53                   	push   ebx
  100cd2:	68 dc 8b 10 00       	push   0x108bdc
  100cd7:	e8 f4 3d 00 00       	call   104ad0 <__ubsan_handle_type_mismatch>
  100cdc:	83 c4 10             	add    esp,0x10
  100cdf:	e9 31 fe ff ff       	jmp    100b15 <_ZN2os3hal17serial_controller5printEPc+0x35>
  100ce4:	89 44 24 08          	mov    DWORD PTR [esp+0x8],eax
  100ce8:	50                   	push   eax
  100ce9:	50                   	push   eax
  100cea:	6a 00                	push   0x0
  100cec:	68 68 8a 10 00       	push   0x108a68
  100cf1:	e8 da 3d 00 00       	call   104ad0 <__ubsan_handle_type_mismatch>
  100cf6:	83 c4 10             	add    esp,0x10
  100cf9:	8b 44 24 08          	mov    eax,DWORD PTR [esp+0x8]
  100cfd:	e9 f4 fe ff ff       	jmp    100bf6 <_ZN2os3hal17serial_controller5printEPc+0x116>
  100d02:	88 4c 24 08          	mov    BYTE PTR [esp+0x8],cl
  100d06:	89 54 24 0c          	mov    DWORD PTR [esp+0xc],edx
  100d0a:	51                   	push   ecx
  100d0b:	51                   	push   ecx
  100d0c:	53                   	push   ebx
  100d0d:	68 98 8a 10 00       	push   0x108a98
  100d12:	e8 b9 3d 00 00       	call   104ad0 <__ubsan_handle_type_mismatch>
  100d17:	83 c4 10             	add    esp,0x10
  100d1a:	8b 54 24 0c          	mov    edx,DWORD PTR [esp+0xc]
  100d1e:	0f b6 4c 24 08       	movzx  ecx,BYTE PTR [esp+0x8]
  100d23:	e9 48 ff ff ff       	jmp    100c70 <_ZN2os3hal17serial_controller5printEPc+0x190>
  100d28:	89 54 24 0c          	mov    DWORD PTR [esp+0xc],edx
  100d2c:	88 4c 24 08          	mov    BYTE PTR [esp+0x8],cl
  100d30:	50                   	push   eax
  100d31:	50                   	push   eax
  100d32:	53                   	push   ebx
  100d33:	68 b0 8a 10 00       	push   0x108ab0
  100d38:	e8 93 3d 00 00       	call   104ad0 <__ubsan_handle_type_mismatch>
  100d3d:	83 c4 10             	add    esp,0x10
  100d40:	8b 54 24 0c          	mov    edx,DWORD PTR [esp+0xc]
  100d44:	0f b6 4c 24 08       	movzx  ecx,BYTE PTR [esp+0x8]
  100d49:	e9 12 ff ff ff       	jmp    100c60 <_ZN2os3hal17serial_controller5printEPc+0x180>
  100d4e:	88 4c 24 08          	mov    BYTE PTR [esp+0x8],cl
  100d52:	50                   	push   eax
  100d53:	50                   	push   eax
  100d54:	53                   	push   ebx
  100d55:	68 c8 8a 10 00       	push   0x108ac8
  100d5a:	e8 71 3d 00 00       	call   104ad0 <__ubsan_handle_type_mismatch>
  100d5f:	83 c4 10             	add    esp,0x10
  100d62:	0f b6 4c 24 08       	movzx  ecx,BYTE PTR [esp+0x8]
  100d67:	e9 6a fe ff ff       	jmp    100bd6 <_ZN2os3hal17serial_controller5printEPc+0xf6>
  100d6c:	88 4c 24 08          	mov    BYTE PTR [esp+0x8],cl
  100d70:	50                   	push   eax
  100d71:	50                   	push   eax
  100d72:	53                   	push   ebx
  100d73:	68 e0 8a 10 00       	push   0x108ae0
  100d78:	e8 53 3d 00 00       	call   104ad0 <__ubsan_handle_type_mismatch>
  100d7d:	83 c4 10             	add    esp,0x10
  100d80:	0f b6 4c 24 08       	movzx  ecx,BYTE PTR [esp+0x8]
  100d85:	e9 31 fe ff ff       	jmp    100bbb <_ZN2os3hal17serial_controller5printEPc+0xdb>
  100d8a:	88 4c 24 08          	mov    BYTE PTR [esp+0x8],cl
  100d8e:	50                   	push   eax
  100d8f:	50                   	push   eax
  100d90:	53                   	push   ebx
  100d91:	68 f8 8a 10 00       	push   0x108af8
  100d96:	e8 35 3d 00 00       	call   104ad0 <__ubsan_handle_type_mismatch>
  100d9b:	83 c4 10             	add    esp,0x10
  100d9e:	0f b6 4c 24 08       	movzx  ecx,BYTE PTR [esp+0x8]
  100da3:	e9 f8 fd ff ff       	jmp    100ba0 <_ZN2os3hal17serial_controller5printEPc+0xc0>
  100da8:	88 4c 24 08          	mov    BYTE PTR [esp+0x8],cl
  100dac:	50                   	push   eax
  100dad:	50                   	push   eax
  100dae:	53                   	push   ebx
  100daf:	68 10 8b 10 00       	push   0x108b10
  100db4:	e8 17 3d 00 00       	call   104ad0 <__ubsan_handle_type_mismatch>
  100db9:	83 c4 10             	add    esp,0x10
  100dbc:	0f b6 4c 24 08       	movzx  ecx,BYTE PTR [esp+0x8]
  100dc1:	e9 76 fe ff ff       	jmp    100c3c <_ZN2os3hal17serial_controller5printEPc+0x15c>
  100dc6:	88 4c 24 08          	mov    BYTE PTR [esp+0x8],cl
  100dca:	50                   	push   eax
  100dcb:	50                   	push   eax
  100dcc:	53                   	push   ebx
  100dcd:	68 28 8b 10 00       	push   0x108b28
  100dd2:	e8 f9 3c 00 00       	call   104ad0 <__ubsan_handle_type_mismatch>
  100dd7:	83 c4 10             	add    esp,0x10
  100dda:	0f b6 4c 24 08       	movzx  ecx,BYTE PTR [esp+0x8]
  100ddf:	e9 48 fe ff ff       	jmp    100c2c <_ZN2os3hal17serial_controller5printEPc+0x14c>
  100de4:	88 4c 24 08          	mov    BYTE PTR [esp+0x8],cl
  100de8:	52                   	push   edx
  100de9:	52                   	push   edx
  100dea:	6a 00                	push   0x0
  100dec:	68 40 8b 10 00       	push   0x108b40
  100df1:	e8 da 3c 00 00       	call   104ad0 <__ubsan_handle_type_mismatch>
  100df6:	83 c4 10             	add    esp,0x10
  100df9:	0f b6 4c 24 08       	movzx  ecx,BYTE PTR [esp+0x8]
  100dfe:	e9 19 fe ff ff       	jmp    100c1c <_ZN2os3hal17serial_controller5printEPc+0x13c>
  100e03:	88 4c 24 0c          	mov    BYTE PTR [esp+0xc],cl
  100e07:	89 44 24 08          	mov    DWORD PTR [esp+0x8],eax
  100e0b:	51                   	push   ecx
  100e0c:	51                   	push   ecx
  100e0d:	53                   	push   ebx
  100e0e:	68 58 8b 10 00       	push   0x108b58
  100e13:	e8 b8 3c 00 00       	call   104ad0 <__ubsan_handle_type_mismatch>
  100e18:	83 c4 10             	add    esp,0x10
  100e1b:	0f b6 4c 24 0c       	movzx  ecx,BYTE PTR [esp+0xc]
  100e20:	8b 44 24 08          	mov    eax,DWORD PTR [esp+0x8]
  100e24:	e9 eb fd ff ff       	jmp    100c14 <_ZN2os3hal17serial_controller5printEPc+0x134>
  100e29:	50                   	push   eax
  100e2a:	50                   	push   eax
  100e2b:	6a 00                	push   0x0
  100e2d:	68 b8 8b 10 00       	push   0x108bb8
  100e32:	e8 99 3c 00 00       	call   104ad0 <__ubsan_handle_type_mismatch>
  100e37:	83 c4 10             	add    esp,0x10
  100e3a:	e9 3d fd ff ff       	jmp    100b7c <_ZN2os3hal17serial_controller5printEPc+0x9c>
  100e3f:	50                   	push   eax
  100e40:	50                   	push   eax
  100e41:	53                   	push   ebx
  100e42:	68 a0 8b 10 00       	push   0x108ba0
  100e47:	e8 84 3c 00 00       	call   104ad0 <__ubsan_handle_type_mismatch>
  100e4c:	83 c4 10             	add    esp,0x10
  100e4f:	e9 dc fc ff ff       	jmp    100b30 <_ZN2os3hal17serial_controller5printEPc+0x50>
  100e54:	57                   	push   edi
  100e55:	57                   	push   edi
  100e56:	53                   	push   ebx
  100e57:	68 88 8b 10 00       	push   0x108b88
  100e5c:	e8 6f 3c 00 00       	call   104ad0 <__ubsan_handle_type_mismatch>
  100e61:	83 c4 10             	add    esp,0x10
  100e64:	e9 df fc ff ff       	jmp    100b48 <_ZN2os3hal17serial_controller5printEPc+0x68>
  100e69:	56                   	push   esi
  100e6a:	56                   	push   esi
  100e6b:	53                   	push   ebx
  100e6c:	68 70 8b 10 00       	push   0x108b70
  100e71:	e8 5a 3c 00 00       	call   104ad0 <__ubsan_handle_type_mismatch>
  100e76:	83 c4 10             	add    esp,0x10
  100e79:	e9 e2 fc ff ff       	jmp    100b60 <_ZN2os3hal17serial_controller5printEPc+0x80>
  100e7e:	66 90                	xchg   ax,ax

00100e80 <_ZN2os3hal17serial_controller7printlnEPc>:
  100e80:	57                   	push   edi
  100e81:	56                   	push   esi
  100e82:	53                   	push   ebx
  100e83:	83 ec 10             	sub    esp,0x10
  100e86:	8b 5c 24 20          	mov    ebx,DWORD PTR [esp+0x20]
  100e8a:	85 db                	test   ebx,ebx
  100e8c:	0f 84 61 01 00 00    	je     100ff3 <_ZN2os3hal17serial_controller7printlnEPc+0x173>
  100e92:	f6 c3 01             	test   bl,0x1
  100e95:	0f 85 58 01 00 00    	jne    100ff3 <_ZN2os3hal17serial_controller7printlnEPc+0x173>
  100e9b:	83 ec 08             	sub    esp,0x8
  100e9e:	ff 74 24 2c          	push   DWORD PTR [esp+0x2c]
  100ea2:	53                   	push   ebx
  100ea3:	e8 38 fc ff ff       	call   100ae0 <_ZN2os3hal17serial_controller5printEPc>
  100ea8:	83 c4 10             	add    esp,0x10
  100eab:	85 db                	test   ebx,ebx
  100ead:	0f 84 2b 01 00 00    	je     100fde <_ZN2os3hal17serial_controller7printlnEPc+0x15e>
  100eb3:	f6 c3 01             	test   bl,0x1
  100eb6:	0f 85 22 01 00 00    	jne    100fde <_ZN2os3hal17serial_controller7printlnEPc+0x15e>
  100ebc:	85 db                	test   ebx,ebx
  100ebe:	0f 84 05 01 00 00    	je     100fc9 <_ZN2os3hal17serial_controller7printlnEPc+0x149>
  100ec4:	f6 c3 01             	test   bl,0x1
  100ec7:	0f 85 fc 00 00 00    	jne    100fc9 <_ZN2os3hal17serial_controller7printlnEPc+0x149>
  100ecd:	85 db                	test   ebx,ebx
  100ecf:	0f 84 df 00 00 00    	je     100fb4 <_ZN2os3hal17serial_controller7printlnEPc+0x134>
  100ed5:	f6 c3 01             	test   bl,0x1
  100ed8:	0f 85 d6 00 00 00    	jne    100fb4 <_ZN2os3hal17serial_controller7printlnEPc+0x134>
  100ede:	0f b7 3b             	movzx  edi,WORD PTR [ebx]
  100ee1:	66 81 ff f8 03       	cmp    di,0x3f8
  100ee6:	74 38                	je     100f20 <_ZN2os3hal17serial_controller7printlnEPc+0xa0>
  100ee8:	85 db                	test   ebx,ebx
  100eea:	0f 84 af 00 00 00    	je     100f9f <_ZN2os3hal17serial_controller7printlnEPc+0x11f>
  100ef0:	f6 c3 01             	test   bl,0x1
  100ef3:	0f 85 a6 00 00 00    	jne    100f9f <_ZN2os3hal17serial_controller7printlnEPc+0x11f>
  100ef9:	66 81 ff f8 02       	cmp    di,0x2f8
  100efe:	74 20                	je     100f20 <_ZN2os3hal17serial_controller7printlnEPc+0xa0>
  100f00:	85 db                	test   ebx,ebx
  100f02:	74 71                	je     100f75 <_ZN2os3hal17serial_controller7printlnEPc+0xf5>
  100f04:	f6 c3 01             	test   bl,0x1
  100f07:	75 6c                	jne    100f75 <_ZN2os3hal17serial_controller7printlnEPc+0xf5>
  100f09:	66 81 ff e8 03       	cmp    di,0x3e8
  100f0e:	74 10                	je     100f20 <_ZN2os3hal17serial_controller7printlnEPc+0xa0>
  100f10:	85 db                	test   ebx,ebx
  100f12:	74 76                	je     100f8a <_ZN2os3hal17serial_controller7printlnEPc+0x10a>
  100f14:	f6 c3 01             	test   bl,0x1
  100f17:	75 71                	jne    100f8a <_ZN2os3hal17serial_controller7printlnEPc+0x10a>
  100f19:	66 81 ff e8 02       	cmp    di,0x2e8
  100f1e:	75 4e                	jne    100f6e <_ZN2os3hal17serial_controller7printlnEPc+0xee>
  100f20:	89 de                	mov    esi,ebx
  100f22:	8d 57 05             	lea    edx,[edi+0x5]
  100f25:	83 e6 01             	and    esi,0x1
  100f28:	90                   	nop
  100f29:	8d b4 26 00 00 00 00 	lea    esi,[esi+eiz*1+0x0]
  100f30:	85 db                	test   ebx,ebx
  100f32:	0f 84 02 01 00 00    	je     10103a <_ZN2os3hal17serial_controller7printlnEPc+0x1ba>
  100f38:	85 f6                	test   esi,esi
  100f3a:	0f 85 fa 00 00 00    	jne    10103a <_ZN2os3hal17serial_controller7printlnEPc+0x1ba>
  100f40:	85 db                	test   ebx,ebx
  100f42:	0f 84 d5 00 00 00    	je     10101d <_ZN2os3hal17serial_controller7printlnEPc+0x19d>
  100f48:	85 f6                	test   esi,esi
  100f4a:	0f 85 cd 00 00 00    	jne    10101d <_ZN2os3hal17serial_controller7printlnEPc+0x19d>
  100f50:	ec                   	in     al,dx
  100f51:	a8 20                	test   al,0x20
  100f53:	74 db                	je     100f30 <_ZN2os3hal17serial_controller7printlnEPc+0xb0>
  100f55:	85 db                	test   ebx,ebx
  100f57:	0f 84 ab 00 00 00    	je     101008 <_ZN2os3hal17serial_controller7printlnEPc+0x188>
  100f5d:	f6 c3 01             	test   bl,0x1
  100f60:	0f 85 a2 00 00 00    	jne    101008 <_ZN2os3hal17serial_controller7printlnEPc+0x188>
  100f66:	b8 0a 00 00 00       	mov    eax,0xa
  100f6b:	89 fa                	mov    edx,edi
  100f6d:	ee                   	out    dx,al
  100f6e:	83 c4 10             	add    esp,0x10
  100f71:	5b                   	pop    ebx
  100f72:	5e                   	pop    esi
  100f73:	5f                   	pop    edi
  100f74:	c3                   	ret    
  100f75:	50                   	push   eax
  100f76:	50                   	push   eax
  100f77:	53                   	push   ebx
  100f78:	68 bc 89 10 00       	push   0x1089bc
  100f7d:	e8 4e 3b 00 00       	call   104ad0 <__ubsan_handle_type_mismatch>
  100f82:	83 c4 10             	add    esp,0x10
  100f85:	e9 7f ff ff ff       	jmp    100f09 <_ZN2os3hal17serial_controller7printlnEPc+0x89>
  100f8a:	56                   	push   esi
  100f8b:	56                   	push   esi
  100f8c:	53                   	push   ebx
  100f8d:	68 a4 89 10 00       	push   0x1089a4
  100f92:	e8 39 3b 00 00       	call   104ad0 <__ubsan_handle_type_mismatch>
  100f97:	83 c4 10             	add    esp,0x10
  100f9a:	e9 7a ff ff ff       	jmp    100f19 <_ZN2os3hal17serial_controller7printlnEPc+0x99>
  100f9f:	50                   	push   eax
  100fa0:	50                   	push   eax
  100fa1:	53                   	push   ebx
  100fa2:	68 d4 89 10 00       	push   0x1089d4
  100fa7:	e8 24 3b 00 00       	call   104ad0 <__ubsan_handle_type_mismatch>
  100fac:	83 c4 10             	add    esp,0x10
  100faf:	e9 45 ff ff ff       	jmp    100ef9 <_ZN2os3hal17serial_controller7printlnEPc+0x79>
  100fb4:	50                   	push   eax
  100fb5:	50                   	push   eax
  100fb6:	53                   	push   ebx
  100fb7:	68 ec 89 10 00       	push   0x1089ec
  100fbc:	e8 0f 3b 00 00       	call   104ad0 <__ubsan_handle_type_mismatch>
  100fc1:	83 c4 10             	add    esp,0x10
  100fc4:	e9 15 ff ff ff       	jmp    100ede <_ZN2os3hal17serial_controller7printlnEPc+0x5e>
  100fc9:	50                   	push   eax
  100fca:	50                   	push   eax
  100fcb:	53                   	push   ebx
  100fcc:	68 04 8a 10 00       	push   0x108a04
  100fd1:	e8 fa 3a 00 00       	call   104ad0 <__ubsan_handle_type_mismatch>
  100fd6:	83 c4 10             	add    esp,0x10
  100fd9:	e9 ef fe ff ff       	jmp    100ecd <_ZN2os3hal17serial_controller7printlnEPc+0x4d>
  100fde:	50                   	push   eax
  100fdf:	50                   	push   eax
  100fe0:	53                   	push   ebx
  100fe1:	68 1c 8a 10 00       	push   0x108a1c
  100fe6:	e8 e5 3a 00 00       	call   104ad0 <__ubsan_handle_type_mismatch>
  100feb:	83 c4 10             	add    esp,0x10
  100fee:	e9 c9 fe ff ff       	jmp    100ebc <_ZN2os3hal17serial_controller7printlnEPc+0x3c>
  100ff3:	50                   	push   eax
  100ff4:	50                   	push   eax
  100ff5:	53                   	push   ebx
  100ff6:	68 34 8a 10 00       	push   0x108a34
  100ffb:	e8 d0 3a 00 00       	call   104ad0 <__ubsan_handle_type_mismatch>
  101000:	83 c4 10             	add    esp,0x10
  101003:	e9 93 fe ff ff       	jmp    100e9b <_ZN2os3hal17serial_controller7printlnEPc+0x1b>
  101008:	50                   	push   eax
  101009:	50                   	push   eax
  10100a:	53                   	push   ebx
  10100b:	68 5c 89 10 00       	push   0x10895c
  101010:	e8 bb 3a 00 00       	call   104ad0 <__ubsan_handle_type_mismatch>
  101015:	83 c4 10             	add    esp,0x10
  101018:	e9 49 ff ff ff       	jmp    100f66 <_ZN2os3hal17serial_controller7printlnEPc+0xe6>
  10101d:	89 54 24 0c          	mov    DWORD PTR [esp+0xc],edx
  101021:	52                   	push   edx
  101022:	52                   	push   edx
  101023:	53                   	push   ebx
  101024:	68 74 89 10 00       	push   0x108974
  101029:	e8 a2 3a 00 00       	call   104ad0 <__ubsan_handle_type_mismatch>
  10102e:	83 c4 10             	add    esp,0x10
  101031:	8b 54 24 0c          	mov    edx,DWORD PTR [esp+0xc]
  101035:	e9 16 ff ff ff       	jmp    100f50 <_ZN2os3hal17serial_controller7printlnEPc+0xd0>
  10103a:	89 54 24 0c          	mov    DWORD PTR [esp+0xc],edx
  10103e:	51                   	push   ecx
  10103f:	51                   	push   ecx
  101040:	53                   	push   ebx
  101041:	68 8c 89 10 00       	push   0x10898c
  101046:	e8 85 3a 00 00       	call   104ad0 <__ubsan_handle_type_mismatch>
  10104b:	83 c4 10             	add    esp,0x10
  10104e:	8b 54 24 0c          	mov    edx,DWORD PTR [esp+0xc]
  101052:	e9 e9 fe ff ff       	jmp    100f40 <_ZN2os3hal17serial_controller7printlnEPc+0xc0>
  101057:	90                   	nop
  101058:	90                   	nop
  101059:	8d b4 26 00 00 00 00 	lea    esi,[esi+eiz*1+0x0]

00101060 <_ZN2os3hal17serial_controller10vprint_fmtEPcS2_>:
  101060:	55                   	push   ebp
  101061:	57                   	push   edi
  101062:	56                   	push   esi
  101063:	53                   	push   ebx
  101064:	83 ec 2c             	sub    esp,0x2c
  101067:	8b 74 24 44          	mov    esi,DWORD PTR [esp+0x44]
  10106b:	8b 5c 24 40          	mov    ebx,DWORD PTR [esp+0x40]
  10106f:	85 f6                	test   esi,esi
  101071:	0f 84 47 0d 00 00    	je     101dbe <_ZN2os3hal17serial_controller10vprint_fmtEPcS2_+0xd5e>
  101077:	0f b6 0e             	movzx  ecx,BYTE PTR [esi]
  10107a:	84 c9                	test   cl,cl
  10107c:	0f 84 0e 02 00 00    	je     101290 <_ZN2os3hal17serial_controller10vprint_fmtEPcS2_+0x230>
  101082:	89 df                	mov    edi,ebx
  101084:	89 f5                	mov    ebp,esi
  101086:	83 e7 01             	and    edi,0x1
  101089:	e9 a7 00 00 00       	jmp    101135 <_ZN2os3hal17serial_controller10vprint_fmtEPcS2_+0xd5>
  10108e:	66 90                	xchg   ax,ax
  101090:	85 db                	test   ebx,ebx
  101092:	0f 84 96 0d 00 00    	je     101e2e <_ZN2os3hal17serial_controller10vprint_fmtEPcS2_+0xdce>
  101098:	85 ff                	test   edi,edi
  10109a:	0f 85 8e 0d 00 00    	jne    101e2e <_ZN2os3hal17serial_controller10vprint_fmtEPcS2_+0xdce>
  1010a0:	85 db                	test   ebx,ebx
  1010a2:	0f 84 68 0d 00 00    	je     101e10 <_ZN2os3hal17serial_controller10vprint_fmtEPcS2_+0xdb0>
  1010a8:	85 ff                	test   edi,edi
  1010aa:	0f 85 60 0d 00 00    	jne    101e10 <_ZN2os3hal17serial_controller10vprint_fmtEPcS2_+0xdb0>
  1010b0:	85 db                	test   ebx,ebx
  1010b2:	0f 84 3a 0d 00 00    	je     101df2 <_ZN2os3hal17serial_controller10vprint_fmtEPcS2_+0xd92>
  1010b8:	85 ff                	test   edi,edi
  1010ba:	0f 85 32 0d 00 00    	jne    101df2 <_ZN2os3hal17serial_controller10vprint_fmtEPcS2_+0xd92>
  1010c0:	0f b7 2b             	movzx  ebp,WORD PTR [ebx]
  1010c3:	66 81 fd f8 03       	cmp    bp,0x3f8
  1010c8:	0f 84 72 01 00 00    	je     101240 <_ZN2os3hal17serial_controller10vprint_fmtEPcS2_+0x1e0>
  1010ce:	85 db                	test   ebx,ebx
  1010d0:	0f 84 fe 0c 00 00    	je     101dd4 <_ZN2os3hal17serial_controller10vprint_fmtEPcS2_+0xd74>
  1010d6:	85 ff                	test   edi,edi
  1010d8:	0f 85 f6 0c 00 00    	jne    101dd4 <_ZN2os3hal17serial_controller10vprint_fmtEPcS2_+0xd74>
  1010de:	66 81 fd f8 02       	cmp    bp,0x2f8
  1010e3:	0f 84 57 01 00 00    	je     101240 <_ZN2os3hal17serial_controller10vprint_fmtEPcS2_+0x1e0>
  1010e9:	85 db                	test   ebx,ebx
  1010eb:	0f 84 2f 11 00 00    	je     102220 <_ZN2os3hal17serial_controller10vprint_fmtEPcS2_+0x11c0>
  1010f1:	85 ff                	test   edi,edi
  1010f3:	0f 85 27 11 00 00    	jne    102220 <_ZN2os3hal17serial_controller10vprint_fmtEPcS2_+0x11c0>
  1010f9:	66 81 fd e8 03       	cmp    bp,0x3e8
  1010fe:	0f 84 3c 01 00 00    	je     101240 <_ZN2os3hal17serial_controller10vprint_fmtEPcS2_+0x1e0>
  101104:	85 db                	test   ebx,ebx
  101106:	0f 84 f6 10 00 00    	je     102202 <_ZN2os3hal17serial_controller10vprint_fmtEPcS2_+0x11a2>
  10110c:	85 ff                	test   edi,edi
  10110e:	0f 85 ee 10 00 00    	jne    102202 <_ZN2os3hal17serial_controller10vprint_fmtEPcS2_+0x11a2>
  101114:	66 81 fd e8 02       	cmp    bp,0x2e8
  101119:	0f 84 21 01 00 00    	je     101240 <_ZN2os3hal17serial_controller10vprint_fmtEPcS2_+0x1e0>
  10111f:	0f b6 0c 24          	movzx  ecx,BYTE PTR [esp]
  101123:	89 f5                	mov    ebp,esi
  101125:	85 ed                	test   ebp,ebp
  101127:	0f 84 b8 10 00 00    	je     1021e5 <_ZN2os3hal17serial_controller10vprint_fmtEPcS2_+0x1185>
  10112d:	84 c9                	test   cl,cl
  10112f:	0f 84 5b 01 00 00    	je     101290 <_ZN2os3hal17serial_controller10vprint_fmtEPcS2_+0x230>
  101135:	85 ed                	test   ebp,ebp
  101137:	0f 84 64 0c 00 00    	je     101da1 <_ZN2os3hal17serial_controller10vprint_fmtEPcS2_+0xd41>
  10113d:	0f b6 45 01          	movzx  eax,BYTE PTR [ebp+0x1]
  101141:	80 f9 25             	cmp    cl,0x25
  101144:	8d 75 01             	lea    esi,[ebp+0x1]
  101147:	88 04 24             	mov    BYTE PTR [esp],al
  10114a:	0f 85 40 ff ff ff    	jne    101090 <_ZN2os3hal17serial_controller10vprint_fmtEPcS2_+0x30>
  101150:	85 f6                	test   esi,esi
  101152:	0f 84 be 0e 00 00    	je     102016 <_ZN2os3hal17serial_controller10vprint_fmtEPcS2_+0xfb6>
  101158:	80 3c 24 25          	cmp    BYTE PTR [esp],0x25
  10115c:	0f 84 3e 01 00 00    	je     1012a0 <_ZN2os3hal17serial_controller10vprint_fmtEPcS2_+0x240>
  101162:	80 3c 24 63          	cmp    BYTE PTR [esp],0x63
  101166:	0f 85 84 02 00 00    	jne    1013f0 <_ZN2os3hal17serial_controller10vprint_fmtEPcS2_+0x390>
  10116c:	85 db                	test   ebx,ebx
  10116e:	0f 84 8d 0e 00 00    	je     102001 <_ZN2os3hal17serial_controller10vprint_fmtEPcS2_+0xfa1>
  101174:	85 ff                	test   edi,edi
  101176:	0f 85 85 0e 00 00    	jne    102001 <_ZN2os3hal17serial_controller10vprint_fmtEPcS2_+0xfa1>
  10117c:	8b 44 24 48          	mov    eax,DWORD PTR [esp+0x48]
  101180:	8b 4c 24 48          	mov    ecx,DWORD PTR [esp+0x48]
  101184:	83 c0 04             	add    eax,0x4
  101187:	85 c9                	test   ecx,ecx
  101189:	89 04 24             	mov    DWORD PTR [esp],eax
  10118c:	0f 84 57 0e 00 00    	je     101fe9 <_ZN2os3hal17serial_controller10vprint_fmtEPcS2_+0xf89>
  101192:	f6 44 24 48 03       	test   BYTE PTR [esp+0x48],0x3
  101197:	0f 85 4c 0e 00 00    	jne    101fe9 <_ZN2os3hal17serial_controller10vprint_fmtEPcS2_+0xf89>
  10119d:	8b 44 24 48          	mov    eax,DWORD PTR [esp+0x48]
  1011a1:	85 db                	test   ebx,ebx
  1011a3:	8b 00                	mov    eax,DWORD PTR [eax]
  1011a5:	89 44 24 04          	mov    DWORD PTR [esp+0x4],eax
  1011a9:	0f 84 b2 0c 00 00    	je     101e61 <_ZN2os3hal17serial_controller10vprint_fmtEPcS2_+0xe01>
  1011af:	85 ff                	test   edi,edi
  1011b1:	0f 85 aa 0c 00 00    	jne    101e61 <_ZN2os3hal17serial_controller10vprint_fmtEPcS2_+0xe01>
  1011b7:	85 db                	test   ebx,ebx
  1011b9:	0f 84 8d 0c 00 00    	je     101e4c <_ZN2os3hal17serial_controller10vprint_fmtEPcS2_+0xdec>
  1011bf:	85 ff                	test   edi,edi
  1011c1:	0f 85 85 0c 00 00    	jne    101e4c <_ZN2os3hal17serial_controller10vprint_fmtEPcS2_+0xdec>
  1011c7:	0f b7 0b             	movzx  ecx,WORD PTR [ebx]
  1011ca:	8d 75 02             	lea    esi,[ebp+0x2]
  1011cd:	66 81 f9 f8 03       	cmp    cx,0x3f8
  1011d2:	0f 84 18 03 00 00    	je     1014f0 <_ZN2os3hal17serial_controller10vprint_fmtEPcS2_+0x490>
  1011d8:	85 db                	test   ebx,ebx
  1011da:	0f 84 8f 0b 00 00    	je     101d6f <_ZN2os3hal17serial_controller10vprint_fmtEPcS2_+0xd0f>
  1011e0:	85 ff                	test   edi,edi
  1011e2:	0f 85 87 0b 00 00    	jne    101d6f <_ZN2os3hal17serial_controller10vprint_fmtEPcS2_+0xd0f>
  1011e8:	66 81 f9 f8 02       	cmp    cx,0x2f8
  1011ed:	0f 84 fd 02 00 00    	je     1014f0 <_ZN2os3hal17serial_controller10vprint_fmtEPcS2_+0x490>
  1011f3:	85 db                	test   ebx,ebx
  1011f5:	0f 84 86 0f 00 00    	je     102181 <_ZN2os3hal17serial_controller10vprint_fmtEPcS2_+0x1121>
  1011fb:	85 ff                	test   edi,edi
  1011fd:	0f 85 7e 0f 00 00    	jne    102181 <_ZN2os3hal17serial_controller10vprint_fmtEPcS2_+0x1121>
  101203:	66 81 f9 e8 03       	cmp    cx,0x3e8
  101208:	0f 84 e2 02 00 00    	je     1014f0 <_ZN2os3hal17serial_controller10vprint_fmtEPcS2_+0x490>
  10120e:	85 db                	test   ebx,ebx
  101210:	0f 84 88 0f 00 00    	je     10219e <_ZN2os3hal17serial_controller10vprint_fmtEPcS2_+0x113e>
  101216:	85 ff                	test   edi,edi
  101218:	0f 85 80 0f 00 00    	jne    10219e <_ZN2os3hal17serial_controller10vprint_fmtEPcS2_+0x113e>
  10121e:	66 81 f9 e8 02       	cmp    cx,0x2e8
  101223:	0f 84 c7 02 00 00    	je     1014f0 <_ZN2os3hal17serial_controller10vprint_fmtEPcS2_+0x490>
  101229:	8b 04 24             	mov    eax,DWORD PTR [esp]
  10122c:	0f b6 4d 02          	movzx  ecx,BYTE PTR [ebp+0x2]
  101230:	89 f5                	mov    ebp,esi
  101232:	89 44 24 48          	mov    DWORD PTR [esp+0x48],eax
  101236:	e9 ea fe ff ff       	jmp    101125 <_ZN2os3hal17serial_controller10vprint_fmtEPcS2_+0xc5>
  10123b:	90                   	nop
  10123c:	8d 74 26 00          	lea    esi,[esi+eiz*1+0x0]
  101240:	8d 55 05             	lea    edx,[ebp+0x5]
  101243:	8d b6 00 00 00 00    	lea    esi,[esi+0x0]
  101249:	8d bc 27 00 00 00 00 	lea    edi,[edi+eiz*1+0x0]
  101250:	85 db                	test   ebx,ebx
  101252:	0f 84 7a 0e 00 00    	je     1020d2 <_ZN2os3hal17serial_controller10vprint_fmtEPcS2_+0x1072>
  101258:	85 ff                	test   edi,edi
  10125a:	0f 85 72 0e 00 00    	jne    1020d2 <_ZN2os3hal17serial_controller10vprint_fmtEPcS2_+0x1072>
  101260:	85 db                	test   ebx,ebx
  101262:	0f 84 e1 0a 00 00    	je     101d49 <_ZN2os3hal17serial_controller10vprint_fmtEPcS2_+0xce9>
  101268:	85 ff                	test   edi,edi
  10126a:	0f 85 d9 0a 00 00    	jne    101d49 <_ZN2os3hal17serial_controller10vprint_fmtEPcS2_+0xce9>
  101270:	ec                   	in     al,dx
  101271:	a8 20                	test   al,0x20
  101273:	74 db                	je     101250 <_ZN2os3hal17serial_controller10vprint_fmtEPcS2_+0x1f0>
  101275:	85 db                	test   ebx,ebx
  101277:	0f 84 ae 0a 00 00    	je     101d2b <_ZN2os3hal17serial_controller10vprint_fmtEPcS2_+0xccb>
  10127d:	85 ff                	test   edi,edi
  10127f:	0f 85 a6 0a 00 00    	jne    101d2b <_ZN2os3hal17serial_controller10vprint_fmtEPcS2_+0xccb>
  101285:	89 c8                	mov    eax,ecx
  101287:	89 ea                	mov    edx,ebp
  101289:	ee                   	out    dx,al
  10128a:	e9 90 fe ff ff       	jmp    10111f <_ZN2os3hal17serial_controller10vprint_fmtEPcS2_+0xbf>
  10128f:	90                   	nop
  101290:	83 c4 2c             	add    esp,0x2c
  101293:	5b                   	pop    ebx
  101294:	5e                   	pop    esi
  101295:	5f                   	pop    edi
  101296:	5d                   	pop    ebp
  101297:	c3                   	ret    
  101298:	90                   	nop
  101299:	8d b4 26 00 00 00 00 	lea    esi,[esi+eiz*1+0x0]
  1012a0:	85 db                	test   ebx,ebx
  1012a2:	0f 84 44 0a 00 00    	je     101cec <_ZN2os3hal17serial_controller10vprint_fmtEPcS2_+0xc8c>
  1012a8:	85 ff                	test   edi,edi
  1012aa:	0f 85 3c 0a 00 00    	jne    101cec <_ZN2os3hal17serial_controller10vprint_fmtEPcS2_+0xc8c>
  1012b0:	85 db                	test   ebx,ebx
  1012b2:	0f 84 40 0e 00 00    	je     1020f8 <_ZN2os3hal17serial_controller10vprint_fmtEPcS2_+0x1098>
  1012b8:	85 ff                	test   edi,edi
  1012ba:	0f 85 38 0e 00 00    	jne    1020f8 <_ZN2os3hal17serial_controller10vprint_fmtEPcS2_+0x1098>
  1012c0:	85 db                	test   ebx,ebx
  1012c2:	0f 84 c4 0a 00 00    	je     101d8c <_ZN2os3hal17serial_controller10vprint_fmtEPcS2_+0xd2c>
  1012c8:	85 ff                	test   edi,edi
  1012ca:	0f 85 bc 0a 00 00    	jne    101d8c <_ZN2os3hal17serial_controller10vprint_fmtEPcS2_+0xd2c>
  1012d0:	0f b7 33             	movzx  esi,WORD PTR [ebx]
  1012d3:	66 81 fe f8 03       	cmp    si,0x3f8
  1012d8:	0f 84 72 02 00 00    	je     101550 <_ZN2os3hal17serial_controller10vprint_fmtEPcS2_+0x4f0>
  1012de:	85 db                	test   ebx,ebx
  1012e0:	0f 84 d7 0d 00 00    	je     1020bd <_ZN2os3hal17serial_controller10vprint_fmtEPcS2_+0x105d>
  1012e6:	85 ff                	test   edi,edi
  1012e8:	0f 85 cf 0d 00 00    	jne    1020bd <_ZN2os3hal17serial_controller10vprint_fmtEPcS2_+0x105d>
  1012ee:	66 81 fe f8 02       	cmp    si,0x2f8
  1012f3:	0f 84 57 02 00 00    	je     101550 <_ZN2os3hal17serial_controller10vprint_fmtEPcS2_+0x4f0>
  1012f9:	85 db                	test   ebx,ebx
  1012fb:	0f 84 3d 0f 00 00    	je     10223e <_ZN2os3hal17serial_controller10vprint_fmtEPcS2_+0x11de>
  101301:	85 ff                	test   edi,edi
  101303:	0f 85 35 0f 00 00    	jne    10223e <_ZN2os3hal17serial_controller10vprint_fmtEPcS2_+0x11de>
  101309:	66 81 fe e8 03       	cmp    si,0x3e8
  10130e:	0f 84 3c 02 00 00    	je     101550 <_ZN2os3hal17serial_controller10vprint_fmtEPcS2_+0x4f0>
  101314:	85 db                	test   ebx,ebx
  101316:	0f 84 b4 0e 00 00    	je     1021d0 <_ZN2os3hal17serial_controller10vprint_fmtEPcS2_+0x1170>
  10131c:	85 ff                	test   edi,edi
  10131e:	0f 85 ac 0e 00 00    	jne    1021d0 <_ZN2os3hal17serial_controller10vprint_fmtEPcS2_+0x1170>
  101324:	66 81 fe e8 02       	cmp    si,0x2e8
  101329:	0f 84 21 02 00 00    	je     101550 <_ZN2os3hal17serial_controller10vprint_fmtEPcS2_+0x4f0>
  10132f:	80 3c 24 66          	cmp    BYTE PTR [esp],0x66
  101333:	8d 45 02             	lea    eax,[ebp+0x2]
  101336:	89 44 24 04          	mov    DWORD PTR [esp+0x4],eax
  10133a:	0f 84 62 02 00 00    	je     1015a2 <_ZN2os3hal17serial_controller10vprint_fmtEPcS2_+0x542>
  101340:	80 3c 24 73          	cmp    BYTE PTR [esp],0x73
  101344:	0f 84 5a 07 00 00    	je     101aa4 <_ZN2os3hal17serial_controller10vprint_fmtEPcS2_+0xa44>
  10134a:	85 db                	test   ebx,ebx
  10134c:	0f 84 c4 09 00 00    	je     101d16 <_ZN2os3hal17serial_controller10vprint_fmtEPcS2_+0xcb6>
  101352:	85 ff                	test   edi,edi
  101354:	0f 85 bc 09 00 00    	jne    101d16 <_ZN2os3hal17serial_controller10vprint_fmtEPcS2_+0xcb6>
  10135a:	85 db                	test   ebx,ebx
  10135c:	0f 84 9f 09 00 00    	je     101d01 <_ZN2os3hal17serial_controller10vprint_fmtEPcS2_+0xca1>
  101362:	85 ff                	test   edi,edi
  101364:	0f 85 97 09 00 00    	jne    101d01 <_ZN2os3hal17serial_controller10vprint_fmtEPcS2_+0xca1>
  10136a:	85 db                	test   ebx,ebx
  10136c:	0f 84 62 0c 00 00    	je     101fd4 <_ZN2os3hal17serial_controller10vprint_fmtEPcS2_+0xf74>
  101372:	85 ff                	test   edi,edi
  101374:	0f 85 5a 0c 00 00    	jne    101fd4 <_ZN2os3hal17serial_controller10vprint_fmtEPcS2_+0xf74>
  10137a:	0f b7 33             	movzx  esi,WORD PTR [ebx]
  10137d:	66 81 fe f8 03       	cmp    si,0x3f8
  101382:	0f 84 25 02 00 00    	je     1015ad <_ZN2os3hal17serial_controller10vprint_fmtEPcS2_+0x54d>
  101388:	85 db                	test   ebx,ebx
  10138a:	0f 84 2f 0c 00 00    	je     101fbf <_ZN2os3hal17serial_controller10vprint_fmtEPcS2_+0xf5f>
  101390:	85 ff                	test   edi,edi
  101392:	0f 85 27 0c 00 00    	jne    101fbf <_ZN2os3hal17serial_controller10vprint_fmtEPcS2_+0xf5f>
  101398:	66 81 fe f8 02       	cmp    si,0x2f8
  10139d:	0f 84 0a 02 00 00    	je     1015ad <_ZN2os3hal17serial_controller10vprint_fmtEPcS2_+0x54d>
  1013a3:	85 db                	test   ebx,ebx
  1013a5:	0f 84 ff 0b 00 00    	je     101faa <_ZN2os3hal17serial_controller10vprint_fmtEPcS2_+0xf4a>
  1013ab:	85 ff                	test   edi,edi
  1013ad:	0f 85 f7 0b 00 00    	jne    101faa <_ZN2os3hal17serial_controller10vprint_fmtEPcS2_+0xf4a>
  1013b3:	66 81 fe e8 03       	cmp    si,0x3e8
  1013b8:	0f 84 ef 01 00 00    	je     1015ad <_ZN2os3hal17serial_controller10vprint_fmtEPcS2_+0x54d>
  1013be:	85 db                	test   ebx,ebx
  1013c0:	0f 84 cf 0b 00 00    	je     101f95 <_ZN2os3hal17serial_controller10vprint_fmtEPcS2_+0xf35>
  1013c6:	85 ff                	test   edi,edi
  1013c8:	0f 85 c7 0b 00 00    	jne    101f95 <_ZN2os3hal17serial_controller10vprint_fmtEPcS2_+0xf35>
  1013ce:	66 81 fe e8 02       	cmp    si,0x2e8
  1013d3:	0f 84 d4 01 00 00    	je     1015ad <_ZN2os3hal17serial_controller10vprint_fmtEPcS2_+0x54d>
  1013d9:	0f b6 4d 02          	movzx  ecx,BYTE PTR [ebp+0x2]
  1013dd:	8b 6c 24 04          	mov    ebp,DWORD PTR [esp+0x4]
  1013e1:	e9 3f fd ff ff       	jmp    101125 <_ZN2os3hal17serial_controller10vprint_fmtEPcS2_+0xc5>
  1013e6:	8d 76 00             	lea    esi,[esi+0x0]
  1013e9:	8d bc 27 00 00 00 00 	lea    edi,[edi+eiz*1+0x0]
  1013f0:	80 3c 24 64          	cmp    BYTE PTR [esp],0x64
  1013f4:	0f 84 86 00 00 00    	je     101480 <_ZN2os3hal17serial_controller10vprint_fmtEPcS2_+0x420>
  1013fa:	80 3c 24 75          	cmp    BYTE PTR [esp],0x75
  1013fe:	0f 85 fc 01 00 00    	jne    101600 <_ZN2os3hal17serial_controller10vprint_fmtEPcS2_+0x5a0>
  101404:	8b 74 24 48          	mov    esi,DWORD PTR [esp+0x48]
  101408:	83 c6 04             	add    esi,0x4
  10140b:	0f 84 aa 0d 00 00    	je     1021bb <_ZN2os3hal17serial_controller10vprint_fmtEPcS2_+0x115b>
  101411:	f7 c6 03 00 00 00    	test   esi,0x3
  101417:	0f 85 9e 0d 00 00    	jne    1021bb <_ZN2os3hal17serial_controller10vprint_fmtEPcS2_+0x115b>
  10141d:	8b 44 24 48          	mov    eax,DWORD PTR [esp+0x48]
  101421:	83 ec 04             	sub    esp,0x4
  101424:	8b 00                	mov    eax,DWORD PTR [eax]
  101426:	89 44 24 04          	mov    DWORD PTR [esp+0x4],eax
  10142a:	6a 10                	push   0x10
  10142c:	6a 00                	push   0x0
  10142e:	8d 54 24 1c          	lea    edx,[esp+0x1c]
  101432:	52                   	push   edx
  101433:	89 54 24 14          	mov    DWORD PTR [esp+0x14],edx
  101437:	e8 94 26 00 00       	call   103ad0 <memset>
  10143c:	83 c4 10             	add    esp,0x10
  10143f:	85 db                	test   ebx,ebx
  101441:	8b 54 24 04          	mov    edx,DWORD PTR [esp+0x4]
  101445:	0f 84 c2 0c 00 00    	je     10210d <_ZN2os3hal17serial_controller10vprint_fmtEPcS2_+0x10ad>
  10144b:	85 ff                	test   edi,edi
  10144d:	0f 85 ba 0c 00 00    	jne    10210d <_ZN2os3hal17serial_controller10vprint_fmtEPcS2_+0x10ad>
  101453:	83 ec 04             	sub    esp,0x4
  101456:	6a 0a                	push   0xa
  101458:	52                   	push   edx
  101459:	ff 74 24 0c          	push   DWORD PTR [esp+0xc]
  10145d:	e8 4e 1d 00 00       	call   1031b0 <ltoa>
  101462:	5a                   	pop    edx
  101463:	59                   	pop    ecx
  101464:	50                   	push   eax
  101465:	53                   	push   ebx
  101466:	83 c5 02             	add    ebp,0x2
  101469:	e8 72 f6 ff ff       	call   100ae0 <_ZN2os3hal17serial_controller5printEPc>
  10146e:	83 c4 10             	add    esp,0x10
  101471:	0f b6 4d 00          	movzx  ecx,BYTE PTR [ebp+0x0]
  101475:	89 74 24 48          	mov    DWORD PTR [esp+0x48],esi
  101479:	e9 a7 fc ff ff       	jmp    101125 <_ZN2os3hal17serial_controller10vprint_fmtEPcS2_+0xc5>
  10147e:	66 90                	xchg   ax,ax
  101480:	8b 74 24 48          	mov    esi,DWORD PTR [esp+0x48]
  101484:	83 c6 04             	add    esi,0x4
  101487:	0f 84 9d 0c 00 00    	je     10212a <_ZN2os3hal17serial_controller10vprint_fmtEPcS2_+0x10ca>
  10148d:	f7 c6 03 00 00 00    	test   esi,0x3
  101493:	0f 85 91 0c 00 00    	jne    10212a <_ZN2os3hal17serial_controller10vprint_fmtEPcS2_+0x10ca>
  101499:	8b 44 24 48          	mov    eax,DWORD PTR [esp+0x48]
  10149d:	83 ec 04             	sub    esp,0x4
  1014a0:	8b 00                	mov    eax,DWORD PTR [eax]
  1014a2:	89 44 24 04          	mov    DWORD PTR [esp+0x4],eax
  1014a6:	6a 10                	push   0x10
  1014a8:	6a 00                	push   0x0
  1014aa:	8d 54 24 1c          	lea    edx,[esp+0x1c]
  1014ae:	52                   	push   edx
  1014af:	89 54 24 14          	mov    DWORD PTR [esp+0x14],edx
  1014b3:	e8 18 26 00 00       	call   103ad0 <memset>
  1014b8:	83 c4 10             	add    esp,0x10
  1014bb:	85 db                	test   ebx,ebx
  1014bd:	8b 54 24 04          	mov    edx,DWORD PTR [esp+0x4]
  1014c1:	0f 84 78 0c 00 00    	je     10213f <_ZN2os3hal17serial_controller10vprint_fmtEPcS2_+0x10df>
  1014c7:	85 ff                	test   edi,edi
  1014c9:	0f 85 70 0c 00 00    	jne    10213f <_ZN2os3hal17serial_controller10vprint_fmtEPcS2_+0x10df>
  1014cf:	83 ec 04             	sub    esp,0x4
  1014d2:	6a 0a                	push   0xa
  1014d4:	52                   	push   edx
  1014d5:	ff 74 24 0c          	push   DWORD PTR [esp+0xc]
  1014d9:	e8 22 17 00 00       	call   102c00 <itoa>
  1014de:	e9 7f ff ff ff       	jmp    101462 <_ZN2os3hal17serial_controller10vprint_fmtEPcS2_+0x402>
  1014e3:	8d b6 00 00 00 00    	lea    esi,[esi+0x0]
  1014e9:	8d bc 27 00 00 00 00 	lea    edi,[edi+eiz*1+0x0]
  1014f0:	8d 51 05             	lea    edx,[ecx+0x5]
  1014f3:	8d b6 00 00 00 00    	lea    esi,[esi+0x0]
  1014f9:	8d bc 27 00 00 00 00 	lea    edi,[edi+eiz*1+0x0]
  101500:	85 db                	test   ebx,ebx
  101502:	0f 84 54 0c 00 00    	je     10215c <_ZN2os3hal17serial_controller10vprint_fmtEPcS2_+0x10fc>
  101508:	85 ff                	test   edi,edi
  10150a:	0f 85 4c 0c 00 00    	jne    10215c <_ZN2os3hal17serial_controller10vprint_fmtEPcS2_+0x10fc>
  101510:	85 db                	test   ebx,ebx
  101512:	0f 84 14 0b 00 00    	je     10202c <_ZN2os3hal17serial_controller10vprint_fmtEPcS2_+0xfcc>
  101518:	85 ff                	test   edi,edi
  10151a:	0f 85 0c 0b 00 00    	jne    10202c <_ZN2os3hal17serial_controller10vprint_fmtEPcS2_+0xfcc>
  101520:	ec                   	in     al,dx
  101521:	a8 20                	test   al,0x20
  101523:	74 db                	je     101500 <_ZN2os3hal17serial_controller10vprint_fmtEPcS2_+0x4a0>
  101525:	85 db                	test   ebx,ebx
  101527:	0f 84 24 0b 00 00    	je     102051 <_ZN2os3hal17serial_controller10vprint_fmtEPcS2_+0xff1>
  10152d:	85 ff                	test   edi,edi
  10152f:	0f 85 1c 0b 00 00    	jne    102051 <_ZN2os3hal17serial_controller10vprint_fmtEPcS2_+0xff1>
  101535:	0f b6 44 24 04       	movzx  eax,BYTE PTR [esp+0x4]
  10153a:	89 ca                	mov    edx,ecx
  10153c:	ee                   	out    dx,al
  10153d:	e9 e7 fc ff ff       	jmp    101229 <_ZN2os3hal17serial_controller10vprint_fmtEPcS2_+0x1c9>
  101542:	8d b4 26 00 00 00 00 	lea    esi,[esi+eiz*1+0x0]
  101549:	8d bc 27 00 00 00 00 	lea    edi,[edi+eiz*1+0x0]
  101550:	8d 56 05             	lea    edx,[esi+0x5]
  101553:	8d b6 00 00 00 00    	lea    esi,[esi+0x0]
  101559:	8d bc 27 00 00 00 00 	lea    edi,[edi+eiz*1+0x0]
  101560:	85 db                	test   ebx,ebx
  101562:	0f 84 06 0b 00 00    	je     10206e <_ZN2os3hal17serial_controller10vprint_fmtEPcS2_+0x100e>
  101568:	85 ff                	test   edi,edi
  10156a:	0f 85 fe 0a 00 00    	jne    10206e <_ZN2os3hal17serial_controller10vprint_fmtEPcS2_+0x100e>
  101570:	85 db                	test   ebx,ebx
  101572:	0f 84 13 0b 00 00    	je     10208b <_ZN2os3hal17serial_controller10vprint_fmtEPcS2_+0x102b>
  101578:	85 ff                	test   edi,edi
  10157a:	0f 85 0b 0b 00 00    	jne    10208b <_ZN2os3hal17serial_controller10vprint_fmtEPcS2_+0x102b>
  101580:	ec                   	in     al,dx
  101581:	a8 20                	test   al,0x20
  101583:	74 db                	je     101560 <_ZN2os3hal17serial_controller10vprint_fmtEPcS2_+0x500>
  101585:	85 db                	test   ebx,ebx
  101587:	0f 84 1b 0b 00 00    	je     1020a8 <_ZN2os3hal17serial_controller10vprint_fmtEPcS2_+0x1048>
  10158d:	85 ff                	test   edi,edi
  10158f:	0f 85 13 0b 00 00    	jne    1020a8 <_ZN2os3hal17serial_controller10vprint_fmtEPcS2_+0x1048>
  101595:	b8 25 00 00 00       	mov    eax,0x25
  10159a:	89 f2                	mov    edx,esi
  10159c:	ee                   	out    dx,al
  10159d:	e9 8d fd ff ff       	jmp    10132f <_ZN2os3hal17serial_controller10vprint_fmtEPcS2_+0x2cf>
  1015a2:	0f b6 4d 02          	movzx  ecx,BYTE PTR [ebp+0x2]
  1015a6:	89 c5                	mov    ebp,eax
  1015a8:	e9 78 fb ff ff       	jmp    101125 <_ZN2os3hal17serial_controller10vprint_fmtEPcS2_+0xc5>
  1015ad:	8d 56 05             	lea    edx,[esi+0x5]
  1015b0:	85 db                	test   ebx,ebx
  1015b2:	0f 84 c0 09 00 00    	je     101f78 <_ZN2os3hal17serial_controller10vprint_fmtEPcS2_+0xf18>
  1015b8:	85 ff                	test   edi,edi
  1015ba:	0f 85 b8 09 00 00    	jne    101f78 <_ZN2os3hal17serial_controller10vprint_fmtEPcS2_+0xf18>
  1015c0:	85 db                	test   ebx,ebx
  1015c2:	0f 84 93 09 00 00    	je     101f5b <_ZN2os3hal17serial_controller10vprint_fmtEPcS2_+0xefb>
  1015c8:	85 ff                	test   edi,edi
  1015ca:	0f 85 8b 09 00 00    	jne    101f5b <_ZN2os3hal17serial_controller10vprint_fmtEPcS2_+0xefb>
  1015d0:	ec                   	in     al,dx
  1015d1:	a8 20                	test   al,0x20
  1015d3:	74 db                	je     1015b0 <_ZN2os3hal17serial_controller10vprint_fmtEPcS2_+0x550>
  1015d5:	85 db                	test   ebx,ebx
  1015d7:	0f 84 69 09 00 00    	je     101f46 <_ZN2os3hal17serial_controller10vprint_fmtEPcS2_+0xee6>
  1015dd:	85 ff                	test   edi,edi
  1015df:	0f 85 61 09 00 00    	jne    101f46 <_ZN2os3hal17serial_controller10vprint_fmtEPcS2_+0xee6>
  1015e5:	0f b6 04 24          	movzx  eax,BYTE PTR [esp]
  1015e9:	89 f2                	mov    edx,esi
  1015eb:	ee                   	out    dx,al
  1015ec:	e9 e8 fd ff ff       	jmp    1013d9 <_ZN2os3hal17serial_controller10vprint_fmtEPcS2_+0x379>
  1015f1:	eb 0d                	jmp    101600 <_ZN2os3hal17serial_controller10vprint_fmtEPcS2_+0x5a0>
  1015f3:	90                   	nop
  1015f4:	90                   	nop
  1015f5:	90                   	nop
  1015f6:	90                   	nop
  1015f7:	90                   	nop
  1015f8:	90                   	nop
  1015f9:	90                   	nop
  1015fa:	90                   	nop
  1015fb:	90                   	nop
  1015fc:	90                   	nop
  1015fd:	90                   	nop
  1015fe:	90                   	nop
  1015ff:	90                   	nop
  101600:	80 3c 24 78          	cmp    BYTE PTR [esp],0x78
  101604:	75 59                	jne    10165f <_ZN2os3hal17serial_controller10vprint_fmtEPcS2_+0x5ff>
  101606:	8b 74 24 48          	mov    esi,DWORD PTR [esp+0x48]
  10160a:	83 c6 04             	add    esi,0x4
  10160d:	0f 84 1e 09 00 00    	je     101f31 <_ZN2os3hal17serial_controller10vprint_fmtEPcS2_+0xed1>
  101613:	f7 c6 03 00 00 00    	test   esi,0x3
  101619:	0f 85 12 09 00 00    	jne    101f31 <_ZN2os3hal17serial_controller10vprint_fmtEPcS2_+0xed1>
  10161f:	8b 44 24 48          	mov    eax,DWORD PTR [esp+0x48]
  101623:	83 ec 04             	sub    esp,0x4
  101626:	8b 00                	mov    eax,DWORD PTR [eax]
  101628:	89 44 24 04          	mov    DWORD PTR [esp+0x4],eax
  10162c:	6a 10                	push   0x10
  10162e:	6a 00                	push   0x0
  101630:	8d 54 24 1c          	lea    edx,[esp+0x1c]
  101634:	52                   	push   edx
  101635:	89 54 24 14          	mov    DWORD PTR [esp+0x14],edx
  101639:	e8 92 24 00 00       	call   103ad0 <memset>
  10163e:	83 c4 10             	add    esp,0x10
  101641:	85 db                	test   ebx,ebx
  101643:	8b 54 24 04          	mov    edx,DWORD PTR [esp+0x4]
  101647:	0f 84 73 08 00 00    	je     101ec0 <_ZN2os3hal17serial_controller10vprint_fmtEPcS2_+0xe60>
  10164d:	85 ff                	test   edi,edi
  10164f:	0f 85 6b 08 00 00    	jne    101ec0 <_ZN2os3hal17serial_controller10vprint_fmtEPcS2_+0xe60>
  101655:	83 ec 04             	sub    esp,0x4
  101658:	6a 10                	push   0x10
  10165a:	e9 f9 fd ff ff       	jmp    101458 <_ZN2os3hal17serial_controller10vprint_fmtEPcS2_+0x3f8>
  10165f:	80 3c 24 32          	cmp    BYTE PTR [esp],0x32
  101663:	0f 84 17 01 00 00    	je     101780 <_ZN2os3hal17serial_controller10vprint_fmtEPcS2_+0x720>
  101669:	80 3c 24 34          	cmp    BYTE PTR [esp],0x34
  10166d:	0f 84 c8 01 00 00    	je     10183b <_ZN2os3hal17serial_controller10vprint_fmtEPcS2_+0x7db>
  101673:	80 3c 24 38          	cmp    BYTE PTR [esp],0x38
  101677:	0f 85 b2 fc ff ff    	jne    10132f <_ZN2os3hal17serial_controller10vprint_fmtEPcS2_+0x2cf>
  10167d:	83 fd fe             	cmp    ebp,0xfffffffe
  101680:	0f 84 24 08 00 00    	je     101eaa <_ZN2os3hal17serial_controller10vprint_fmtEPcS2_+0xe4a>
  101686:	0f b6 45 02          	movzx  eax,BYTE PTR [ebp+0x2]
  10168a:	8d 4d 03             	lea    ecx,[ebp+0x3]
  10168d:	89 0c 24             	mov    DWORD PTR [esp],ecx
  101690:	88 44 24 04          	mov    BYTE PTR [esp+0x4],al
  101694:	83 e0 df             	and    eax,0xffffffdf
  101697:	3c 58                	cmp    al,0x58
  101699:	0f 84 b3 03 00 00    	je     101a52 <_ZN2os3hal17serial_controller10vprint_fmtEPcS2_+0x9f2>
  10169f:	85 db                	test   ebx,ebx
  1016a1:	0f 84 4f 04 00 00    	je     101af6 <_ZN2os3hal17serial_controller10vprint_fmtEPcS2_+0xa96>
  1016a7:	85 ff                	test   edi,edi
  1016a9:	0f 85 47 04 00 00    	jne    101af6 <_ZN2os3hal17serial_controller10vprint_fmtEPcS2_+0xa96>
  1016af:	85 db                	test   ebx,ebx
  1016b1:	0f 84 3b 08 00 00    	je     101ef2 <_ZN2os3hal17serial_controller10vprint_fmtEPcS2_+0xe92>
  1016b7:	85 ff                	test   edi,edi
  1016b9:	0f 85 33 08 00 00    	jne    101ef2 <_ZN2os3hal17serial_controller10vprint_fmtEPcS2_+0xe92>
  1016bf:	85 db                	test   ebx,ebx
  1016c1:	0f 84 16 08 00 00    	je     101edd <_ZN2os3hal17serial_controller10vprint_fmtEPcS2_+0xe7d>
  1016c7:	85 ff                	test   edi,edi
  1016c9:	0f 85 0e 08 00 00    	jne    101edd <_ZN2os3hal17serial_controller10vprint_fmtEPcS2_+0xe7d>
  1016cf:	0f b7 33             	movzx  esi,WORD PTR [ebx]
  1016d2:	66 81 fe f8 03       	cmp    si,0x3f8
  1016d7:	74 49                	je     101722 <_ZN2os3hal17serial_controller10vprint_fmtEPcS2_+0x6c2>
  1016d9:	85 db                	test   ebx,ebx
  1016db:	0f 84 ce 04 00 00    	je     101baf <_ZN2os3hal17serial_controller10vprint_fmtEPcS2_+0xb4f>
  1016e1:	85 ff                	test   edi,edi
  1016e3:	0f 85 c6 04 00 00    	jne    101baf <_ZN2os3hal17serial_controller10vprint_fmtEPcS2_+0xb4f>
  1016e9:	66 81 fe f8 02       	cmp    si,0x2f8
  1016ee:	74 32                	je     101722 <_ZN2os3hal17serial_controller10vprint_fmtEPcS2_+0x6c2>
  1016f0:	85 db                	test   ebx,ebx
  1016f2:	0f 84 24 08 00 00    	je     101f1c <_ZN2os3hal17serial_controller10vprint_fmtEPcS2_+0xebc>
  1016f8:	85 ff                	test   edi,edi
  1016fa:	0f 85 1c 08 00 00    	jne    101f1c <_ZN2os3hal17serial_controller10vprint_fmtEPcS2_+0xebc>
  101700:	66 81 fe e8 03       	cmp    si,0x3e8
  101705:	74 1b                	je     101722 <_ZN2os3hal17serial_controller10vprint_fmtEPcS2_+0x6c2>
  101707:	85 db                	test   ebx,ebx
  101709:	0f 84 f8 07 00 00    	je     101f07 <_ZN2os3hal17serial_controller10vprint_fmtEPcS2_+0xea7>
  10170f:	85 ff                	test   edi,edi
  101711:	0f 85 f0 07 00 00    	jne    101f07 <_ZN2os3hal17serial_controller10vprint_fmtEPcS2_+0xea7>
  101717:	66 81 fe e8 02       	cmp    si,0x2e8
  10171c:	0f 85 0d 01 00 00    	jne    10182f <_ZN2os3hal17serial_controller10vprint_fmtEPcS2_+0x7cf>
  101722:	8d 56 05             	lea    edx,[esi+0x5]
  101725:	8d 74 26 00          	lea    esi,[esi+eiz*1+0x0]
  101729:	8d bc 27 00 00 00 00 	lea    edi,[edi+eiz*1+0x0]
  101730:	85 db                	test   ebx,ebx
  101732:	0f 84 5a 04 00 00    	je     101b92 <_ZN2os3hal17serial_controller10vprint_fmtEPcS2_+0xb32>
  101738:	85 ff                	test   edi,edi
  10173a:	0f 85 52 04 00 00    	jne    101b92 <_ZN2os3hal17serial_controller10vprint_fmtEPcS2_+0xb32>
  101740:	85 db                	test   ebx,ebx
  101742:	0f 84 ed 03 00 00    	je     101b35 <_ZN2os3hal17serial_controller10vprint_fmtEPcS2_+0xad5>
  101748:	85 ff                	test   edi,edi
  10174a:	0f 85 e5 03 00 00    	jne    101b35 <_ZN2os3hal17serial_controller10vprint_fmtEPcS2_+0xad5>
  101750:	ec                   	in     al,dx
  101751:	a8 20                	test   al,0x20
  101753:	74 db                	je     101730 <_ZN2os3hal17serial_controller10vprint_fmtEPcS2_+0x6d0>
  101755:	85 db                	test   ebx,ebx
  101757:	74 08                	je     101761 <_ZN2os3hal17serial_controller10vprint_fmtEPcS2_+0x701>
  101759:	85 ff                	test   edi,edi
  10175b:	0f 84 c4 01 00 00    	je     101925 <_ZN2os3hal17serial_controller10vprint_fmtEPcS2_+0x8c5>
  101761:	50                   	push   eax
  101762:	50                   	push   eax
  101763:	53                   	push   ebx
  101764:	68 70 83 10 00       	push   0x108370
  101769:	e8 62 33 00 00       	call   104ad0 <__ubsan_handle_type_mismatch>
  10176e:	83 c4 10             	add    esp,0x10
  101771:	e9 af 01 00 00       	jmp    101925 <_ZN2os3hal17serial_controller10vprint_fmtEPcS2_+0x8c5>
  101776:	8d 76 00             	lea    esi,[esi+0x0]
  101779:	8d bc 27 00 00 00 00 	lea    edi,[edi+eiz*1+0x0]
  101780:	83 fd fe             	cmp    ebp,0xfffffffe
  101783:	0f 84 7a 04 00 00    	je     101c03 <_ZN2os3hal17serial_controller10vprint_fmtEPcS2_+0xba3>
  101789:	0f b6 4d 02          	movzx  ecx,BYTE PTR [ebp+0x2]
  10178d:	8d 45 03             	lea    eax,[ebp+0x3]
  101790:	89 04 24             	mov    DWORD PTR [esp],eax
  101793:	89 c8                	mov    eax,ecx
  101795:	83 e0 df             	and    eax,0xffffffdf
  101798:	3c 58                	cmp    al,0x58
  10179a:	0f 84 e6 01 00 00    	je     101986 <_ZN2os3hal17serial_controller10vprint_fmtEPcS2_+0x926>
  1017a0:	85 db                	test   ebx,ebx
  1017a2:	0f 84 8f 04 00 00    	je     101c37 <_ZN2os3hal17serial_controller10vprint_fmtEPcS2_+0xbd7>
  1017a8:	85 ff                	test   edi,edi
  1017aa:	0f 85 87 04 00 00    	jne    101c37 <_ZN2os3hal17serial_controller10vprint_fmtEPcS2_+0xbd7>
  1017b0:	85 db                	test   ebx,ebx
  1017b2:	0f 84 61 04 00 00    	je     101c19 <_ZN2os3hal17serial_controller10vprint_fmtEPcS2_+0xbb9>
  1017b8:	85 ff                	test   edi,edi
  1017ba:	0f 85 59 04 00 00    	jne    101c19 <_ZN2os3hal17serial_controller10vprint_fmtEPcS2_+0xbb9>
  1017c0:	85 db                	test   ebx,ebx
  1017c2:	0f 84 e7 04 00 00    	je     101caf <_ZN2os3hal17serial_controller10vprint_fmtEPcS2_+0xc4f>
  1017c8:	85 ff                	test   edi,edi
  1017ca:	0f 85 df 04 00 00    	jne    101caf <_ZN2os3hal17serial_controller10vprint_fmtEPcS2_+0xc4f>
  1017d0:	0f b7 33             	movzx  esi,WORD PTR [ebx]
  1017d3:	66 81 fe f8 03       	cmp    si,0x3f8
  1017d8:	0f 84 54 01 00 00    	je     101932 <_ZN2os3hal17serial_controller10vprint_fmtEPcS2_+0x8d2>
  1017de:	85 db                	test   ebx,ebx
  1017e0:	0f 84 ab 04 00 00    	je     101c91 <_ZN2os3hal17serial_controller10vprint_fmtEPcS2_+0xc31>
  1017e6:	85 ff                	test   edi,edi
  1017e8:	0f 85 a3 04 00 00    	jne    101c91 <_ZN2os3hal17serial_controller10vprint_fmtEPcS2_+0xc31>
  1017ee:	66 81 fe f8 02       	cmp    si,0x2f8
  1017f3:	0f 84 39 01 00 00    	je     101932 <_ZN2os3hal17serial_controller10vprint_fmtEPcS2_+0x8d2>
  1017f9:	85 db                	test   ebx,ebx
  1017fb:	0f 84 72 04 00 00    	je     101c73 <_ZN2os3hal17serial_controller10vprint_fmtEPcS2_+0xc13>
  101801:	85 ff                	test   edi,edi
  101803:	0f 85 6a 04 00 00    	jne    101c73 <_ZN2os3hal17serial_controller10vprint_fmtEPcS2_+0xc13>
  101809:	66 81 fe e8 03       	cmp    si,0x3e8
  10180e:	0f 84 1e 01 00 00    	je     101932 <_ZN2os3hal17serial_controller10vprint_fmtEPcS2_+0x8d2>
  101814:	85 db                	test   ebx,ebx
  101816:	0f 84 39 04 00 00    	je     101c55 <_ZN2os3hal17serial_controller10vprint_fmtEPcS2_+0xbf5>
  10181c:	85 ff                	test   edi,edi
  10181e:	0f 85 31 04 00 00    	jne    101c55 <_ZN2os3hal17serial_controller10vprint_fmtEPcS2_+0xbf5>
  101824:	66 81 fe e8 02       	cmp    si,0x2e8
  101829:	0f 84 03 01 00 00    	je     101932 <_ZN2os3hal17serial_controller10vprint_fmtEPcS2_+0x8d2>
  10182f:	0f b6 4d 03          	movzx  ecx,BYTE PTR [ebp+0x3]
  101833:	8b 2c 24             	mov    ebp,DWORD PTR [esp]
  101836:	e9 ea f8 ff ff       	jmp    101125 <_ZN2os3hal17serial_controller10vprint_fmtEPcS2_+0xc5>
  10183b:	83 fd fe             	cmp    ebp,0xfffffffe
  10183e:	0f 84 0e 03 00 00    	je     101b52 <_ZN2os3hal17serial_controller10vprint_fmtEPcS2_+0xaf2>
  101844:	0f b6 45 02          	movzx  eax,BYTE PTR [ebp+0x2]
  101848:	8d 4d 03             	lea    ecx,[ebp+0x3]
  10184b:	89 0c 24             	mov    DWORD PTR [esp],ecx
  10184e:	88 44 24 04          	mov    BYTE PTR [esp+0x4],al
  101852:	83 e0 df             	and    eax,0xffffffdf
  101855:	3c 58                	cmp    al,0x58
  101857:	0f 84 a2 01 00 00    	je     1019ff <_ZN2os3hal17serial_controller10vprint_fmtEPcS2_+0x99f>
  10185d:	85 db                	test   ebx,ebx
  10185f:	0f 84 18 03 00 00    	je     101b7d <_ZN2os3hal17serial_controller10vprint_fmtEPcS2_+0xb1d>
  101865:	85 ff                	test   edi,edi
  101867:	0f 85 10 03 00 00    	jne    101b7d <_ZN2os3hal17serial_controller10vprint_fmtEPcS2_+0xb1d>
  10186d:	85 db                	test   ebx,ebx
  10186f:	0f 84 f3 02 00 00    	je     101b68 <_ZN2os3hal17serial_controller10vprint_fmtEPcS2_+0xb08>
  101875:	85 ff                	test   edi,edi
  101877:	0f 85 eb 02 00 00    	jne    101b68 <_ZN2os3hal17serial_controller10vprint_fmtEPcS2_+0xb08>
  10187d:	85 db                	test   ebx,ebx
  10187f:	0f 84 54 03 00 00    	je     101bd9 <_ZN2os3hal17serial_controller10vprint_fmtEPcS2_+0xb79>
  101885:	85 ff                	test   edi,edi
  101887:	0f 85 4c 03 00 00    	jne    101bd9 <_ZN2os3hal17serial_controller10vprint_fmtEPcS2_+0xb79>
  10188d:	0f b7 33             	movzx  esi,WORD PTR [ebx]
  101890:	66 81 fe f8 03       	cmp    si,0x3f8
  101895:	74 49                	je     1018e0 <_ZN2os3hal17serial_controller10vprint_fmtEPcS2_+0x880>
  101897:	85 db                	test   ebx,ebx
  101899:	0f 84 25 03 00 00    	je     101bc4 <_ZN2os3hal17serial_controller10vprint_fmtEPcS2_+0xb64>
  10189f:	85 ff                	test   edi,edi
  1018a1:	0f 85 1d 03 00 00    	jne    101bc4 <_ZN2os3hal17serial_controller10vprint_fmtEPcS2_+0xb64>
  1018a7:	66 81 fe f8 02       	cmp    si,0x2f8
  1018ac:	74 32                	je     1018e0 <_ZN2os3hal17serial_controller10vprint_fmtEPcS2_+0x880>
  1018ae:	85 db                	test   ebx,ebx
  1018b0:	0f 84 38 03 00 00    	je     101bee <_ZN2os3hal17serial_controller10vprint_fmtEPcS2_+0xb8e>
  1018b6:	85 ff                	test   edi,edi
  1018b8:	0f 85 30 03 00 00    	jne    101bee <_ZN2os3hal17serial_controller10vprint_fmtEPcS2_+0xb8e>
  1018be:	66 81 fe e8 03       	cmp    si,0x3e8
  1018c3:	74 1b                	je     1018e0 <_ZN2os3hal17serial_controller10vprint_fmtEPcS2_+0x880>
  1018c5:	85 db                	test   ebx,ebx
  1018c7:	0f 84 71 0a 00 00    	je     10233e <_ZN2os3hal17serial_controller10vprint_fmtEPcS2_+0x12de>
  1018cd:	85 ff                	test   edi,edi
  1018cf:	0f 85 69 0a 00 00    	jne    10233e <_ZN2os3hal17serial_controller10vprint_fmtEPcS2_+0x12de>
  1018d5:	66 81 fe e8 02       	cmp    si,0x2e8
  1018da:	0f 85 4f ff ff ff    	jne    10182f <_ZN2os3hal17serial_controller10vprint_fmtEPcS2_+0x7cf>
  1018e0:	8d 56 05             	lea    edx,[esi+0x5]
  1018e3:	8d b6 00 00 00 00    	lea    esi,[esi+0x0]
  1018e9:	8d bc 27 00 00 00 00 	lea    edi,[edi+eiz*1+0x0]
  1018f0:	85 db                	test   ebx,ebx
  1018f2:	0f 84 8d 09 00 00    	je     102285 <_ZN2os3hal17serial_controller10vprint_fmtEPcS2_+0x1225>
  1018f8:	85 ff                	test   edi,edi
  1018fa:	0f 85 85 09 00 00    	jne    102285 <_ZN2os3hal17serial_controller10vprint_fmtEPcS2_+0x1225>
  101900:	85 db                	test   ebx,ebx
  101902:	0f 84 60 09 00 00    	je     102268 <_ZN2os3hal17serial_controller10vprint_fmtEPcS2_+0x1208>
  101908:	85 ff                	test   edi,edi
  10190a:	0f 85 58 09 00 00    	jne    102268 <_ZN2os3hal17serial_controller10vprint_fmtEPcS2_+0x1208>
  101910:	ec                   	in     al,dx
  101911:	a8 20                	test   al,0x20
  101913:	74 db                	je     1018f0 <_ZN2os3hal17serial_controller10vprint_fmtEPcS2_+0x890>
  101915:	85 db                	test   ebx,ebx
  101917:	0f 84 36 09 00 00    	je     102253 <_ZN2os3hal17serial_controller10vprint_fmtEPcS2_+0x11f3>
  10191d:	85 ff                	test   edi,edi
  10191f:	0f 85 2e 09 00 00    	jne    102253 <_ZN2os3hal17serial_controller10vprint_fmtEPcS2_+0x11f3>
  101925:	0f b6 44 24 04       	movzx  eax,BYTE PTR [esp+0x4]
  10192a:	89 f2                	mov    edx,esi
  10192c:	ee                   	out    dx,al
  10192d:	e9 fd fe ff ff       	jmp    10182f <_ZN2os3hal17serial_controller10vprint_fmtEPcS2_+0x7cf>
  101932:	8d 56 05             	lea    edx,[esi+0x5]
  101935:	8d 74 26 00          	lea    esi,[esi+eiz*1+0x0]
  101939:	8d bc 27 00 00 00 00 	lea    edi,[edi+eiz*1+0x0]
  101940:	85 db                	test   ebx,ebx
  101942:	0f 84 d0 09 00 00    	je     102318 <_ZN2os3hal17serial_controller10vprint_fmtEPcS2_+0x12b8>
  101948:	85 ff                	test   edi,edi
  10194a:	0f 85 c8 09 00 00    	jne    102318 <_ZN2os3hal17serial_controller10vprint_fmtEPcS2_+0x12b8>
  101950:	85 db                	test   ebx,ebx
  101952:	0f 84 9a 09 00 00    	je     1022f2 <_ZN2os3hal17serial_controller10vprint_fmtEPcS2_+0x1292>
  101958:	85 ff                	test   edi,edi
  10195a:	0f 85 92 09 00 00    	jne    1022f2 <_ZN2os3hal17serial_controller10vprint_fmtEPcS2_+0x1292>
  101960:	ec                   	in     al,dx
  101961:	a8 20                	test   al,0x20
  101963:	74 db                	je     101940 <_ZN2os3hal17serial_controller10vprint_fmtEPcS2_+0x8e0>
  101965:	85 db                	test   ebx,ebx
  101967:	0f 84 67 09 00 00    	je     1022d4 <_ZN2os3hal17serial_controller10vprint_fmtEPcS2_+0x1274>
  10196d:	85 ff                	test   edi,edi
  10196f:	0f 85 5f 09 00 00    	jne    1022d4 <_ZN2os3hal17serial_controller10vprint_fmtEPcS2_+0x1274>
  101975:	89 c8                	mov    eax,ecx
  101977:	89 f2                	mov    edx,esi
  101979:	ee                   	out    dx,al
  10197a:	0f b6 4d 03          	movzx  ecx,BYTE PTR [ebp+0x3]
  10197e:	8b 2c 24             	mov    ebp,DWORD PTR [esp]
  101981:	e9 9f f7 ff ff       	jmp    101125 <_ZN2os3hal17serial_controller10vprint_fmtEPcS2_+0xc5>
  101986:	8b 74 24 48          	mov    esi,DWORD PTR [esp+0x48]
  10198a:	83 c6 04             	add    esi,0x4
  10198d:	0f 84 2c 09 00 00    	je     1022bf <_ZN2os3hal17serial_controller10vprint_fmtEPcS2_+0x125f>
  101993:	f7 c6 03 00 00 00    	test   esi,0x3
  101999:	0f 85 20 09 00 00    	jne    1022bf <_ZN2os3hal17serial_controller10vprint_fmtEPcS2_+0x125f>
  10199f:	8b 44 24 48          	mov    eax,DWORD PTR [esp+0x48]
  1019a3:	83 ec 04             	sub    esp,0x4
  1019a6:	8b 00                	mov    eax,DWORD PTR [eax]
  1019a8:	89 44 24 08          	mov    DWORD PTR [esp+0x8],eax
  1019ac:	6a 10                	push   0x10
  1019ae:	6a 00                	push   0x0
  1019b0:	8d 54 24 1c          	lea    edx,[esp+0x1c]
  1019b4:	52                   	push   edx
  1019b5:	89 54 24 18          	mov    DWORD PTR [esp+0x18],edx
  1019b9:	e8 12 21 00 00       	call   103ad0 <memset>
  1019be:	83 c4 10             	add    esp,0x10
  1019c1:	85 db                	test   ebx,ebx
  1019c3:	8b 54 24 08          	mov    edx,DWORD PTR [esp+0x8]
  1019c7:	0f 84 d5 08 00 00    	je     1022a2 <_ZN2os3hal17serial_controller10vprint_fmtEPcS2_+0x1242>
  1019cd:	85 ff                	test   edi,edi
  1019cf:	0f 85 cd 08 00 00    	jne    1022a2 <_ZN2os3hal17serial_controller10vprint_fmtEPcS2_+0x1242>
  1019d5:	6a 01                	push   0x1
  1019d7:	6a 00                	push   0x0
  1019d9:	52                   	push   edx
  1019da:	ff 74 24 10          	push   DWORD PTR [esp+0x10]
  1019de:	e8 ed 17 00 00       	call   1031d0 <strhex>
  1019e3:	5a                   	pop    edx
  1019e4:	59                   	pop    ecx
  1019e5:	50                   	push   eax
  1019e6:	53                   	push   ebx
  1019e7:	e8 f4 f0 ff ff       	call   100ae0 <_ZN2os3hal17serial_controller5printEPc>
  1019ec:	83 c4 10             	add    esp,0x10
  1019ef:	0f b6 4d 03          	movzx  ecx,BYTE PTR [ebp+0x3]
  1019f3:	89 74 24 48          	mov    DWORD PTR [esp+0x48],esi
  1019f7:	8b 2c 24             	mov    ebp,DWORD PTR [esp]
  1019fa:	e9 26 f7 ff ff       	jmp    101125 <_ZN2os3hal17serial_controller10vprint_fmtEPcS2_+0xc5>
  1019ff:	8b 74 24 48          	mov    esi,DWORD PTR [esp+0x48]
  101a03:	83 c6 04             	add    esi,0x4
  101a06:	0f 84 89 04 00 00    	je     101e95 <_ZN2os3hal17serial_controller10vprint_fmtEPcS2_+0xe35>
  101a0c:	f7 c6 03 00 00 00    	test   esi,0x3
  101a12:	0f 85 7d 04 00 00    	jne    101e95 <_ZN2os3hal17serial_controller10vprint_fmtEPcS2_+0xe35>
  101a18:	8b 44 24 48          	mov    eax,DWORD PTR [esp+0x48]
  101a1c:	83 ec 04             	sub    esp,0x4
  101a1f:	8b 00                	mov    eax,DWORD PTR [eax]
  101a21:	89 44 24 08          	mov    DWORD PTR [esp+0x8],eax
  101a25:	6a 10                	push   0x10
  101a27:	6a 00                	push   0x0
  101a29:	8d 54 24 1c          	lea    edx,[esp+0x1c]
  101a2d:	52                   	push   edx
  101a2e:	89 54 24 18          	mov    DWORD PTR [esp+0x18],edx
  101a32:	e8 99 20 00 00       	call   103ad0 <memset>
  101a37:	83 c4 10             	add    esp,0x10
  101a3a:	85 db                	test   ebx,ebx
  101a3c:	8b 54 24 08          	mov    edx,DWORD PTR [esp+0x8]
  101a40:	0f 84 30 04 00 00    	je     101e76 <_ZN2os3hal17serial_controller10vprint_fmtEPcS2_+0xe16>
  101a46:	85 ff                	test   edi,edi
  101a48:	0f 85 28 04 00 00    	jne    101e76 <_ZN2os3hal17serial_controller10vprint_fmtEPcS2_+0xe16>
  101a4e:	6a 02                	push   0x2
  101a50:	eb 85                	jmp    1019d7 <_ZN2os3hal17serial_controller10vprint_fmtEPcS2_+0x977>
  101a52:	8b 74 24 48          	mov    esi,DWORD PTR [esp+0x48]
  101a56:	83 c6 04             	add    esi,0x4
  101a59:	0f 84 82 00 00 00    	je     101ae1 <_ZN2os3hal17serial_controller10vprint_fmtEPcS2_+0xa81>
  101a5f:	f7 c6 03 00 00 00    	test   esi,0x3
  101a65:	75 7a                	jne    101ae1 <_ZN2os3hal17serial_controller10vprint_fmtEPcS2_+0xa81>
  101a67:	8b 44 24 48          	mov    eax,DWORD PTR [esp+0x48]
  101a6b:	83 ec 04             	sub    esp,0x4
  101a6e:	8b 00                	mov    eax,DWORD PTR [eax]
  101a70:	89 44 24 08          	mov    DWORD PTR [esp+0x8],eax
  101a74:	6a 10                	push   0x10
  101a76:	6a 00                	push   0x0
  101a78:	8d 54 24 1c          	lea    edx,[esp+0x1c]
  101a7c:	52                   	push   edx
  101a7d:	89 54 24 18          	mov    DWORD PTR [esp+0x18],edx
  101a81:	e8 4a 20 00 00       	call   103ad0 <memset>
  101a86:	83 c4 10             	add    esp,0x10
  101a89:	85 db                	test   ebx,ebx
  101a8b:	8b 54 24 08          	mov    edx,DWORD PTR [esp+0x8]
  101a8f:	0f 84 38 02 00 00    	je     101ccd <_ZN2os3hal17serial_controller10vprint_fmtEPcS2_+0xc6d>
  101a95:	85 ff                	test   edi,edi
  101a97:	0f 85 30 02 00 00    	jne    101ccd <_ZN2os3hal17serial_controller10vprint_fmtEPcS2_+0xc6d>
  101a9d:	6a 04                	push   0x4
  101a9f:	e9 33 ff ff ff       	jmp    1019d7 <_ZN2os3hal17serial_controller10vprint_fmtEPcS2_+0x977>
  101aa4:	8b 74 24 48          	mov    esi,DWORD PTR [esp+0x48]
  101aa8:	83 c6 04             	add    esi,0x4
  101aab:	74 76                	je     101b23 <_ZN2os3hal17serial_controller10vprint_fmtEPcS2_+0xac3>
  101aad:	f7 c6 03 00 00 00    	test   esi,0x3
  101ab3:	75 6e                	jne    101b23 <_ZN2os3hal17serial_controller10vprint_fmtEPcS2_+0xac3>
  101ab5:	8b 44 24 48          	mov    eax,DWORD PTR [esp+0x48]
  101ab9:	85 db                	test   ebx,ebx
  101abb:	8b 00                	mov    eax,DWORD PTR [eax]
  101abd:	74 4c                	je     101b0b <_ZN2os3hal17serial_controller10vprint_fmtEPcS2_+0xaab>
  101abf:	85 ff                	test   edi,edi
  101ac1:	75 48                	jne    101b0b <_ZN2os3hal17serial_controller10vprint_fmtEPcS2_+0xaab>
  101ac3:	83 ec 08             	sub    esp,0x8
  101ac6:	50                   	push   eax
  101ac7:	53                   	push   ebx
  101ac8:	e8 13 f0 ff ff       	call   100ae0 <_ZN2os3hal17serial_controller5printEPc>
  101acd:	83 c4 10             	add    esp,0x10
  101ad0:	0f b6 4d 02          	movzx  ecx,BYTE PTR [ebp+0x2]
  101ad4:	89 74 24 48          	mov    DWORD PTR [esp+0x48],esi
  101ad8:	8b 6c 24 04          	mov    ebp,DWORD PTR [esp+0x4]
  101adc:	e9 44 f6 ff ff       	jmp    101125 <_ZN2os3hal17serial_controller10vprint_fmtEPcS2_+0xc5>
  101ae1:	50                   	push   eax
  101ae2:	50                   	push   eax
  101ae3:	56                   	push   esi
  101ae4:	68 58 83 10 00       	push   0x108358
  101ae9:	e8 e2 2f 00 00       	call   104ad0 <__ubsan_handle_type_mismatch>
  101aee:	83 c4 10             	add    esp,0x10
  101af1:	e9 71 ff ff ff       	jmp    101a67 <_ZN2os3hal17serial_controller10vprint_fmtEPcS2_+0xa07>
  101af6:	50                   	push   eax
  101af7:	50                   	push   eax
  101af8:	53                   	push   ebx
  101af9:	68 30 84 10 00       	push   0x108430
  101afe:	e8 cd 2f 00 00       	call   104ad0 <__ubsan_handle_type_mismatch>
  101b03:	83 c4 10             	add    esp,0x10
  101b06:	e9 a4 fb ff ff       	jmp    1016af <_ZN2os3hal17serial_controller10vprint_fmtEPcS2_+0x64f>
  101b0b:	89 04 24             	mov    DWORD PTR [esp],eax
  101b0e:	50                   	push   eax
  101b0f:	50                   	push   eax
  101b10:	53                   	push   ebx
  101b11:	68 00 83 10 00       	push   0x108300
  101b16:	e8 b5 2f 00 00       	call   104ad0 <__ubsan_handle_type_mismatch>
  101b1b:	83 c4 10             	add    esp,0x10
  101b1e:	8b 04 24             	mov    eax,DWORD PTR [esp]
  101b21:	eb a0                	jmp    101ac3 <_ZN2os3hal17serial_controller10vprint_fmtEPcS2_+0xa63>
  101b23:	50                   	push   eax
  101b24:	50                   	push   eax
  101b25:	56                   	push   esi
  101b26:	68 18 83 10 00       	push   0x108318
  101b2b:	e8 a0 2f 00 00       	call   104ad0 <__ubsan_handle_type_mismatch>
  101b30:	83 c4 10             	add    esp,0x10
  101b33:	eb 80                	jmp    101ab5 <_ZN2os3hal17serial_controller10vprint_fmtEPcS2_+0xa55>
  101b35:	89 54 24 08          	mov    DWORD PTR [esp+0x8],edx
  101b39:	50                   	push   eax
  101b3a:	50                   	push   eax
  101b3b:	53                   	push   ebx
  101b3c:	68 88 83 10 00       	push   0x108388
  101b41:	e8 8a 2f 00 00       	call   104ad0 <__ubsan_handle_type_mismatch>
  101b46:	83 c4 10             	add    esp,0x10
  101b49:	8b 54 24 08          	mov    edx,DWORD PTR [esp+0x8]
  101b4d:	e9 fe fb ff ff       	jmp    101750 <_ZN2os3hal17serial_controller10vprint_fmtEPcS2_+0x6f0>
  101b52:	52                   	push   edx
  101b53:	52                   	push   edx
  101b54:	6a 00                	push   0x0
  101b56:	68 68 85 10 00       	push   0x108568
  101b5b:	e8 70 2f 00 00       	call   104ad0 <__ubsan_handle_type_mismatch>
  101b60:	83 c4 10             	add    esp,0x10
  101b63:	e9 dc fc ff ff       	jmp    101844 <_ZN2os3hal17serial_controller10vprint_fmtEPcS2_+0x7e4>
  101b68:	50                   	push   eax
  101b69:	50                   	push   eax
  101b6a:	53                   	push   ebx
  101b6b:	68 38 85 10 00       	push   0x108538
  101b70:	e8 5b 2f 00 00       	call   104ad0 <__ubsan_handle_type_mismatch>
  101b75:	83 c4 10             	add    esp,0x10
  101b78:	e9 00 fd ff ff       	jmp    10187d <_ZN2os3hal17serial_controller10vprint_fmtEPcS2_+0x81d>
  101b7d:	50                   	push   eax
  101b7e:	50                   	push   eax
  101b7f:	53                   	push   ebx
  101b80:	68 50 85 10 00       	push   0x108550
  101b85:	e8 46 2f 00 00       	call   104ad0 <__ubsan_handle_type_mismatch>
  101b8a:	83 c4 10             	add    esp,0x10
  101b8d:	e9 db fc ff ff       	jmp    10186d <_ZN2os3hal17serial_controller10vprint_fmtEPcS2_+0x80d>
  101b92:	89 54 24 08          	mov    DWORD PTR [esp+0x8],edx
  101b96:	50                   	push   eax
  101b97:	50                   	push   eax
  101b98:	53                   	push   ebx
  101b99:	68 a0 83 10 00       	push   0x1083a0
  101b9e:	e8 2d 2f 00 00       	call   104ad0 <__ubsan_handle_type_mismatch>
  101ba3:	83 c4 10             	add    esp,0x10
  101ba6:	8b 54 24 08          	mov    edx,DWORD PTR [esp+0x8]
  101baa:	e9 91 fb ff ff       	jmp    101740 <_ZN2os3hal17serial_controller10vprint_fmtEPcS2_+0x6e0>
  101baf:	51                   	push   ecx
  101bb0:	51                   	push   ecx
  101bb1:	53                   	push   ebx
  101bb2:	68 e8 83 10 00       	push   0x1083e8
  101bb7:	e8 14 2f 00 00       	call   104ad0 <__ubsan_handle_type_mismatch>
  101bbc:	83 c4 10             	add    esp,0x10
  101bbf:	e9 25 fb ff ff       	jmp    1016e9 <_ZN2os3hal17serial_controller10vprint_fmtEPcS2_+0x689>
  101bc4:	50                   	push   eax
  101bc5:	50                   	push   eax
  101bc6:	53                   	push   ebx
  101bc7:	68 08 85 10 00       	push   0x108508
  101bcc:	e8 ff 2e 00 00       	call   104ad0 <__ubsan_handle_type_mismatch>
  101bd1:	83 c4 10             	add    esp,0x10
  101bd4:	e9 ce fc ff ff       	jmp    1018a7 <_ZN2os3hal17serial_controller10vprint_fmtEPcS2_+0x847>
  101bd9:	50                   	push   eax
  101bda:	50                   	push   eax
  101bdb:	53                   	push   ebx
  101bdc:	68 20 85 10 00       	push   0x108520
  101be1:	e8 ea 2e 00 00       	call   104ad0 <__ubsan_handle_type_mismatch>
  101be6:	83 c4 10             	add    esp,0x10
  101be9:	e9 9f fc ff ff       	jmp    10188d <_ZN2os3hal17serial_controller10vprint_fmtEPcS2_+0x82d>
  101bee:	50                   	push   eax
  101bef:	50                   	push   eax
  101bf0:	53                   	push   ebx
  101bf1:	68 f0 84 10 00       	push   0x1084f0
  101bf6:	e8 d5 2e 00 00       	call   104ad0 <__ubsan_handle_type_mismatch>
  101bfb:	83 c4 10             	add    esp,0x10
  101bfe:	e9 bb fc ff ff       	jmp    1018be <_ZN2os3hal17serial_controller10vprint_fmtEPcS2_+0x85e>
  101c03:	50                   	push   eax
  101c04:	50                   	push   eax
  101c05:	6a 00                	push   0x0
  101c07:	68 88 86 10 00       	push   0x108688
  101c0c:	e8 bf 2e 00 00       	call   104ad0 <__ubsan_handle_type_mismatch>
  101c11:	83 c4 10             	add    esp,0x10
  101c14:	e9 70 fb ff ff       	jmp    101789 <_ZN2os3hal17serial_controller10vprint_fmtEPcS2_+0x729>
  101c19:	88 4c 24 04          	mov    BYTE PTR [esp+0x4],cl
  101c1d:	56                   	push   esi
  101c1e:	56                   	push   esi
  101c1f:	53                   	push   ebx
  101c20:	68 58 86 10 00       	push   0x108658
  101c25:	e8 a6 2e 00 00       	call   104ad0 <__ubsan_handle_type_mismatch>
  101c2a:	83 c4 10             	add    esp,0x10
  101c2d:	0f b6 4c 24 04       	movzx  ecx,BYTE PTR [esp+0x4]
  101c32:	e9 89 fb ff ff       	jmp    1017c0 <_ZN2os3hal17serial_controller10vprint_fmtEPcS2_+0x760>
  101c37:	88 4c 24 04          	mov    BYTE PTR [esp+0x4],cl
  101c3b:	50                   	push   eax
  101c3c:	50                   	push   eax
  101c3d:	53                   	push   ebx
  101c3e:	68 70 86 10 00       	push   0x108670
  101c43:	e8 88 2e 00 00       	call   104ad0 <__ubsan_handle_type_mismatch>
  101c48:	83 c4 10             	add    esp,0x10
  101c4b:	0f b6 4c 24 04       	movzx  ecx,BYTE PTR [esp+0x4]
  101c50:	e9 5b fb ff ff       	jmp    1017b0 <_ZN2os3hal17serial_controller10vprint_fmtEPcS2_+0x750>
  101c55:	88 4c 24 04          	mov    BYTE PTR [esp+0x4],cl
  101c59:	50                   	push   eax
  101c5a:	50                   	push   eax
  101c5b:	53                   	push   ebx
  101c5c:	68 f8 85 10 00       	push   0x1085f8
  101c61:	e8 6a 2e 00 00       	call   104ad0 <__ubsan_handle_type_mismatch>
  101c66:	83 c4 10             	add    esp,0x10
  101c69:	0f b6 4c 24 04       	movzx  ecx,BYTE PTR [esp+0x4]
  101c6e:	e9 b1 fb ff ff       	jmp    101824 <_ZN2os3hal17serial_controller10vprint_fmtEPcS2_+0x7c4>
  101c73:	88 4c 24 04          	mov    BYTE PTR [esp+0x4],cl
  101c77:	50                   	push   eax
  101c78:	50                   	push   eax
  101c79:	53                   	push   ebx
  101c7a:	68 10 86 10 00       	push   0x108610
  101c7f:	e8 4c 2e 00 00       	call   104ad0 <__ubsan_handle_type_mismatch>
  101c84:	83 c4 10             	add    esp,0x10
  101c87:	0f b6 4c 24 04       	movzx  ecx,BYTE PTR [esp+0x4]
  101c8c:	e9 78 fb ff ff       	jmp    101809 <_ZN2os3hal17serial_controller10vprint_fmtEPcS2_+0x7a9>
  101c91:	88 4c 24 04          	mov    BYTE PTR [esp+0x4],cl
  101c95:	52                   	push   edx
  101c96:	52                   	push   edx
  101c97:	53                   	push   ebx
  101c98:	68 28 86 10 00       	push   0x108628
  101c9d:	e8 2e 2e 00 00       	call   104ad0 <__ubsan_handle_type_mismatch>
  101ca2:	83 c4 10             	add    esp,0x10
  101ca5:	0f b6 4c 24 04       	movzx  ecx,BYTE PTR [esp+0x4]
  101caa:	e9 3f fb ff ff       	jmp    1017ee <_ZN2os3hal17serial_controller10vprint_fmtEPcS2_+0x78e>
  101caf:	88 4c 24 04          	mov    BYTE PTR [esp+0x4],cl
  101cb3:	51                   	push   ecx
  101cb4:	51                   	push   ecx
  101cb5:	53                   	push   ebx
  101cb6:	68 40 86 10 00       	push   0x108640
  101cbb:	e8 10 2e 00 00       	call   104ad0 <__ubsan_handle_type_mismatch>
  101cc0:	83 c4 10             	add    esp,0x10
  101cc3:	0f b6 4c 24 04       	movzx  ecx,BYTE PTR [esp+0x4]
  101cc8:	e9 03 fb ff ff       	jmp    1017d0 <_ZN2os3hal17serial_controller10vprint_fmtEPcS2_+0x770>
  101ccd:	89 54 24 08          	mov    DWORD PTR [esp+0x8],edx
  101cd1:	50                   	push   eax
  101cd2:	50                   	push   eax
  101cd3:	53                   	push   ebx
  101cd4:	68 40 83 10 00       	push   0x108340
  101cd9:	e8 f2 2d 00 00       	call   104ad0 <__ubsan_handle_type_mismatch>
  101cde:	83 c4 10             	add    esp,0x10
  101ce1:	8b 54 24 08          	mov    edx,DWORD PTR [esp+0x8]
  101ce5:	6a 04                	push   0x4
  101ce7:	e9 eb fc ff ff       	jmp    1019d7 <_ZN2os3hal17serial_controller10vprint_fmtEPcS2_+0x977>
  101cec:	56                   	push   esi
  101ced:	56                   	push   esi
  101cee:	53                   	push   ebx
  101cef:	68 fc 88 10 00       	push   0x1088fc
  101cf4:	e8 d7 2d 00 00       	call   104ad0 <__ubsan_handle_type_mismatch>
  101cf9:	83 c4 10             	add    esp,0x10
  101cfc:	e9 af f5 ff ff       	jmp    1012b0 <_ZN2os3hal17serial_controller10vprint_fmtEPcS2_+0x250>
  101d01:	52                   	push   edx
  101d02:	52                   	push   edx
  101d03:	53                   	push   ebx
  101d04:	68 d0 82 10 00       	push   0x1082d0
  101d09:	e8 c2 2d 00 00       	call   104ad0 <__ubsan_handle_type_mismatch>
  101d0e:	83 c4 10             	add    esp,0x10
  101d11:	e9 54 f6 ff ff       	jmp    10136a <_ZN2os3hal17serial_controller10vprint_fmtEPcS2_+0x30a>
  101d16:	51                   	push   ecx
  101d17:	51                   	push   ecx
  101d18:	53                   	push   ebx
  101d19:	68 e8 82 10 00       	push   0x1082e8
  101d1e:	e8 ad 2d 00 00       	call   104ad0 <__ubsan_handle_type_mismatch>
  101d23:	83 c4 10             	add    esp,0x10
  101d26:	e9 2f f6 ff ff       	jmp    10135a <_ZN2os3hal17serial_controller10vprint_fmtEPcS2_+0x2fa>
  101d2b:	88 4c 24 04          	mov    BYTE PTR [esp+0x4],cl
  101d2f:	52                   	push   edx
  101d30:	52                   	push   edx
  101d31:	53                   	push   ebx
  101d32:	68 50 81 10 00       	push   0x108150
  101d37:	e8 94 2d 00 00       	call   104ad0 <__ubsan_handle_type_mismatch>
  101d3c:	83 c4 10             	add    esp,0x10
  101d3f:	0f b6 4c 24 04       	movzx  ecx,BYTE PTR [esp+0x4]
  101d44:	e9 3c f5 ff ff       	jmp    101285 <_ZN2os3hal17serial_controller10vprint_fmtEPcS2_+0x225>
  101d49:	88 4c 24 08          	mov    BYTE PTR [esp+0x8],cl
  101d4d:	89 54 24 04          	mov    DWORD PTR [esp+0x4],edx
  101d51:	51                   	push   ecx
  101d52:	51                   	push   ecx
  101d53:	53                   	push   ebx
  101d54:	68 68 81 10 00       	push   0x108168
  101d59:	e8 72 2d 00 00       	call   104ad0 <__ubsan_handle_type_mismatch>
  101d5e:	83 c4 10             	add    esp,0x10
  101d61:	0f b6 4c 24 08       	movzx  ecx,BYTE PTR [esp+0x8]
  101d66:	8b 54 24 04          	mov    edx,DWORD PTR [esp+0x4]
  101d6a:	e9 01 f5 ff ff       	jmp    101270 <_ZN2os3hal17serial_controller10vprint_fmtEPcS2_+0x210>
  101d6f:	89 4c 24 08          	mov    DWORD PTR [esp+0x8],ecx
  101d73:	50                   	push   eax
  101d74:	50                   	push   eax
  101d75:	53                   	push   ebx
  101d76:	68 b8 87 10 00       	push   0x1087b8
  101d7b:	e8 50 2d 00 00       	call   104ad0 <__ubsan_handle_type_mismatch>
  101d80:	83 c4 10             	add    esp,0x10
  101d83:	8b 4c 24 08          	mov    ecx,DWORD PTR [esp+0x8]
  101d87:	e9 5c f4 ff ff       	jmp    1011e8 <_ZN2os3hal17serial_controller10vprint_fmtEPcS2_+0x188>
  101d8c:	52                   	push   edx
  101d8d:	52                   	push   edx
  101d8e:	53                   	push   ebx
  101d8f:	68 cc 88 10 00       	push   0x1088cc
  101d94:	e8 37 2d 00 00       	call   104ad0 <__ubsan_handle_type_mismatch>
  101d99:	83 c4 10             	add    esp,0x10
  101d9c:	e9 2f f5 ff ff       	jmp    1012d0 <_ZN2os3hal17serial_controller10vprint_fmtEPcS2_+0x270>
  101da1:	88 0c 24             	mov    BYTE PTR [esp],cl
  101da4:	50                   	push   eax
  101da5:	50                   	push   eax
  101da6:	6a 00                	push   0x0
  101da8:	68 2c 89 10 00       	push   0x10892c
  101dad:	e8 1e 2d 00 00       	call   104ad0 <__ubsan_handle_type_mismatch>
  101db2:	83 c4 10             	add    esp,0x10
  101db5:	0f b6 0c 24          	movzx  ecx,BYTE PTR [esp]
  101db9:	e9 7f f3 ff ff       	jmp    10113d <_ZN2os3hal17serial_controller10vprint_fmtEPcS2_+0xdd>
  101dbe:	50                   	push   eax
  101dbf:	50                   	push   eax
  101dc0:	6a 00                	push   0x0
  101dc2:	68 44 89 10 00       	push   0x108944
  101dc7:	e8 04 2d 00 00       	call   104ad0 <__ubsan_handle_type_mismatch>
  101dcc:	83 c4 10             	add    esp,0x10
  101dcf:	e9 a3 f2 ff ff       	jmp    101077 <_ZN2os3hal17serial_controller10vprint_fmtEPcS2_+0x17>
  101dd4:	88 4c 24 04          	mov    BYTE PTR [esp+0x4],cl
  101dd8:	50                   	push   eax
  101dd9:	50                   	push   eax
  101dda:	53                   	push   ebx
  101ddb:	68 c8 81 10 00       	push   0x1081c8
  101de0:	e8 eb 2c 00 00       	call   104ad0 <__ubsan_handle_type_mismatch>
  101de5:	83 c4 10             	add    esp,0x10
  101de8:	0f b6 4c 24 04       	movzx  ecx,BYTE PTR [esp+0x4]
  101ded:	e9 ec f2 ff ff       	jmp    1010de <_ZN2os3hal17serial_controller10vprint_fmtEPcS2_+0x7e>
  101df2:	88 4c 24 04          	mov    BYTE PTR [esp+0x4],cl
  101df6:	50                   	push   eax
  101df7:	50                   	push   eax
  101df8:	53                   	push   ebx
  101df9:	68 e0 81 10 00       	push   0x1081e0
  101dfe:	e8 cd 2c 00 00       	call   104ad0 <__ubsan_handle_type_mismatch>
  101e03:	83 c4 10             	add    esp,0x10
  101e06:	0f b6 4c 24 04       	movzx  ecx,BYTE PTR [esp+0x4]
  101e0b:	e9 b0 f2 ff ff       	jmp    1010c0 <_ZN2os3hal17serial_controller10vprint_fmtEPcS2_+0x60>
  101e10:	88 4c 24 04          	mov    BYTE PTR [esp+0x4],cl
  101e14:	50                   	push   eax
  101e15:	50                   	push   eax
  101e16:	53                   	push   ebx
  101e17:	68 f8 81 10 00       	push   0x1081f8
  101e1c:	e8 af 2c 00 00       	call   104ad0 <__ubsan_handle_type_mismatch>
  101e21:	83 c4 10             	add    esp,0x10
  101e24:	0f b6 4c 24 04       	movzx  ecx,BYTE PTR [esp+0x4]
  101e29:	e9 82 f2 ff ff       	jmp    1010b0 <_ZN2os3hal17serial_controller10vprint_fmtEPcS2_+0x50>
  101e2e:	88 4c 24 04          	mov    BYTE PTR [esp+0x4],cl
  101e32:	52                   	push   edx
  101e33:	52                   	push   edx
  101e34:	53                   	push   ebx
  101e35:	68 10 82 10 00       	push   0x108210
  101e3a:	e8 91 2c 00 00       	call   104ad0 <__ubsan_handle_type_mismatch>
  101e3f:	83 c4 10             	add    esp,0x10
  101e42:	0f b6 4c 24 04       	movzx  ecx,BYTE PTR [esp+0x4]
  101e47:	e9 54 f2 ff ff       	jmp    1010a0 <_ZN2os3hal17serial_controller10vprint_fmtEPcS2_+0x40>
  101e4c:	50                   	push   eax
  101e4d:	50                   	push   eax
  101e4e:	53                   	push   ebx
  101e4f:	68 d0 87 10 00       	push   0x1087d0
  101e54:	e8 77 2c 00 00       	call   104ad0 <__ubsan_handle_type_mismatch>
  101e59:	83 c4 10             	add    esp,0x10
  101e5c:	e9 66 f3 ff ff       	jmp    1011c7 <_ZN2os3hal17serial_controller10vprint_fmtEPcS2_+0x167>
  101e61:	50                   	push   eax
  101e62:	50                   	push   eax
  101e63:	53                   	push   ebx
  101e64:	68 e8 87 10 00       	push   0x1087e8
  101e69:	e8 62 2c 00 00       	call   104ad0 <__ubsan_handle_type_mismatch>
  101e6e:	83 c4 10             	add    esp,0x10
  101e71:	e9 41 f3 ff ff       	jmp    1011b7 <_ZN2os3hal17serial_controller10vprint_fmtEPcS2_+0x157>
  101e76:	89 54 24 08          	mov    DWORD PTR [esp+0x8],edx
  101e7a:	50                   	push   eax
  101e7b:	50                   	push   eax
  101e7c:	53                   	push   ebx
  101e7d:	68 60 84 10 00       	push   0x108460
  101e82:	e8 49 2c 00 00       	call   104ad0 <__ubsan_handle_type_mismatch>
  101e87:	83 c4 10             	add    esp,0x10
  101e8a:	8b 54 24 08          	mov    edx,DWORD PTR [esp+0x8]
  101e8e:	6a 02                	push   0x2
  101e90:	e9 42 fb ff ff       	jmp    1019d7 <_ZN2os3hal17serial_controller10vprint_fmtEPcS2_+0x977>
  101e95:	50                   	push   eax
  101e96:	50                   	push   eax
  101e97:	56                   	push   esi
  101e98:	68 78 84 10 00       	push   0x108478
  101e9d:	e8 2e 2c 00 00       	call   104ad0 <__ubsan_handle_type_mismatch>
  101ea2:	83 c4 10             	add    esp,0x10
  101ea5:	e9 6e fb ff ff       	jmp    101a18 <_ZN2os3hal17serial_controller10vprint_fmtEPcS2_+0x9b8>
  101eaa:	50                   	push   eax
  101eab:	50                   	push   eax
  101eac:	6a 00                	push   0x0
  101eae:	68 48 84 10 00       	push   0x108448
  101eb3:	e8 18 2c 00 00       	call   104ad0 <__ubsan_handle_type_mismatch>
  101eb8:	83 c4 10             	add    esp,0x10
  101ebb:	e9 c6 f7 ff ff       	jmp    101686 <_ZN2os3hal17serial_controller10vprint_fmtEPcS2_+0x626>
  101ec0:	89 54 24 04          	mov    DWORD PTR [esp+0x4],edx
  101ec4:	50                   	push   eax
  101ec5:	50                   	push   eax
  101ec6:	53                   	push   ebx
  101ec7:	68 a0 86 10 00       	push   0x1086a0
  101ecc:	e8 ff 2b 00 00       	call   104ad0 <__ubsan_handle_type_mismatch>
  101ed1:	83 c4 10             	add    esp,0x10
  101ed4:	8b 54 24 04          	mov    edx,DWORD PTR [esp+0x4]
  101ed8:	e9 78 f7 ff ff       	jmp    101655 <_ZN2os3hal17serial_controller10vprint_fmtEPcS2_+0x5f5>
  101edd:	56                   	push   esi
  101ede:	56                   	push   esi
  101edf:	53                   	push   ebx
  101ee0:	68 00 84 10 00       	push   0x108400
  101ee5:	e8 e6 2b 00 00       	call   104ad0 <__ubsan_handle_type_mismatch>
  101eea:	83 c4 10             	add    esp,0x10
  101eed:	e9 dd f7 ff ff       	jmp    1016cf <_ZN2os3hal17serial_controller10vprint_fmtEPcS2_+0x66f>
  101ef2:	50                   	push   eax
  101ef3:	50                   	push   eax
  101ef4:	53                   	push   ebx
  101ef5:	68 18 84 10 00       	push   0x108418
  101efa:	e8 d1 2b 00 00       	call   104ad0 <__ubsan_handle_type_mismatch>
  101eff:	83 c4 10             	add    esp,0x10
  101f02:	e9 b8 f7 ff ff       	jmp    1016bf <_ZN2os3hal17serial_controller10vprint_fmtEPcS2_+0x65f>
  101f07:	50                   	push   eax
  101f08:	50                   	push   eax
  101f09:	53                   	push   ebx
  101f0a:	68 b8 83 10 00       	push   0x1083b8
  101f0f:	e8 bc 2b 00 00       	call   104ad0 <__ubsan_handle_type_mismatch>
  101f14:	83 c4 10             	add    esp,0x10
  101f17:	e9 fb f7 ff ff       	jmp    101717 <_ZN2os3hal17serial_controller10vprint_fmtEPcS2_+0x6b7>
  101f1c:	52                   	push   edx
  101f1d:	52                   	push   edx
  101f1e:	53                   	push   ebx
  101f1f:	68 d0 83 10 00       	push   0x1083d0
  101f24:	e8 a7 2b 00 00       	call   104ad0 <__ubsan_handle_type_mismatch>
  101f29:	83 c4 10             	add    esp,0x10
  101f2c:	e9 cf f7 ff ff       	jmp    101700 <_ZN2os3hal17serial_controller10vprint_fmtEPcS2_+0x6a0>
  101f31:	50                   	push   eax
  101f32:	50                   	push   eax
  101f33:	56                   	push   esi
  101f34:	68 b8 86 10 00       	push   0x1086b8
  101f39:	e8 92 2b 00 00       	call   104ad0 <__ubsan_handle_type_mismatch>
  101f3e:	83 c4 10             	add    esp,0x10
  101f41:	e9 d9 f6 ff ff       	jmp    10161f <_ZN2os3hal17serial_controller10vprint_fmtEPcS2_+0x5bf>
  101f46:	51                   	push   ecx
  101f47:	51                   	push   ecx
  101f48:	53                   	push   ebx
  101f49:	68 28 82 10 00       	push   0x108228
  101f4e:	e8 7d 2b 00 00       	call   104ad0 <__ubsan_handle_type_mismatch>
  101f53:	83 c4 10             	add    esp,0x10
  101f56:	e9 8a f6 ff ff       	jmp    1015e5 <_ZN2os3hal17serial_controller10vprint_fmtEPcS2_+0x585>
  101f5b:	89 54 24 08          	mov    DWORD PTR [esp+0x8],edx
  101f5f:	50                   	push   eax
  101f60:	50                   	push   eax
  101f61:	53                   	push   ebx
  101f62:	68 40 82 10 00       	push   0x108240
  101f67:	e8 64 2b 00 00       	call   104ad0 <__ubsan_handle_type_mismatch>
  101f6c:	83 c4 10             	add    esp,0x10
  101f6f:	8b 54 24 08          	mov    edx,DWORD PTR [esp+0x8]
  101f73:	e9 58 f6 ff ff       	jmp    1015d0 <_ZN2os3hal17serial_controller10vprint_fmtEPcS2_+0x570>
  101f78:	89 54 24 08          	mov    DWORD PTR [esp+0x8],edx
  101f7c:	50                   	push   eax
  101f7d:	50                   	push   eax
  101f7e:	53                   	push   ebx
  101f7f:	68 58 82 10 00       	push   0x108258
  101f84:	e8 47 2b 00 00       	call   104ad0 <__ubsan_handle_type_mismatch>
  101f89:	83 c4 10             	add    esp,0x10
  101f8c:	8b 54 24 08          	mov    edx,DWORD PTR [esp+0x8]
  101f90:	e9 2b f6 ff ff       	jmp    1015c0 <_ZN2os3hal17serial_controller10vprint_fmtEPcS2_+0x560>
  101f95:	50                   	push   eax
  101f96:	50                   	push   eax
  101f97:	53                   	push   ebx
  101f98:	68 70 82 10 00       	push   0x108270
  101f9d:	e8 2e 2b 00 00       	call   104ad0 <__ubsan_handle_type_mismatch>
  101fa2:	83 c4 10             	add    esp,0x10
  101fa5:	e9 24 f4 ff ff       	jmp    1013ce <_ZN2os3hal17serial_controller10vprint_fmtEPcS2_+0x36e>
  101faa:	50                   	push   eax
  101fab:	50                   	push   eax
  101fac:	53                   	push   ebx
  101fad:	68 88 82 10 00       	push   0x108288
  101fb2:	e8 19 2b 00 00       	call   104ad0 <__ubsan_handle_type_mismatch>
  101fb7:	83 c4 10             	add    esp,0x10
  101fba:	e9 f4 f3 ff ff       	jmp    1013b3 <_ZN2os3hal17serial_controller10vprint_fmtEPcS2_+0x353>
  101fbf:	50                   	push   eax
  101fc0:	50                   	push   eax
  101fc1:	53                   	push   ebx
  101fc2:	68 a0 82 10 00       	push   0x1082a0
  101fc7:	e8 04 2b 00 00       	call   104ad0 <__ubsan_handle_type_mismatch>
  101fcc:	83 c4 10             	add    esp,0x10
  101fcf:	e9 c4 f3 ff ff       	jmp    101398 <_ZN2os3hal17serial_controller10vprint_fmtEPcS2_+0x338>
  101fd4:	50                   	push   eax
  101fd5:	50                   	push   eax
  101fd6:	53                   	push   ebx
  101fd7:	68 b8 82 10 00       	push   0x1082b8
  101fdc:	e8 ef 2a 00 00       	call   104ad0 <__ubsan_handle_type_mismatch>
  101fe1:	83 c4 10             	add    esp,0x10
  101fe4:	e9 91 f3 ff ff       	jmp    10137a <_ZN2os3hal17serial_controller10vprint_fmtEPcS2_+0x31a>
  101fe9:	52                   	push   edx
  101fea:	52                   	push   edx
  101feb:	ff 74 24 50          	push   DWORD PTR [esp+0x50]
  101fef:	68 00 88 10 00       	push   0x108800
  101ff4:	e8 d7 2a 00 00       	call   104ad0 <__ubsan_handle_type_mismatch>
  101ff9:	83 c4 10             	add    esp,0x10
  101ffc:	e9 9c f1 ff ff       	jmp    10119d <_ZN2os3hal17serial_controller10vprint_fmtEPcS2_+0x13d>
  102001:	56                   	push   esi
  102002:	56                   	push   esi
  102003:	53                   	push   ebx
  102004:	68 24 88 10 00       	push   0x108824
  102009:	e8 c2 2a 00 00       	call   104ad0 <__ubsan_handle_type_mismatch>
  10200e:	83 c4 10             	add    esp,0x10
  102011:	e9 66 f1 ff ff       	jmp    10117c <_ZN2os3hal17serial_controller10vprint_fmtEPcS2_+0x11c>
  102016:	50                   	push   eax
  102017:	50                   	push   eax
  102018:	6a 00                	push   0x0
  10201a:	68 14 89 10 00       	push   0x108914
  10201f:	e8 ac 2a 00 00       	call   104ad0 <__ubsan_handle_type_mismatch>
  102024:	83 c4 10             	add    esp,0x10
  102027:	e9 2c f1 ff ff       	jmp    101158 <_ZN2os3hal17serial_controller10vprint_fmtEPcS2_+0xf8>
  10202c:	89 4c 24 0c          	mov    DWORD PTR [esp+0xc],ecx
  102030:	89 54 24 08          	mov    DWORD PTR [esp+0x8],edx
  102034:	51                   	push   ecx
  102035:	51                   	push   ecx
  102036:	53                   	push   ebx
  102037:	68 58 87 10 00       	push   0x108758
  10203c:	e8 8f 2a 00 00       	call   104ad0 <__ubsan_handle_type_mismatch>
  102041:	83 c4 10             	add    esp,0x10
  102044:	8b 4c 24 0c          	mov    ecx,DWORD PTR [esp+0xc]
  102048:	8b 54 24 08          	mov    edx,DWORD PTR [esp+0x8]
  10204c:	e9 cf f4 ff ff       	jmp    101520 <_ZN2os3hal17serial_controller10vprint_fmtEPcS2_+0x4c0>
  102051:	89 4c 24 08          	mov    DWORD PTR [esp+0x8],ecx
  102055:	52                   	push   edx
  102056:	52                   	push   edx
  102057:	53                   	push   ebx
  102058:	68 40 87 10 00       	push   0x108740
  10205d:	e8 6e 2a 00 00       	call   104ad0 <__ubsan_handle_type_mismatch>
  102062:	83 c4 10             	add    esp,0x10
  102065:	8b 4c 24 08          	mov    ecx,DWORD PTR [esp+0x8]
  102069:	e9 c7 f4 ff ff       	jmp    101535 <_ZN2os3hal17serial_controller10vprint_fmtEPcS2_+0x4d5>
  10206e:	89 54 24 04          	mov    DWORD PTR [esp+0x4],edx
  102072:	50                   	push   eax
  102073:	50                   	push   eax
  102074:	53                   	push   ebx
  102075:	68 6c 88 10 00       	push   0x10886c
  10207a:	e8 51 2a 00 00       	call   104ad0 <__ubsan_handle_type_mismatch>
  10207f:	83 c4 10             	add    esp,0x10
  102082:	8b 54 24 04          	mov    edx,DWORD PTR [esp+0x4]
  102086:	e9 e5 f4 ff ff       	jmp    101570 <_ZN2os3hal17serial_controller10vprint_fmtEPcS2_+0x510>
  10208b:	89 54 24 04          	mov    DWORD PTR [esp+0x4],edx
  10208f:	50                   	push   eax
  102090:	50                   	push   eax
  102091:	53                   	push   ebx
  102092:	68 54 88 10 00       	push   0x108854
  102097:	e8 34 2a 00 00       	call   104ad0 <__ubsan_handle_type_mismatch>
  10209c:	83 c4 10             	add    esp,0x10
  10209f:	8b 54 24 04          	mov    edx,DWORD PTR [esp+0x4]
  1020a3:	e9 d8 f4 ff ff       	jmp    101580 <_ZN2os3hal17serial_controller10vprint_fmtEPcS2_+0x520>
  1020a8:	50                   	push   eax
  1020a9:	50                   	push   eax
  1020aa:	53                   	push   ebx
  1020ab:	68 3c 88 10 00       	push   0x10883c
  1020b0:	e8 1b 2a 00 00       	call   104ad0 <__ubsan_handle_type_mismatch>
  1020b5:	83 c4 10             	add    esp,0x10
  1020b8:	e9 d8 f4 ff ff       	jmp    101595 <_ZN2os3hal17serial_controller10vprint_fmtEPcS2_+0x535>
  1020bd:	50                   	push   eax
  1020be:	50                   	push   eax
  1020bf:	53                   	push   ebx
  1020c0:	68 b4 88 10 00       	push   0x1088b4
  1020c5:	e8 06 2a 00 00       	call   104ad0 <__ubsan_handle_type_mismatch>
  1020ca:	83 c4 10             	add    esp,0x10
  1020cd:	e9 1c f2 ff ff       	jmp    1012ee <_ZN2os3hal17serial_controller10vprint_fmtEPcS2_+0x28e>
  1020d2:	88 4c 24 08          	mov    BYTE PTR [esp+0x8],cl
  1020d6:	89 54 24 04          	mov    DWORD PTR [esp+0x4],edx
  1020da:	50                   	push   eax
  1020db:	50                   	push   eax
  1020dc:	53                   	push   ebx
  1020dd:	68 80 81 10 00       	push   0x108180
  1020e2:	e8 e9 29 00 00       	call   104ad0 <__ubsan_handle_type_mismatch>
  1020e7:	83 c4 10             	add    esp,0x10
  1020ea:	0f b6 4c 24 08       	movzx  ecx,BYTE PTR [esp+0x8]
  1020ef:	8b 54 24 04          	mov    edx,DWORD PTR [esp+0x4]
  1020f3:	e9 68 f1 ff ff       	jmp    101260 <_ZN2os3hal17serial_controller10vprint_fmtEPcS2_+0x200>
  1020f8:	51                   	push   ecx
  1020f9:	51                   	push   ecx
  1020fa:	53                   	push   ebx
  1020fb:	68 e4 88 10 00       	push   0x1088e4
  102100:	e8 cb 29 00 00       	call   104ad0 <__ubsan_handle_type_mismatch>
  102105:	83 c4 10             	add    esp,0x10
  102108:	e9 b3 f1 ff ff       	jmp    1012c0 <_ZN2os3hal17serial_controller10vprint_fmtEPcS2_+0x260>
  10210d:	89 54 24 04          	mov    DWORD PTR [esp+0x4],edx
  102111:	50                   	push   eax
  102112:	50                   	push   eax
  102113:	53                   	push   ebx
  102114:	68 d0 86 10 00       	push   0x1086d0
  102119:	e8 b2 29 00 00       	call   104ad0 <__ubsan_handle_type_mismatch>
  10211e:	83 c4 10             	add    esp,0x10
  102121:	8b 54 24 04          	mov    edx,DWORD PTR [esp+0x4]
  102125:	e9 29 f3 ff ff       	jmp    101453 <_ZN2os3hal17serial_controller10vprint_fmtEPcS2_+0x3f3>
  10212a:	50                   	push   eax
  10212b:	50                   	push   eax
  10212c:	56                   	push   esi
  10212d:	68 28 87 10 00       	push   0x108728
  102132:	e8 99 29 00 00       	call   104ad0 <__ubsan_handle_type_mismatch>
  102137:	83 c4 10             	add    esp,0x10
  10213a:	e9 5a f3 ff ff       	jmp    101499 <_ZN2os3hal17serial_controller10vprint_fmtEPcS2_+0x439>
  10213f:	89 54 24 04          	mov    DWORD PTR [esp+0x4],edx
  102143:	50                   	push   eax
  102144:	50                   	push   eax
  102145:	53                   	push   ebx
  102146:	68 10 87 10 00       	push   0x108710
  10214b:	e8 80 29 00 00       	call   104ad0 <__ubsan_handle_type_mismatch>
  102150:	83 c4 10             	add    esp,0x10
  102153:	8b 54 24 04          	mov    edx,DWORD PTR [esp+0x4]
  102157:	e9 73 f3 ff ff       	jmp    1014cf <_ZN2os3hal17serial_controller10vprint_fmtEPcS2_+0x46f>
  10215c:	89 4c 24 0c          	mov    DWORD PTR [esp+0xc],ecx
  102160:	89 54 24 08          	mov    DWORD PTR [esp+0x8],edx
  102164:	50                   	push   eax
  102165:	50                   	push   eax
  102166:	53                   	push   ebx
  102167:	68 70 87 10 00       	push   0x108770
  10216c:	e8 5f 29 00 00       	call   104ad0 <__ubsan_handle_type_mismatch>
  102171:	83 c4 10             	add    esp,0x10
  102174:	8b 4c 24 0c          	mov    ecx,DWORD PTR [esp+0xc]
  102178:	8b 54 24 08          	mov    edx,DWORD PTR [esp+0x8]
  10217c:	e9 8f f3 ff ff       	jmp    101510 <_ZN2os3hal17serial_controller10vprint_fmtEPcS2_+0x4b0>
  102181:	89 4c 24 08          	mov    DWORD PTR [esp+0x8],ecx
  102185:	50                   	push   eax
  102186:	50                   	push   eax
  102187:	53                   	push   ebx
  102188:	68 a0 87 10 00       	push   0x1087a0
  10218d:	e8 3e 29 00 00       	call   104ad0 <__ubsan_handle_type_mismatch>
  102192:	83 c4 10             	add    esp,0x10
  102195:	8b 4c 24 08          	mov    ecx,DWORD PTR [esp+0x8]
  102199:	e9 65 f0 ff ff       	jmp    101203 <_ZN2os3hal17serial_controller10vprint_fmtEPcS2_+0x1a3>
  10219e:	89 4c 24 08          	mov    DWORD PTR [esp+0x8],ecx
  1021a2:	50                   	push   eax
  1021a3:	50                   	push   eax
  1021a4:	53                   	push   ebx
  1021a5:	68 88 87 10 00       	push   0x108788
  1021aa:	e8 21 29 00 00       	call   104ad0 <__ubsan_handle_type_mismatch>
  1021af:	83 c4 10             	add    esp,0x10
  1021b2:	8b 4c 24 08          	mov    ecx,DWORD PTR [esp+0x8]
  1021b6:	e9 63 f0 ff ff       	jmp    10121e <_ZN2os3hal17serial_controller10vprint_fmtEPcS2_+0x1be>
  1021bb:	50                   	push   eax
  1021bc:	50                   	push   eax
  1021bd:	56                   	push   esi
  1021be:	68 e8 86 10 00       	push   0x1086e8
  1021c3:	e8 08 29 00 00       	call   104ad0 <__ubsan_handle_type_mismatch>
  1021c8:	83 c4 10             	add    esp,0x10
  1021cb:	e9 4d f2 ff ff       	jmp    10141d <_ZN2os3hal17serial_controller10vprint_fmtEPcS2_+0x3bd>
  1021d0:	50                   	push   eax
  1021d1:	50                   	push   eax
  1021d2:	53                   	push   ebx
  1021d3:	68 84 88 10 00       	push   0x108884
  1021d8:	e8 f3 28 00 00       	call   104ad0 <__ubsan_handle_type_mismatch>
  1021dd:	83 c4 10             	add    esp,0x10
  1021e0:	e9 3f f1 ff ff       	jmp    101324 <_ZN2os3hal17serial_controller10vprint_fmtEPcS2_+0x2c4>
  1021e5:	88 0c 24             	mov    BYTE PTR [esp],cl
  1021e8:	50                   	push   eax
  1021e9:	50                   	push   eax
  1021ea:	6a 00                	push   0x0
  1021ec:	68 38 81 10 00       	push   0x108138
  1021f1:	e8 da 28 00 00       	call   104ad0 <__ubsan_handle_type_mismatch>
  1021f6:	83 c4 10             	add    esp,0x10
  1021f9:	0f b6 0c 24          	movzx  ecx,BYTE PTR [esp]
  1021fd:	e9 2b ef ff ff       	jmp    10112d <_ZN2os3hal17serial_controller10vprint_fmtEPcS2_+0xcd>
  102202:	88 4c 24 04          	mov    BYTE PTR [esp+0x4],cl
  102206:	50                   	push   eax
  102207:	50                   	push   eax
  102208:	53                   	push   ebx
  102209:	68 98 81 10 00       	push   0x108198
  10220e:	e8 bd 28 00 00       	call   104ad0 <__ubsan_handle_type_mismatch>
  102213:	83 c4 10             	add    esp,0x10
  102216:	0f b6 4c 24 04       	movzx  ecx,BYTE PTR [esp+0x4]
  10221b:	e9 f4 ee ff ff       	jmp    101114 <_ZN2os3hal17serial_controller10vprint_fmtEPcS2_+0xb4>
  102220:	88 4c 24 04          	mov    BYTE PTR [esp+0x4],cl
  102224:	50                   	push   eax
  102225:	50                   	push   eax
  102226:	53                   	push   ebx
  102227:	68 b0 81 10 00       	push   0x1081b0
  10222c:	e8 9f 28 00 00       	call   104ad0 <__ubsan_handle_type_mismatch>
  102231:	83 c4 10             	add    esp,0x10
  102234:	0f b6 4c 24 04       	movzx  ecx,BYTE PTR [esp+0x4]
  102239:	e9 bb ee ff ff       	jmp    1010f9 <_ZN2os3hal17serial_controller10vprint_fmtEPcS2_+0x99>
  10223e:	50                   	push   eax
  10223f:	50                   	push   eax
  102240:	53                   	push   ebx
  102241:	68 9c 88 10 00       	push   0x10889c
  102246:	e8 85 28 00 00       	call   104ad0 <__ubsan_handle_type_mismatch>
  10224b:	83 c4 10             	add    esp,0x10
  10224e:	e9 b6 f0 ff ff       	jmp    101309 <_ZN2os3hal17serial_controller10vprint_fmtEPcS2_+0x2a9>
  102253:	50                   	push   eax
  102254:	50                   	push   eax
  102255:	53                   	push   ebx
  102256:	68 90 84 10 00       	push   0x108490
  10225b:	e8 70 28 00 00       	call   104ad0 <__ubsan_handle_type_mismatch>
  102260:	83 c4 10             	add    esp,0x10
  102263:	e9 bd f6 ff ff       	jmp    101925 <_ZN2os3hal17serial_controller10vprint_fmtEPcS2_+0x8c5>
  102268:	89 54 24 08          	mov    DWORD PTR [esp+0x8],edx
  10226c:	52                   	push   edx
  10226d:	52                   	push   edx
  10226e:	53                   	push   ebx
  10226f:	68 a8 84 10 00       	push   0x1084a8
  102274:	e8 57 28 00 00       	call   104ad0 <__ubsan_handle_type_mismatch>
  102279:	83 c4 10             	add    esp,0x10
  10227c:	8b 54 24 08          	mov    edx,DWORD PTR [esp+0x8]
  102280:	e9 8b f6 ff ff       	jmp    101910 <_ZN2os3hal17serial_controller10vprint_fmtEPcS2_+0x8b0>
  102285:	89 54 24 08          	mov    DWORD PTR [esp+0x8],edx
  102289:	51                   	push   ecx
  10228a:	51                   	push   ecx
  10228b:	53                   	push   ebx
  10228c:	68 c0 84 10 00       	push   0x1084c0
  102291:	e8 3a 28 00 00       	call   104ad0 <__ubsan_handle_type_mismatch>
  102296:	83 c4 10             	add    esp,0x10
  102299:	8b 54 24 08          	mov    edx,DWORD PTR [esp+0x8]
  10229d:	e9 5e f6 ff ff       	jmp    101900 <_ZN2os3hal17serial_controller10vprint_fmtEPcS2_+0x8a0>
  1022a2:	89 54 24 08          	mov    DWORD PTR [esp+0x8],edx
  1022a6:	51                   	push   ecx
  1022a7:	51                   	push   ecx
  1022a8:	53                   	push   ebx
  1022a9:	68 80 85 10 00       	push   0x108580
  1022ae:	e8 1d 28 00 00       	call   104ad0 <__ubsan_handle_type_mismatch>
  1022b3:	83 c4 10             	add    esp,0x10
  1022b6:	8b 54 24 08          	mov    edx,DWORD PTR [esp+0x8]
  1022ba:	e9 16 f7 ff ff       	jmp    1019d5 <_ZN2os3hal17serial_controller10vprint_fmtEPcS2_+0x975>
  1022bf:	50                   	push   eax
  1022c0:	50                   	push   eax
  1022c1:	56                   	push   esi
  1022c2:	68 98 85 10 00       	push   0x108598
  1022c7:	e8 04 28 00 00       	call   104ad0 <__ubsan_handle_type_mismatch>
  1022cc:	83 c4 10             	add    esp,0x10
  1022cf:	e9 cb f6 ff ff       	jmp    10199f <_ZN2os3hal17serial_controller10vprint_fmtEPcS2_+0x93f>
  1022d4:	88 4c 24 04          	mov    BYTE PTR [esp+0x4],cl
  1022d8:	50                   	push   eax
  1022d9:	50                   	push   eax
  1022da:	53                   	push   ebx
  1022db:	68 b0 85 10 00       	push   0x1085b0
  1022e0:	e8 eb 27 00 00       	call   104ad0 <__ubsan_handle_type_mismatch>
  1022e5:	83 c4 10             	add    esp,0x10
  1022e8:	0f b6 4c 24 04       	movzx  ecx,BYTE PTR [esp+0x4]
  1022ed:	e9 83 f6 ff ff       	jmp    101975 <_ZN2os3hal17serial_controller10vprint_fmtEPcS2_+0x915>
  1022f2:	88 4c 24 08          	mov    BYTE PTR [esp+0x8],cl
  1022f6:	89 54 24 04          	mov    DWORD PTR [esp+0x4],edx
  1022fa:	50                   	push   eax
  1022fb:	50                   	push   eax
  1022fc:	53                   	push   ebx
  1022fd:	68 c8 85 10 00       	push   0x1085c8
  102302:	e8 c9 27 00 00       	call   104ad0 <__ubsan_handle_type_mismatch>
  102307:	83 c4 10             	add    esp,0x10
  10230a:	0f b6 4c 24 08       	movzx  ecx,BYTE PTR [esp+0x8]
  10230f:	8b 54 24 04          	mov    edx,DWORD PTR [esp+0x4]
  102313:	e9 48 f6 ff ff       	jmp    101960 <_ZN2os3hal17serial_controller10vprint_fmtEPcS2_+0x900>
  102318:	88 4c 24 08          	mov    BYTE PTR [esp+0x8],cl
  10231c:	89 54 24 04          	mov    DWORD PTR [esp+0x4],edx
  102320:	50                   	push   eax
  102321:	50                   	push   eax
  102322:	53                   	push   ebx
  102323:	68 e0 85 10 00       	push   0x1085e0
  102328:	e8 a3 27 00 00       	call   104ad0 <__ubsan_handle_type_mismatch>
  10232d:	83 c4 10             	add    esp,0x10
  102330:	0f b6 4c 24 08       	movzx  ecx,BYTE PTR [esp+0x8]
  102335:	8b 54 24 04          	mov    edx,DWORD PTR [esp+0x4]
  102339:	e9 12 f6 ff ff       	jmp    101950 <_ZN2os3hal17serial_controller10vprint_fmtEPcS2_+0x8f0>
  10233e:	50                   	push   eax
  10233f:	50                   	push   eax
  102340:	53                   	push   ebx
  102341:	68 d8 84 10 00       	push   0x1084d8
  102346:	e8 85 27 00 00       	call   104ad0 <__ubsan_handle_type_mismatch>
  10234b:	83 c4 10             	add    esp,0x10
  10234e:	e9 82 f5 ff ff       	jmp    1018d5 <_ZN2os3hal17serial_controller10vprint_fmtEPcS2_+0x875>
  102353:	90                   	nop
  102354:	8d b6 00 00 00 00    	lea    esi,[esi+0x0]
  10235a:	8d bf 00 00 00 00    	lea    edi,[edi+0x0]

00102360 <_ZN2os3hal17serial_controller9print_fmtEPcz>:
  102360:	83 ec 14             	sub    esp,0x14
  102363:	8d 44 24 20          	lea    eax,[esp+0x20]
  102367:	50                   	push   eax
  102368:	ff 74 24 20          	push   DWORD PTR [esp+0x20]
  10236c:	e8 df 01 00 00       	call   102550 <vprintf>
  102371:	83 c4 1c             	add    esp,0x1c
  102374:	c3                   	ret    
  102375:	90                   	nop
  102376:	8d 76 00             	lea    esi,[esi+0x0]
  102379:	8d bc 27 00 00 00 00 	lea    edi,[edi+eiz*1+0x0]

00102380 <_ZN2os3hal17serial_controller8can_sendEv>:
  102380:	53                   	push   ebx
  102381:	83 ec 08             	sub    esp,0x8
  102384:	8b 5c 24 10          	mov    ebx,DWORD PTR [esp+0x10]
  102388:	85 db                	test   ebx,ebx
  10238a:	74 17                	je     1023a3 <_ZN2os3hal17serial_controller8can_sendEv+0x23>
  10238c:	f6 c3 01             	test   bl,0x1
  10238f:	75 12                	jne    1023a3 <_ZN2os3hal17serial_controller8can_sendEv+0x23>
  102391:	0f b7 03             	movzx  eax,WORD PTR [ebx]
  102394:	8d 50 05             	lea    edx,[eax+0x5]
  102397:	ec                   	in     al,dx
  102398:	c0 e8 05             	shr    al,0x5
  10239b:	83 c4 08             	add    esp,0x8
  10239e:	83 e0 01             	and    eax,0x1
  1023a1:	5b                   	pop    ebx
  1023a2:	c3                   	ret    
  1023a3:	50                   	push   eax
  1023a4:	50                   	push   eax
  1023a5:	53                   	push   ebx
  1023a6:	68 20 81 10 00       	push   0x108120
  1023ab:	e8 20 27 00 00       	call   104ad0 <__ubsan_handle_type_mismatch>
  1023b0:	83 c4 10             	add    esp,0x10
  1023b3:	eb dc                	jmp    102391 <_ZN2os3hal17serial_controller8can_sendEv+0x11>
  1023b5:	90                   	nop
  1023b6:	8d 76 00             	lea    esi,[esi+0x0]
  1023b9:	8d bc 27 00 00 00 00 	lea    edi,[edi+eiz*1+0x0]

001023c0 <_ZN2os3hal17serial_controller8has_recvEv>:
  1023c0:	53                   	push   ebx
  1023c1:	83 ec 08             	sub    esp,0x8
  1023c4:	8b 5c 24 10          	mov    ebx,DWORD PTR [esp+0x10]
  1023c8:	85 db                	test   ebx,ebx
  1023ca:	74 14                	je     1023e0 <_ZN2os3hal17serial_controller8has_recvEv+0x20>
  1023cc:	f6 c3 01             	test   bl,0x1
  1023cf:	75 0f                	jne    1023e0 <_ZN2os3hal17serial_controller8has_recvEv+0x20>
  1023d1:	0f b7 03             	movzx  eax,WORD PTR [ebx]
  1023d4:	8d 50 05             	lea    edx,[eax+0x5]
  1023d7:	ec                   	in     al,dx
  1023d8:	83 c4 08             	add    esp,0x8
  1023db:	83 e0 01             	and    eax,0x1
  1023de:	5b                   	pop    ebx
  1023df:	c3                   	ret    
  1023e0:	50                   	push   eax
  1023e1:	50                   	push   eax
  1023e2:	53                   	push   ebx
  1023e3:	68 08 81 10 00       	push   0x108108
  1023e8:	e8 e3 26 00 00       	call   104ad0 <__ubsan_handle_type_mismatch>
  1023ed:	83 c4 10             	add    esp,0x10
  1023f0:	eb df                	jmp    1023d1 <_ZN2os3hal17serial_controller8has_recvEv+0x11>
  1023f2:	8d b4 26 00 00 00 00 	lea    esi,[esi+eiz*1+0x0]
  1023f9:	8d bc 27 00 00 00 00 	lea    edi,[edi+eiz*1+0x0]

00102400 <_ZN2os3hal17serial_controller8validateEv>:
  102400:	56                   	push   esi
  102401:	53                   	push   ebx
  102402:	83 ec 04             	sub    esp,0x4
  102405:	8b 5c 24 10          	mov    ebx,DWORD PTR [esp+0x10]
  102409:	85 db                	test   ebx,ebx
  10240b:	0f 84 90 00 00 00    	je     1024a1 <_ZN2os3hal17serial_controller8validateEv+0xa1>
  102411:	f6 c3 01             	test   bl,0x1
  102414:	0f 85 87 00 00 00    	jne    1024a1 <_ZN2os3hal17serial_controller8validateEv+0xa1>
  10241a:	0f b7 33             	movzx  esi,WORD PTR [ebx]
  10241d:	66 81 fe f8 03       	cmp    si,0x3f8
  102422:	74 3c                	je     102460 <_ZN2os3hal17serial_controller8validateEv+0x60>
  102424:	85 db                	test   ebx,ebx
  102426:	74 67                	je     10248f <_ZN2os3hal17serial_controller8validateEv+0x8f>
  102428:	f6 c3 01             	test   bl,0x1
  10242b:	75 62                	jne    10248f <_ZN2os3hal17serial_controller8validateEv+0x8f>
  10242d:	66 81 fe f8 02       	cmp    si,0x2f8
  102432:	74 2c                	je     102460 <_ZN2os3hal17serial_controller8validateEv+0x60>
  102434:	85 db                	test   ebx,ebx
  102436:	74 33                	je     10246b <_ZN2os3hal17serial_controller8validateEv+0x6b>
  102438:	f6 c3 01             	test   bl,0x1
  10243b:	75 2e                	jne    10246b <_ZN2os3hal17serial_controller8validateEv+0x6b>
  10243d:	66 81 fe e8 03       	cmp    si,0x3e8
  102442:	74 1c                	je     102460 <_ZN2os3hal17serial_controller8validateEv+0x60>
  102444:	85 db                	test   ebx,ebx
  102446:	74 35                	je     10247d <_ZN2os3hal17serial_controller8validateEv+0x7d>
  102448:	f6 c3 01             	test   bl,0x1
  10244b:	75 30                	jne    10247d <_ZN2os3hal17serial_controller8validateEv+0x7d>
  10244d:	66 81 fe e8 02       	cmp    si,0x2e8
  102452:	0f 94 c0             	sete   al
  102455:	83 c4 04             	add    esp,0x4
  102458:	5b                   	pop    ebx
  102459:	5e                   	pop    esi
  10245a:	c3                   	ret    
  10245b:	90                   	nop
  10245c:	8d 74 26 00          	lea    esi,[esi+eiz*1+0x0]
  102460:	83 c4 04             	add    esp,0x4
  102463:	b8 01 00 00 00       	mov    eax,0x1
  102468:	5b                   	pop    ebx
  102469:	5e                   	pop    esi
  10246a:	c3                   	ret    
  10246b:	52                   	push   edx
  10246c:	52                   	push   edx
  10246d:	53                   	push   ebx
  10246e:	68 c0 80 10 00       	push   0x1080c0
  102473:	e8 58 26 00 00       	call   104ad0 <__ubsan_handle_type_mismatch>
  102478:	83 c4 10             	add    esp,0x10
  10247b:	eb c0                	jmp    10243d <_ZN2os3hal17serial_controller8validateEv+0x3d>
  10247d:	50                   	push   eax
  10247e:	50                   	push   eax
  10247f:	53                   	push   ebx
  102480:	68 a8 80 10 00       	push   0x1080a8
  102485:	e8 46 26 00 00       	call   104ad0 <__ubsan_handle_type_mismatch>
  10248a:	83 c4 10             	add    esp,0x10
  10248d:	eb be                	jmp    10244d <_ZN2os3hal17serial_controller8validateEv+0x4d>
  10248f:	51                   	push   ecx
  102490:	51                   	push   ecx
  102491:	53                   	push   ebx
  102492:	68 d8 80 10 00       	push   0x1080d8
  102497:	e8 34 26 00 00       	call   104ad0 <__ubsan_handle_type_mismatch>
  10249c:	83 c4 10             	add    esp,0x10
  10249f:	eb 8c                	jmp    10242d <_ZN2os3hal17serial_controller8validateEv+0x2d>
  1024a1:	56                   	push   esi
  1024a2:	56                   	push   esi
  1024a3:	53                   	push   ebx
  1024a4:	68 f0 80 10 00       	push   0x1080f0
  1024a9:	e8 22 26 00 00       	call   104ad0 <__ubsan_handle_type_mismatch>
  1024ae:	83 c4 10             	add    esp,0x10
  1024b1:	e9 64 ff ff ff       	jmp    10241a <_ZN2os3hal17serial_controller8validateEv+0x1a>
  1024b6:	8d 76 00             	lea    esi,[esi+0x0]
  1024b9:	8d bc 27 00 00 00 00 	lea    edi,[edi+eiz*1+0x0]

001024c0 <_ZN2os3hal17serial_controller7portstrENS0_11serial_portE>:
  1024c0:	8b 54 24 04          	mov    edx,DWORD PTR [esp+0x4]
  1024c4:	66 81 fa f8 02       	cmp    dx,0x2f8
  1024c9:	74 45                	je     102510 <_ZN2os3hal17serial_controller7portstrENS0_11serial_portE+0x50>
  1024cb:	76 23                	jbe    1024f0 <_ZN2os3hal17serial_controller7portstrENS0_11serial_portE+0x30>
  1024cd:	66 81 fa e8 03       	cmp    dx,0x3e8
  1024d2:	b8 08 74 10 00       	mov    eax,0x107408
  1024d7:	74 0c                	je     1024e5 <_ZN2os3hal17serial_controller7portstrENS0_11serial_portE+0x25>
  1024d9:	66 81 fa f8 03       	cmp    dx,0x3f8
  1024de:	b8 fe 73 10 00       	mov    eax,0x1073fe
  1024e3:	75 17                	jne    1024fc <_ZN2os3hal17serial_controller7portstrENS0_11serial_portE+0x3c>
  1024e5:	f3 c3                	repz ret 
  1024e7:	89 f6                	mov    esi,esi
  1024e9:	8d bc 27 00 00 00 00 	lea    edi,[edi+eiz*1+0x0]
  1024f0:	66 81 fa e8 02       	cmp    dx,0x2e8
  1024f5:	b8 0d 74 10 00       	mov    eax,0x10740d
  1024fa:	74 e9                	je     1024e5 <_ZN2os3hal17serial_controller7portstrENS0_11serial_portE+0x25>
  1024fc:	b8 f5 73 10 00       	mov    eax,0x1073f5
  102501:	c3                   	ret    
  102502:	8d b4 26 00 00 00 00 	lea    esi,[esi+eiz*1+0x0]
  102509:	8d bc 27 00 00 00 00 	lea    edi,[edi+eiz*1+0x0]
  102510:	b8 03 74 10 00       	mov    eax,0x107403
  102515:	c3                   	ret    
  102516:	8d 76 00             	lea    esi,[esi+0x0]
  102519:	8d bc 27 00 00 00 00 	lea    edi,[edi+eiz*1+0x0]

00102520 <_ZN2os3hal17serial_controller4portEv>:
  102520:	53                   	push   ebx
  102521:	83 ec 08             	sub    esp,0x8
  102524:	8b 5c 24 10          	mov    ebx,DWORD PTR [esp+0x10]
  102528:	85 db                	test   ebx,ebx
  10252a:	74 0d                	je     102539 <_ZN2os3hal17serial_controller4portEv+0x19>
  10252c:	f6 c3 01             	test   bl,0x1
  10252f:	75 08                	jne    102539 <_ZN2os3hal17serial_controller4portEv+0x19>
  102531:	0f b7 03             	movzx  eax,WORD PTR [ebx]
  102534:	83 c4 08             	add    esp,0x8
  102537:	5b                   	pop    ebx
  102538:	c3                   	ret    
  102539:	50                   	push   eax
  10253a:	50                   	push   eax
  10253b:	53                   	push   ebx
  10253c:	68 90 80 10 00       	push   0x108090
  102541:	e8 8a 25 00 00       	call   104ad0 <__ubsan_handle_type_mismatch>
  102546:	83 c4 10             	add    esp,0x10
  102549:	eb e6                	jmp    102531 <_ZN2os3hal17serial_controller4portEv+0x11>
  10254b:	66 90                	xchg   ax,ax
  10254d:	66 90                	xchg   ax,ax
  10254f:	90                   	nop

00102550 <vprintf>:
  102550:	53                   	push   ebx
  102551:	83 ec 08             	sub    esp,0x8
  102554:	0f b6 1d 00 a0 18 00 	movzx  ebx,BYTE PTR ds:0x18a000
  10255b:	80 fb 01             	cmp    bl,0x1
  10255e:	77 22                	ja     102582 <vprintf+0x32>
  102560:	83 e3 01             	and    ebx,0x1
  102563:	74 18                	je     10257d <vprintf+0x2d>
  102565:	83 ec 04             	sub    esp,0x4
  102568:	ff 74 24 18          	push   DWORD PTR [esp+0x18]
  10256c:	ff 74 24 18          	push   DWORD PTR [esp+0x18]
  102570:	68 02 a0 18 00       	push   0x18a002
  102575:	e8 e6 ea ff ff       	call   101060 <_ZN2os3hal17serial_controller10vprint_fmtEPcS2_>
  10257a:	83 c4 10             	add    esp,0x10
  10257d:	83 c4 08             	add    esp,0x8
  102580:	5b                   	pop    ebx
  102581:	c3                   	ret    
  102582:	50                   	push   eax
  102583:	50                   	push   eax
  102584:	0f b6 c3             	movzx  eax,bl
  102587:	50                   	push   eax
  102588:	68 fc 8e 10 00       	push   0x108efc
  10258d:	e8 fe 27 00 00       	call   104d90 <__ubsan_handle_load_invalid_value>
  102592:	83 c4 10             	add    esp,0x10
  102595:	eb c9                	jmp    102560 <vprintf+0x10>
  102597:	89 f6                	mov    esi,esi
  102599:	8d bc 27 00 00 00 00 	lea    edi,[edi+eiz*1+0x0]

001025a0 <printf>:
  1025a0:	83 ec 14             	sub    esp,0x14
  1025a3:	8d 44 24 1c          	lea    eax,[esp+0x1c]
  1025a7:	50                   	push   eax
  1025a8:	ff 74 24 1c          	push   DWORD PTR [esp+0x1c]
  1025ac:	e8 9f ff ff ff       	call   102550 <vprintf>
  1025b1:	83 c4 1c             	add    esp,0x1c
  1025b4:	c3                   	ret    
  1025b5:	66 90                	xchg   ax,ax
  1025b7:	66 90                	xchg   ax,ax
  1025b9:	66 90                	xchg   ax,ax
  1025bb:	66 90                	xchg   ax,ax
  1025bd:	66 90                	xchg   ax,ax
  1025bf:	90                   	nop

001025c0 <malloc>:
  1025c0:	31 c0                	xor    eax,eax
  1025c2:	c3                   	ret    
  1025c3:	8d b6 00 00 00 00    	lea    esi,[esi+0x0]
  1025c9:	8d bc 27 00 00 00 00 	lea    edi,[edi+eiz*1+0x0]

001025d0 <tmalloc>:
  1025d0:	31 c0                	xor    eax,eax
  1025d2:	c3                   	ret    
  1025d3:	8d b6 00 00 00 00    	lea    esi,[esi+0x0]
  1025d9:	8d bc 27 00 00 00 00 	lea    edi,[edi+eiz*1+0x0]

001025e0 <free>:
  1025e0:	f3 c3                	repz ret 
  1025e2:	8d b4 26 00 00 00 00 	lea    esi,[esi+eiz*1+0x0]
  1025e9:	8d bc 27 00 00 00 00 	lea    edi,[edi+eiz*1+0x0]

001025f0 <freearray>:
  1025f0:	f3 c3                	repz ret 
  1025f2:	8d b4 26 00 00 00 00 	lea    esi,[esi+eiz*1+0x0]
  1025f9:	8d bc 27 00 00 00 00 	lea    edi,[edi+eiz*1+0x0]

00102600 <atoi>:
  102600:	55                   	push   ebp
  102601:	57                   	push   edi
  102602:	56                   	push   esi
  102603:	53                   	push   ebx
  102604:	83 ec 1c             	sub    esp,0x1c
  102607:	8b 5c 24 30          	mov    ebx,DWORD PTR [esp+0x30]
  10260b:	85 db                	test   ebx,ebx
  10260d:	75 1a                	jne    102629 <atoi+0x29>
  10260f:	e9 3f 01 00 00       	jmp    102753 <atoi+0x153>
  102614:	8d b6 00 00 00 00    	lea    esi,[esi+0x0]
  10261a:	8d bf 00 00 00 00    	lea    edi,[edi+0x0]
  102620:	83 c3 01             	add    ebx,0x1
  102623:	0f 84 fe 00 00 00    	je     102727 <atoi+0x127>
  102629:	0f b6 03             	movzx  eax,BYTE PTR [ebx]
  10262c:	3c 20                	cmp    al,0x20
  10262e:	74 f0                	je     102620 <atoi+0x20>
  102630:	85 db                	test   ebx,ebx
  102632:	0f 84 d0 00 00 00    	je     102708 <atoi+0x108>
  102638:	3c 2d                	cmp    al,0x2d
  10263a:	0f 84 80 00 00 00    	je     1026c0 <atoi+0xc0>
  102640:	3c 2b                	cmp    al,0x2b
  102642:	74 5c                	je     1026a0 <atoi+0xa0>
  102644:	0f be 33             	movsx  esi,BYTE PTR [ebx]
  102647:	83 ee 30             	sub    esi,0x30
  10264a:	83 fe 09             	cmp    esi,0x9
  10264d:	0f 87 8d 00 00 00    	ja     1026e0 <atoi+0xe0>
  102653:	31 ed                	xor    ebp,ebp
  102655:	31 ff                	xor    edi,edi
  102657:	89 f6                	mov    esi,esi
  102659:	8d bc 27 00 00 00 00 	lea    edi,[edi+eiz*1+0x0]
  102660:	6b c7 0a             	imul   eax,edi,0xa
  102663:	0f 80 7f 00 00 00    	jo     1026e8 <atoi+0xe8>
  102669:	01 f0                	add    eax,esi
  10266b:	83 c3 01             	add    ebx,0x1
  10266e:	89 c7                	mov    edi,eax
  102670:	0f 84 22 01 00 00    	je     102798 <atoi+0x198>
  102676:	0f be 33             	movsx  esi,BYTE PTR [ebx]
  102679:	83 ee 30             	sub    esi,0x30
  10267c:	83 fe 09             	cmp    esi,0x9
  10267f:	76 df                	jbe    102660 <atoi+0x60>
  102681:	85 ed                	test   ebp,ebp
  102683:	74 0a                	je     10268f <atoi+0x8f>
  102685:	f7 df                	neg    edi
  102687:	0f 80 dc 00 00 00    	jo     102769 <atoi+0x169>
  10268d:	89 f8                	mov    eax,edi
  10268f:	83 c4 1c             	add    esp,0x1c
  102692:	5b                   	pop    ebx
  102693:	5e                   	pop    esi
  102694:	5f                   	pop    edi
  102695:	5d                   	pop    ebp
  102696:	c3                   	ret    
  102697:	89 f6                	mov    esi,esi
  102699:	8d bc 27 00 00 00 00 	lea    edi,[edi+eiz*1+0x0]
  1026a0:	89 df                	mov    edi,ebx
  1026a2:	83 c7 01             	add    edi,0x1
  1026a5:	0f 84 d7 00 00 00    	je     102782 <atoi+0x182>
  1026ab:	0f be 73 01          	movsx  esi,BYTE PTR [ebx+0x1]
  1026af:	83 ee 30             	sub    esi,0x30
  1026b2:	83 fe 09             	cmp    esi,0x9
  1026b5:	77 29                	ja     1026e0 <atoi+0xe0>
  1026b7:	89 fb                	mov    ebx,edi
  1026b9:	31 ed                	xor    ebp,ebp
  1026bb:	eb 98                	jmp    102655 <atoi+0x55>
  1026bd:	8d 76 00             	lea    esi,[esi+0x0]
  1026c0:	89 df                	mov    edi,ebx
  1026c2:	83 c7 01             	add    edi,0x1
  1026c5:	74 76                	je     10273d <atoi+0x13d>
  1026c7:	0f be 73 01          	movsx  esi,BYTE PTR [ebx+0x1]
  1026cb:	83 ee 30             	sub    esi,0x30
  1026ce:	83 fe 09             	cmp    esi,0x9
  1026d1:	77 11                	ja     1026e4 <atoi+0xe4>
  1026d3:	89 fb                	mov    ebx,edi
  1026d5:	bd 01 00 00 00       	mov    ebp,0x1
  1026da:	e9 76 ff ff ff       	jmp    102655 <atoi+0x55>
  1026df:	90                   	nop
  1026e0:	31 c0                	xor    eax,eax
  1026e2:	eb ab                	jmp    10268f <atoi+0x8f>
  1026e4:	31 ff                	xor    edi,edi
  1026e6:	eb 9d                	jmp    102685 <atoi+0x85>
  1026e8:	89 44 24 0c          	mov    DWORD PTR [esp+0xc],eax
  1026ec:	83 ec 04             	sub    esp,0x4
  1026ef:	6a 0a                	push   0xa
  1026f1:	57                   	push   edi
  1026f2:	68 b0 96 10 00       	push   0x1096b0
  1026f7:	e8 54 25 00 00       	call   104c50 <__ubsan_handle_mul_overflow>
  1026fc:	83 c4 10             	add    esp,0x10
  1026ff:	8b 44 24 0c          	mov    eax,DWORD PTR [esp+0xc]
  102703:	e9 61 ff ff ff       	jmp    102669 <atoi+0x69>
  102708:	88 44 24 0c          	mov    BYTE PTR [esp+0xc],al
  10270c:	57                   	push   edi
  10270d:	57                   	push   edi
  10270e:	6a 00                	push   0x0
  102710:	68 08 97 10 00       	push   0x109708
  102715:	e8 b6 23 00 00       	call   104ad0 <__ubsan_handle_type_mismatch>
  10271a:	83 c4 10             	add    esp,0x10
  10271d:	0f b6 44 24 0c       	movzx  eax,BYTE PTR [esp+0xc]
  102722:	e9 11 ff ff ff       	jmp    102638 <atoi+0x38>
  102727:	55                   	push   ebp
  102728:	55                   	push   ebp
  102729:	6a 00                	push   0x0
  10272b:	68 20 97 10 00       	push   0x109720
  102730:	e8 9b 23 00 00       	call   104ad0 <__ubsan_handle_type_mismatch>
  102735:	83 c4 10             	add    esp,0x10
  102738:	e9 ec fe ff ff       	jmp    102629 <atoi+0x29>
  10273d:	56                   	push   esi
  10273e:	56                   	push   esi
  10273f:	6a 00                	push   0x0
  102741:	68 f0 96 10 00       	push   0x1096f0
  102746:	e8 85 23 00 00       	call   104ad0 <__ubsan_handle_type_mismatch>
  10274b:	83 c4 10             	add    esp,0x10
  10274e:	e9 74 ff ff ff       	jmp    1026c7 <atoi+0xc7>
  102753:	50                   	push   eax
  102754:	50                   	push   eax
  102755:	6a 00                	push   0x0
  102757:	68 38 97 10 00       	push   0x109738
  10275c:	e8 6f 23 00 00       	call   104ad0 <__ubsan_handle_type_mismatch>
  102761:	83 c4 10             	add    esp,0x10
  102764:	e9 c0 fe ff ff       	jmp    102629 <atoi+0x29>
  102769:	50                   	push   eax
  10276a:	50                   	push   eax
  10276b:	68 00 00 00 80       	push   0x80000000
  102770:	68 a0 96 10 00       	push   0x1096a0
  102775:	e8 26 25 00 00       	call   104ca0 <__ubsan_handle_negate_overflow>
  10277a:	83 c4 10             	add    esp,0x10
  10277d:	e9 0b ff ff ff       	jmp    10268d <atoi+0x8d>
  102782:	51                   	push   ecx
  102783:	51                   	push   ecx
  102784:	6a 00                	push   0x0
  102786:	68 d8 96 10 00       	push   0x1096d8
  10278b:	e8 40 23 00 00       	call   104ad0 <__ubsan_handle_type_mismatch>
  102790:	83 c4 10             	add    esp,0x10
  102793:	e9 13 ff ff ff       	jmp    1026ab <atoi+0xab>
  102798:	89 44 24 0c          	mov    DWORD PTR [esp+0xc],eax
  10279c:	52                   	push   edx
  10279d:	52                   	push   edx
  10279e:	6a 00                	push   0x0
  1027a0:	68 c0 96 10 00       	push   0x1096c0
  1027a5:	e8 26 23 00 00       	call   104ad0 <__ubsan_handle_type_mismatch>
  1027aa:	83 c4 10             	add    esp,0x10
  1027ad:	8b 44 24 0c          	mov    eax,DWORD PTR [esp+0xc]
  1027b1:	e9 c0 fe ff ff       	jmp    102676 <atoi+0x76>
  1027b6:	8d 76 00             	lea    esi,[esi+0x0]
  1027b9:	8d bc 27 00 00 00 00 	lea    edi,[edi+eiz*1+0x0]

001027c0 <atol>:
  1027c0:	55                   	push   ebp
  1027c1:	57                   	push   edi
  1027c2:	56                   	push   esi
  1027c3:	53                   	push   ebx
  1027c4:	83 ec 1c             	sub    esp,0x1c
  1027c7:	8b 5c 24 30          	mov    ebx,DWORD PTR [esp+0x30]
  1027cb:	85 db                	test   ebx,ebx
  1027cd:	75 1a                	jne    1027e9 <atol+0x29>
  1027cf:	e9 3f 01 00 00       	jmp    102913 <atol+0x153>
  1027d4:	8d b6 00 00 00 00    	lea    esi,[esi+0x0]
  1027da:	8d bf 00 00 00 00    	lea    edi,[edi+0x0]
  1027e0:	83 c3 01             	add    ebx,0x1
  1027e3:	0f 84 fe 00 00 00    	je     1028e7 <atol+0x127>
  1027e9:	0f b6 03             	movzx  eax,BYTE PTR [ebx]
  1027ec:	3c 20                	cmp    al,0x20
  1027ee:	74 f0                	je     1027e0 <atol+0x20>
  1027f0:	85 db                	test   ebx,ebx
  1027f2:	0f 84 d0 00 00 00    	je     1028c8 <atol+0x108>
  1027f8:	3c 2d                	cmp    al,0x2d
  1027fa:	0f 84 80 00 00 00    	je     102880 <atol+0xc0>
  102800:	3c 2b                	cmp    al,0x2b
  102802:	74 5c                	je     102860 <atol+0xa0>
  102804:	0f be 33             	movsx  esi,BYTE PTR [ebx]
  102807:	83 ee 30             	sub    esi,0x30
  10280a:	83 fe 09             	cmp    esi,0x9
  10280d:	0f 87 8d 00 00 00    	ja     1028a0 <atol+0xe0>
  102813:	31 ed                	xor    ebp,ebp
  102815:	31 ff                	xor    edi,edi
  102817:	89 f6                	mov    esi,esi
  102819:	8d bc 27 00 00 00 00 	lea    edi,[edi+eiz*1+0x0]
  102820:	6b c7 0a             	imul   eax,edi,0xa
  102823:	0f 80 7f 00 00 00    	jo     1028a8 <atol+0xe8>
  102829:	01 f0                	add    eax,esi
  10282b:	83 c3 01             	add    ebx,0x1
  10282e:	89 c7                	mov    edi,eax
  102830:	0f 84 22 01 00 00    	je     102958 <atol+0x198>
  102836:	0f be 33             	movsx  esi,BYTE PTR [ebx]
  102839:	83 ee 30             	sub    esi,0x30
  10283c:	83 fe 09             	cmp    esi,0x9
  10283f:	76 df                	jbe    102820 <atol+0x60>
  102841:	85 ed                	test   ebp,ebp
  102843:	74 0a                	je     10284f <atol+0x8f>
  102845:	f7 df                	neg    edi
  102847:	0f 80 dc 00 00 00    	jo     102929 <atol+0x169>
  10284d:	89 f8                	mov    eax,edi
  10284f:	83 c4 1c             	add    esp,0x1c
  102852:	5b                   	pop    ebx
  102853:	5e                   	pop    esi
  102854:	5f                   	pop    edi
  102855:	5d                   	pop    ebp
  102856:	c3                   	ret    
  102857:	89 f6                	mov    esi,esi
  102859:	8d bc 27 00 00 00 00 	lea    edi,[edi+eiz*1+0x0]
  102860:	89 df                	mov    edi,ebx
  102862:	83 c7 01             	add    edi,0x1
  102865:	0f 84 d7 00 00 00    	je     102942 <atol+0x182>
  10286b:	0f be 73 01          	movsx  esi,BYTE PTR [ebx+0x1]
  10286f:	83 ee 30             	sub    esi,0x30
  102872:	83 fe 09             	cmp    esi,0x9
  102875:	77 29                	ja     1028a0 <atol+0xe0>
  102877:	89 fb                	mov    ebx,edi
  102879:	31 ed                	xor    ebp,ebp
  10287b:	eb 98                	jmp    102815 <atol+0x55>
  10287d:	8d 76 00             	lea    esi,[esi+0x0]
  102880:	89 df                	mov    edi,ebx
  102882:	83 c7 01             	add    edi,0x1
  102885:	74 76                	je     1028fd <atol+0x13d>
  102887:	0f be 73 01          	movsx  esi,BYTE PTR [ebx+0x1]
  10288b:	83 ee 30             	sub    esi,0x30
  10288e:	83 fe 09             	cmp    esi,0x9
  102891:	77 11                	ja     1028a4 <atol+0xe4>
  102893:	89 fb                	mov    ebx,edi
  102895:	bd 01 00 00 00       	mov    ebp,0x1
  10289a:	e9 76 ff ff ff       	jmp    102815 <atol+0x55>
  10289f:	90                   	nop
  1028a0:	31 c0                	xor    eax,eax
  1028a2:	eb ab                	jmp    10284f <atol+0x8f>
  1028a4:	31 ff                	xor    edi,edi
  1028a6:	eb 9d                	jmp    102845 <atol+0x85>
  1028a8:	89 44 24 0c          	mov    DWORD PTR [esp+0xc],eax
  1028ac:	83 ec 04             	sub    esp,0x4
  1028af:	6a 0a                	push   0xa
  1028b1:	57                   	push   edi
  1028b2:	68 00 96 10 00       	push   0x109600
  1028b7:	e8 94 23 00 00       	call   104c50 <__ubsan_handle_mul_overflow>
  1028bc:	83 c4 10             	add    esp,0x10
  1028bf:	8b 44 24 0c          	mov    eax,DWORD PTR [esp+0xc]
  1028c3:	e9 61 ff ff ff       	jmp    102829 <atol+0x69>
  1028c8:	88 44 24 0c          	mov    BYTE PTR [esp+0xc],al
  1028cc:	57                   	push   edi
  1028cd:	57                   	push   edi
  1028ce:	6a 00                	push   0x0
  1028d0:	68 58 96 10 00       	push   0x109658
  1028d5:	e8 f6 21 00 00       	call   104ad0 <__ubsan_handle_type_mismatch>
  1028da:	83 c4 10             	add    esp,0x10
  1028dd:	0f b6 44 24 0c       	movzx  eax,BYTE PTR [esp+0xc]
  1028e2:	e9 11 ff ff ff       	jmp    1027f8 <atol+0x38>
  1028e7:	55                   	push   ebp
  1028e8:	55                   	push   ebp
  1028e9:	6a 00                	push   0x0
  1028eb:	68 70 96 10 00       	push   0x109670
  1028f0:	e8 db 21 00 00       	call   104ad0 <__ubsan_handle_type_mismatch>
  1028f5:	83 c4 10             	add    esp,0x10
  1028f8:	e9 ec fe ff ff       	jmp    1027e9 <atol+0x29>
  1028fd:	56                   	push   esi
  1028fe:	56                   	push   esi
  1028ff:	6a 00                	push   0x0
  102901:	68 40 96 10 00       	push   0x109640
  102906:	e8 c5 21 00 00       	call   104ad0 <__ubsan_handle_type_mismatch>
  10290b:	83 c4 10             	add    esp,0x10
  10290e:	e9 74 ff ff ff       	jmp    102887 <atol+0xc7>
  102913:	50                   	push   eax
  102914:	50                   	push   eax
  102915:	6a 00                	push   0x0
  102917:	68 88 96 10 00       	push   0x109688
  10291c:	e8 af 21 00 00       	call   104ad0 <__ubsan_handle_type_mismatch>
  102921:	83 c4 10             	add    esp,0x10
  102924:	e9 c0 fe ff ff       	jmp    1027e9 <atol+0x29>
  102929:	50                   	push   eax
  10292a:	50                   	push   eax
  10292b:	68 00 00 00 80       	push   0x80000000
  102930:	68 f0 95 10 00       	push   0x1095f0
  102935:	e8 66 23 00 00       	call   104ca0 <__ubsan_handle_negate_overflow>
  10293a:	83 c4 10             	add    esp,0x10
  10293d:	e9 0b ff ff ff       	jmp    10284d <atol+0x8d>
  102942:	51                   	push   ecx
  102943:	51                   	push   ecx
  102944:	6a 00                	push   0x0
  102946:	68 28 96 10 00       	push   0x109628
  10294b:	e8 80 21 00 00       	call   104ad0 <__ubsan_handle_type_mismatch>
  102950:	83 c4 10             	add    esp,0x10
  102953:	e9 13 ff ff ff       	jmp    10286b <atol+0xab>
  102958:	89 44 24 0c          	mov    DWORD PTR [esp+0xc],eax
  10295c:	52                   	push   edx
  10295d:	52                   	push   edx
  10295e:	6a 00                	push   0x0
  102960:	68 10 96 10 00       	push   0x109610
  102965:	e8 66 21 00 00       	call   104ad0 <__ubsan_handle_type_mismatch>
  10296a:	83 c4 10             	add    esp,0x10
  10296d:	8b 44 24 0c          	mov    eax,DWORD PTR [esp+0xc]
  102971:	e9 c0 fe ff ff       	jmp    102836 <atol+0x76>
  102976:	8d 76 00             	lea    esi,[esi+0x0]
  102979:	8d bc 27 00 00 00 00 	lea    edi,[edi+eiz*1+0x0]

00102980 <atox>:
  102980:	57                   	push   edi
  102981:	56                   	push   esi
  102982:	31 f6                	xor    esi,esi
  102984:	53                   	push   ebx
  102985:	8b 7c 24 10          	mov    edi,DWORD PTR [esp+0x10]
  102989:	31 db                	xor    ebx,ebx
  10298b:	90                   	nop
  10298c:	8d 74 26 00          	lea    esi,[esi+eiz*1+0x0]
  102990:	83 ec 0c             	sub    esp,0xc
  102993:	57                   	push   edi
  102994:	e8 a7 18 00 00       	call   104240 <strlen>
  102999:	83 c4 10             	add    esp,0x10
  10299c:	39 d8                	cmp    eax,ebx
  10299e:	76 31                	jbe    1029d1 <atox+0x51>
  1029a0:	89 f8                	mov    eax,edi
  1029a2:	01 d8                	add    eax,ebx
  1029a4:	0f 84 dc 00 00 00    	je     102a86 <atox+0x106>
  1029aa:	83 c3 01             	add    ebx,0x1
  1029ad:	0f be 4c 1f ff       	movsx  ecx,BYTE PTR [edi+ebx*1-0x1]
  1029b2:	8d 41 d0             	lea    eax,[ecx-0x30]
  1029b5:	3c 09                	cmp    al,0x9
  1029b7:	77 27                	ja     1029e0 <atox+0x60>
  1029b9:	83 ec 0c             	sub    esp,0xc
  1029bc:	8d 51 d0             	lea    edx,[ecx-0x30]
  1029bf:	c1 e6 04             	shl    esi,0x4
  1029c2:	57                   	push   edi
  1029c3:	09 d6                	or     esi,edx
  1029c5:	e8 76 18 00 00       	call   104240 <strlen>
  1029ca:	83 c4 10             	add    esp,0x10
  1029cd:	39 d8                	cmp    eax,ebx
  1029cf:	77 cf                	ja     1029a0 <atox+0x20>
  1029d1:	89 f0                	mov    eax,esi
  1029d3:	5b                   	pop    ebx
  1029d4:	5e                   	pop    esi
  1029d5:	5f                   	pop    edi
  1029d6:	c3                   	ret    
  1029d7:	89 f6                	mov    esi,esi
  1029d9:	8d bc 27 00 00 00 00 	lea    edi,[edi+eiz*1+0x0]
  1029e0:	80 f9 41             	cmp    cl,0x41
  1029e3:	74 4b                	je     102a30 <atox+0xb0>
  1029e5:	80 f9 61             	cmp    cl,0x61
  1029e8:	74 46                	je     102a30 <atox+0xb0>
  1029ea:	80 f9 42             	cmp    cl,0x42
  1029ed:	74 51                	je     102a40 <atox+0xc0>
  1029ef:	80 f9 62             	cmp    cl,0x62
  1029f2:	74 4c                	je     102a40 <atox+0xc0>
  1029f4:	80 f9 43             	cmp    cl,0x43
  1029f7:	74 57                	je     102a50 <atox+0xd0>
  1029f9:	80 f9 63             	cmp    cl,0x63
  1029fc:	74 52                	je     102a50 <atox+0xd0>
  1029fe:	80 f9 44             	cmp    cl,0x44
  102a01:	74 5d                	je     102a60 <atox+0xe0>
  102a03:	80 f9 64             	cmp    cl,0x64
  102a06:	74 58                	je     102a60 <atox+0xe0>
  102a08:	80 f9 45             	cmp    cl,0x45
  102a0b:	74 63                	je     102a70 <atox+0xf0>
  102a0d:	80 f9 65             	cmp    cl,0x65
  102a10:	74 5e                	je     102a70 <atox+0xf0>
  102a12:	80 f9 46             	cmp    cl,0x46
  102a15:	74 05                	je     102a1c <atox+0x9c>
  102a17:	80 f9 66             	cmp    cl,0x66
  102a1a:	75 63                	jne    102a7f <atox+0xff>
  102a1c:	89 f2                	mov    edx,esi
  102a1e:	c1 e2 04             	shl    edx,0x4
  102a21:	83 ca 0f             	or     edx,0xf
  102a24:	89 d6                	mov    esi,edx
  102a26:	e9 65 ff ff ff       	jmp    102990 <atox+0x10>
  102a2b:	90                   	nop
  102a2c:	8d 74 26 00          	lea    esi,[esi+eiz*1+0x0]
  102a30:	89 f2                	mov    edx,esi
  102a32:	c1 e2 04             	shl    edx,0x4
  102a35:	83 ca 0a             	or     edx,0xa
  102a38:	89 d6                	mov    esi,edx
  102a3a:	e9 51 ff ff ff       	jmp    102990 <atox+0x10>
  102a3f:	90                   	nop
  102a40:	c1 e6 04             	shl    esi,0x4
  102a43:	83 ce 0b             	or     esi,0xb
  102a46:	e9 45 ff ff ff       	jmp    102990 <atox+0x10>
  102a4b:	90                   	nop
  102a4c:	8d 74 26 00          	lea    esi,[esi+eiz*1+0x0]
  102a50:	89 f2                	mov    edx,esi
  102a52:	c1 e2 04             	shl    edx,0x4
  102a55:	83 ca 0c             	or     edx,0xc
  102a58:	89 d6                	mov    esi,edx
  102a5a:	e9 31 ff ff ff       	jmp    102990 <atox+0x10>
  102a5f:	90                   	nop
  102a60:	c1 e6 04             	shl    esi,0x4
  102a63:	83 ce 0d             	or     esi,0xd
  102a66:	e9 25 ff ff ff       	jmp    102990 <atox+0x10>
  102a6b:	90                   	nop
  102a6c:	8d 74 26 00          	lea    esi,[esi+eiz*1+0x0]
  102a70:	89 f2                	mov    edx,esi
  102a72:	c1 e2 04             	shl    edx,0x4
  102a75:	89 d6                	mov    esi,edx
  102a77:	83 ce 0e             	or     esi,0xe
  102a7a:	e9 11 ff ff ff       	jmp    102990 <atox+0x10>
  102a7f:	31 f6                	xor    esi,esi
  102a81:	e9 4b ff ff ff       	jmp    1029d1 <atox+0x51>
  102a86:	50                   	push   eax
  102a87:	50                   	push   eax
  102a88:	6a 00                	push   0x0
  102a8a:	68 d8 95 10 00       	push   0x1095d8
  102a8f:	e8 3c 20 00 00       	call   104ad0 <__ubsan_handle_type_mismatch>
  102a94:	83 c4 10             	add    esp,0x10
  102a97:	e9 0e ff ff ff       	jmp    1029aa <atox+0x2a>
  102a9c:	8d 74 26 00          	lea    esi,[esi+eiz*1+0x0]

00102aa0 <atof>:
  102aa0:	d9 ee                	fldz   
  102aa2:	c3                   	ret    
  102aa3:	8d b6 00 00 00 00    	lea    esi,[esi+0x0]
  102aa9:	8d bc 27 00 00 00 00 	lea    edi,[edi+eiz*1+0x0]

00102ab0 <rand>:
  102ab0:	31 c0                	xor    eax,eax
  102ab2:	c3                   	ret    
  102ab3:	8d b6 00 00 00 00    	lea    esi,[esi+0x0]
  102ab9:	8d bc 27 00 00 00 00 	lea    edi,[edi+eiz*1+0x0]

00102ac0 <exit>:
  102ac0:	f3 c3                	repz ret 
  102ac2:	8d b4 26 00 00 00 00 	lea    esi,[esi+eiz*1+0x0]
  102ac9:	8d bc 27 00 00 00 00 	lea    edi,[edi+eiz*1+0x0]

00102ad0 <_itoa_swap>:
  102ad0:	56                   	push   esi
  102ad1:	53                   	push   ebx
  102ad2:	83 ec 14             	sub    esp,0x14
  102ad5:	8b 74 24 20          	mov    esi,DWORD PTR [esp+0x20]
  102ad9:	8b 5c 24 24          	mov    ebx,DWORD PTR [esp+0x24]
  102add:	85 f6                	test   esi,esi
  102adf:	74 14                	je     102af5 <_itoa_swap+0x25>
  102ae1:	85 db                	test   ebx,ebx
  102ae3:	0f b6 06             	movzx  eax,BYTE PTR [esi]
  102ae6:	74 20                	je     102b08 <_itoa_swap+0x38>
  102ae8:	0f b6 13             	movzx  edx,BYTE PTR [ebx]
  102aeb:	88 16                	mov    BYTE PTR [esi],dl
  102aed:	88 03                	mov    BYTE PTR [ebx],al
  102aef:	83 c4 14             	add    esp,0x14
  102af2:	5b                   	pop    ebx
  102af3:	5e                   	pop    esi
  102af4:	c3                   	ret    
  102af5:	52                   	push   edx
  102af6:	52                   	push   edx
  102af7:	6a 00                	push   0x0
  102af9:	68 b4 95 10 00       	push   0x1095b4
  102afe:	e8 cd 1f 00 00       	call   104ad0 <__ubsan_handle_type_mismatch>
  102b03:	83 c4 10             	add    esp,0x10
  102b06:	eb d9                	jmp    102ae1 <_itoa_swap+0x11>
  102b08:	88 44 24 0f          	mov    BYTE PTR [esp+0xf],al
  102b0c:	50                   	push   eax
  102b0d:	50                   	push   eax
  102b0e:	6a 00                	push   0x0
  102b10:	68 9c 95 10 00       	push   0x10959c
  102b15:	e8 b6 1f 00 00       	call   104ad0 <__ubsan_handle_type_mismatch>
  102b1a:	83 c4 10             	add    esp,0x10
  102b1d:	0f b6 44 24 0f       	movzx  eax,BYTE PTR [esp+0xf]
  102b22:	eb c4                	jmp    102ae8 <_itoa_swap+0x18>
  102b24:	8d b6 00 00 00 00    	lea    esi,[esi+0x0]
  102b2a:	8d bf 00 00 00 00    	lea    edi,[edi+0x0]

00102b30 <_itoa_rev>:
  102b30:	55                   	push   ebp
  102b31:	57                   	push   edi
  102b32:	56                   	push   esi
  102b33:	53                   	push   ebx
  102b34:	83 ec 1c             	sub    esp,0x1c
  102b37:	8b 74 24 34          	mov    esi,DWORD PTR [esp+0x34]
  102b3b:	8b 5c 24 38          	mov    ebx,DWORD PTR [esp+0x38]
  102b3f:	8b 44 24 30          	mov    eax,DWORD PTR [esp+0x30]
  102b43:	39 de                	cmp    esi,ebx
  102b45:	7d 33                	jge    102b7a <_itoa_rev+0x4a>
  102b47:	89 f6                	mov    esi,esi
  102b49:	8d bc 27 00 00 00 00 	lea    edi,[edi+eiz*1+0x0]
  102b50:	89 df                	mov    edi,ebx
  102b52:	83 ef 01             	sub    edi,0x1
  102b55:	70 2b                	jo     102b82 <_itoa_rev+0x52>
  102b57:	89 f5                	mov    ebp,esi
  102b59:	01 c3                	add    ebx,eax
  102b5b:	83 c5 01             	add    ebp,0x1
  102b5e:	70 3f                	jo     102b9f <_itoa_rev+0x6f>
  102b60:	01 c6                	add    esi,eax
  102b62:	74 7c                	je     102be0 <_itoa_rev+0xb0>
  102b64:	85 db                	test   ebx,ebx
  102b66:	0f b6 0e             	movzx  ecx,BYTE PTR [esi]
  102b69:	74 51                	je     102bbc <_itoa_rev+0x8c>
  102b6b:	0f b6 13             	movzx  edx,BYTE PTR [ebx]
  102b6e:	39 ef                	cmp    edi,ebp
  102b70:	88 16                	mov    BYTE PTR [esi],dl
  102b72:	88 0b                	mov    BYTE PTR [ebx],cl
  102b74:	89 ee                	mov    esi,ebp
  102b76:	89 fb                	mov    ebx,edi
  102b78:	7f d6                	jg     102b50 <_itoa_rev+0x20>
  102b7a:	83 c4 1c             	add    esp,0x1c
  102b7d:	5b                   	pop    ebx
  102b7e:	5e                   	pop    esi
  102b7f:	5f                   	pop    edi
  102b80:	5d                   	pop    ebp
  102b81:	c3                   	ret    
  102b82:	89 44 24 08          	mov    DWORD PTR [esp+0x8],eax
  102b86:	83 ec 04             	sub    esp,0x4
  102b89:	6a 01                	push   0x1
  102b8b:	53                   	push   ebx
  102b8c:	68 5c 95 10 00       	push   0x10955c
  102b91:	e8 6a 20 00 00       	call   104c00 <__ubsan_handle_sub_overflow>
  102b96:	83 c4 10             	add    esp,0x10
  102b99:	8b 44 24 08          	mov    eax,DWORD PTR [esp+0x8]
  102b9d:	eb b8                	jmp    102b57 <_itoa_rev+0x27>
  102b9f:	89 44 24 08          	mov    DWORD PTR [esp+0x8],eax
  102ba3:	83 ec 04             	sub    esp,0x4
  102ba6:	6a 01                	push   0x1
  102ba8:	56                   	push   esi
  102ba9:	68 4c 95 10 00       	push   0x10954c
  102bae:	e8 fd 1f 00 00       	call   104bb0 <__ubsan_handle_add_overflow>
  102bb3:	83 c4 10             	add    esp,0x10
  102bb6:	8b 44 24 08          	mov    eax,DWORD PTR [esp+0x8]
  102bba:	eb a4                	jmp    102b60 <_itoa_rev+0x30>
  102bbc:	89 44 24 0c          	mov    DWORD PTR [esp+0xc],eax
  102bc0:	88 4c 24 08          	mov    BYTE PTR [esp+0x8],cl
  102bc4:	50                   	push   eax
  102bc5:	50                   	push   eax
  102bc6:	6a 00                	push   0x0
  102bc8:	68 6c 95 10 00       	push   0x10956c
  102bcd:	e8 fe 1e 00 00       	call   104ad0 <__ubsan_handle_type_mismatch>
  102bd2:	83 c4 10             	add    esp,0x10
  102bd5:	8b 44 24 0c          	mov    eax,DWORD PTR [esp+0xc]
  102bd9:	0f b6 4c 24 08       	movzx  ecx,BYTE PTR [esp+0x8]
  102bde:	eb 8b                	jmp    102b6b <_itoa_rev+0x3b>
  102be0:	89 44 24 08          	mov    DWORD PTR [esp+0x8],eax
  102be4:	52                   	push   edx
  102be5:	52                   	push   edx
  102be6:	6a 00                	push   0x0
  102be8:	68 84 95 10 00       	push   0x109584
  102bed:	e8 de 1e 00 00       	call   104ad0 <__ubsan_handle_type_mismatch>
  102bf2:	83 c4 10             	add    esp,0x10
  102bf5:	8b 44 24 08          	mov    eax,DWORD PTR [esp+0x8]
  102bf9:	e9 66 ff ff ff       	jmp    102b64 <_itoa_rev+0x34>
  102bfe:	66 90                	xchg   ax,ax

00102c00 <itoa>:
  102c00:	55                   	push   ebp
  102c01:	57                   	push   edi
  102c02:	56                   	push   esi
  102c03:	53                   	push   ebx
  102c04:	83 ec 1c             	sub    esp,0x1c
  102c07:	8b 7c 24 38          	mov    edi,DWORD PTR [esp+0x38]
  102c0b:	8b 5c 24 34          	mov    ebx,DWORD PTR [esp+0x34]
  102c0f:	8d 47 fe             	lea    eax,[edi-0x2]
  102c12:	83 f8 1e             	cmp    eax,0x1e
  102c15:	76 19                	jbe    102c30 <itoa+0x30>
  102c17:	83 c4 1c             	add    esp,0x1c
  102c1a:	89 d8                	mov    eax,ebx
  102c1c:	5b                   	pop    ebx
  102c1d:	5e                   	pop    esi
  102c1e:	5f                   	pop    edi
  102c1f:	5d                   	pop    ebp
  102c20:	c3                   	ret    
  102c21:	eb 0d                	jmp    102c30 <itoa+0x30>
  102c23:	90                   	nop
  102c24:	90                   	nop
  102c25:	90                   	nop
  102c26:	90                   	nop
  102c27:	90                   	nop
  102c28:	90                   	nop
  102c29:	90                   	nop
  102c2a:	90                   	nop
  102c2b:	90                   	nop
  102c2c:	90                   	nop
  102c2d:	90                   	nop
  102c2e:	90                   	nop
  102c2f:	90                   	nop
  102c30:	83 ec 0c             	sub    esp,0xc
  102c33:	31 f6                	xor    esi,esi
  102c35:	ff 74 24 3c          	push   DWORD PTR [esp+0x3c]
  102c39:	e8 e2 d6 ff ff       	call   100320 <abs>
  102c3e:	83 c4 10             	add    esp,0x10
  102c41:	85 c0                	test   eax,eax
  102c43:	75 28                	jne    102c6d <itoa+0x6d>
  102c45:	e9 16 01 00 00       	jmp    102d60 <itoa+0x160>
  102c4a:	8d b6 00 00 00 00    	lea    esi,[esi+0x0]
  102c50:	83 c1 01             	add    ecx,0x1
  102c53:	0f 80 21 01 00 00    	jo     102d7a <itoa+0x17a>
  102c59:	83 c2 37             	add    edx,0x37
  102c5c:	85 ed                	test   ebp,ebp
  102c5e:	89 ce                	mov    esi,ecx
  102c60:	0f 84 ba 01 00 00    	je     102e20 <itoa+0x220>
  102c66:	85 c0                	test   eax,eax
  102c68:	88 55 00             	mov    BYTE PTR [ebp+0x0],dl
  102c6b:	74 43                	je     102cb0 <itoa+0xb0>
  102c6d:	99                   	cdq    
  102c6e:	8d 2c 33             	lea    ebp,[ebx+esi*1]
  102c71:	89 f1                	mov    ecx,esi
  102c73:	f7 ff                	idiv   edi
  102c75:	83 fa 09             	cmp    edx,0x9
  102c78:	7f d6                	jg     102c50 <itoa+0x50>
  102c7a:	83 c1 01             	add    ecx,0x1
  102c7d:	0f 80 25 01 00 00    	jo     102da8 <itoa+0x1a8>
  102c83:	83 c2 30             	add    edx,0x30
  102c86:	85 ed                	test   ebp,ebp
  102c88:	89 ce                	mov    esi,ecx
  102c8a:	75 da                	jne    102c66 <itoa+0x66>
  102c8c:	89 44 24 08          	mov    DWORD PTR [esp+0x8],eax
  102c90:	88 54 24 04          	mov    BYTE PTR [esp+0x4],dl
  102c94:	50                   	push   eax
  102c95:	50                   	push   eax
  102c96:	6a 00                	push   0x0
  102c98:	68 04 95 10 00       	push   0x109504
  102c9d:	e8 2e 1e 00 00       	call   104ad0 <__ubsan_handle_type_mismatch>
  102ca2:	83 c4 10             	add    esp,0x10
  102ca5:	8b 44 24 08          	mov    eax,DWORD PTR [esp+0x8]
  102ca9:	0f b6 54 24 04       	movzx  edx,BYTE PTR [esp+0x4]
  102cae:	eb b6                	jmp    102c66 <itoa+0x66>
  102cb0:	85 f6                	test   esi,esi
  102cb2:	0f 84 a8 00 00 00    	je     102d60 <itoa+0x160>
  102cb8:	89 f5                	mov    ebp,esi
  102cba:	8b 44 24 30          	mov    eax,DWORD PTR [esp+0x30]
  102cbe:	01 dd                	add    ebp,ebx
  102cc0:	85 c0                	test   eax,eax
  102cc2:	79 21                	jns    102ce5 <itoa+0xe5>
  102cc4:	83 ff 0a             	cmp    edi,0xa
  102cc7:	75 1c                	jne    102ce5 <itoa+0xe5>
  102cc9:	89 f7                	mov    edi,esi
  102ccb:	83 c7 01             	add    edi,0x1
  102cce:	0f 80 36 01 00 00    	jo     102e0a <itoa+0x20a>
  102cd4:	85 ed                	test   ebp,ebp
  102cd6:	89 fe                	mov    esi,edi
  102cd8:	0f 84 16 01 00 00    	je     102df4 <itoa+0x1f4>
  102cde:	c6 45 00 2d          	mov    BYTE PTR [ebp+0x0],0x2d
  102ce2:	8d 2c 3b             	lea    ebp,[ebx+edi*1]
  102ce5:	85 ed                	test   ebp,ebp
  102ce7:	0f 84 5a 01 00 00    	je     102e47 <itoa+0x247>
  102ced:	89 f0                	mov    eax,esi
  102cef:	c6 45 00 00          	mov    BYTE PTR [ebp+0x0],0x0
  102cf3:	83 e8 01             	sub    eax,0x1
  102cf6:	0f 80 da 00 00 00    	jo     102dd6 <itoa+0x1d6>
  102cfc:	85 c0                	test   eax,eax
  102cfe:	0f 8e 13 ff ff ff    	jle    102c17 <itoa+0x17>
  102d04:	31 d2                	xor    edx,edx
  102d06:	eb 28                	jmp    102d30 <itoa+0x130>
  102d08:	90                   	nop
  102d09:	8d b4 26 00 00 00 00 	lea    esi,[esi+eiz*1+0x0]
  102d10:	85 c0                	test   eax,eax
  102d12:	0f b6 2a             	movzx  ebp,BYTE PTR [edx]
  102d15:	0f 84 58 01 00 00    	je     102e73 <itoa+0x273>
  102d1b:	0f b6 08             	movzx  ecx,BYTE PTR [eax]
  102d1e:	39 fe                	cmp    esi,edi
  102d20:	88 0a                	mov    BYTE PTR [edx],cl
  102d22:	89 e9                	mov    ecx,ebp
  102d24:	89 fa                	mov    edx,edi
  102d26:	88 08                	mov    BYTE PTR [eax],cl
  102d28:	89 f0                	mov    eax,esi
  102d2a:	0f 8e e7 fe ff ff    	jle    102c17 <itoa+0x17>
  102d30:	8d 70 ff             	lea    esi,[eax-0x1]
  102d33:	8d 7a 01             	lea    edi,[edx+0x1]
  102d36:	01 d8                	add    eax,ebx
  102d38:	01 da                	add    edx,ebx
  102d3a:	75 d4                	jne    102d10 <itoa+0x110>
  102d3c:	89 54 24 08          	mov    DWORD PTR [esp+0x8],edx
  102d40:	89 44 24 04          	mov    DWORD PTR [esp+0x4],eax
  102d44:	52                   	push   edx
  102d45:	52                   	push   edx
  102d46:	6a 00                	push   0x0
  102d48:	68 bc 94 10 00       	push   0x1094bc
  102d4d:	e8 7e 1d 00 00       	call   104ad0 <__ubsan_handle_type_mismatch>
  102d52:	83 c4 10             	add    esp,0x10
  102d55:	8b 54 24 08          	mov    edx,DWORD PTR [esp+0x8]
  102d59:	8b 44 24 04          	mov    eax,DWORD PTR [esp+0x4]
  102d5d:	eb b1                	jmp    102d10 <itoa+0x110>
  102d5f:	90                   	nop
  102d60:	85 db                	test   ebx,ebx
  102d62:	0f 84 f5 00 00 00    	je     102e5d <itoa+0x25d>
  102d68:	c6 03 30             	mov    BYTE PTR [ebx],0x30
  102d6b:	bd 01 00 00 00       	mov    ebp,0x1
  102d70:	be 01 00 00 00       	mov    esi,0x1
  102d75:	e9 40 ff ff ff       	jmp    102cba <itoa+0xba>
  102d7a:	89 54 24 08          	mov    DWORD PTR [esp+0x8],edx
  102d7e:	89 4c 24 0c          	mov    DWORD PTR [esp+0xc],ecx
  102d82:	89 44 24 04          	mov    DWORD PTR [esp+0x4],eax
  102d86:	52                   	push   edx
  102d87:	6a 01                	push   0x1
  102d89:	56                   	push   esi
  102d8a:	68 94 94 10 00       	push   0x109494
  102d8f:	e8 1c 1e 00 00       	call   104bb0 <__ubsan_handle_add_overflow>
  102d94:	83 c4 10             	add    esp,0x10
  102d97:	8b 4c 24 0c          	mov    ecx,DWORD PTR [esp+0xc]
  102d9b:	8b 54 24 08          	mov    edx,DWORD PTR [esp+0x8]
  102d9f:	8b 44 24 04          	mov    eax,DWORD PTR [esp+0x4]
  102da3:	e9 b1 fe ff ff       	jmp    102c59 <itoa+0x59>
  102da8:	89 44 24 04          	mov    DWORD PTR [esp+0x4],eax
  102dac:	89 4c 24 0c          	mov    DWORD PTR [esp+0xc],ecx
  102db0:	89 54 24 08          	mov    DWORD PTR [esp+0x8],edx
  102db4:	50                   	push   eax
  102db5:	6a 01                	push   0x1
  102db7:	56                   	push   esi
  102db8:	68 84 94 10 00       	push   0x109484
  102dbd:	e8 ee 1d 00 00       	call   104bb0 <__ubsan_handle_add_overflow>
  102dc2:	83 c4 10             	add    esp,0x10
  102dc5:	8b 4c 24 0c          	mov    ecx,DWORD PTR [esp+0xc]
  102dc9:	8b 54 24 08          	mov    edx,DWORD PTR [esp+0x8]
  102dcd:	8b 44 24 04          	mov    eax,DWORD PTR [esp+0x4]
  102dd1:	e9 ad fe ff ff       	jmp    102c83 <itoa+0x83>
  102dd6:	89 44 24 04          	mov    DWORD PTR [esp+0x4],eax
  102dda:	51                   	push   ecx
  102ddb:	6a 01                	push   0x1
  102ddd:	56                   	push   esi
  102dde:	68 64 94 10 00       	push   0x109464
  102de3:	e8 18 1e 00 00       	call   104c00 <__ubsan_handle_sub_overflow>
  102de8:	83 c4 10             	add    esp,0x10
  102deb:	8b 44 24 04          	mov    eax,DWORD PTR [esp+0x4]
  102def:	e9 08 ff ff ff       	jmp    102cfc <itoa+0xfc>
  102df4:	50                   	push   eax
  102df5:	50                   	push   eax
  102df6:	6a 00                	push   0x0
  102df8:	68 ec 94 10 00       	push   0x1094ec
  102dfd:	e8 ce 1c 00 00       	call   104ad0 <__ubsan_handle_type_mismatch>
  102e02:	83 c4 10             	add    esp,0x10
  102e05:	e9 d4 fe ff ff       	jmp    102cde <itoa+0xde>
  102e0a:	50                   	push   eax
  102e0b:	6a 01                	push   0x1
  102e0d:	56                   	push   esi
  102e0e:	68 74 94 10 00       	push   0x109474
  102e13:	e8 98 1d 00 00       	call   104bb0 <__ubsan_handle_add_overflow>
  102e18:	83 c4 10             	add    esp,0x10
  102e1b:	e9 b4 fe ff ff       	jmp    102cd4 <itoa+0xd4>
  102e20:	89 44 24 08          	mov    DWORD PTR [esp+0x8],eax
  102e24:	88 54 24 04          	mov    BYTE PTR [esp+0x4],dl
  102e28:	50                   	push   eax
  102e29:	50                   	push   eax
  102e2a:	6a 00                	push   0x0
  102e2c:	68 1c 95 10 00       	push   0x10951c
  102e31:	e8 9a 1c 00 00       	call   104ad0 <__ubsan_handle_type_mismatch>
  102e36:	83 c4 10             	add    esp,0x10
  102e39:	8b 44 24 08          	mov    eax,DWORD PTR [esp+0x8]
  102e3d:	0f b6 54 24 04       	movzx  edx,BYTE PTR [esp+0x4]
  102e42:	e9 1f fe ff ff       	jmp    102c66 <itoa+0x66>
  102e47:	57                   	push   edi
  102e48:	57                   	push   edi
  102e49:	6a 00                	push   0x0
  102e4b:	68 d4 94 10 00       	push   0x1094d4
  102e50:	e8 7b 1c 00 00       	call   104ad0 <__ubsan_handle_type_mismatch>
  102e55:	83 c4 10             	add    esp,0x10
  102e58:	e9 90 fe ff ff       	jmp    102ced <itoa+0xed>
  102e5d:	51                   	push   ecx
  102e5e:	51                   	push   ecx
  102e5f:	6a 00                	push   0x0
  102e61:	68 34 95 10 00       	push   0x109534
  102e66:	e8 65 1c 00 00       	call   104ad0 <__ubsan_handle_type_mismatch>
  102e6b:	83 c4 10             	add    esp,0x10
  102e6e:	e9 f5 fe ff ff       	jmp    102d68 <itoa+0x168>
  102e73:	89 e9                	mov    ecx,ebp
  102e75:	89 44 24 04          	mov    DWORD PTR [esp+0x4],eax
  102e79:	89 54 24 08          	mov    DWORD PTR [esp+0x8],edx
  102e7d:	88 4c 24 0c          	mov    BYTE PTR [esp+0xc],cl
  102e81:	50                   	push   eax
  102e82:	50                   	push   eax
  102e83:	6a 00                	push   0x0
  102e85:	68 a4 94 10 00       	push   0x1094a4
  102e8a:	e8 41 1c 00 00       	call   104ad0 <__ubsan_handle_type_mismatch>
  102e8f:	83 c4 10             	add    esp,0x10
  102e92:	0f b6 6c 24 0c       	movzx  ebp,BYTE PTR [esp+0xc]
  102e97:	8b 54 24 08          	mov    edx,DWORD PTR [esp+0x8]
  102e9b:	8b 44 24 04          	mov    eax,DWORD PTR [esp+0x4]
  102e9f:	e9 77 fe ff ff       	jmp    102d1b <itoa+0x11b>
  102ea4:	8d b6 00 00 00 00    	lea    esi,[esi+0x0]
  102eaa:	8d bf 00 00 00 00    	lea    edi,[edi+0x0]

00102eb0 <_ultoa>:
  102eb0:	55                   	push   ebp
  102eb1:	57                   	push   edi
  102eb2:	b8 01 00 00 00       	mov    eax,0x1
  102eb7:	56                   	push   esi
  102eb8:	53                   	push   ebx
  102eb9:	b9 20 00 00 00       	mov    ecx,0x20
  102ebe:	83 ec 4c             	sub    esp,0x4c
  102ec1:	8d 54 24 20          	lea    edx,[esp+0x20]
  102ec5:	8b 7c 24 68          	mov    edi,DWORD PTR [esp+0x68]
  102ec9:	8b 6c 24 60          	mov    ebp,DWORD PTR [esp+0x60]
  102ecd:	88 4c 24 0b          	mov    BYTE PTR [esp+0xb],cl
  102ed1:	29 d0                	sub    eax,edx
  102ed3:	89 44 24 10          	mov    DWORD PTR [esp+0x10],eax
  102ed7:	89 f6                	mov    esi,esi
  102ed9:	8d bc 27 00 00 00 00 	lea    edi,[edi+eiz*1+0x0]
  102ee0:	85 ff                	test   edi,edi
  102ee2:	0f 84 e6 00 00 00    	je     102fce <_ultoa+0x11e>
  102ee8:	31 d2                	xor    edx,edx
  102eea:	89 e8                	mov    eax,ebp
  102eec:	80 6c 24 0b 01       	sub    BYTE PTR [esp+0xb],0x1
  102ef1:	f7 f7                	div    edi
  102ef3:	0f b6 5c 24 0b       	movzx  ebx,BYTE PTR [esp+0xb]
  102ef8:	83 fb 1f             	cmp    ebx,0x1f
  102efb:	89 44 24 0c          	mov    DWORD PTR [esp+0xc],eax
  102eff:	8d 42 30             	lea    eax,[edx+0x30]
  102f02:	0f 87 74 02 00 00    	ja     10317c <_ultoa+0x2cc>
  102f08:	8d 4c 24 20          	lea    ecx,[esp+0x20]
  102f0c:	8d 34 19             	lea    esi,[ecx+ebx*1]
  102f0f:	89 74 24 14          	mov    DWORD PTR [esp+0x14],esi
  102f13:	03 74 24 10          	add    esi,DWORD PTR [esp+0x10]
  102f17:	83 fe 20             	cmp    esi,0x20
  102f1a:	0f 87 27 02 00 00    	ja     103147 <_ultoa+0x297>
  102f20:	83 fb 1f             	cmp    ebx,0x1f
  102f23:	88 44 1c 20          	mov    BYTE PTR [esp+ebx*1+0x20],al
  102f27:	0f 87 f4 01 00 00    	ja     103121 <_ultoa+0x271>
  102f2d:	83 fe 20             	cmp    esi,0x20
  102f30:	0f 87 b6 01 00 00    	ja     1030ec <_ultoa+0x23c>
  102f36:	3c 39                	cmp    al,0x39
  102f38:	7e 22                	jle    102f5c <_ultoa+0xac>
  102f3a:	83 fe 20             	cmp    esi,0x20
  102f3d:	0f 87 04 01 00 00    	ja     103047 <_ultoa+0x197>
  102f43:	83 c2 37             	add    edx,0x37
  102f46:	83 fb 1f             	cmp    ebx,0x1f
  102f49:	0f 87 da 00 00 00    	ja     103029 <_ultoa+0x179>
  102f4f:	83 fe 20             	cmp    esi,0x20
  102f52:	0f 87 a6 00 00 00    	ja     102ffe <_ultoa+0x14e>
  102f58:	88 54 1c 20          	mov    BYTE PTR [esp+ebx*1+0x20],dl
  102f5c:	85 ff                	test   edi,edi
  102f5e:	0f 84 82 00 00 00    	je     102fe6 <_ultoa+0x136>
  102f64:	8b 6c 24 0c          	mov    ebp,DWORD PTR [esp+0xc]
  102f68:	85 ed                	test   ebp,ebp
  102f6a:	0f 85 70 ff ff ff    	jne    102ee0 <_ultoa+0x30>
  102f70:	0f b6 4c 24 0b       	movzx  ecx,BYTE PTR [esp+0xb]
  102f75:	8b 6c 24 64          	mov    ebp,DWORD PTR [esp+0x64]
  102f79:	8b 7c 24 10          	mov    edi,DWORD PTR [esp+0x10]
  102f7d:	eb 06                	jmp    102f85 <_ultoa+0xd5>
  102f7f:	90                   	nop
  102f80:	89 f5                	mov    ebp,esi
  102f82:	0f b6 d9             	movzx  ebx,cl
  102f85:	83 c1 01             	add    ecx,0x1
  102f88:	83 fb 1f             	cmp    ebx,0x1f
  102f8b:	0f 87 3d 01 00 00    	ja     1030ce <_ultoa+0x21e>
  102f91:	8d 44 24 20          	lea    eax,[esp+0x20]
  102f95:	8d 75 01             	lea    esi,[ebp+0x1]
  102f98:	01 d8                	add    eax,ebx
  102f9a:	8d 14 38             	lea    edx,[eax+edi*1]
  102f9d:	83 fa 20             	cmp    edx,0x20
  102fa0:	0f 87 02 01 00 00    	ja     1030a8 <_ultoa+0x1f8>
  102fa6:	85 ed                	test   ebp,ebp
  102fa8:	0f b6 5c 1c 20       	movzx  ebx,BYTE PTR [esp+ebx*1+0x20]
  102fad:	0f 84 d6 00 00 00    	je     103089 <_ultoa+0x1d9>
  102fb3:	80 f9 1f             	cmp    cl,0x1f
  102fb6:	88 5e ff             	mov    BYTE PTR [esi-0x1],bl
  102fb9:	76 c5                	jbe    102f80 <_ultoa+0xd0>
  102fbb:	85 f6                	test   esi,esi
  102fbd:	0f 84 b0 00 00 00    	je     103073 <_ultoa+0x1c3>
  102fc3:	c6 06 00             	mov    BYTE PTR [esi],0x0
  102fc6:	83 c4 4c             	add    esp,0x4c
  102fc9:	5b                   	pop    ebx
  102fca:	5e                   	pop    esi
  102fcb:	5f                   	pop    edi
  102fcc:	5d                   	pop    ebp
  102fcd:	c3                   	ret    
  102fce:	83 ec 04             	sub    esp,0x4
  102fd1:	6a 00                	push   0x0
  102fd3:	55                   	push   ebp
  102fd4:	68 80 97 10 00       	push   0x109780
  102fd9:	e8 12 1d 00 00       	call   104cf0 <__ubsan_handle_divrem_overflow>
  102fde:	83 c4 10             	add    esp,0x10
  102fe1:	e9 02 ff ff ff       	jmp    102ee8 <_ultoa+0x38>
  102fe6:	83 ec 04             	sub    esp,0x4
  102fe9:	6a 00                	push   0x0
  102feb:	55                   	push   ebp
  102fec:	68 70 97 10 00       	push   0x109770
  102ff1:	e8 fa 1c 00 00       	call   104cf0 <__ubsan_handle_divrem_overflow>
  102ff6:	83 c4 10             	add    esp,0x10
  102ff9:	e9 66 ff ff ff       	jmp    102f64 <_ultoa+0xb4>
  102ffe:	03 74 24 14          	add    esi,DWORD PTR [esp+0x14]
  103002:	0f 82 50 ff ff ff    	jb     102f58 <_ultoa+0xa8>
  103008:	88 54 24 18          	mov    BYTE PTR [esp+0x18],dl
  10300c:	50                   	push   eax
  10300d:	50                   	push   eax
  10300e:	ff 74 24 1c          	push   DWORD PTR [esp+0x1c]
  103012:	68 98 93 10 00       	push   0x109398
  103017:	e8 b4 1a 00 00       	call   104ad0 <__ubsan_handle_type_mismatch>
  10301c:	83 c4 10             	add    esp,0x10
  10301f:	0f b6 54 24 18       	movzx  edx,BYTE PTR [esp+0x18]
  103024:	e9 2f ff ff ff       	jmp    102f58 <_ultoa+0xa8>
  103029:	88 54 24 18          	mov    BYTE PTR [esp+0x18],dl
  10302d:	50                   	push   eax
  10302e:	50                   	push   eax
  10302f:	53                   	push   ebx
  103030:	68 b0 93 10 00       	push   0x1093b0
  103035:	e8 46 1a 00 00       	call   104a80 <__ubsan_handle_out_of_bounds>
  10303a:	83 c4 10             	add    esp,0x10
  10303d:	0f b6 54 24 18       	movzx  edx,BYTE PTR [esp+0x18]
  103042:	e9 08 ff ff ff       	jmp    102f4f <_ultoa+0x9f>
  103047:	8b 44 24 14          	mov    eax,DWORD PTR [esp+0x14]
  10304b:	01 f0                	add    eax,esi
  10304d:	0f 82 f0 fe ff ff    	jb     102f43 <_ultoa+0x93>
  103053:	89 54 24 18          	mov    DWORD PTR [esp+0x18],edx
  103057:	50                   	push   eax
  103058:	50                   	push   eax
  103059:	ff 74 24 1c          	push   DWORD PTR [esp+0x1c]
  10305d:	68 d4 93 10 00       	push   0x1093d4
  103062:	e8 69 1a 00 00       	call   104ad0 <__ubsan_handle_type_mismatch>
  103067:	83 c4 10             	add    esp,0x10
  10306a:	8b 54 24 18          	mov    edx,DWORD PTR [esp+0x18]
  10306e:	e9 d0 fe ff ff       	jmp    102f43 <_ultoa+0x93>
  103073:	50                   	push   eax
  103074:	50                   	push   eax
  103075:	6a 00                	push   0x0
  103077:	68 2c 93 10 00       	push   0x10932c
  10307c:	e8 4f 1a 00 00       	call   104ad0 <__ubsan_handle_type_mismatch>
  103081:	83 c4 10             	add    esp,0x10
  103084:	e9 3a ff ff ff       	jmp    102fc3 <_ultoa+0x113>
  103089:	88 4c 24 0b          	mov    BYTE PTR [esp+0xb],cl
  10308d:	52                   	push   edx
  10308e:	52                   	push   edx
  10308f:	6a 00                	push   0x0
  103091:	68 44 93 10 00       	push   0x109344
  103096:	e8 35 1a 00 00       	call   104ad0 <__ubsan_handle_type_mismatch>
  10309b:	83 c4 10             	add    esp,0x10
  10309e:	0f b6 4c 24 0b       	movzx  ecx,BYTE PTR [esp+0xb]
  1030a3:	e9 0b ff ff ff       	jmp    102fb3 <_ultoa+0x103>
  1030a8:	01 c2                	add    edx,eax
  1030aa:	0f 82 f6 fe ff ff    	jb     102fa6 <_ultoa+0xf6>
  1030b0:	88 4c 24 0b          	mov    BYTE PTR [esp+0xb],cl
  1030b4:	51                   	push   ecx
  1030b5:	51                   	push   ecx
  1030b6:	50                   	push   eax
  1030b7:	68 5c 93 10 00       	push   0x10935c
  1030bc:	e8 0f 1a 00 00       	call   104ad0 <__ubsan_handle_type_mismatch>
  1030c1:	83 c4 10             	add    esp,0x10
  1030c4:	0f b6 4c 24 0b       	movzx  ecx,BYTE PTR [esp+0xb]
  1030c9:	e9 d8 fe ff ff       	jmp    102fa6 <_ultoa+0xf6>
  1030ce:	88 4c 24 0b          	mov    BYTE PTR [esp+0xb],cl
  1030d2:	56                   	push   esi
  1030d3:	56                   	push   esi
  1030d4:	53                   	push   ebx
  1030d5:	68 74 93 10 00       	push   0x109374
  1030da:	e8 a1 19 00 00       	call   104a80 <__ubsan_handle_out_of_bounds>
  1030df:	83 c4 10             	add    esp,0x10
  1030e2:	0f b6 4c 24 0b       	movzx  ecx,BYTE PTR [esp+0xb]
  1030e7:	e9 a5 fe ff ff       	jmp    102f91 <_ultoa+0xe1>
  1030ec:	8b 4c 24 14          	mov    ecx,DWORD PTR [esp+0x14]
  1030f0:	01 f1                	add    ecx,esi
  1030f2:	0f 82 3e fe ff ff    	jb     102f36 <_ultoa+0x86>
  1030f8:	88 44 24 18          	mov    BYTE PTR [esp+0x18],al
  1030fc:	89 54 24 1c          	mov    DWORD PTR [esp+0x1c],edx
  103100:	50                   	push   eax
  103101:	50                   	push   eax
  103102:	ff 74 24 1c          	push   DWORD PTR [esp+0x1c]
  103106:	68 ec 93 10 00       	push   0x1093ec
  10310b:	e8 c0 19 00 00       	call   104ad0 <__ubsan_handle_type_mismatch>
  103110:	83 c4 10             	add    esp,0x10
  103113:	8b 54 24 1c          	mov    edx,DWORD PTR [esp+0x1c]
  103117:	0f b6 44 24 18       	movzx  eax,BYTE PTR [esp+0x18]
  10311c:	e9 15 fe ff ff       	jmp    102f36 <_ultoa+0x86>
  103121:	88 44 24 18          	mov    BYTE PTR [esp+0x18],al
  103125:	89 54 24 1c          	mov    DWORD PTR [esp+0x1c],edx
  103129:	50                   	push   eax
  10312a:	50                   	push   eax
  10312b:	53                   	push   ebx
  10312c:	68 04 94 10 00       	push   0x109404
  103131:	e8 4a 19 00 00       	call   104a80 <__ubsan_handle_out_of_bounds>
  103136:	83 c4 10             	add    esp,0x10
  103139:	8b 54 24 1c          	mov    edx,DWORD PTR [esp+0x1c]
  10313d:	0f b6 44 24 18       	movzx  eax,BYTE PTR [esp+0x18]
  103142:	e9 e6 fd ff ff       	jmp    102f2d <_ultoa+0x7d>
  103147:	8b 4c 24 14          	mov    ecx,DWORD PTR [esp+0x14]
  10314b:	01 f1                	add    ecx,esi
  10314d:	0f 82 cd fd ff ff    	jb     102f20 <_ultoa+0x70>
  103153:	88 44 24 18          	mov    BYTE PTR [esp+0x18],al
  103157:	89 54 24 1c          	mov    DWORD PTR [esp+0x1c],edx
  10315b:	50                   	push   eax
  10315c:	50                   	push   eax
  10315d:	ff 74 24 1c          	push   DWORD PTR [esp+0x1c]
  103161:	68 28 94 10 00       	push   0x109428
  103166:	e8 65 19 00 00       	call   104ad0 <__ubsan_handle_type_mismatch>
  10316b:	83 c4 10             	add    esp,0x10
  10316e:	8b 54 24 1c          	mov    edx,DWORD PTR [esp+0x1c]
  103172:	0f b6 44 24 18       	movzx  eax,BYTE PTR [esp+0x18]
  103177:	e9 a4 fd ff ff       	jmp    102f20 <_ultoa+0x70>
  10317c:	89 54 24 18          	mov    DWORD PTR [esp+0x18],edx
  103180:	88 44 24 14          	mov    BYTE PTR [esp+0x14],al
  103184:	52                   	push   edx
  103185:	52                   	push   edx
  103186:	53                   	push   ebx
  103187:	68 40 94 10 00       	push   0x109440
  10318c:	e8 ef 18 00 00       	call   104a80 <__ubsan_handle_out_of_bounds>
  103191:	83 c4 10             	add    esp,0x10
  103194:	8b 54 24 18          	mov    edx,DWORD PTR [esp+0x18]
  103198:	0f b6 44 24 14       	movzx  eax,BYTE PTR [esp+0x14]
  10319d:	e9 66 fd ff ff       	jmp    102f08 <_ultoa+0x58>
  1031a2:	8d b4 26 00 00 00 00 	lea    esi,[esi+eiz*1+0x0]
  1031a9:	8d bc 27 00 00 00 00 	lea    edi,[edi+eiz*1+0x0]

001031b0 <ltoa>:
  1031b0:	53                   	push   ebx
  1031b1:	83 ec 0c             	sub    esp,0xc
  1031b4:	8b 5c 24 18          	mov    ebx,DWORD PTR [esp+0x18]
  1031b8:	ff 74 24 1c          	push   DWORD PTR [esp+0x1c]
  1031bc:	53                   	push   ebx
  1031bd:	ff 74 24 1c          	push   DWORD PTR [esp+0x1c]
  1031c1:	e8 ea fc ff ff       	call   102eb0 <_ultoa>
  1031c6:	83 c4 18             	add    esp,0x18
  1031c9:	89 d8                	mov    eax,ebx
  1031cb:	5b                   	pop    ebx
  1031cc:	c3                   	ret    
  1031cd:	8d 76 00             	lea    esi,[esi+0x0]

001031d0 <strhex>:
  1031d0:	55                   	push   ebp
  1031d1:	57                   	push   edi
  1031d2:	56                   	push   esi
  1031d3:	53                   	push   ebx
  1031d4:	83 ec 1c             	sub    esp,0x1c
  1031d7:	8b 44 24 34          	mov    eax,DWORD PTR [esp+0x34]
  1031db:	8b 4c 24 38          	mov    ecx,DWORD PTR [esp+0x38]
  1031df:	8b 54 24 3c          	mov    edx,DWORD PTR [esp+0x3c]
  1031e3:	85 c0                	test   eax,eax
  1031e5:	0f 84 7a 03 00 00    	je     103565 <strhex+0x395>
  1031eb:	84 c9                	test   cl,cl
  1031ed:	c6 00 00             	mov    BYTE PTR [eax],0x0
  1031f0:	89 c3                	mov    ebx,eax
  1031f2:	74 13                	je     103207 <strhex+0x37>
  1031f4:	83 f8 ff             	cmp    eax,0xffffffff
  1031f7:	c6 00 30             	mov    BYTE PTR [eax],0x30
  1031fa:	0f 84 cc 02 00 00    	je     1034cc <strhex+0x2fc>
  103200:	8d 58 02             	lea    ebx,[eax+0x2]
  103203:	c6 40 01 78          	mov    BYTE PTR [eax+0x1],0x78
  103207:	80 fa 01             	cmp    dl,0x1
  10320a:	0f 84 e0 00 00 00    	je     1032f0 <strhex+0x120>
  103210:	80 fa 02             	cmp    dl,0x2
  103213:	74 1b                	je     103230 <strhex+0x60>
  103215:	80 fa 04             	cmp    dl,0x4
  103218:	0f 84 32 01 00 00    	je     103350 <strhex+0x180>
  10321e:	83 c4 1c             	add    esp,0x1c
  103221:	5b                   	pop    ebx
  103222:	5e                   	pop    esi
  103223:	5f                   	pop    edi
  103224:	5d                   	pop    ebp
  103225:	c3                   	ret    
  103226:	8d 76 00             	lea    esi,[esi+0x0]
  103229:	8d bc 27 00 00 00 00 	lea    edi,[edi+eiz*1+0x0]
  103230:	8b 7c 24 30          	mov    edi,DWORD PTR [esp+0x30]
  103234:	be 01 00 00 00       	mov    esi,0x1
  103239:	81 ee 00 50 10 00    	sub    esi,0x105000
  10323f:	c1 ef 0c             	shr    edi,0xc
  103242:	83 e7 0f             	and    edi,0xf
  103245:	8d 97 00 50 10 00    	lea    edx,[edi+0x105000]
  10324b:	8d 0c 32             	lea    ecx,[edx+esi*1]
  10324e:	83 f9 11             	cmp    ecx,0x11
  103251:	0f 87 22 04 00 00    	ja     103679 <strhex+0x4a9>
  103257:	85 db                	test   ebx,ebx
  103259:	0f b6 97 00 50 10 00 	movzx  edx,BYTE PTR [edi+0x105000]
  103260:	0f 84 c7 03 00 00    	je     10362d <strhex+0x45d>
  103266:	8b 7c 24 30          	mov    edi,DWORD PTR [esp+0x30]
  10326a:	88 13                	mov    BYTE PTR [ebx],dl
  10326c:	8d 6b 01             	lea    ebp,[ebx+0x1]
  10326f:	c1 ef 08             	shr    edi,0x8
  103272:	83 e7 0f             	and    edi,0xf
  103275:	8d 97 00 50 10 00    	lea    edx,[edi+0x105000]
  10327b:	8d 0c 32             	lea    ecx,[edx+esi*1]
  10327e:	83 f9 11             	cmp    ecx,0x11
  103281:	0f 87 cd 03 00 00    	ja     103654 <strhex+0x484>
  103287:	85 ed                	test   ebp,ebp
  103289:	0f b6 97 00 50 10 00 	movzx  edx,BYTE PTR [edi+0x105000]
  103290:	0f 84 fd 02 00 00    	je     103593 <strhex+0x3c3>
  103296:	8b 7c 24 30          	mov    edi,DWORD PTR [esp+0x30]
  10329a:	88 53 01             	mov    BYTE PTR [ebx+0x1],dl
  10329d:	8d 6b 02             	lea    ebp,[ebx+0x2]
  1032a0:	c1 ef 04             	shr    edi,0x4
  1032a3:	83 e7 0f             	and    edi,0xf
  1032a6:	8d 97 00 50 10 00    	lea    edx,[edi+0x105000]
  1032ac:	01 d6                	add    esi,edx
  1032ae:	83 fe 11             	cmp    esi,0x11
  1032b1:	0f 87 03 03 00 00    	ja     1035ba <strhex+0x3ea>
  1032b7:	85 ed                	test   ebp,ebp
  1032b9:	0f b6 97 00 50 10 00 	movzx  edx,BYTE PTR [edi+0x105000]
  1032c0:	0f 84 19 03 00 00    	je     1035df <strhex+0x40f>
  1032c6:	88 53 02             	mov    BYTE PTR [ebx+0x2],dl
  1032c9:	8b 54 24 30          	mov    edx,DWORD PTR [esp+0x30]
  1032cd:	83 e2 0f             	and    edx,0xf
  1032d0:	83 fb fd             	cmp    ebx,0xfffffffd
  1032d3:	0f b6 92 00 50 10 00 	movzx  edx,BYTE PTR [edx+0x105000]
  1032da:	0f 84 26 03 00 00    	je     103606 <strhex+0x436>
  1032e0:	88 53 03             	mov    BYTE PTR [ebx+0x3],dl
  1032e3:	83 c4 1c             	add    esp,0x1c
  1032e6:	5b                   	pop    ebx
  1032e7:	5e                   	pop    esi
  1032e8:	5f                   	pop    edi
  1032e9:	5d                   	pop    ebp
  1032ea:	c3                   	ret    
  1032eb:	90                   	nop
  1032ec:	8d 74 26 00          	lea    esi,[esi+eiz*1+0x0]
  1032f0:	8b 74 24 30          	mov    esi,DWORD PTR [esp+0x30]
  1032f4:	c1 ee 04             	shr    esi,0x4
  1032f7:	83 e6 0f             	and    esi,0xf
  1032fa:	8d 96 00 50 10 00    	lea    edx,[esi+0x105000]
  103300:	89 d1                	mov    ecx,edx
  103302:	81 e9 ff 4f 10 00    	sub    ecx,0x104fff
  103308:	83 f9 11             	cmp    ecx,0x11
  10330b:	0f 87 e1 01 00 00    	ja     1034f2 <strhex+0x322>
  103311:	85 db                	test   ebx,ebx
  103313:	0f b6 96 00 50 10 00 	movzx  edx,BYTE PTR [esi+0x105000]
  10331a:	0f 84 f7 01 00 00    	je     103517 <strhex+0x347>
  103320:	88 13                	mov    BYTE PTR [ebx],dl
  103322:	8b 54 24 30          	mov    edx,DWORD PTR [esp+0x30]
  103326:	83 e2 0f             	and    edx,0xf
  103329:	83 fb ff             	cmp    ebx,0xffffffff
  10332c:	0f b6 92 00 50 10 00 	movzx  edx,BYTE PTR [edx+0x105000]
  103333:	0f 84 05 02 00 00    	je     10353e <strhex+0x36e>
  103339:	88 53 01             	mov    BYTE PTR [ebx+0x1],dl
  10333c:	83 c4 1c             	add    esp,0x1c
  10333f:	5b                   	pop    ebx
  103340:	5e                   	pop    esi
  103341:	5f                   	pop    edi
  103342:	5d                   	pop    ebp
  103343:	c3                   	ret    
  103344:	8d b6 00 00 00 00    	lea    esi,[esi+0x0]
  10334a:	8d bf 00 00 00 00    	lea    edi,[edi+0x0]
  103350:	8b 7c 24 30          	mov    edi,DWORD PTR [esp+0x30]
  103354:	be 01 00 00 00       	mov    esi,0x1
  103359:	81 ee 00 50 10 00    	sub    esi,0x105000
  10335f:	c1 ef 1c             	shr    edi,0x1c
  103362:	8d 97 00 50 10 00    	lea    edx,[edi+0x105000]
  103368:	8d 0c 32             	lea    ecx,[edx+esi*1]
  10336b:	83 f9 11             	cmp    ecx,0x11
  10336e:	0f 87 40 05 00 00    	ja     1038b4 <strhex+0x6e4>
  103374:	85 db                	test   ebx,ebx
  103376:	0f b6 97 00 50 10 00 	movzx  edx,BYTE PTR [edi+0x105000]
  10337d:	0f 84 0a 05 00 00    	je     10388d <strhex+0x6bd>
  103383:	8b 7c 24 30          	mov    edi,DWORD PTR [esp+0x30]
  103387:	88 13                	mov    BYTE PTR [ebx],dl
  103389:	8d 6b 01             	lea    ebp,[ebx+0x1]
  10338c:	c1 ef 18             	shr    edi,0x18
  10338f:	83 e7 0f             	and    edi,0xf
  103392:	8d 97 00 50 10 00    	lea    edx,[edi+0x105000]
  103398:	8d 0c 32             	lea    ecx,[edx+esi*1]
  10339b:	83 f9 11             	cmp    ecx,0x11
  10339e:	0f 87 c4 04 00 00    	ja     103868 <strhex+0x698>
  1033a4:	85 ed                	test   ebp,ebp
  1033a6:	0f b6 97 00 50 10 00 	movzx  edx,BYTE PTR [edi+0x105000]
  1033ad:	0f 84 8e 04 00 00    	je     103841 <strhex+0x671>
  1033b3:	8b 7c 24 30          	mov    edi,DWORD PTR [esp+0x30]
  1033b7:	88 53 01             	mov    BYTE PTR [ebx+0x1],dl
  1033ba:	8d 6b 02             	lea    ebp,[ebx+0x2]
  1033bd:	c1 ef 14             	shr    edi,0x14
  1033c0:	83 e7 0f             	and    edi,0xf
  1033c3:	8d 97 00 50 10 00    	lea    edx,[edi+0x105000]
  1033c9:	8d 0c 32             	lea    ecx,[edx+esi*1]
  1033cc:	83 f9 11             	cmp    ecx,0x11
  1033cf:	0f 87 47 04 00 00    	ja     10381c <strhex+0x64c>
  1033d5:	85 ed                	test   ebp,ebp
  1033d7:	0f b6 97 00 50 10 00 	movzx  edx,BYTE PTR [edi+0x105000]
  1033de:	0f 84 11 04 00 00    	je     1037f5 <strhex+0x625>
  1033e4:	8b 7c 24 30          	mov    edi,DWORD PTR [esp+0x30]
  1033e8:	88 53 02             	mov    BYTE PTR [ebx+0x2],dl
  1033eb:	8d 6b 03             	lea    ebp,[ebx+0x3]
  1033ee:	c1 ef 10             	shr    edi,0x10
  1033f1:	83 e7 0f             	and    edi,0xf
  1033f4:	8d 97 00 50 10 00    	lea    edx,[edi+0x105000]
  1033fa:	8d 0c 32             	lea    ecx,[edx+esi*1]
  1033fd:	83 f9 11             	cmp    ecx,0x11
  103400:	0f 87 ca 03 00 00    	ja     1037d0 <strhex+0x600>
  103406:	85 ed                	test   ebp,ebp
  103408:	0f b6 97 00 50 10 00 	movzx  edx,BYTE PTR [edi+0x105000]
  10340f:	0f 84 94 03 00 00    	je     1037a9 <strhex+0x5d9>
  103415:	8b 7c 24 30          	mov    edi,DWORD PTR [esp+0x30]
  103419:	88 53 03             	mov    BYTE PTR [ebx+0x3],dl
  10341c:	8d 6b 04             	lea    ebp,[ebx+0x4]
  10341f:	c1 ef 0c             	shr    edi,0xc
  103422:	83 e7 0f             	and    edi,0xf
  103425:	8d 97 00 50 10 00    	lea    edx,[edi+0x105000]
  10342b:	8d 0c 32             	lea    ecx,[edx+esi*1]
  10342e:	83 f9 11             	cmp    ecx,0x11
  103431:	0f 87 4d 03 00 00    	ja     103784 <strhex+0x5b4>
  103437:	85 ed                	test   ebp,ebp
  103439:	0f b6 97 00 50 10 00 	movzx  edx,BYTE PTR [edi+0x105000]
  103440:	0f 84 17 03 00 00    	je     10375d <strhex+0x58d>
  103446:	8b 7c 24 30          	mov    edi,DWORD PTR [esp+0x30]
  10344a:	88 53 04             	mov    BYTE PTR [ebx+0x4],dl
  10344d:	8d 6b 05             	lea    ebp,[ebx+0x5]
  103450:	c1 ef 08             	shr    edi,0x8
  103453:	83 e7 0f             	and    edi,0xf
  103456:	8d 97 00 50 10 00    	lea    edx,[edi+0x105000]
  10345c:	8d 0c 32             	lea    ecx,[edx+esi*1]
  10345f:	83 f9 11             	cmp    ecx,0x11
  103462:	0f 87 d0 02 00 00    	ja     103738 <strhex+0x568>
  103468:	85 ed                	test   ebp,ebp
  10346a:	0f b6 97 00 50 10 00 	movzx  edx,BYTE PTR [edi+0x105000]
  103471:	0f 84 9a 02 00 00    	je     103711 <strhex+0x541>
  103477:	8b 7c 24 30          	mov    edi,DWORD PTR [esp+0x30]
  10347b:	88 53 05             	mov    BYTE PTR [ebx+0x5],dl
  10347e:	8d 6b 06             	lea    ebp,[ebx+0x6]
  103481:	c1 ef 04             	shr    edi,0x4
  103484:	83 e7 0f             	and    edi,0xf
  103487:	8d 97 00 50 10 00    	lea    edx,[edi+0x105000]
  10348d:	01 d6                	add    esi,edx
  10348f:	83 fe 11             	cmp    esi,0x11
  103492:	0f 87 54 02 00 00    	ja     1036ec <strhex+0x51c>
  103498:	85 ed                	test   ebp,ebp
  10349a:	0f b6 97 00 50 10 00 	movzx  edx,BYTE PTR [edi+0x105000]
  1034a1:	0f 84 1e 02 00 00    	je     1036c5 <strhex+0x4f5>
  1034a7:	88 53 06             	mov    BYTE PTR [ebx+0x6],dl
  1034aa:	8b 54 24 30          	mov    edx,DWORD PTR [esp+0x30]
  1034ae:	83 e2 0f             	and    edx,0xf
  1034b1:	83 fb f9             	cmp    ebx,0xfffffff9
  1034b4:	0f b6 92 00 50 10 00 	movzx  edx,BYTE PTR [edx+0x105000]
  1034bb:	0f 84 dd 01 00 00    	je     10369e <strhex+0x4ce>
  1034c1:	88 53 07             	mov    BYTE PTR [ebx+0x7],dl
  1034c4:	83 c4 1c             	add    esp,0x1c
  1034c7:	5b                   	pop    ebx
  1034c8:	5e                   	pop    esi
  1034c9:	5f                   	pop    edi
  1034ca:	5d                   	pop    ebp
  1034cb:	c3                   	ret    
  1034cc:	89 44 24 04          	mov    DWORD PTR [esp+0x4],eax
  1034d0:	89 54 24 08          	mov    DWORD PTR [esp+0x8],edx
  1034d4:	50                   	push   eax
  1034d5:	50                   	push   eax
  1034d6:	6a 00                	push   0x0
  1034d8:	68 fc 92 10 00       	push   0x1092fc
  1034dd:	e8 ee 15 00 00       	call   104ad0 <__ubsan_handle_type_mismatch>
  1034e2:	83 c4 10             	add    esp,0x10
  1034e5:	8b 54 24 08          	mov    edx,DWORD PTR [esp+0x8]
  1034e9:	8b 44 24 04          	mov    eax,DWORD PTR [esp+0x4]
  1034ed:	e9 0e fd ff ff       	jmp    103200 <strhex+0x30>
  1034f2:	01 d1                	add    ecx,edx
  1034f4:	0f 82 17 fe ff ff    	jb     103311 <strhex+0x141>
  1034fa:	89 44 24 04          	mov    DWORD PTR [esp+0x4],eax
  1034fe:	50                   	push   eax
  1034ff:	50                   	push   eax
  103500:	52                   	push   edx
  103501:	68 c0 92 10 00       	push   0x1092c0
  103506:	e8 c5 15 00 00       	call   104ad0 <__ubsan_handle_type_mismatch>
  10350b:	83 c4 10             	add    esp,0x10
  10350e:	8b 44 24 04          	mov    eax,DWORD PTR [esp+0x4]
  103512:	e9 fa fd ff ff       	jmp    103311 <strhex+0x141>
  103517:	89 44 24 08          	mov    DWORD PTR [esp+0x8],eax
  10351b:	88 54 24 04          	mov    BYTE PTR [esp+0x4],dl
  10351f:	50                   	push   eax
  103520:	50                   	push   eax
  103521:	6a 00                	push   0x0
  103523:	68 a8 92 10 00       	push   0x1092a8
  103528:	e8 a3 15 00 00       	call   104ad0 <__ubsan_handle_type_mismatch>
  10352d:	83 c4 10             	add    esp,0x10
  103530:	8b 44 24 08          	mov    eax,DWORD PTR [esp+0x8]
  103534:	0f b6 54 24 04       	movzx  edx,BYTE PTR [esp+0x4]
  103539:	e9 e2 fd ff ff       	jmp    103320 <strhex+0x150>
  10353e:	89 44 24 08          	mov    DWORD PTR [esp+0x8],eax
  103542:	88 54 24 04          	mov    BYTE PTR [esp+0x4],dl
  103546:	50                   	push   eax
  103547:	50                   	push   eax
  103548:	6a 00                	push   0x0
  10354a:	68 90 92 10 00       	push   0x109290
  10354f:	e8 7c 15 00 00       	call   104ad0 <__ubsan_handle_type_mismatch>
  103554:	83 c4 10             	add    esp,0x10
  103557:	8b 44 24 08          	mov    eax,DWORD PTR [esp+0x8]
  10355b:	0f b6 54 24 04       	movzx  edx,BYTE PTR [esp+0x4]
  103560:	e9 d4 fd ff ff       	jmp    103339 <strhex+0x169>
  103565:	89 44 24 04          	mov    DWORD PTR [esp+0x4],eax
  103569:	89 54 24 0c          	mov    DWORD PTR [esp+0xc],edx
  10356d:	89 4c 24 08          	mov    DWORD PTR [esp+0x8],ecx
  103571:	50                   	push   eax
  103572:	50                   	push   eax
  103573:	6a 00                	push   0x0
  103575:	68 14 93 10 00       	push   0x109314
  10357a:	e8 51 15 00 00       	call   104ad0 <__ubsan_handle_type_mismatch>
  10357f:	83 c4 10             	add    esp,0x10
  103582:	8b 54 24 0c          	mov    edx,DWORD PTR [esp+0xc]
  103586:	8b 4c 24 08          	mov    ecx,DWORD PTR [esp+0x8]
  10358a:	8b 44 24 04          	mov    eax,DWORD PTR [esp+0x4]
  10358e:	e9 58 fc ff ff       	jmp    1031eb <strhex+0x1b>
  103593:	88 54 24 04          	mov    BYTE PTR [esp+0x4],dl
  103597:	89 44 24 08          	mov    DWORD PTR [esp+0x8],eax
  10359b:	52                   	push   edx
  10359c:	52                   	push   edx
  10359d:	6a 00                	push   0x0
  10359f:	68 e8 91 10 00       	push   0x1091e8
  1035a4:	e8 27 15 00 00       	call   104ad0 <__ubsan_handle_type_mismatch>
  1035a9:	83 c4 10             	add    esp,0x10
  1035ac:	8b 44 24 08          	mov    eax,DWORD PTR [esp+0x8]
  1035b0:	0f b6 54 24 04       	movzx  edx,BYTE PTR [esp+0x4]
  1035b5:	e9 dc fc ff ff       	jmp    103296 <strhex+0xc6>
  1035ba:	01 d6                	add    esi,edx
  1035bc:	0f 82 f5 fc ff ff    	jb     1032b7 <strhex+0xe7>
  1035c2:	89 44 24 04          	mov    DWORD PTR [esp+0x4],eax
  1035c6:	50                   	push   eax
  1035c7:	50                   	push   eax
  1035c8:	52                   	push   edx
  1035c9:	68 ac 91 10 00       	push   0x1091ac
  1035ce:	e8 fd 14 00 00       	call   104ad0 <__ubsan_handle_type_mismatch>
  1035d3:	83 c4 10             	add    esp,0x10
  1035d6:	8b 44 24 04          	mov    eax,DWORD PTR [esp+0x4]
  1035da:	e9 d8 fc ff ff       	jmp    1032b7 <strhex+0xe7>
  1035df:	89 44 24 08          	mov    DWORD PTR [esp+0x8],eax
  1035e3:	88 54 24 04          	mov    BYTE PTR [esp+0x4],dl
  1035e7:	50                   	push   eax
  1035e8:	50                   	push   eax
  1035e9:	6a 00                	push   0x0
  1035eb:	68 94 91 10 00       	push   0x109194
  1035f0:	e8 db 14 00 00       	call   104ad0 <__ubsan_handle_type_mismatch>
  1035f5:	83 c4 10             	add    esp,0x10
  1035f8:	8b 44 24 08          	mov    eax,DWORD PTR [esp+0x8]
  1035fc:	0f b6 54 24 04       	movzx  edx,BYTE PTR [esp+0x4]
  103601:	e9 c0 fc ff ff       	jmp    1032c6 <strhex+0xf6>
  103606:	89 44 24 08          	mov    DWORD PTR [esp+0x8],eax
  10360a:	88 54 24 04          	mov    BYTE PTR [esp+0x4],dl
  10360e:	50                   	push   eax
  10360f:	50                   	push   eax
  103610:	6a 00                	push   0x0
  103612:	68 7c 91 10 00       	push   0x10917c
  103617:	e8 b4 14 00 00       	call   104ad0 <__ubsan_handle_type_mismatch>
  10361c:	83 c4 10             	add    esp,0x10
  10361f:	8b 44 24 08          	mov    eax,DWORD PTR [esp+0x8]
  103623:	0f b6 54 24 04       	movzx  edx,BYTE PTR [esp+0x4]
  103628:	e9 b3 fc ff ff       	jmp    1032e0 <strhex+0x110>
  10362d:	89 44 24 08          	mov    DWORD PTR [esp+0x8],eax
  103631:	88 54 24 04          	mov    BYTE PTR [esp+0x4],dl
  103635:	57                   	push   edi
  103636:	57                   	push   edi
  103637:	6a 00                	push   0x0
  103639:	68 3c 92 10 00       	push   0x10923c
  10363e:	e8 8d 14 00 00       	call   104ad0 <__ubsan_handle_type_mismatch>
  103643:	83 c4 10             	add    esp,0x10
  103646:	8b 44 24 08          	mov    eax,DWORD PTR [esp+0x8]
  10364a:	0f b6 54 24 04       	movzx  edx,BYTE PTR [esp+0x4]
  10364f:	e9 12 fc ff ff       	jmp    103266 <strhex+0x96>
  103654:	01 d1                	add    ecx,edx
  103656:	0f 82 2b fc ff ff    	jb     103287 <strhex+0xb7>
  10365c:	89 44 24 04          	mov    DWORD PTR [esp+0x4],eax
  103660:	51                   	push   ecx
  103661:	51                   	push   ecx
  103662:	52                   	push   edx
  103663:	68 00 92 10 00       	push   0x109200
  103668:	e8 63 14 00 00       	call   104ad0 <__ubsan_handle_type_mismatch>
  10366d:	83 c4 10             	add    esp,0x10
  103670:	8b 44 24 04          	mov    eax,DWORD PTR [esp+0x4]
  103674:	e9 0e fc ff ff       	jmp    103287 <strhex+0xb7>
  103679:	01 d1                	add    ecx,edx
  10367b:	0f 82 d6 fb ff ff    	jb     103257 <strhex+0x87>
  103681:	89 44 24 04          	mov    DWORD PTR [esp+0x4],eax
  103685:	55                   	push   ebp
  103686:	55                   	push   ebp
  103687:	52                   	push   edx
  103688:	68 54 92 10 00       	push   0x109254
  10368d:	e8 3e 14 00 00       	call   104ad0 <__ubsan_handle_type_mismatch>
  103692:	83 c4 10             	add    esp,0x10
  103695:	8b 44 24 04          	mov    eax,DWORD PTR [esp+0x4]
  103699:	e9 b9 fb ff ff       	jmp    103257 <strhex+0x87>
  10369e:	89 44 24 08          	mov    DWORD PTR [esp+0x8],eax
  1036a2:	88 54 24 04          	mov    BYTE PTR [esp+0x4],dl
  1036a6:	50                   	push   eax
  1036a7:	50                   	push   eax
  1036a8:	6a 00                	push   0x0
  1036aa:	68 18 8f 10 00       	push   0x108f18
  1036af:	e8 1c 14 00 00       	call   104ad0 <__ubsan_handle_type_mismatch>
  1036b4:	83 c4 10             	add    esp,0x10
  1036b7:	8b 44 24 08          	mov    eax,DWORD PTR [esp+0x8]
  1036bb:	0f b6 54 24 04       	movzx  edx,BYTE PTR [esp+0x4]
  1036c0:	e9 fc fd ff ff       	jmp    1034c1 <strhex+0x2f1>
  1036c5:	88 54 24 04          	mov    BYTE PTR [esp+0x4],dl
  1036c9:	89 44 24 08          	mov    DWORD PTR [esp+0x8],eax
  1036cd:	52                   	push   edx
  1036ce:	52                   	push   edx
  1036cf:	6a 00                	push   0x0
  1036d1:	68 30 8f 10 00       	push   0x108f30
  1036d6:	e8 f5 13 00 00       	call   104ad0 <__ubsan_handle_type_mismatch>
  1036db:	83 c4 10             	add    esp,0x10
  1036de:	8b 44 24 08          	mov    eax,DWORD PTR [esp+0x8]
  1036e2:	0f b6 54 24 04       	movzx  edx,BYTE PTR [esp+0x4]
  1036e7:	e9 bb fd ff ff       	jmp    1034a7 <strhex+0x2d7>
  1036ec:	01 d6                	add    esi,edx
  1036ee:	0f 82 a4 fd ff ff    	jb     103498 <strhex+0x2c8>
  1036f4:	89 44 24 04          	mov    DWORD PTR [esp+0x4],eax
  1036f8:	51                   	push   ecx
  1036f9:	51                   	push   ecx
  1036fa:	52                   	push   edx
  1036fb:	68 48 8f 10 00       	push   0x108f48
  103700:	e8 cb 13 00 00       	call   104ad0 <__ubsan_handle_type_mismatch>
  103705:	83 c4 10             	add    esp,0x10
  103708:	8b 44 24 04          	mov    eax,DWORD PTR [esp+0x4]
  10370c:	e9 87 fd ff ff       	jmp    103498 <strhex+0x2c8>
  103711:	89 44 24 08          	mov    DWORD PTR [esp+0x8],eax
  103715:	88 54 24 04          	mov    BYTE PTR [esp+0x4],dl
  103719:	57                   	push   edi
  10371a:	57                   	push   edi
  10371b:	6a 00                	push   0x0
  10371d:	68 84 8f 10 00       	push   0x108f84
  103722:	e8 a9 13 00 00       	call   104ad0 <__ubsan_handle_type_mismatch>
  103727:	83 c4 10             	add    esp,0x10
  10372a:	8b 44 24 08          	mov    eax,DWORD PTR [esp+0x8]
  10372e:	0f b6 54 24 04       	movzx  edx,BYTE PTR [esp+0x4]
  103733:	e9 3f fd ff ff       	jmp    103477 <strhex+0x2a7>
  103738:	01 d1                	add    ecx,edx
  10373a:	0f 82 28 fd ff ff    	jb     103468 <strhex+0x298>
  103740:	89 44 24 04          	mov    DWORD PTR [esp+0x4],eax
  103744:	50                   	push   eax
  103745:	50                   	push   eax
  103746:	52                   	push   edx
  103747:	68 9c 8f 10 00       	push   0x108f9c
  10374c:	e8 7f 13 00 00       	call   104ad0 <__ubsan_handle_type_mismatch>
  103751:	83 c4 10             	add    esp,0x10
  103754:	8b 44 24 04          	mov    eax,DWORD PTR [esp+0x4]
  103758:	e9 0b fd ff ff       	jmp    103468 <strhex+0x298>
  10375d:	89 44 24 08          	mov    DWORD PTR [esp+0x8],eax
  103761:	88 54 24 04          	mov    BYTE PTR [esp+0x4],dl
  103765:	50                   	push   eax
  103766:	50                   	push   eax
  103767:	6a 00                	push   0x0
  103769:	68 d8 8f 10 00       	push   0x108fd8
  10376e:	e8 5d 13 00 00       	call   104ad0 <__ubsan_handle_type_mismatch>
  103773:	83 c4 10             	add    esp,0x10
  103776:	8b 44 24 08          	mov    eax,DWORD PTR [esp+0x8]
  10377a:	0f b6 54 24 04       	movzx  edx,BYTE PTR [esp+0x4]
  10377f:	e9 c2 fc ff ff       	jmp    103446 <strhex+0x276>
  103784:	01 d1                	add    ecx,edx
  103786:	0f 82 ab fc ff ff    	jb     103437 <strhex+0x267>
  10378c:	89 44 24 04          	mov    DWORD PTR [esp+0x4],eax
  103790:	50                   	push   eax
  103791:	50                   	push   eax
  103792:	52                   	push   edx
  103793:	68 f0 8f 10 00       	push   0x108ff0
  103798:	e8 33 13 00 00       	call   104ad0 <__ubsan_handle_type_mismatch>
  10379d:	83 c4 10             	add    esp,0x10
  1037a0:	8b 44 24 04          	mov    eax,DWORD PTR [esp+0x4]
  1037a4:	e9 8e fc ff ff       	jmp    103437 <strhex+0x267>
  1037a9:	89 44 24 08          	mov    DWORD PTR [esp+0x8],eax
  1037ad:	88 54 24 04          	mov    BYTE PTR [esp+0x4],dl
  1037b1:	50                   	push   eax
  1037b2:	50                   	push   eax
  1037b3:	6a 00                	push   0x0
  1037b5:	68 2c 90 10 00       	push   0x10902c
  1037ba:	e8 11 13 00 00       	call   104ad0 <__ubsan_handle_type_mismatch>
  1037bf:	83 c4 10             	add    esp,0x10
  1037c2:	8b 44 24 08          	mov    eax,DWORD PTR [esp+0x8]
  1037c6:	0f b6 54 24 04       	movzx  edx,BYTE PTR [esp+0x4]
  1037cb:	e9 45 fc ff ff       	jmp    103415 <strhex+0x245>
  1037d0:	01 d1                	add    ecx,edx
  1037d2:	0f 82 2e fc ff ff    	jb     103406 <strhex+0x236>
  1037d8:	89 44 24 04          	mov    DWORD PTR [esp+0x4],eax
  1037dc:	50                   	push   eax
  1037dd:	50                   	push   eax
  1037de:	52                   	push   edx
  1037df:	68 44 90 10 00       	push   0x109044
  1037e4:	e8 e7 12 00 00       	call   104ad0 <__ubsan_handle_type_mismatch>
  1037e9:	83 c4 10             	add    esp,0x10
  1037ec:	8b 44 24 04          	mov    eax,DWORD PTR [esp+0x4]
  1037f0:	e9 11 fc ff ff       	jmp    103406 <strhex+0x236>
  1037f5:	89 44 24 08          	mov    DWORD PTR [esp+0x8],eax
  1037f9:	88 54 24 04          	mov    BYTE PTR [esp+0x4],dl
  1037fd:	50                   	push   eax
  1037fe:	50                   	push   eax
  1037ff:	6a 00                	push   0x0
  103801:	68 80 90 10 00       	push   0x109080
  103806:	e8 c5 12 00 00       	call   104ad0 <__ubsan_handle_type_mismatch>
  10380b:	83 c4 10             	add    esp,0x10
  10380e:	8b 44 24 08          	mov    eax,DWORD PTR [esp+0x8]
  103812:	0f b6 54 24 04       	movzx  edx,BYTE PTR [esp+0x4]
  103817:	e9 c8 fb ff ff       	jmp    1033e4 <strhex+0x214>
  10381c:	01 d1                	add    ecx,edx
  10381e:	0f 82 b1 fb ff ff    	jb     1033d5 <strhex+0x205>
  103824:	89 44 24 04          	mov    DWORD PTR [esp+0x4],eax
  103828:	51                   	push   ecx
  103829:	51                   	push   ecx
  10382a:	52                   	push   edx
  10382b:	68 98 90 10 00       	push   0x109098
  103830:	e8 9b 12 00 00       	call   104ad0 <__ubsan_handle_type_mismatch>
  103835:	83 c4 10             	add    esp,0x10
  103838:	8b 44 24 04          	mov    eax,DWORD PTR [esp+0x4]
  10383c:	e9 94 fb ff ff       	jmp    1033d5 <strhex+0x205>
  103841:	89 44 24 08          	mov    DWORD PTR [esp+0x8],eax
  103845:	88 54 24 04          	mov    BYTE PTR [esp+0x4],dl
  103849:	57                   	push   edi
  10384a:	57                   	push   edi
  10384b:	6a 00                	push   0x0
  10384d:	68 d4 90 10 00       	push   0x1090d4
  103852:	e8 79 12 00 00       	call   104ad0 <__ubsan_handle_type_mismatch>
  103857:	83 c4 10             	add    esp,0x10
  10385a:	8b 44 24 08          	mov    eax,DWORD PTR [esp+0x8]
  10385e:	0f b6 54 24 04       	movzx  edx,BYTE PTR [esp+0x4]
  103863:	e9 4b fb ff ff       	jmp    1033b3 <strhex+0x1e3>
  103868:	01 d1                	add    ecx,edx
  10386a:	0f 82 34 fb ff ff    	jb     1033a4 <strhex+0x1d4>
  103870:	89 44 24 04          	mov    DWORD PTR [esp+0x4],eax
  103874:	50                   	push   eax
  103875:	50                   	push   eax
  103876:	52                   	push   edx
  103877:	68 ec 90 10 00       	push   0x1090ec
  10387c:	e8 4f 12 00 00       	call   104ad0 <__ubsan_handle_type_mismatch>
  103881:	83 c4 10             	add    esp,0x10
  103884:	8b 44 24 04          	mov    eax,DWORD PTR [esp+0x4]
  103888:	e9 17 fb ff ff       	jmp    1033a4 <strhex+0x1d4>
  10388d:	89 44 24 08          	mov    DWORD PTR [esp+0x8],eax
  103891:	88 54 24 04          	mov    BYTE PTR [esp+0x4],dl
  103895:	50                   	push   eax
  103896:	50                   	push   eax
  103897:	6a 00                	push   0x0
  103899:	68 28 91 10 00       	push   0x109128
  10389e:	e8 2d 12 00 00       	call   104ad0 <__ubsan_handle_type_mismatch>
  1038a3:	83 c4 10             	add    esp,0x10
  1038a6:	8b 44 24 08          	mov    eax,DWORD PTR [esp+0x8]
  1038aa:	0f b6 54 24 04       	movzx  edx,BYTE PTR [esp+0x4]
  1038af:	e9 cf fa ff ff       	jmp    103383 <strhex+0x1b3>
  1038b4:	01 d1                	add    ecx,edx
  1038b6:	0f 82 b8 fa ff ff    	jb     103374 <strhex+0x1a4>
  1038bc:	89 44 24 04          	mov    DWORD PTR [esp+0x4],eax
  1038c0:	50                   	push   eax
  1038c1:	50                   	push   eax
  1038c2:	52                   	push   edx
  1038c3:	68 40 91 10 00       	push   0x109140
  1038c8:	e8 03 12 00 00       	call   104ad0 <__ubsan_handle_type_mismatch>
  1038cd:	83 c4 10             	add    esp,0x10
  1038d0:	8b 44 24 04          	mov    eax,DWORD PTR [esp+0x4]
  1038d4:	e9 9b fa ff ff       	jmp    103374 <strhex+0x1a4>
  1038d9:	8d b4 26 00 00 00 00 	lea    esi,[esi+eiz*1+0x0]

001038e0 <system>:
  1038e0:	31 c0                	xor    eax,eax
  1038e2:	c3                   	ret    
  1038e3:	8d b6 00 00 00 00    	lea    esi,[esi+0x0]
  1038e9:	8d bc 27 00 00 00 00 	lea    edi,[edi+eiz*1+0x0]

001038f0 <strerror>:
  1038f0:	83 ec 18             	sub    esp,0x18
  1038f3:	68 64 97 10 00       	push   0x109764
  1038f8:	e8 43 14 00 00       	call   104d40 <__ubsan_handle_missing_return>
  1038fd:	8d 76 00             	lea    esi,[esi+0x0]

00103900 <perror>:
  103900:	83 ec 14             	sub    esp,0x14
  103903:	fa                   	cli    
  103904:	68 24 74 10 00       	push   0x107424
  103909:	68 36 74 10 00       	push   0x107436
  10390e:	e8 8d ec ff ff       	call   1025a0 <printf>
  103913:	58                   	pop    eax
  103914:	5a                   	pop    edx
  103915:	8d 44 24 1c          	lea    eax,[esp+0x1c]
  103919:	50                   	push   eax
  10391a:	ff 74 24 1c          	push   DWORD PTR [esp+0x1c]
  10391e:	e8 2d ec ff ff       	call   102550 <vprintf>
  103923:	c7 04 24 97 74 10 00 	mov    DWORD PTR [esp],0x107497
  10392a:	e8 71 ec ff ff       	call   1025a0 <printf>
  10392f:	f4                   	hlt    
  103930:	83 c4 1c             	add    esp,0x1c
  103933:	c3                   	ret    
  103934:	66 90                	xchg   ax,ax
  103936:	66 90                	xchg   ax,ax
  103938:	66 90                	xchg   ax,ax
  10393a:	66 90                	xchg   ax,ax
  10393c:	66 90                	xchg   ax,ax
  10393e:	66 90                	xchg   ax,ax

00103940 <memchr>:
  103940:	53                   	push   ebx
  103941:	83 ec 18             	sub    esp,0x18
  103944:	8b 44 24 20          	mov    eax,DWORD PTR [esp+0x20]
  103948:	8b 4c 24 24          	mov    ecx,DWORD PTR [esp+0x24]
  10394c:	8b 5c 24 28          	mov    ebx,DWORD PTR [esp+0x28]
  103950:	85 c0                	test   eax,eax
  103952:	74 2b                	je     10397f <memchr+0x3f>
  103954:	85 db                	test   ebx,ebx
  103956:	74 27                	je     10397f <memchr+0x3f>
  103958:	38 08                	cmp    BYTE PTR [eax],cl
  10395a:	89 ca                	mov    edx,ecx
  10395c:	74 23                	je     103981 <memchr+0x41>
  10395e:	01 c3                	add    ebx,eax
  103960:	eb 16                	jmp    103978 <memchr+0x38>
  103962:	8d b4 26 00 00 00 00 	lea    esi,[esi+eiz*1+0x0]
  103969:	8d bc 27 00 00 00 00 	lea    edi,[edi+eiz*1+0x0]
  103970:	85 c0                	test   eax,eax
  103972:	74 12                	je     103986 <memchr+0x46>
  103974:	38 10                	cmp    BYTE PTR [eax],dl
  103976:	74 09                	je     103981 <memchr+0x41>
  103978:	83 c0 01             	add    eax,0x1
  10397b:	39 c3                	cmp    ebx,eax
  10397d:	75 f1                	jne    103970 <memchr+0x30>
  10397f:	31 c0                	xor    eax,eax
  103981:	83 c4 18             	add    esp,0x18
  103984:	5b                   	pop    ebx
  103985:	c3                   	ret    
  103986:	89 44 24 0c          	mov    DWORD PTR [esp+0xc],eax
  10398a:	88 54 24 0b          	mov    BYTE PTR [esp+0xb],dl
  10398e:	50                   	push   eax
  10398f:	50                   	push   eax
  103990:	6a 00                	push   0x0
  103992:	68 54 9d 10 00       	push   0x109d54
  103997:	e8 34 11 00 00       	call   104ad0 <__ubsan_handle_type_mismatch>
  10399c:	83 c4 10             	add    esp,0x10
  10399f:	8b 44 24 0c          	mov    eax,DWORD PTR [esp+0xc]
  1039a3:	0f b6 54 24 0b       	movzx  edx,BYTE PTR [esp+0xb]
  1039a8:	eb ca                	jmp    103974 <memchr+0x34>
  1039aa:	8d b6 00 00 00 00    	lea    esi,[esi+0x0]

001039b0 <memcmp>:
  1039b0:	57                   	push   edi
  1039b1:	56                   	push   esi
  1039b2:	53                   	push   ebx
  1039b3:	83 ec 10             	sub    esp,0x10
  1039b6:	8b 7c 24 28          	mov    edi,DWORD PTR [esp+0x28]
  1039ba:	8b 5c 24 20          	mov    ebx,DWORD PTR [esp+0x20]
  1039be:	8b 74 24 24          	mov    esi,DWORD PTR [esp+0x24]
  1039c2:	85 ff                	test   edi,edi
  1039c4:	74 36                	je     1039fc <memcmp+0x4c>
  1039c6:	85 db                	test   ebx,ebx
  1039c8:	74 3b                	je     103a05 <memcmp+0x55>
  1039ca:	85 f6                	test   esi,esi
  1039cc:	0f b6 03             	movzx  eax,BYTE PTR [ebx]
  1039cf:	74 75                	je     103a46 <memcmp+0x96>
  1039d1:	0f b6 16             	movzx  edx,BYTE PTR [esi]
  1039d4:	29 d0                	sub    eax,edx
  1039d6:	75 26                	jne    1039fe <memcmp+0x4e>
  1039d8:	01 df                	add    edi,ebx
  1039da:	eb 16                	jmp    1039f2 <memcmp+0x42>
  1039dc:	8d 74 26 00          	lea    esi,[esi+eiz*1+0x0]
  1039e0:	85 db                	test   ebx,ebx
  1039e2:	74 4f                	je     103a33 <memcmp+0x83>
  1039e4:	85 f6                	test   esi,esi
  1039e6:	0f b6 03             	movzx  eax,BYTE PTR [ebx]
  1039e9:	74 2d                	je     103a18 <memcmp+0x68>
  1039eb:	0f b6 16             	movzx  edx,BYTE PTR [esi]
  1039ee:	29 d0                	sub    eax,edx
  1039f0:	75 0c                	jne    1039fe <memcmp+0x4e>
  1039f2:	83 c3 01             	add    ebx,0x1
  1039f5:	83 c6 01             	add    esi,0x1
  1039f8:	39 df                	cmp    edi,ebx
  1039fa:	75 e4                	jne    1039e0 <memcmp+0x30>
  1039fc:	31 c0                	xor    eax,eax
  1039fe:	83 c4 10             	add    esp,0x10
  103a01:	5b                   	pop    ebx
  103a02:	5e                   	pop    esi
  103a03:	5f                   	pop    edi
  103a04:	c3                   	ret    
  103a05:	50                   	push   eax
  103a06:	50                   	push   eax
  103a07:	6a 00                	push   0x0
  103a09:	68 3c 9d 10 00       	push   0x109d3c
  103a0e:	e8 bd 10 00 00       	call   104ad0 <__ubsan_handle_type_mismatch>
  103a13:	83 c4 10             	add    esp,0x10
  103a16:	eb b2                	jmp    1039ca <memcmp+0x1a>
  103a18:	89 44 24 0c          	mov    DWORD PTR [esp+0xc],eax
  103a1c:	50                   	push   eax
  103a1d:	50                   	push   eax
  103a1e:	6a 00                	push   0x0
  103a20:	68 f4 9c 10 00       	push   0x109cf4
  103a25:	e8 a6 10 00 00       	call   104ad0 <__ubsan_handle_type_mismatch>
  103a2a:	83 c4 10             	add    esp,0x10
  103a2d:	8b 44 24 0c          	mov    eax,DWORD PTR [esp+0xc]
  103a31:	eb b8                	jmp    1039eb <memcmp+0x3b>
  103a33:	52                   	push   edx
  103a34:	52                   	push   edx
  103a35:	6a 00                	push   0x0
  103a37:	68 0c 9d 10 00       	push   0x109d0c
  103a3c:	e8 8f 10 00 00       	call   104ad0 <__ubsan_handle_type_mismatch>
  103a41:	83 c4 10             	add    esp,0x10
  103a44:	eb 9e                	jmp    1039e4 <memcmp+0x34>
  103a46:	89 44 24 0c          	mov    DWORD PTR [esp+0xc],eax
  103a4a:	51                   	push   ecx
  103a4b:	51                   	push   ecx
  103a4c:	6a 00                	push   0x0
  103a4e:	68 24 9d 10 00       	push   0x109d24
  103a53:	e8 78 10 00 00       	call   104ad0 <__ubsan_handle_type_mismatch>
  103a58:	83 c4 10             	add    esp,0x10
  103a5b:	8b 44 24 0c          	mov    eax,DWORD PTR [esp+0xc]
  103a5f:	e9 6d ff ff ff       	jmp    1039d1 <memcmp+0x21>
  103a64:	8d b6 00 00 00 00    	lea    esi,[esi+0x0]
  103a6a:	8d bf 00 00 00 00    	lea    edi,[edi+0x0]

00103a70 <memcpy>:
  103a70:	57                   	push   edi
  103a71:	56                   	push   esi
  103a72:	8b 4c 24 14          	mov    ecx,DWORD PTR [esp+0x14]
  103a76:	f6 c1 03             	test   cl,0x3
  103a79:	74 35                	je     103ab0 <memcpy+0x40>
  103a7b:	f6 c1 01             	test   cl,0x1
  103a7e:	74 10                	je     103a90 <memcpy+0x20>
  103a80:	8b 7c 24 0c          	mov    edi,DWORD PTR [esp+0xc]
  103a84:	8b 74 24 10          	mov    esi,DWORD PTR [esp+0x10]
  103a88:	fc                   	cld    
  103a89:	f3 a4                	rep movs BYTE PTR es:[edi],BYTE PTR ds:[esi]
  103a8b:	89 f8                	mov    eax,edi
  103a8d:	5e                   	pop    esi
  103a8e:	5f                   	pop    edi
  103a8f:	c3                   	ret    
  103a90:	d1 e9                	shr    ecx,1
  103a92:	8b 7c 24 0c          	mov    edi,DWORD PTR [esp+0xc]
  103a96:	8b 74 24 10          	mov    esi,DWORD PTR [esp+0x10]
  103a9a:	fc                   	cld    
  103a9b:	66 f3 a5             	rep movs WORD PTR es:[edi],WORD PTR ds:[esi]
  103a9e:	89 f8                	mov    eax,edi
  103aa0:	5e                   	pop    esi
  103aa1:	5f                   	pop    edi
  103aa2:	c3                   	ret    
  103aa3:	8d b6 00 00 00 00    	lea    esi,[esi+0x0]
  103aa9:	8d bc 27 00 00 00 00 	lea    edi,[edi+eiz*1+0x0]
  103ab0:	c1 e9 02             	shr    ecx,0x2
  103ab3:	8b 7c 24 0c          	mov    edi,DWORD PTR [esp+0xc]
  103ab7:	8b 74 24 10          	mov    esi,DWORD PTR [esp+0x10]
  103abb:	fc                   	cld    
  103abc:	f3 a5                	rep movs DWORD PTR es:[edi],DWORD PTR ds:[esi]
  103abe:	89 f8                	mov    eax,edi
  103ac0:	5e                   	pop    esi
  103ac1:	5f                   	pop    edi
  103ac2:	c3                   	ret    
  103ac3:	8d b6 00 00 00 00    	lea    esi,[esi+0x0]
  103ac9:	8d bc 27 00 00 00 00 	lea    edi,[edi+eiz*1+0x0]

00103ad0 <memset>:
  103ad0:	57                   	push   edi
  103ad1:	8b 4c 24 10          	mov    ecx,DWORD PTR [esp+0x10]
  103ad5:	f6 c1 03             	test   cl,0x3
  103ad8:	74 36                	je     103b10 <memset+0x40>
  103ada:	f6 c1 01             	test   cl,0x1
  103add:	74 11                	je     103af0 <memset+0x20>
  103adf:	8b 7c 24 08          	mov    edi,DWORD PTR [esp+0x8]
  103ae3:	8b 44 24 0c          	mov    eax,DWORD PTR [esp+0xc]
  103ae7:	fc                   	cld    
  103ae8:	f3 aa                	rep stos BYTE PTR es:[edi],al
  103aea:	89 f8                	mov    eax,edi
  103aec:	5f                   	pop    edi
  103aed:	c3                   	ret    
  103aee:	66 90                	xchg   ax,ax
  103af0:	d1 e9                	shr    ecx,1
  103af2:	8b 7c 24 08          	mov    edi,DWORD PTR [esp+0x8]
  103af6:	8b 44 24 0c          	mov    eax,DWORD PTR [esp+0xc]
  103afa:	fc                   	cld    
  103afb:	66 f3 ab             	rep stos WORD PTR es:[edi],ax
  103afe:	89 f8                	mov    eax,edi
  103b00:	5f                   	pop    edi
  103b01:	c3                   	ret    
  103b02:	8d b4 26 00 00 00 00 	lea    esi,[esi+eiz*1+0x0]
  103b09:	8d bc 27 00 00 00 00 	lea    edi,[edi+eiz*1+0x0]
  103b10:	c1 e9 02             	shr    ecx,0x2
  103b13:	8b 7c 24 08          	mov    edi,DWORD PTR [esp+0x8]
  103b17:	8b 44 24 0c          	mov    eax,DWORD PTR [esp+0xc]
  103b1b:	fc                   	cld    
  103b1c:	f3 ab                	rep stos DWORD PTR es:[edi],eax
  103b1e:	89 f8                	mov    eax,edi
  103b20:	5f                   	pop    edi
  103b21:	c3                   	ret    
  103b22:	8d b4 26 00 00 00 00 	lea    esi,[esi+eiz*1+0x0]
  103b29:	8d bc 27 00 00 00 00 	lea    edi,[edi+eiz*1+0x0]

00103b30 <memmove>:
  103b30:	31 c0                	xor    eax,eax
  103b32:	c3                   	ret    
  103b33:	8d b6 00 00 00 00    	lea    esi,[esi+0x0]
  103b39:	8d bc 27 00 00 00 00 	lea    edi,[edi+eiz*1+0x0]

00103b40 <strcat>:
  103b40:	55                   	push   ebp
  103b41:	57                   	push   edi
  103b42:	56                   	push   esi
  103b43:	53                   	push   ebx
  103b44:	83 ec 2c             	sub    esp,0x2c
  103b47:	8b 44 24 40          	mov    eax,DWORD PTR [esp+0x40]
  103b4b:	8b 7c 24 44          	mov    edi,DWORD PTR [esp+0x44]
  103b4f:	85 c0                	test   eax,eax
  103b51:	0f 84 bb 00 00 00    	je     103c12 <strcat+0xd2>
  103b57:	85 ff                	test   edi,edi
  103b59:	0f 84 b3 00 00 00    	je     103c12 <strcat+0xd2>
  103b5f:	89 fb                	mov    ebx,edi
  103b61:	31 f6                	xor    esi,esi
  103b63:	eb 0d                	jmp    103b72 <strcat+0x32>
  103b65:	8d 74 26 00          	lea    esi,[esi+eiz*1+0x0]
  103b69:	8d bc 27 00 00 00 00 	lea    edi,[edi+eiz*1+0x0]
  103b70:	89 c6                	mov    esi,eax
  103b72:	85 db                	test   ebx,ebx
  103b74:	0f 84 a4 00 00 00    	je     103c1e <strcat+0xde>
  103b7a:	83 c3 01             	add    ebx,0x1
  103b7d:	8d 46 01             	lea    eax,[esi+0x1]
  103b80:	80 7b ff 00          	cmp    BYTE PTR [ebx-0x1],0x0
  103b84:	75 ea                	jne    103b70 <strcat+0x30>
  103b86:	89 74 24 08          	mov    DWORD PTR [esp+0x8],esi
  103b8a:	8b 74 24 40          	mov    esi,DWORD PTR [esp+0x40]
  103b8e:	31 db                	xor    ebx,ebx
  103b90:	c7 44 24 0c 00 00 00 00 	mov    DWORD PTR [esp+0xc],0x0
  103b98:	89 f5                	mov    ebp,esi
  103b9a:	eb 06                	jmp    103ba2 <strcat+0x62>
  103b9c:	8d 74 26 00          	lea    esi,[esi+eiz*1+0x0]
  103ba0:	89 c3                	mov    ebx,eax
  103ba2:	85 ed                	test   ebp,ebp
  103ba4:	0f 84 f2 00 00 00    	je     103c9c <strcat+0x15c>
  103baa:	83 c5 01             	add    ebp,0x1
  103bad:	8d 43 01             	lea    eax,[ebx+0x1]
  103bb0:	80 7d ff 00          	cmp    BYTE PTR [ebp-0x1],0x0
  103bb4:	75 ea                	jne    103ba0 <strcat+0x60>
  103bb6:	8b 54 24 08          	mov    edx,DWORD PTR [esp+0x8]
  103bba:	8b 4c 24 0c          	mov    ecx,DWORD PTR [esp+0xc]
  103bbe:	89 d0                	mov    eax,edx
  103bc0:	89 ca                	mov    edx,ecx
  103bc2:	09 c2                	or     edx,eax
  103bc4:	74 3a                	je     103c00 <strcat+0xc0>
  103bc6:	03 5c 24 40          	add    ebx,DWORD PTR [esp+0x40]
  103bca:	31 c0                	xor    eax,eax
  103bcc:	31 d2                	xor    edx,edx
  103bce:	66 90                	xchg   ax,ax
  103bd0:	85 ff                	test   edi,edi
  103bd2:	0f 84 9e 00 00 00    	je     103c76 <strcat+0x136>
  103bd8:	85 db                	test   ebx,ebx
  103bda:	0f b6 0f             	movzx  ecx,BYTE PTR [edi]
  103bdd:	74 68                	je     103c47 <strcat+0x107>
  103bdf:	88 0b                	mov    BYTE PTR [ebx],cl
  103be1:	8b 6c 24 0c          	mov    ebp,DWORD PTR [esp+0xc]
  103be5:	83 c0 01             	add    eax,0x1
  103be8:	8b 4c 24 08          	mov    ecx,DWORD PTR [esp+0x8]
  103bec:	83 d2 00             	adc    edx,0x0
  103bef:	83 c7 01             	add    edi,0x1
  103bf2:	83 c3 01             	add    ebx,0x1
  103bf5:	31 d5                	xor    ebp,edx
  103bf7:	31 c1                	xor    ecx,eax
  103bf9:	09 cd                	or     ebp,ecx
  103bfb:	75 d3                	jne    103bd0 <strcat+0x90>
  103bfd:	8d 76 00             	lea    esi,[esi+0x0]
  103c00:	85 f6                	test   esi,esi
  103c02:	89 f3                	mov    ebx,esi
  103c04:	74 2e                	je     103c34 <strcat+0xf4>
  103c06:	83 c6 01             	add    esi,0x1
  103c09:	80 7e ff 00          	cmp    BYTE PTR [esi-0x1],0x0
  103c0d:	75 f1                	jne    103c00 <strcat+0xc0>
  103c0f:	c6 03 00             	mov    BYTE PTR [ebx],0x0
  103c12:	8b 44 24 40          	mov    eax,DWORD PTR [esp+0x40]
  103c16:	83 c4 2c             	add    esp,0x2c
  103c19:	5b                   	pop    ebx
  103c1a:	5e                   	pop    esi
  103c1b:	5f                   	pop    edi
  103c1c:	5d                   	pop    ebp
  103c1d:	c3                   	ret    
  103c1e:	50                   	push   eax
  103c1f:	50                   	push   eax
  103c20:	6a 00                	push   0x0
  103c22:	68 c8 9c 10 00       	push   0x109cc8
  103c27:	e8 a4 0e 00 00       	call   104ad0 <__ubsan_handle_type_mismatch>
  103c2c:	83 c4 10             	add    esp,0x10
  103c2f:	e9 46 ff ff ff       	jmp    103b7a <strcat+0x3a>
  103c34:	50                   	push   eax
  103c35:	50                   	push   eax
  103c36:	6a 00                	push   0x0
  103c38:	68 5c 9c 10 00       	push   0x109c5c
  103c3d:	e8 8e 0e 00 00       	call   104ad0 <__ubsan_handle_type_mismatch>
  103c42:	83 c4 10             	add    esp,0x10
  103c45:	eb bf                	jmp    103c06 <strcat+0xc6>
  103c47:	89 54 24 1c          	mov    DWORD PTR [esp+0x1c],edx
  103c4b:	89 44 24 18          	mov    DWORD PTR [esp+0x18],eax
  103c4f:	88 4c 24 10          	mov    BYTE PTR [esp+0x10],cl
  103c53:	52                   	push   edx
  103c54:	52                   	push   edx
  103c55:	6a 00                	push   0x0
  103c57:	68 74 9c 10 00       	push   0x109c74
  103c5c:	e8 6f 0e 00 00       	call   104ad0 <__ubsan_handle_type_mismatch>
  103c61:	83 c4 10             	add    esp,0x10
  103c64:	8b 44 24 18          	mov    eax,DWORD PTR [esp+0x18]
  103c68:	8b 54 24 1c          	mov    edx,DWORD PTR [esp+0x1c]
  103c6c:	0f b6 4c 24 10       	movzx  ecx,BYTE PTR [esp+0x10]
  103c71:	e9 69 ff ff ff       	jmp    103bdf <strcat+0x9f>
  103c76:	89 44 24 10          	mov    DWORD PTR [esp+0x10],eax
  103c7a:	89 54 24 14          	mov    DWORD PTR [esp+0x14],edx
  103c7e:	51                   	push   ecx
  103c7f:	51                   	push   ecx
  103c80:	6a 00                	push   0x0
  103c82:	68 98 9c 10 00       	push   0x109c98
  103c87:	e8 44 0e 00 00       	call   104ad0 <__ubsan_handle_type_mismatch>
  103c8c:	83 c4 10             	add    esp,0x10
  103c8f:	8b 44 24 10          	mov    eax,DWORD PTR [esp+0x10]
  103c93:	8b 54 24 14          	mov    edx,DWORD PTR [esp+0x14]
  103c97:	e9 3c ff ff ff       	jmp    103bd8 <strcat+0x98>
  103c9c:	50                   	push   eax
  103c9d:	50                   	push   eax
  103c9e:	6a 00                	push   0x0
  103ca0:	68 b0 9c 10 00       	push   0x109cb0
  103ca5:	e8 26 0e 00 00       	call   104ad0 <__ubsan_handle_type_mismatch>
  103caa:	83 c4 10             	add    esp,0x10
  103cad:	e9 f8 fe ff ff       	jmp    103baa <strcat+0x6a>
  103cb2:	8d b4 26 00 00 00 00 	lea    esi,[esi+eiz*1+0x0]
  103cb9:	8d bc 27 00 00 00 00 	lea    edi,[edi+eiz*1+0x0]

00103cc0 <strncat>:
  103cc0:	55                   	push   ebp
  103cc1:	57                   	push   edi
  103cc2:	56                   	push   esi
  103cc3:	53                   	push   ebx
  103cc4:	83 ec 2c             	sub    esp,0x2c
  103cc7:	8b 44 24 40          	mov    eax,DWORD PTR [esp+0x40]
  103ccb:	8b 7c 24 44          	mov    edi,DWORD PTR [esp+0x44]
  103ccf:	85 c0                	test   eax,eax
  103cd1:	0f 84 8b 00 00 00    	je     103d62 <strncat+0xa2>
  103cd7:	85 ff                	test   edi,edi
  103cd9:	0f 84 83 00 00 00    	je     103d62 <strncat+0xa2>
  103cdf:	8b 74 24 40          	mov    esi,DWORD PTR [esp+0x40]
  103ce3:	31 db                	xor    ebx,ebx
  103ce5:	89 f5                	mov    ebp,esi
  103ce7:	eb 09                	jmp    103cf2 <strncat+0x32>
  103ce9:	8d b4 26 00 00 00 00 	lea    esi,[esi+eiz*1+0x0]
  103cf0:	89 c3                	mov    ebx,eax
  103cf2:	85 ed                	test   ebp,ebp
  103cf4:	74 78                	je     103d6e <strncat+0xae>
  103cf6:	83 c5 01             	add    ebp,0x1
  103cf9:	8d 43 01             	lea    eax,[ebx+0x1]
  103cfc:	80 7d ff 00          	cmp    BYTE PTR [ebp-0x1],0x0
  103d00:	75 ee                	jne    103cf0 <strncat+0x30>
  103d02:	8b 6c 24 48          	mov    ebp,DWORD PTR [esp+0x48]
  103d06:	8b 44 24 48          	mov    eax,DWORD PTR [esp+0x48]
  103d0a:	31 d2                	xor    edx,edx
  103d0c:	89 54 24 0c          	mov    DWORD PTR [esp+0xc],edx
  103d10:	85 ed                	test   ebp,ebp
  103d12:	89 44 24 08          	mov    DWORD PTR [esp+0x8],eax
  103d16:	74 38                	je     103d50 <strncat+0x90>
  103d18:	03 5c 24 40          	add    ebx,DWORD PTR [esp+0x40]
  103d1c:	31 c0                	xor    eax,eax
  103d1e:	31 d2                	xor    edx,edx
  103d20:	85 ff                	test   edi,edi
  103d22:	0f 84 9e 00 00 00    	je     103dc6 <strncat+0x106>
  103d28:	85 db                	test   ebx,ebx
  103d2a:	0f b6 0f             	movzx  ecx,BYTE PTR [edi]
  103d2d:	74 68                	je     103d97 <strncat+0xd7>
  103d2f:	88 0b                	mov    BYTE PTR [ebx],cl
  103d31:	8b 6c 24 0c          	mov    ebp,DWORD PTR [esp+0xc]
  103d35:	83 c0 01             	add    eax,0x1
  103d38:	8b 4c 24 08          	mov    ecx,DWORD PTR [esp+0x8]
  103d3c:	83 d2 00             	adc    edx,0x0
  103d3f:	83 c7 01             	add    edi,0x1
  103d42:	83 c3 01             	add    ebx,0x1
  103d45:	31 d5                	xor    ebp,edx
  103d47:	31 c1                	xor    ecx,eax
  103d49:	09 cd                	or     ebp,ecx
  103d4b:	75 d3                	jne    103d20 <strncat+0x60>
  103d4d:	8d 76 00             	lea    esi,[esi+0x0]
  103d50:	85 f6                	test   esi,esi
  103d52:	89 f3                	mov    ebx,esi
  103d54:	74 2e                	je     103d84 <strncat+0xc4>
  103d56:	83 c6 01             	add    esi,0x1
  103d59:	80 7e ff 00          	cmp    BYTE PTR [esi-0x1],0x0
  103d5d:	75 f1                	jne    103d50 <strncat+0x90>
  103d5f:	c6 03 00             	mov    BYTE PTR [ebx],0x0
  103d62:	8b 44 24 40          	mov    eax,DWORD PTR [esp+0x40]
  103d66:	83 c4 2c             	add    esp,0x2c
  103d69:	5b                   	pop    ebx
  103d6a:	5e                   	pop    esi
  103d6b:	5f                   	pop    edi
  103d6c:	5d                   	pop    ebp
  103d6d:	c3                   	ret    
  103d6e:	50                   	push   eax
  103d6f:	50                   	push   eax
  103d70:	6a 00                	push   0x0
  103d72:	68 44 9c 10 00       	push   0x109c44
  103d77:	e8 54 0d 00 00       	call   104ad0 <__ubsan_handle_type_mismatch>
  103d7c:	83 c4 10             	add    esp,0x10
  103d7f:	e9 72 ff ff ff       	jmp    103cf6 <strncat+0x36>
  103d84:	50                   	push   eax
  103d85:	50                   	push   eax
  103d86:	6a 00                	push   0x0
  103d88:	68 fc 9b 10 00       	push   0x109bfc
  103d8d:	e8 3e 0d 00 00       	call   104ad0 <__ubsan_handle_type_mismatch>
  103d92:	83 c4 10             	add    esp,0x10
  103d95:	eb bf                	jmp    103d56 <strncat+0x96>
  103d97:	89 54 24 1c          	mov    DWORD PTR [esp+0x1c],edx
  103d9b:	89 44 24 18          	mov    DWORD PTR [esp+0x18],eax
  103d9f:	88 4c 24 10          	mov    BYTE PTR [esp+0x10],cl
  103da3:	52                   	push   edx
  103da4:	52                   	push   edx
  103da5:	6a 00                	push   0x0
  103da7:	68 14 9c 10 00       	push   0x109c14
  103dac:	e8 1f 0d 00 00       	call   104ad0 <__ubsan_handle_type_mismatch>
  103db1:	83 c4 10             	add    esp,0x10
  103db4:	8b 44 24 18          	mov    eax,DWORD PTR [esp+0x18]
  103db8:	8b 54 24 1c          	mov    edx,DWORD PTR [esp+0x1c]
  103dbc:	0f b6 4c 24 10       	movzx  ecx,BYTE PTR [esp+0x10]
  103dc1:	e9 69 ff ff ff       	jmp    103d2f <strncat+0x6f>
  103dc6:	89 44 24 10          	mov    DWORD PTR [esp+0x10],eax
  103dca:	89 54 24 14          	mov    DWORD PTR [esp+0x14],edx
  103dce:	51                   	push   ecx
  103dcf:	51                   	push   ecx
  103dd0:	6a 00                	push   0x0
  103dd2:	68 2c 9c 10 00       	push   0x109c2c
  103dd7:	e8 f4 0c 00 00       	call   104ad0 <__ubsan_handle_type_mismatch>
  103ddc:	83 c4 10             	add    esp,0x10
  103ddf:	8b 44 24 10          	mov    eax,DWORD PTR [esp+0x10]
  103de3:	8b 54 24 14          	mov    edx,DWORD PTR [esp+0x14]
  103de7:	e9 3c ff ff ff       	jmp    103d28 <strncat+0x68>
  103dec:	8d 74 26 00          	lea    esi,[esi+eiz*1+0x0]

00103df0 <strchr>:
  103df0:	53                   	push   ebx
  103df1:	83 ec 18             	sub    esp,0x18
  103df4:	8b 44 24 20          	mov    eax,DWORD PTR [esp+0x20]
  103df8:	8b 5c 24 24          	mov    ebx,DWORD PTR [esp+0x24]
  103dfc:	eb 09                	jmp    103e07 <strchr+0x17>
  103dfe:	66 90                	xchg   ax,ax
  103e00:	83 c0 01             	add    eax,0x1
  103e03:	84 c9                	test   cl,cl
  103e05:	74 19                	je     103e20 <strchr+0x30>
  103e07:	85 c0                	test   eax,eax
  103e09:	74 1c                	je     103e27 <strchr+0x37>
  103e0b:	0f be 08             	movsx  ecx,BYTE PTR [eax]
  103e0e:	39 d9                	cmp    ecx,ebx
  103e10:	75 ee                	jne    103e00 <strchr+0x10>
  103e12:	83 c4 18             	add    esp,0x18
  103e15:	5b                   	pop    ebx
  103e16:	c3                   	ret    
  103e17:	89 f6                	mov    esi,esi
  103e19:	8d bc 27 00 00 00 00 	lea    edi,[edi+eiz*1+0x0]
  103e20:	83 c4 18             	add    esp,0x18
  103e23:	31 c0                	xor    eax,eax
  103e25:	5b                   	pop    ebx
  103e26:	c3                   	ret    
  103e27:	89 44 24 0c          	mov    DWORD PTR [esp+0xc],eax
  103e2b:	50                   	push   eax
  103e2c:	50                   	push   eax
  103e2d:	6a 00                	push   0x0
  103e2f:	68 e4 9b 10 00       	push   0x109be4
  103e34:	e8 97 0c 00 00       	call   104ad0 <__ubsan_handle_type_mismatch>
  103e39:	83 c4 10             	add    esp,0x10
  103e3c:	8b 44 24 0c          	mov    eax,DWORD PTR [esp+0xc]
  103e40:	eb c9                	jmp    103e0b <strchr+0x1b>
  103e42:	8d b4 26 00 00 00 00 	lea    esi,[esi+eiz*1+0x0]
  103e49:	8d bc 27 00 00 00 00 	lea    edi,[edi+eiz*1+0x0]

00103e50 <strcmp>:
  103e50:	57                   	push   edi
  103e51:	56                   	push   esi
  103e52:	53                   	push   ebx
  103e53:	83 ec 10             	sub    esp,0x10
  103e56:	8b 5c 24 20          	mov    ebx,DWORD PTR [esp+0x20]
  103e5a:	8b 7c 24 24          	mov    edi,DWORD PTR [esp+0x24]
  103e5e:	85 db                	test   ebx,ebx
  103e60:	0f 84 b7 00 00 00    	je     103f1d <strcmp+0xcd>
  103e66:	0f be 03             	movsx  eax,BYTE PTR [ebx]
  103e69:	0f be 17             	movsx  edx,BYTE PTR [edi]
  103e6c:	84 c0                	test   al,al
  103e6e:	74 50                	je     103ec0 <strcmp+0x70>
  103e70:	85 ff                	test   edi,edi
  103e72:	0f 84 7d 00 00 00    	je     103ef5 <strcmp+0xa5>
  103e78:	38 d0                	cmp    al,dl
  103e7a:	89 fe                	mov    esi,edi
  103e7c:	74 0f                	je     103e8d <strcmp+0x3d>
  103e7e:	eb 22                	jmp    103ea2 <strcmp+0x52>
  103e80:	85 f6                	test   esi,esi
  103e82:	74 42                	je     103ec6 <strcmp+0x76>
  103e84:	0f be 16             	movsx  edx,BYTE PTR [esi]
  103e87:	89 f7                	mov    edi,esi
  103e89:	38 d0                	cmp    al,dl
  103e8b:	75 15                	jne    103ea2 <strcmp+0x52>
  103e8d:	83 c3 01             	add    ebx,0x1
  103e90:	8d 77 01             	lea    esi,[edi+0x1]
  103e93:	74 4d                	je     103ee2 <strcmp+0x92>
  103e95:	0f be 03             	movsx  eax,BYTE PTR [ebx]
  103e98:	84 c0                	test   al,al
  103e9a:	75 e4                	jne    103e80 <strcmp+0x30>
  103e9c:	0f be 57 01          	movsx  edx,BYTE PTR [edi+0x1]
  103ea0:	31 c0                	xor    eax,eax
  103ea2:	85 db                	test   ebx,ebx
  103ea4:	0f 84 b0 00 00 00    	je     103f5a <strcmp+0x10a>
  103eaa:	85 f6                	test   esi,esi
  103eac:	0f 84 81 00 00 00    	je     103f33 <strcmp+0xe3>
  103eb2:	83 c4 10             	add    esp,0x10
  103eb5:	29 d0                	sub    eax,edx
  103eb7:	5b                   	pop    ebx
  103eb8:	5e                   	pop    esi
  103eb9:	5f                   	pop    edi
  103eba:	c3                   	ret    
  103ebb:	90                   	nop
  103ebc:	8d 74 26 00          	lea    esi,[esi+eiz*1+0x0]
  103ec0:	89 fe                	mov    esi,edi
  103ec2:	31 c0                	xor    eax,eax
  103ec4:	eb dc                	jmp    103ea2 <strcmp+0x52>
  103ec6:	88 44 24 08          	mov    BYTE PTR [esp+0x8],al
  103eca:	57                   	push   edi
  103ecb:	57                   	push   edi
  103ecc:	6a 00                	push   0x0
  103ece:	68 9c 9b 10 00       	push   0x109b9c
  103ed3:	e8 f8 0b 00 00       	call   104ad0 <__ubsan_handle_type_mismatch>
  103ed8:	83 c4 10             	add    esp,0x10
  103edb:	0f be 44 24 08       	movsx  eax,BYTE PTR [esp+0x8]
  103ee0:	eb a2                	jmp    103e84 <strcmp+0x34>
  103ee2:	51                   	push   ecx
  103ee3:	51                   	push   ecx
  103ee4:	6a 00                	push   0x0
  103ee6:	68 84 9b 10 00       	push   0x109b84
  103eeb:	e8 e0 0b 00 00       	call   104ad0 <__ubsan_handle_type_mismatch>
  103ef0:	83 c4 10             	add    esp,0x10
  103ef3:	eb a0                	jmp    103e95 <strcmp+0x45>
  103ef5:	88 44 24 08          	mov    BYTE PTR [esp+0x8],al
  103ef9:	88 54 24 0f          	mov    BYTE PTR [esp+0xf],dl
  103efd:	50                   	push   eax
  103efe:	50                   	push   eax
  103eff:	6a 00                	push   0x0
  103f01:	68 b4 9b 10 00       	push   0x109bb4
  103f06:	e8 c5 0b 00 00       	call   104ad0 <__ubsan_handle_type_mismatch>
  103f0b:	83 c4 10             	add    esp,0x10
  103f0e:	0f be 54 24 0f       	movsx  edx,BYTE PTR [esp+0xf]
  103f13:	0f be 44 24 08       	movsx  eax,BYTE PTR [esp+0x8]
  103f18:	e9 5b ff ff ff       	jmp    103e78 <strcmp+0x28>
  103f1d:	50                   	push   eax
  103f1e:	50                   	push   eax
  103f1f:	6a 00                	push   0x0
  103f21:	68 cc 9b 10 00       	push   0x109bcc
  103f26:	e8 a5 0b 00 00       	call   104ad0 <__ubsan_handle_type_mismatch>
  103f2b:	83 c4 10             	add    esp,0x10
  103f2e:	e9 33 ff ff ff       	jmp    103e66 <strcmp+0x16>
  103f33:	89 44 24 08          	mov    DWORD PTR [esp+0x8],eax
  103f37:	88 54 24 0f          	mov    BYTE PTR [esp+0xf],dl
  103f3b:	50                   	push   eax
  103f3c:	50                   	push   eax
  103f3d:	6a 00                	push   0x0
  103f3f:	68 54 9b 10 00       	push   0x109b54
  103f44:	e8 87 0b 00 00       	call   104ad0 <__ubsan_handle_type_mismatch>
  103f49:	83 c4 10             	add    esp,0x10
  103f4c:	0f be 54 24 0f       	movsx  edx,BYTE PTR [esp+0xf]
  103f51:	8b 44 24 08          	mov    eax,DWORD PTR [esp+0x8]
  103f55:	e9 58 ff ff ff       	jmp    103eb2 <strcmp+0x62>
  103f5a:	88 54 24 0f          	mov    BYTE PTR [esp+0xf],dl
  103f5e:	89 44 24 08          	mov    DWORD PTR [esp+0x8],eax
  103f62:	52                   	push   edx
  103f63:	52                   	push   edx
  103f64:	6a 00                	push   0x0
  103f66:	68 6c 9b 10 00       	push   0x109b6c
  103f6b:	e8 60 0b 00 00       	call   104ad0 <__ubsan_handle_type_mismatch>
  103f70:	83 c4 10             	add    esp,0x10
  103f73:	0f be 54 24 0f       	movsx  edx,BYTE PTR [esp+0xf]
  103f78:	8b 44 24 08          	mov    eax,DWORD PTR [esp+0x8]
  103f7c:	e9 29 ff ff ff       	jmp    103eaa <strcmp+0x5a>
  103f81:	eb 0d                	jmp    103f90 <strncmp>
  103f83:	90                   	nop
  103f84:	90                   	nop
  103f85:	90                   	nop
  103f86:	90                   	nop
  103f87:	90                   	nop
  103f88:	90                   	nop
  103f89:	90                   	nop
  103f8a:	90                   	nop
  103f8b:	90                   	nop
  103f8c:	90                   	nop
  103f8d:	90                   	nop
  103f8e:	90                   	nop
  103f8f:	90                   	nop

00103f90 <strncmp>:
  103f90:	55                   	push   ebp
  103f91:	57                   	push   edi
  103f92:	56                   	push   esi
  103f93:	53                   	push   ebx
  103f94:	83 ec 1c             	sub    esp,0x1c
  103f97:	8b 6c 24 38          	mov    ebp,DWORD PTR [esp+0x38]
  103f9b:	8b 5c 24 30          	mov    ebx,DWORD PTR [esp+0x30]
  103f9f:	8b 7c 24 34          	mov    edi,DWORD PTR [esp+0x34]
  103fa3:	85 ed                	test   ebp,ebp
  103fa5:	74 53                	je     103ffa <strncmp+0x6a>
  103fa7:	85 db                	test   ebx,ebx
  103fa9:	0f 84 04 01 00 00    	je     1040b3 <strncmp+0x123>
  103faf:	0f b6 13             	movzx  edx,BYTE PTR [ebx]
  103fb2:	0f be 07             	movsx  eax,BYTE PTR [edi]
  103fb5:	84 d2                	test   dl,dl
  103fb7:	74 77                	je     104030 <strncmp+0xa0>
  103fb9:	85 ff                	test   edi,edi
  103fbb:	74 77                	je     104034 <strncmp+0xa4>
  103fbd:	38 d0                	cmp    al,dl
  103fbf:	75 6f                	jne    104030 <strncmp+0xa0>
  103fc1:	01 dd                	add    ebp,ebx
  103fc3:	eb 2b                	jmp    103ff0 <strncmp+0x60>
  103fc5:	8d 74 26 00          	lea    esi,[esi+eiz*1+0x0]
  103fc9:	8d bc 27 00 00 00 00 	lea    edi,[edi+eiz*1+0x0]
  103fd0:	85 db                	test   ebx,ebx
  103fd2:	0f 84 f1 00 00 00    	je     1040c9 <strncmp+0x139>
  103fd8:	0f b6 13             	movzx  edx,BYTE PTR [ebx]
  103fdb:	84 d2                	test   dl,dl
  103fdd:	74 31                	je     104010 <strncmp+0x80>
  103fdf:	85 f6                	test   esi,esi
  103fe1:	0f 84 ad 00 00 00    	je     104094 <strncmp+0x104>
  103fe7:	0f be 06             	movsx  eax,BYTE PTR [esi]
  103fea:	89 f7                	mov    edi,esi
  103fec:	38 c2                	cmp    dl,al
  103fee:	75 24                	jne    104014 <strncmp+0x84>
  103ff0:	83 c3 01             	add    ebx,0x1
  103ff3:	8d 77 01             	lea    esi,[edi+0x1]
  103ff6:	39 eb                	cmp    ebx,ebp
  103ff8:	75 d6                	jne    103fd0 <strncmp+0x40>
  103ffa:	83 c4 1c             	add    esp,0x1c
  103ffd:	31 c0                	xor    eax,eax
  103fff:	5b                   	pop    ebx
  104000:	5e                   	pop    esi
  104001:	5f                   	pop    edi
  104002:	5d                   	pop    ebp
  104003:	c3                   	ret    
  104004:	8d b6 00 00 00 00    	lea    esi,[esi+0x0]
  10400a:	8d bf 00 00 00 00    	lea    edi,[edi+0x0]
  104010:	0f be 47 01          	movsx  eax,BYTE PTR [edi+0x1]
  104014:	85 f6                	test   esi,esi
  104016:	74 60                	je     104078 <strncmp+0xe8>
  104018:	85 db                	test   ebx,ebx
  10401a:	74 40                	je     10405c <strncmp+0xcc>
  10401c:	88 03                	mov    BYTE PTR [ebx],al
  10401e:	83 c4 1c             	add    esp,0x1c
  104021:	5b                   	pop    ebx
  104022:	5e                   	pop    esi
  104023:	5f                   	pop    edi
  104024:	5d                   	pop    ebp
  104025:	c3                   	ret    
  104026:	8d 76 00             	lea    esi,[esi+0x0]
  104029:	8d bc 27 00 00 00 00 	lea    edi,[edi+eiz*1+0x0]
  104030:	89 fe                	mov    esi,edi
  104032:	eb e0                	jmp    104014 <strncmp+0x84>
  104034:	88 44 24 0e          	mov    BYTE PTR [esp+0xe],al
  104038:	88 54 24 0f          	mov    BYTE PTR [esp+0xf],dl
  10403c:	50                   	push   eax
  10403d:	50                   	push   eax
  10403e:	6a 00                	push   0x0
  104040:	68 24 9b 10 00       	push   0x109b24
  104045:	e8 86 0a 00 00       	call   104ad0 <__ubsan_handle_type_mismatch>
  10404a:	83 c4 10             	add    esp,0x10
  10404d:	0f b6 54 24 0f       	movzx  edx,BYTE PTR [esp+0xf]
  104052:	0f be 44 24 0e       	movsx  eax,BYTE PTR [esp+0xe]
  104057:	e9 61 ff ff ff       	jmp    103fbd <strncmp+0x2d>
  10405c:	88 44 24 0e          	mov    BYTE PTR [esp+0xe],al
  104060:	50                   	push   eax
  104061:	50                   	push   eax
  104062:	6a 00                	push   0x0
  104064:	68 c4 9a 10 00       	push   0x109ac4
  104069:	e8 62 0a 00 00       	call   104ad0 <__ubsan_handle_type_mismatch>
  10406e:	83 c4 10             	add    esp,0x10
  104071:	0f be 44 24 0e       	movsx  eax,BYTE PTR [esp+0xe]
  104076:	eb a4                	jmp    10401c <strncmp+0x8c>
  104078:	88 44 24 0e          	mov    BYTE PTR [esp+0xe],al
  10407c:	52                   	push   edx
  10407d:	52                   	push   edx
  10407e:	6a 00                	push   0x0
  104080:	68 dc 9a 10 00       	push   0x109adc
  104085:	e8 46 0a 00 00       	call   104ad0 <__ubsan_handle_type_mismatch>
  10408a:	83 c4 10             	add    esp,0x10
  10408d:	0f be 44 24 0e       	movsx  eax,BYTE PTR [esp+0xe]
  104092:	eb 84                	jmp    104018 <strncmp+0x88>
  104094:	88 54 24 0e          	mov    BYTE PTR [esp+0xe],dl
  104098:	51                   	push   ecx
  104099:	51                   	push   ecx
  10409a:	6a 00                	push   0x0
  10409c:	68 f4 9a 10 00       	push   0x109af4
  1040a1:	e8 2a 0a 00 00       	call   104ad0 <__ubsan_handle_type_mismatch>
  1040a6:	83 c4 10             	add    esp,0x10
  1040a9:	0f b6 54 24 0e       	movzx  edx,BYTE PTR [esp+0xe]
  1040ae:	e9 34 ff ff ff       	jmp    103fe7 <strncmp+0x57>
  1040b3:	50                   	push   eax
  1040b4:	50                   	push   eax
  1040b5:	6a 00                	push   0x0
  1040b7:	68 3c 9b 10 00       	push   0x109b3c
  1040bc:	e8 0f 0a 00 00       	call   104ad0 <__ubsan_handle_type_mismatch>
  1040c1:	83 c4 10             	add    esp,0x10
  1040c4:	e9 e6 fe ff ff       	jmp    103faf <strncmp+0x1f>
  1040c9:	50                   	push   eax
  1040ca:	50                   	push   eax
  1040cb:	6a 00                	push   0x0
  1040cd:	68 0c 9b 10 00       	push   0x109b0c
  1040d2:	e8 f9 09 00 00       	call   104ad0 <__ubsan_handle_type_mismatch>
  1040d7:	83 c4 10             	add    esp,0x10
  1040da:	e9 f9 fe ff ff       	jmp    103fd8 <strncmp+0x48>
  1040df:	90                   	nop

001040e0 <strcpy>:
  1040e0:	55                   	push   ebp
  1040e1:	57                   	push   edi
  1040e2:	56                   	push   esi
  1040e3:	53                   	push   ebx
  1040e4:	83 ec 0c             	sub    esp,0xc
  1040e7:	8b 44 24 24          	mov    eax,DWORD PTR [esp+0x24]
  1040eb:	85 c0                	test   eax,eax
  1040ed:	74 08                	je     1040f7 <strcpy+0x17>
  1040ef:	8b 44 24 20          	mov    eax,DWORD PTR [esp+0x20]
  1040f3:	85 c0                	test   eax,eax
  1040f5:	75 0a                	jne    104101 <strcpy+0x21>
  1040f7:	83 c4 0c             	add    esp,0xc
  1040fa:	31 c0                	xor    eax,eax
  1040fc:	5b                   	pop    ebx
  1040fd:	5e                   	pop    esi
  1040fe:	5f                   	pop    edi
  1040ff:	5d                   	pop    ebp
  104100:	c3                   	ret    
  104101:	83 7c 24 24 00       	cmp    DWORD PTR [esp+0x24],0x0
  104106:	74 45                	je     10414d <strcpy+0x6d>
  104108:	8b 44 24 24          	mov    eax,DWORD PTR [esp+0x24]
  10410c:	0f b6 18             	movzx  ebx,BYTE PTR [eax]
  10410f:	84 db                	test   bl,bl
  104111:	74 2d                	je     104140 <strcpy+0x60>
  104113:	89 c5                	mov    ebp,eax
  104115:	31 f6                	xor    esi,esi
  104117:	31 ff                	xor    edi,edi
  104119:	03 7c 24 20          	add    edi,DWORD PTR [esp+0x20]
  10411d:	85 ed                	test   ebp,ebp
  10411f:	74 78                	je     104199 <strcpy+0xb9>
  104121:	85 ff                	test   edi,edi
  104123:	74 61                	je     104186 <strcpy+0xa6>
  104125:	88 1f                	mov    BYTE PTR [edi],bl
  104127:	89 f7                	mov    edi,esi
  104129:	83 c7 01             	add    edi,0x1
  10412c:	70 45                	jo     104173 <strcpy+0x93>
  10412e:	89 fd                	mov    ebp,edi
  104130:	03 6c 24 24          	add    ebp,DWORD PTR [esp+0x24]
  104134:	89 fe                	mov    esi,edi
  104136:	74 28                	je     104160 <strcpy+0x80>
  104138:	0f b6 5d 00          	movzx  ebx,BYTE PTR [ebp+0x0]
  10413c:	84 db                	test   bl,bl
  10413e:	75 d9                	jne    104119 <strcpy+0x39>
  104140:	83 ec 0c             	sub    esp,0xc
  104143:	68 94 9d 10 00       	push   0x109d94
  104148:	e8 f3 0b 00 00       	call   104d40 <__ubsan_handle_missing_return>
  10414d:	50                   	push   eax
  10414e:	50                   	push   eax
  10414f:	6a 00                	push   0x0
  104151:	68 ac 9a 10 00       	push   0x109aac
  104156:	e8 75 09 00 00       	call   104ad0 <__ubsan_handle_type_mismatch>
  10415b:	83 c4 10             	add    esp,0x10
  10415e:	eb a8                	jmp    104108 <strcpy+0x28>
  104160:	50                   	push   eax
  104161:	50                   	push   eax
  104162:	6a 00                	push   0x0
  104164:	68 64 9a 10 00       	push   0x109a64
  104169:	e8 62 09 00 00       	call   104ad0 <__ubsan_handle_type_mismatch>
  10416e:	83 c4 10             	add    esp,0x10
  104171:	eb c5                	jmp    104138 <strcpy+0x58>
  104173:	52                   	push   edx
  104174:	6a 01                	push   0x1
  104176:	56                   	push   esi
  104177:	68 48 9a 10 00       	push   0x109a48
  10417c:	e8 2f 0a 00 00       	call   104bb0 <__ubsan_handle_add_overflow>
  104181:	83 c4 10             	add    esp,0x10
  104184:	eb a8                	jmp    10412e <strcpy+0x4e>
  104186:	51                   	push   ecx
  104187:	51                   	push   ecx
  104188:	6a 00                	push   0x0
  10418a:	68 7c 9a 10 00       	push   0x109a7c
  10418f:	e8 3c 09 00 00       	call   104ad0 <__ubsan_handle_type_mismatch>
  104194:	83 c4 10             	add    esp,0x10
  104197:	eb 8c                	jmp    104125 <strcpy+0x45>
  104199:	55                   	push   ebp
  10419a:	55                   	push   ebp
  10419b:	6a 00                	push   0x0
  10419d:	68 94 9a 10 00       	push   0x109a94
  1041a2:	e8 29 09 00 00       	call   104ad0 <__ubsan_handle_type_mismatch>
  1041a7:	83 c4 10             	add    esp,0x10
  1041aa:	e9 72 ff ff ff       	jmp    104121 <strcpy+0x41>
  1041af:	90                   	nop

001041b0 <strncpy>:
  1041b0:	57                   	push   edi
  1041b1:	56                   	push   esi
  1041b2:	53                   	push   ebx
  1041b3:	83 ec 10             	sub    esp,0x10
  1041b6:	8b 7c 24 28          	mov    edi,DWORD PTR [esp+0x28]
  1041ba:	8b 44 24 20          	mov    eax,DWORD PTR [esp+0x20]
  1041be:	85 ff                	test   edi,edi
  1041c0:	74 25                	je     1041e7 <strncpy+0x37>
  1041c2:	8b 5c 24 24          	mov    ebx,DWORD PTR [esp+0x24]
  1041c6:	89 c6                	mov    esi,eax
  1041c8:	01 df                	add    edi,ebx
  1041ca:	8d b6 00 00 00 00    	lea    esi,[esi+0x0]
  1041d0:	85 db                	test   ebx,ebx
  1041d2:	74 1a                	je     1041ee <strncpy+0x3e>
  1041d4:	85 f6                	test   esi,esi
  1041d6:	0f b6 13             	movzx  edx,BYTE PTR [ebx]
  1041d9:	74 2e                	je     104209 <strncpy+0x59>
  1041db:	83 c3 01             	add    ebx,0x1
  1041de:	88 16                	mov    BYTE PTR [esi],dl
  1041e0:	83 c6 01             	add    esi,0x1
  1041e3:	39 fb                	cmp    ebx,edi
  1041e5:	75 e9                	jne    1041d0 <strncpy+0x20>
  1041e7:	83 c4 10             	add    esp,0x10
  1041ea:	5b                   	pop    ebx
  1041eb:	5e                   	pop    esi
  1041ec:	5f                   	pop    edi
  1041ed:	c3                   	ret    
  1041ee:	89 44 24 08          	mov    DWORD PTR [esp+0x8],eax
  1041f2:	52                   	push   edx
  1041f3:	52                   	push   edx
  1041f4:	6a 00                	push   0x0
  1041f6:	68 30 9a 10 00       	push   0x109a30
  1041fb:	e8 d0 08 00 00       	call   104ad0 <__ubsan_handle_type_mismatch>
  104200:	83 c4 10             	add    esp,0x10
  104203:	8b 44 24 08          	mov    eax,DWORD PTR [esp+0x8]
  104207:	eb cb                	jmp    1041d4 <strncpy+0x24>
  104209:	89 44 24 0c          	mov    DWORD PTR [esp+0xc],eax
  10420d:	88 54 24 08          	mov    BYTE PTR [esp+0x8],dl
  104211:	50                   	push   eax
  104212:	50                   	push   eax
  104213:	6a 00                	push   0x0
  104215:	68 18 9a 10 00       	push   0x109a18
  10421a:	e8 b1 08 00 00       	call   104ad0 <__ubsan_handle_type_mismatch>
  10421f:	83 c4 10             	add    esp,0x10
  104222:	8b 44 24 0c          	mov    eax,DWORD PTR [esp+0xc]
  104226:	0f b6 54 24 08       	movzx  edx,BYTE PTR [esp+0x8]
  10422b:	eb ae                	jmp    1041db <strncpy+0x2b>
  10422d:	8d 76 00             	lea    esi,[esi+0x0]

00104230 <strcspn>:
  104230:	31 c0                	xor    eax,eax
  104232:	c3                   	ret    
  104233:	8d b6 00 00 00 00    	lea    esi,[esi+0x0]
  104239:	8d bc 27 00 00 00 00 	lea    edi,[edi+eiz*1+0x0]

00104240 <strlen>:
  104240:	53                   	push   ebx
  104241:	31 c0                	xor    eax,eax
  104243:	83 ec 18             	sub    esp,0x18
  104246:	8b 5c 24 20          	mov    ebx,DWORD PTR [esp+0x20]
  10424a:	eb 06                	jmp    104252 <strlen+0x12>
  10424c:	8d 74 26 00          	lea    esi,[esi+eiz*1+0x0]
  104250:	89 d0                	mov    eax,edx
  104252:	85 db                	test   ebx,ebx
  104254:	74 11                	je     104267 <strlen+0x27>
  104256:	83 c3 01             	add    ebx,0x1
  104259:	8d 50 01             	lea    edx,[eax+0x1]
  10425c:	80 7b ff 00          	cmp    BYTE PTR [ebx-0x1],0x0
  104260:	75 ee                	jne    104250 <strlen+0x10>
  104262:	83 c4 18             	add    esp,0x18
  104265:	5b                   	pop    ebx
  104266:	c3                   	ret    
  104267:	89 44 24 0c          	mov    DWORD PTR [esp+0xc],eax
  10426b:	50                   	push   eax
  10426c:	50                   	push   eax
  10426d:	6a 00                	push   0x0
  10426f:	68 00 9a 10 00       	push   0x109a00
  104274:	e8 57 08 00 00       	call   104ad0 <__ubsan_handle_type_mismatch>
  104279:	83 c4 10             	add    esp,0x10
  10427c:	8b 44 24 0c          	mov    eax,DWORD PTR [esp+0xc]
  104280:	eb d4                	jmp    104256 <strlen+0x16>
  104282:	8d b4 26 00 00 00 00 	lea    esi,[esi+eiz*1+0x0]
  104289:	8d bc 27 00 00 00 00 	lea    edi,[edi+eiz*1+0x0]

00104290 <strpbrk>:
  104290:	31 c0                	xor    eax,eax
  104292:	c3                   	ret    
  104293:	8d b6 00 00 00 00    	lea    esi,[esi+0x0]
  104299:	8d bc 27 00 00 00 00 	lea    edi,[edi+eiz*1+0x0]

001042a0 <strrchr>:
  1042a0:	31 c0                	xor    eax,eax
  1042a2:	c3                   	ret    
  1042a3:	8d b6 00 00 00 00    	lea    esi,[esi+0x0]
  1042a9:	8d bc 27 00 00 00 00 	lea    edi,[edi+eiz*1+0x0]

001042b0 <strspn>:
  1042b0:	31 c0                	xor    eax,eax
  1042b2:	c3                   	ret    
  1042b3:	8d b6 00 00 00 00    	lea    esi,[esi+0x0]
  1042b9:	8d bc 27 00 00 00 00 	lea    edi,[edi+eiz*1+0x0]

001042c0 <strstr>:
  1042c0:	31 c0                	xor    eax,eax
  1042c2:	c3                   	ret    
  1042c3:	8d b6 00 00 00 00    	lea    esi,[esi+0x0]
  1042c9:	8d bc 27 00 00 00 00 	lea    edi,[edi+eiz*1+0x0]

001042d0 <strtok>:
  1042d0:	31 c0                	xor    eax,eax
  1042d2:	c3                   	ret    
  1042d3:	8d b6 00 00 00 00    	lea    esi,[esi+0x0]
  1042d9:	8d bc 27 00 00 00 00 	lea    edi,[edi+eiz*1+0x0]

001042e0 <strxfrm>:
  1042e0:	31 c0                	xor    eax,eax
  1042e2:	c3                   	ret    
  1042e3:	8d b6 00 00 00 00    	lea    esi,[esi+0x0]
  1042e9:	8d bc 27 00 00 00 00 	lea    edi,[edi+eiz*1+0x0]

001042f0 <stradd>:
  1042f0:	57                   	push   edi
  1042f1:	56                   	push   esi
  1042f2:	53                   	push   ebx
  1042f3:	83 ec 10             	sub    esp,0x10
  1042f6:	8b 44 24 20          	mov    eax,DWORD PTR [esp+0x20]
  1042fa:	8b 54 24 24          	mov    edx,DWORD PTR [esp+0x24]
  1042fe:	85 c0                	test   eax,eax
  104300:	74 29                	je     10432b <stradd+0x3b>
  104302:	89 c3                	mov    ebx,eax
  104304:	31 f6                	xor    esi,esi
  104306:	8d 76 00             	lea    esi,[esi+0x0]
  104309:	8d bc 27 00 00 00 00 	lea    edi,[edi+eiz*1+0x0]
  104310:	85 db                	test   ebx,ebx
  104312:	89 df                	mov    edi,ebx
  104314:	74 1c                	je     104332 <stradd+0x42>
  104316:	83 c3 01             	add    ebx,0x1
  104319:	83 c6 01             	add    esi,0x1
  10431c:	80 7b ff 00          	cmp    BYTE PTR [ebx-0x1],0x0
  104320:	75 ee                	jne    104310 <stradd+0x20>
  104322:	01 c6                	add    esi,eax
  104324:	88 17                	mov    BYTE PTR [edi],dl
  104326:	74 2d                	je     104355 <stradd+0x65>
  104328:	c6 06 00             	mov    BYTE PTR [esi],0x0
  10432b:	83 c4 10             	add    esp,0x10
  10432e:	5b                   	pop    ebx
  10432f:	5e                   	pop    esi
  104330:	5f                   	pop    edi
  104331:	c3                   	ret    
  104332:	89 54 24 0c          	mov    DWORD PTR [esp+0xc],edx
  104336:	89 44 24 08          	mov    DWORD PTR [esp+0x8],eax
  10433a:	52                   	push   edx
  10433b:	52                   	push   edx
  10433c:	6a 00                	push   0x0
  10433e:	68 e8 99 10 00       	push   0x1099e8
  104343:	e8 88 07 00 00       	call   104ad0 <__ubsan_handle_type_mismatch>
  104348:	83 c4 10             	add    esp,0x10
  10434b:	8b 54 24 0c          	mov    edx,DWORD PTR [esp+0xc]
  10434f:	8b 44 24 08          	mov    eax,DWORD PTR [esp+0x8]
  104353:	eb c1                	jmp    104316 <stradd+0x26>
  104355:	89 44 24 08          	mov    DWORD PTR [esp+0x8],eax
  104359:	50                   	push   eax
  10435a:	50                   	push   eax
  10435b:	6a 00                	push   0x0
  10435d:	68 d0 99 10 00       	push   0x1099d0
  104362:	e8 69 07 00 00       	call   104ad0 <__ubsan_handle_type_mismatch>
  104367:	83 c4 10             	add    esp,0x10
  10436a:	8b 44 24 08          	mov    eax,DWORD PTR [esp+0x8]
  10436e:	eb b8                	jmp    104328 <stradd+0x38>

00104370 <strsplit>:
  104370:	55                   	push   ebp
  104371:	57                   	push   edi
  104372:	31 ff                	xor    edi,edi
  104374:	56                   	push   esi
  104375:	53                   	push   ebx
  104376:	83 ec 2c             	sub    esp,0x2c
  104379:	8b 74 24 40          	mov    esi,DWORD PTR [esp+0x40]
  10437d:	0f b6 44 24 44       	movzx  eax,BYTE PTR [esp+0x44]
  104382:	85 f6                	test   esi,esi
  104384:	89 f3                	mov    ebx,esi
  104386:	88 44 24 10          	mov    BYTE PTR [esp+0x10],al
  10438a:	75 16                	jne    1043a2 <strsplit+0x32>
  10438c:	e9 47 02 00 00       	jmp    1045d8 <strsplit+0x268>
  104391:	eb 0d                	jmp    1043a0 <strsplit+0x30>
  104393:	90                   	nop
  104394:	90                   	nop
  104395:	90                   	nop
  104396:	90                   	nop
  104397:	90                   	nop
  104398:	90                   	nop
  104399:	90                   	nop
  10439a:	90                   	nop
  10439b:	90                   	nop
  10439c:	90                   	nop
  10439d:	90                   	nop
  10439e:	90                   	nop
  10439f:	90                   	nop
  1043a0:	89 c7                	mov    edi,eax
  1043a2:	85 db                	test   ebx,ebx
  1043a4:	0f 84 8f 02 00 00    	je     104639 <strsplit+0x2c9>
  1043aa:	83 c3 01             	add    ebx,0x1
  1043ad:	8d 47 01             	lea    eax,[edi+0x1]
  1043b0:	80 7b ff 00          	cmp    BYTE PTR [ebx-0x1],0x0
  1043b4:	75 ea                	jne    1043a0 <strsplit+0x30>
  1043b6:	85 ff                	test   edi,edi
  1043b8:	0f 84 1a 02 00 00    	je     1045d8 <strsplit+0x268>
  1043be:	31 d2                	xor    edx,edx
  1043c0:	89 d3                	mov    ebx,edx
  1043c2:	eb 0e                	jmp    1043d2 <strsplit+0x62>
  1043c4:	8d b6 00 00 00 00    	lea    esi,[esi+0x0]
  1043ca:	8d bf 00 00 00 00    	lea    edi,[edi+0x0]
  1043d0:	89 c3                	mov    ebx,eax
  1043d2:	85 f6                	test   esi,esi
  1043d4:	0f 84 d3 02 00 00    	je     1046ad <strsplit+0x33d>
  1043da:	83 c6 01             	add    esi,0x1
  1043dd:	8d 43 01             	lea    eax,[ebx+0x1]
  1043e0:	80 7e ff 00          	cmp    BYTE PTR [esi-0x1],0x0
  1043e4:	75 ea                	jne    1043d0 <strsplit+0x60>
  1043e6:	89 dd                	mov    ebp,ebx
  1043e8:	89 da                	mov    edx,ebx
  1043ea:	83 c5 ff             	add    ebp,0xffffffff
  1043ed:	0f 80 62 03 00 00    	jo     104755 <strsplit+0x3e5>
  1043f3:	85 ed                	test   ebp,ebp
  1043f5:	0f 8e c6 01 00 00    	jle    1045c1 <strsplit+0x251>
  1043fb:	89 54 24 08          	mov    DWORD PTR [esp+0x8],edx
  1043ff:	0f b6 54 24 10       	movzx  edx,BYTE PTR [esp+0x10]
  104404:	31 db                	xor    ebx,ebx
  104406:	8b 74 24 40          	mov    esi,DWORD PTR [esp+0x40]
  10440a:	31 ff                	xor    edi,edi
  10440c:	8d 74 26 00          	lea    esi,[esi+eiz*1+0x0]
  104410:	89 f1                	mov    ecx,esi
  104412:	01 d9                	add    ecx,ebx
  104414:	0f 84 4d 02 00 00    	je     104667 <strsplit+0x2f7>
  10441a:	38 11                	cmp    BYTE PTR [ecx],dl
  10441c:	8d 47 01             	lea    eax,[edi+0x1]
  10441f:	75 07                	jne    104428 <strsplit+0xb8>
  104421:	8d 4f 02             	lea    ecx,[edi+0x2]
  104424:	89 c7                	mov    edi,eax
  104426:	89 c8                	mov    eax,ecx
  104428:	83 c3 01             	add    ebx,0x1
  10442b:	39 eb                	cmp    ebx,ebp
  10442d:	7c e1                	jl     104410 <strsplit+0xa0>
  10442f:	8b 54 24 08          	mov    edx,DWORD PTR [esp+0x8]
  104433:	c1 e0 02             	shl    eax,0x2
  104436:	89 54 24 08          	mov    DWORD PTR [esp+0x8],edx
  10443a:	83 ec 08             	sub    esp,0x8
  10443d:	6a 03                	push   0x3
  10443f:	50                   	push   eax
  104440:	e8 8b e1 ff ff       	call   1025d0 <tmalloc>
  104445:	89 44 24 24          	mov    DWORD PTR [esp+0x24],eax
  104449:	83 c4 10             	add    esp,0x10
  10444c:	8b 54 24 08          	mov    edx,DWORD PTR [esp+0x8]
  104450:	85 d2                	test   edx,edx
  104452:	0f 8e 73 01 00 00    	jle    1045cb <strsplit+0x25b>
  104458:	89 54 24 0c          	mov    DWORD PTR [esp+0xc],edx
  10445c:	0f b6 54 24 10       	movzx  edx,BYTE PTR [esp+0x10]
  104461:	31 ff                	xor    edi,edi
  104463:	c7 44 24 08 00 00 00 00 	mov    DWORD PTR [esp+0x8],0x0
  10446b:	90                   	nop
  10446c:	8d 74 26 00          	lea    esi,[esi+eiz*1+0x0]
  104470:	89 fe                	mov    esi,edi
  104472:	03 74 24 40          	add    esi,DWORD PTR [esp+0x40]
  104476:	0f 84 12 02 00 00    	je     10468e <strsplit+0x31e>
  10447c:	38 16                	cmp    BYTE PTR [esi],dl
  10447e:	0f 84 1c 01 00 00    	je     1045a0 <strsplit+0x230>
  104484:	8b 4c 24 0c          	mov    ecx,DWORD PTR [esp+0xc]
  104488:	39 f9                	cmp    ecx,edi
  10448a:	0f 8e 10 01 00 00    	jle    1045a0 <strsplit+0x230>
  104490:	89 fb                	mov    ebx,edi
  104492:	8b 6c 24 40          	mov    ebp,DWORD PTR [esp+0x40]
  104496:	eb 0c                	jmp    1044a4 <strsplit+0x134>
  104498:	90                   	nop
  104499:	8d b4 26 00 00 00 00 	lea    esi,[esi+eiz*1+0x0]
  1044a0:	39 d9                	cmp    ecx,ebx
  1044a2:	7e 11                	jle    1044b5 <strsplit+0x145>
  1044a4:	83 c3 01             	add    ebx,0x1
  1044a7:	89 e8                	mov    eax,ebp
  1044a9:	01 d8                	add    eax,ebx
  1044ab:	0f 84 12 02 00 00    	je     1046c3 <strsplit+0x353>
  1044b1:	38 10                	cmp    BYTE PTR [eax],dl
  1044b3:	75 eb                	jne    1044a0 <strsplit+0x130>
  1044b5:	89 dd                	mov    ebp,ebx
  1044b7:	29 fd                	sub    ebp,edi
  1044b9:	0f 80 78 02 00 00    	jo     104737 <strsplit+0x3c7>
  1044bf:	89 ef                	mov    edi,ebp
  1044c1:	83 c7 01             	add    edi,0x1
  1044c4:	0f 80 4e 02 00 00    	jo     104718 <strsplit+0x3a8>
  1044ca:	88 54 24 10          	mov    BYTE PTR [esp+0x10],dl
  1044ce:	83 ec 08             	sub    esp,0x8
  1044d1:	6a 03                	push   0x3
  1044d3:	57                   	push   edi
  1044d4:	e8 f7 e0 ff ff       	call   1025d0 <tmalloc>
  1044d9:	83 c4 10             	add    esp,0x10
  1044dc:	f7 c5 03 00 00 00    	test   ebp,0x3
  1044e2:	89 e9                	mov    ecx,ebp
  1044e4:	0f b6 54 24 10       	movzx  edx,BYTE PTR [esp+0x10]
  1044e9:	0f 85 81 00 00 00    	jne    104570 <strsplit+0x200>
  1044ef:	c1 e9 02             	shr    ecx,0x2
  1044f2:	89 c7                	mov    edi,eax
  1044f4:	fc                   	cld    
  1044f5:	f3 a5                	rep movs DWORD PTR es:[edi],DWORD PTR ds:[esi]
  1044f7:	89 de                	mov    esi,ebx
  1044f9:	83 c6 01             	add    esi,0x1
  1044fc:	0f 80 ea 00 00 00    	jo     1045ec <strsplit+0x27c>
  104502:	8b 4c 24 14          	mov    ecx,DWORD PTR [esp+0x14]
  104506:	8b 5c 24 08          	mov    ebx,DWORD PTR [esp+0x8]
  10450a:	89 f7                	mov    edi,esi
  10450c:	8d 1c 99             	lea    ebx,[ecx+ebx*4]
  10450f:	85 db                	test   ebx,ebx
  104511:	0f 84 db 01 00 00    	je     1046f2 <strsplit+0x382>
  104517:	f6 c3 03             	test   bl,0x3
  10451a:	0f 85 d2 01 00 00    	jne    1046f2 <strsplit+0x382>
  104520:	89 03                	mov    DWORD PTR [ebx],eax
  104522:	8b 5c 24 08          	mov    ebx,DWORD PTR [esp+0x8]
  104526:	83 c3 01             	add    ebx,0x1
  104529:	0f 80 e6 00 00 00    	jo     104615 <strsplit+0x2a5>
  10452f:	39 74 24 0c          	cmp    DWORD PTR [esp+0xc],esi
  104533:	89 5c 24 08          	mov    DWORD PTR [esp+0x8],ebx
  104537:	0f 8f 33 ff ff ff    	jg     104470 <strsplit+0x100>
  10453d:	8b 54 24 48          	mov    edx,DWORD PTR [esp+0x48]
  104541:	85 d2                	test   edx,edx
  104543:	0f 84 06 01 00 00    	je     10464f <strsplit+0x2df>
  104549:	f6 44 24 48 03       	test   BYTE PTR [esp+0x48],0x3
  10454e:	0f 85 fb 00 00 00    	jne    10464f <strsplit+0x2df>
  104554:	8b 44 24 48          	mov    eax,DWORD PTR [esp+0x48]
  104558:	8b 54 24 08          	mov    edx,DWORD PTR [esp+0x8]
  10455c:	89 10                	mov    DWORD PTR [eax],edx
  10455e:	8b 44 24 14          	mov    eax,DWORD PTR [esp+0x14]
  104562:	83 c4 2c             	add    esp,0x2c
  104565:	5b                   	pop    ebx
  104566:	5e                   	pop    esi
  104567:	5f                   	pop    edi
  104568:	5d                   	pop    ebp
  104569:	c3                   	ret    
  10456a:	8d b6 00 00 00 00    	lea    esi,[esi+0x0]
  104570:	f7 c5 01 00 00 00    	test   ebp,0x1
  104576:	74 18                	je     104590 <strsplit+0x220>
  104578:	89 c7                	mov    edi,eax
  10457a:	fc                   	cld    
  10457b:	f3 a4                	rep movs BYTE PTR es:[edi],BYTE PTR ds:[esi]
  10457d:	e9 75 ff ff ff       	jmp    1044f7 <strsplit+0x187>
  104582:	8d b4 26 00 00 00 00 	lea    esi,[esi+eiz*1+0x0]
  104589:	8d bc 27 00 00 00 00 	lea    edi,[edi+eiz*1+0x0]
  104590:	d1 e9                	shr    ecx,1
  104592:	89 c7                	mov    edi,eax
  104594:	fc                   	cld    
  104595:	66 f3 a5             	rep movs WORD PTR es:[edi],WORD PTR ds:[esi]
  104598:	e9 5a ff ff ff       	jmp    1044f7 <strsplit+0x187>
  10459d:	8d 76 00             	lea    esi,[esi+0x0]
  1045a0:	88 54 24 10          	mov    BYTE PTR [esp+0x10],dl
  1045a4:	83 ec 08             	sub    esp,0x8
  1045a7:	89 fb                	mov    ebx,edi
  1045a9:	6a 03                	push   0x3
  1045ab:	6a 01                	push   0x1
  1045ad:	e8 1e e0 ff ff       	call   1025d0 <tmalloc>
  1045b2:	83 c4 10             	add    esp,0x10
  1045b5:	31 c9                	xor    ecx,ecx
  1045b7:	0f b6 54 24 10       	movzx  edx,BYTE PTR [esp+0x10]
  1045bc:	e9 2e ff ff ff       	jmp    1044ef <strsplit+0x17f>
  1045c1:	b8 04 00 00 00       	mov    eax,0x4
  1045c6:	e9 6b fe ff ff       	jmp    104436 <strsplit+0xc6>
  1045cb:	c7 44 24 08 00 00 00 00 	mov    DWORD PTR [esp+0x8],0x0
  1045d3:	e9 65 ff ff ff       	jmp    10453d <strsplit+0x1cd>
  1045d8:	c7 44 24 14 00 00 00 00 	mov    DWORD PTR [esp+0x14],0x0
  1045e0:	8b 44 24 14          	mov    eax,DWORD PTR [esp+0x14]
  1045e4:	83 c4 2c             	add    esp,0x2c
  1045e7:	5b                   	pop    ebx
  1045e8:	5e                   	pop    esi
  1045e9:	5f                   	pop    edi
  1045ea:	5d                   	pop    ebp
  1045eb:	c3                   	ret    
  1045ec:	88 54 24 18          	mov    BYTE PTR [esp+0x18],dl
  1045f0:	89 44 24 10          	mov    DWORD PTR [esp+0x10],eax
  1045f4:	83 ec 04             	sub    esp,0x4
  1045f7:	6a 01                	push   0x1
  1045f9:	53                   	push   ebx
  1045fa:	68 cc 98 10 00       	push   0x1098cc
  1045ff:	e8 ac 05 00 00       	call   104bb0 <__ubsan_handle_add_overflow>
  104604:	83 c4 10             	add    esp,0x10
  104607:	0f b6 54 24 18       	movzx  edx,BYTE PTR [esp+0x18]
  10460c:	8b 44 24 10          	mov    eax,DWORD PTR [esp+0x10]
  104610:	e9 ed fe ff ff       	jmp    104502 <strsplit+0x192>
  104615:	88 54 24 10          	mov    BYTE PTR [esp+0x10],dl
  104619:	83 ec 04             	sub    esp,0x4
  10461c:	6a 01                	push   0x1
  10461e:	ff 74 24 10          	push   DWORD PTR [esp+0x10]
  104622:	68 bc 98 10 00       	push   0x1098bc
  104627:	e8 84 05 00 00       	call   104bb0 <__ubsan_handle_add_overflow>
  10462c:	83 c4 10             	add    esp,0x10
  10462f:	0f b6 54 24 10       	movzx  edx,BYTE PTR [esp+0x10]
  104634:	e9 f6 fe ff ff       	jmp    10452f <strsplit+0x1bf>
  104639:	51                   	push   ecx
  10463a:	51                   	push   ecx
  10463b:	6a 00                	push   0x0
  10463d:	68 b8 99 10 00       	push   0x1099b8
  104642:	e8 89 04 00 00       	call   104ad0 <__ubsan_handle_type_mismatch>
  104647:	83 c4 10             	add    esp,0x10
  10464a:	e9 5b fd ff ff       	jmp    1043aa <strsplit+0x3a>
  10464f:	50                   	push   eax
  104650:	50                   	push   eax
  104651:	ff 74 24 50          	push   DWORD PTR [esp+0x50]
  104655:	68 0c 99 10 00       	push   0x10990c
  10465a:	e8 71 04 00 00       	call   104ad0 <__ubsan_handle_type_mismatch>
  10465f:	83 c4 10             	add    esp,0x10
  104662:	e9 ed fe ff ff       	jmp    104554 <strsplit+0x1e4>
  104667:	88 54 24 14          	mov    BYTE PTR [esp+0x14],dl
  10466b:	89 4c 24 0c          	mov    DWORD PTR [esp+0xc],ecx
  10466f:	50                   	push   eax
  104670:	50                   	push   eax
  104671:	6a 00                	push   0x0
  104673:	68 88 99 10 00       	push   0x109988
  104678:	e8 53 04 00 00       	call   104ad0 <__ubsan_handle_type_mismatch>
  10467d:	83 c4 10             	add    esp,0x10
  104680:	0f b6 54 24 14       	movzx  edx,BYTE PTR [esp+0x14]
  104685:	8b 4c 24 0c          	mov    ecx,DWORD PTR [esp+0xc]
  104689:	e9 8c fd ff ff       	jmp    10441a <strsplit+0xaa>
  10468e:	88 54 24 10          	mov    BYTE PTR [esp+0x10],dl
  104692:	50                   	push   eax
  104693:	50                   	push   eax
  104694:	6a 00                	push   0x0
  104696:	68 70 99 10 00       	push   0x109970
  10469b:	e8 30 04 00 00       	call   104ad0 <__ubsan_handle_type_mismatch>
  1046a0:	83 c4 10             	add    esp,0x10
  1046a3:	0f b6 54 24 10       	movzx  edx,BYTE PTR [esp+0x10]
  1046a8:	e9 cf fd ff ff       	jmp    10447c <strsplit+0x10c>
  1046ad:	52                   	push   edx
  1046ae:	52                   	push   edx
  1046af:	6a 00                	push   0x0
  1046b1:	68 a0 99 10 00       	push   0x1099a0
  1046b6:	e8 15 04 00 00       	call   104ad0 <__ubsan_handle_type_mismatch>
  1046bb:	83 c4 10             	add    esp,0x10
  1046be:	e9 17 fd ff ff       	jmp    1043da <strsplit+0x6a>
  1046c3:	89 44 24 10          	mov    DWORD PTR [esp+0x10],eax
  1046c7:	88 54 24 1f          	mov    BYTE PTR [esp+0x1f],dl
  1046cb:	89 4c 24 18          	mov    DWORD PTR [esp+0x18],ecx
  1046cf:	50                   	push   eax
  1046d0:	50                   	push   eax
  1046d1:	6a 00                	push   0x0
  1046d3:	68 58 99 10 00       	push   0x109958
  1046d8:	e8 f3 03 00 00       	call   104ad0 <__ubsan_handle_type_mismatch>
  1046dd:	83 c4 10             	add    esp,0x10
  1046e0:	0f b6 54 24 1f       	movzx  edx,BYTE PTR [esp+0x1f]
  1046e5:	8b 4c 24 18          	mov    ecx,DWORD PTR [esp+0x18]
  1046e9:	8b 44 24 10          	mov    eax,DWORD PTR [esp+0x10]
  1046ed:	e9 bf fd ff ff       	jmp    1044b1 <strsplit+0x141>
  1046f2:	88 54 24 18          	mov    BYTE PTR [esp+0x18],dl
  1046f6:	89 44 24 10          	mov    DWORD PTR [esp+0x10],eax
  1046fa:	51                   	push   ecx
  1046fb:	51                   	push   ecx
  1046fc:	53                   	push   ebx
  1046fd:	68 30 99 10 00       	push   0x109930
  104702:	e8 c9 03 00 00       	call   104ad0 <__ubsan_handle_type_mismatch>
  104707:	83 c4 10             	add    esp,0x10
  10470a:	0f b6 54 24 18       	movzx  edx,BYTE PTR [esp+0x18]
  10470f:	8b 44 24 10          	mov    eax,DWORD PTR [esp+0x10]
  104713:	e9 08 fe ff ff       	jmp    104520 <strsplit+0x1b0>
  104718:	88 54 24 10          	mov    BYTE PTR [esp+0x10],dl
  10471c:	50                   	push   eax
  10471d:	6a 01                	push   0x1
  10471f:	55                   	push   ebp
  104720:	68 dc 98 10 00       	push   0x1098dc
  104725:	e8 86 04 00 00       	call   104bb0 <__ubsan_handle_add_overflow>
  10472a:	83 c4 10             	add    esp,0x10
  10472d:	0f b6 54 24 10       	movzx  edx,BYTE PTR [esp+0x10]
  104732:	e9 93 fd ff ff       	jmp    1044ca <strsplit+0x15a>
  104737:	88 54 24 10          	mov    BYTE PTR [esp+0x10],dl
  10473b:	50                   	push   eax
  10473c:	57                   	push   edi
  10473d:	53                   	push   ebx
  10473e:	68 ec 98 10 00       	push   0x1098ec
  104743:	e8 b8 04 00 00       	call   104c00 <__ubsan_handle_sub_overflow>
  104748:	83 c4 10             	add    esp,0x10
  10474b:	0f b6 54 24 10       	movzx  edx,BYTE PTR [esp+0x10]
  104750:	e9 6a fd ff ff       	jmp    1044bf <strsplit+0x14f>
  104755:	50                   	push   eax
  104756:	6a 01                	push   0x1
  104758:	53                   	push   ebx
  104759:	89 5c 24 14          	mov    DWORD PTR [esp+0x14],ebx
  10475d:	68 fc 98 10 00       	push   0x1098fc
  104762:	e8 99 04 00 00       	call   104c00 <__ubsan_handle_sub_overflow>
  104767:	83 c4 10             	add    esp,0x10
  10476a:	8b 54 24 08          	mov    edx,DWORD PTR [esp+0x8]
  10476e:	e9 80 fc ff ff       	jmp    1043f3 <strsplit+0x83>
  104773:	8d b6 00 00 00 00    	lea    esi,[esi+0x0]
  104779:	8d bc 27 00 00 00 00 	lea    edi,[edi+eiz*1+0x0]

00104780 <strwhite>:
  104780:	55                   	push   ebp
  104781:	57                   	push   edi
  104782:	56                   	push   esi
  104783:	53                   	push   ebx
  104784:	83 ec 0c             	sub    esp,0xc
  104787:	8b 7c 24 20          	mov    edi,DWORD PTR [esp+0x20]
  10478b:	85 ff                	test   edi,edi
  10478d:	0f 84 8d 00 00 00    	je     104820 <strwhite+0xa0>
  104793:	89 fb                	mov    ebx,edi
  104795:	31 f6                	xor    esi,esi
  104797:	eb 09                	jmp    1047a2 <strwhite+0x22>
  104799:	8d b4 26 00 00 00 00 	lea    esi,[esi+eiz*1+0x0]
  1047a0:	89 c6                	mov    esi,eax
  1047a2:	85 db                	test   ebx,ebx
  1047a4:	0f 84 ad 00 00 00    	je     104857 <strwhite+0xd7>
  1047aa:	83 c3 01             	add    ebx,0x1
  1047ad:	8d 46 01             	lea    eax,[esi+0x1]
  1047b0:	80 7b ff 00          	cmp    BYTE PTR [ebx-0x1],0x0
  1047b4:	75 ea                	jne    1047a0 <strwhite+0x20>
  1047b6:	85 f6                	test   esi,esi
  1047b8:	74 66                	je     104820 <strwhite+0xa0>
  1047ba:	31 ed                	xor    ebp,ebp
  1047bc:	8d 74 26 00          	lea    esi,[esi+eiz*1+0x0]
  1047c0:	89 fb                	mov    ebx,edi
  1047c2:	31 f6                	xor    esi,esi
  1047c4:	eb 0c                	jmp    1047d2 <strwhite+0x52>
  1047c6:	8d 76 00             	lea    esi,[esi+0x0]
  1047c9:	8d bc 27 00 00 00 00 	lea    edi,[edi+eiz*1+0x0]
  1047d0:	89 c6                	mov    esi,eax
  1047d2:	85 db                	test   ebx,ebx
  1047d4:	0f 84 93 00 00 00    	je     10486d <strwhite+0xed>
  1047da:	83 c3 01             	add    ebx,0x1
  1047dd:	8d 46 01             	lea    eax,[esi+0x1]
  1047e0:	80 7b ff 00          	cmp    BYTE PTR [ebx-0x1],0x0
  1047e4:	75 ea                	jne    1047d0 <strwhite+0x50>
  1047e6:	39 f5                	cmp    ebp,esi
  1047e8:	73 46                	jae    104830 <strwhite+0xb0>
  1047ea:	89 fb                	mov    ebx,edi
  1047ec:	01 eb                	add    ebx,ebp
  1047ee:	0f 84 8f 00 00 00    	je     104883 <strwhite+0x103>
  1047f4:	0f be 03             	movsx  eax,BYTE PTR [ebx]
  1047f7:	83 ec 0c             	sub    esp,0xc
  1047fa:	50                   	push   eax
  1047fb:	e8 60 b9 ff ff       	call   100160 <isspace>
  104800:	83 c4 10             	add    esp,0x10
  104803:	85 c0                	test   eax,eax
  104805:	74 19                	je     104820 <strwhite+0xa0>
  104807:	89 eb                	mov    ebx,ebp
  104809:	83 c3 01             	add    ebx,0x1
  10480c:	70 2f                	jo     10483d <strwhite+0xbd>
  10480e:	89 dd                	mov    ebp,ebx
  104810:	eb ae                	jmp    1047c0 <strwhite+0x40>
  104812:	8d b4 26 00 00 00 00 	lea    esi,[esi+eiz*1+0x0]
  104819:	8d bc 27 00 00 00 00 	lea    edi,[edi+eiz*1+0x0]
  104820:	83 c4 0c             	add    esp,0xc
  104823:	31 c0                	xor    eax,eax
  104825:	5b                   	pop    ebx
  104826:	5e                   	pop    esi
  104827:	5f                   	pop    edi
  104828:	5d                   	pop    ebp
  104829:	c3                   	ret    
  10482a:	8d b6 00 00 00 00    	lea    esi,[esi+0x0]
  104830:	83 c4 0c             	add    esp,0xc
  104833:	b8 01 00 00 00       	mov    eax,0x1
  104838:	5b                   	pop    ebx
  104839:	5e                   	pop    esi
  10483a:	5f                   	pop    edi
  10483b:	5d                   	pop    ebp
  10483c:	c3                   	ret    
  10483d:	83 ec 04             	sub    esp,0x4
  104840:	6a 01                	push   0x1
  104842:	55                   	push   ebp
  104843:	89 dd                	mov    ebp,ebx
  104845:	68 64 98 10 00       	push   0x109864
  10484a:	e8 61 03 00 00       	call   104bb0 <__ubsan_handle_add_overflow>
  10484f:	83 c4 10             	add    esp,0x10
  104852:	e9 69 ff ff ff       	jmp    1047c0 <strwhite+0x40>
  104857:	51                   	push   ecx
  104858:	51                   	push   ecx
  104859:	6a 00                	push   0x0
  10485b:	68 a4 98 10 00       	push   0x1098a4
  104860:	e8 6b 02 00 00       	call   104ad0 <__ubsan_handle_type_mismatch>
  104865:	83 c4 10             	add    esp,0x10
  104868:	e9 3d ff ff ff       	jmp    1047aa <strwhite+0x2a>
  10486d:	52                   	push   edx
  10486e:	52                   	push   edx
  10486f:	6a 00                	push   0x0
  104871:	68 8c 98 10 00       	push   0x10988c
  104876:	e8 55 02 00 00       	call   104ad0 <__ubsan_handle_type_mismatch>
  10487b:	83 c4 10             	add    esp,0x10
  10487e:	e9 57 ff ff ff       	jmp    1047da <strwhite+0x5a>
  104883:	50                   	push   eax
  104884:	50                   	push   eax
  104885:	6a 00                	push   0x0
  104887:	68 74 98 10 00       	push   0x109874
  10488c:	e8 3f 02 00 00       	call   104ad0 <__ubsan_handle_type_mismatch>
  104891:	83 c4 10             	add    esp,0x10
  104894:	e9 5b ff ff ff       	jmp    1047f4 <strwhite+0x74>
  104899:	8d b4 26 00 00 00 00 	lea    esi,[esi+eiz*1+0x0]

001048a0 <strupper>:
  1048a0:	55                   	push   ebp
  1048a1:	57                   	push   edi
  1048a2:	31 ff                	xor    edi,edi
  1048a4:	56                   	push   esi
  1048a5:	53                   	push   ebx
  1048a6:	83 ec 0c             	sub    esp,0xc
  1048a9:	8b 6c 24 20          	mov    ebp,DWORD PTR [esp+0x20]
  1048ad:	8d 76 00             	lea    esi,[esi+0x0]
  1048b0:	89 eb                	mov    ebx,ebp
  1048b2:	31 f6                	xor    esi,esi
  1048b4:	eb 0c                	jmp    1048c2 <strupper+0x22>
  1048b6:	8d 76 00             	lea    esi,[esi+0x0]
  1048b9:	8d bc 27 00 00 00 00 	lea    edi,[edi+eiz*1+0x0]
  1048c0:	89 c6                	mov    esi,eax
  1048c2:	85 db                	test   ebx,ebx
  1048c4:	74 6e                	je     104934 <strupper+0x94>
  1048c6:	83 c3 01             	add    ebx,0x1
  1048c9:	8d 46 01             	lea    eax,[esi+0x1]
  1048cc:	80 7b ff 00          	cmp    BYTE PTR [ebx-0x1],0x0
  1048d0:	75 ee                	jne    1048c0 <strupper+0x20>
  1048d2:	39 f7                	cmp    edi,esi
  1048d4:	73 2a                	jae    104900 <strupper+0x60>
  1048d6:	89 eb                	mov    ebx,ebp
  1048d8:	01 fb                	add    ebx,edi
  1048da:	74 45                	je     104921 <strupper+0x81>
  1048dc:	0f be 03             	movsx  eax,BYTE PTR [ebx]
  1048df:	83 ec 0c             	sub    esp,0xc
  1048e2:	50                   	push   eax
  1048e3:	e8 08 b9 ff ff       	call   1001f0 <toupper>
  1048e8:	88 03                	mov    BYTE PTR [ebx],al
  1048ea:	89 fb                	mov    ebx,edi
  1048ec:	83 c4 10             	add    esp,0x10
  1048ef:	83 c3 01             	add    ebx,0x1
  1048f2:	70 16                	jo     10490a <strupper+0x6a>
  1048f4:	89 df                	mov    edi,ebx
  1048f6:	eb b8                	jmp    1048b0 <strupper+0x10>
  1048f8:	90                   	nop
  1048f9:	8d b4 26 00 00 00 00 	lea    esi,[esi+eiz*1+0x0]
  104900:	83 c4 0c             	add    esp,0xc
  104903:	89 e8                	mov    eax,ebp
  104905:	5b                   	pop    ebx
  104906:	5e                   	pop    esi
  104907:	5f                   	pop    edi
  104908:	5d                   	pop    ebp
  104909:	c3                   	ret    
  10490a:	83 ec 04             	sub    esp,0x4
  10490d:	6a 01                	push   0x1
  10490f:	57                   	push   edi
  104910:	89 df                	mov    edi,ebx
  104912:	68 24 98 10 00       	push   0x109824
  104917:	e8 94 02 00 00       	call   104bb0 <__ubsan_handle_add_overflow>
  10491c:	83 c4 10             	add    esp,0x10
  10491f:	eb 8f                	jmp    1048b0 <strupper+0x10>
  104921:	50                   	push   eax
  104922:	50                   	push   eax
  104923:	6a 00                	push   0x0
  104925:	68 34 98 10 00       	push   0x109834
  10492a:	e8 a1 01 00 00       	call   104ad0 <__ubsan_handle_type_mismatch>
  10492f:	83 c4 10             	add    esp,0x10
  104932:	eb a8                	jmp    1048dc <strupper+0x3c>
  104934:	52                   	push   edx
  104935:	52                   	push   edx
  104936:	6a 00                	push   0x0
  104938:	68 4c 98 10 00       	push   0x10984c
  10493d:	e8 8e 01 00 00       	call   104ad0 <__ubsan_handle_type_mismatch>
  104942:	83 c4 10             	add    esp,0x10
  104945:	e9 7c ff ff ff       	jmp    1048c6 <strupper+0x26>
  10494a:	8d b6 00 00 00 00    	lea    esi,[esi+0x0]

00104950 <strlower>:
  104950:	55                   	push   ebp
  104951:	57                   	push   edi
  104952:	31 ff                	xor    edi,edi
  104954:	56                   	push   esi
  104955:	53                   	push   ebx
  104956:	83 ec 0c             	sub    esp,0xc
  104959:	8b 6c 24 20          	mov    ebp,DWORD PTR [esp+0x20]
  10495d:	8d 76 00             	lea    esi,[esi+0x0]
  104960:	89 eb                	mov    ebx,ebp
  104962:	31 f6                	xor    esi,esi
  104964:	eb 0c                	jmp    104972 <strlower+0x22>
  104966:	8d 76 00             	lea    esi,[esi+0x0]
  104969:	8d bc 27 00 00 00 00 	lea    edi,[edi+eiz*1+0x0]
  104970:	89 c6                	mov    esi,eax
  104972:	85 db                	test   ebx,ebx
  104974:	74 6e                	je     1049e4 <strlower+0x94>
  104976:	83 c3 01             	add    ebx,0x1
  104979:	8d 46 01             	lea    eax,[esi+0x1]
  10497c:	80 7b ff 00          	cmp    BYTE PTR [ebx-0x1],0x0
  104980:	75 ee                	jne    104970 <strlower+0x20>
  104982:	39 f7                	cmp    edi,esi
  104984:	73 2a                	jae    1049b0 <strlower+0x60>
  104986:	89 eb                	mov    ebx,ebp
  104988:	01 fb                	add    ebx,edi
  10498a:	74 45                	je     1049d1 <strlower+0x81>
  10498c:	0f be 03             	movsx  eax,BYTE PTR [ebx]
  10498f:	83 ec 0c             	sub    esp,0xc
  104992:	50                   	push   eax
  104993:	e8 38 b8 ff ff       	call   1001d0 <tolower>
  104998:	88 03                	mov    BYTE PTR [ebx],al
  10499a:	89 fb                	mov    ebx,edi
  10499c:	83 c4 10             	add    esp,0x10
  10499f:	83 c3 01             	add    ebx,0x1
  1049a2:	70 16                	jo     1049ba <strlower+0x6a>
  1049a4:	89 df                	mov    edi,ebx
  1049a6:	eb b8                	jmp    104960 <strlower+0x10>
  1049a8:	90                   	nop
  1049a9:	8d b4 26 00 00 00 00 	lea    esi,[esi+eiz*1+0x0]
  1049b0:	83 c4 0c             	add    esp,0xc
  1049b3:	89 e8                	mov    eax,ebp
  1049b5:	5b                   	pop    ebx
  1049b6:	5e                   	pop    esi
  1049b7:	5f                   	pop    edi
  1049b8:	5d                   	pop    ebp
  1049b9:	c3                   	ret    
  1049ba:	83 ec 04             	sub    esp,0x4
  1049bd:	6a 01                	push   0x1
  1049bf:	57                   	push   edi
  1049c0:	89 df                	mov    edi,ebx
  1049c2:	68 e4 97 10 00       	push   0x1097e4
  1049c7:	e8 e4 01 00 00       	call   104bb0 <__ubsan_handle_add_overflow>
  1049cc:	83 c4 10             	add    esp,0x10
  1049cf:	eb 8f                	jmp    104960 <strlower+0x10>
  1049d1:	50                   	push   eax
  1049d2:	50                   	push   eax
  1049d3:	6a 00                	push   0x0
  1049d5:	68 f4 97 10 00       	push   0x1097f4
  1049da:	e8 f1 00 00 00       	call   104ad0 <__ubsan_handle_type_mismatch>
  1049df:	83 c4 10             	add    esp,0x10
  1049e2:	eb a8                	jmp    10498c <strlower+0x3c>
  1049e4:	52                   	push   edx
  1049e5:	52                   	push   edx
  1049e6:	6a 00                	push   0x0
  1049e8:	68 0c 98 10 00       	push   0x10980c
  1049ed:	e8 de 00 00 00       	call   104ad0 <__ubsan_handle_type_mismatch>
  1049f2:	83 c4 10             	add    esp,0x10
  1049f5:	e9 7c ff ff ff       	jmp    104976 <strlower+0x26>
  1049fa:	8d b6 00 00 00 00    	lea    esi,[esi+0x0]

00104a00 <strback>:
  104a00:	56                   	push   esi
  104a01:	53                   	push   ebx
  104a02:	83 ec 14             	sub    esp,0x14
  104a05:	8b 44 24 20          	mov    eax,DWORD PTR [esp+0x20]
  104a09:	85 c0                	test   eax,eax
  104a0b:	74 30                	je     104a3d <strback+0x3d>
  104a0d:	89 c3                	mov    ebx,eax
  104a0f:	31 f6                	xor    esi,esi
  104a11:	eb 0f                	jmp    104a22 <strback+0x22>
  104a13:	8d b6 00 00 00 00    	lea    esi,[esi+0x0]
  104a19:	8d bc 27 00 00 00 00 	lea    edi,[edi+eiz*1+0x0]
  104a20:	89 d6                	mov    esi,edx
  104a22:	85 db                	test   ebx,ebx
  104a24:	74 1d                	je     104a43 <strback+0x43>
  104a26:	83 c3 01             	add    ebx,0x1
  104a29:	8d 56 01             	lea    edx,[esi+0x1]
  104a2c:	80 7b ff 00          	cmp    BYTE PTR [ebx-0x1],0x0
  104a30:	75 ee                	jne    104a20 <strback+0x20>
  104a32:	8d 5c 30 ff          	lea    ebx,[eax+esi*1-0x1]
  104a36:	85 db                	test   ebx,ebx
  104a38:	74 24                	je     104a5e <strback+0x5e>
  104a3a:	c6 03 00             	mov    BYTE PTR [ebx],0x0
  104a3d:	83 c4 14             	add    esp,0x14
  104a40:	5b                   	pop    ebx
  104a41:	5e                   	pop    esi
  104a42:	c3                   	ret    
  104a43:	89 44 24 0c          	mov    DWORD PTR [esp+0xc],eax
  104a47:	52                   	push   edx
  104a48:	52                   	push   edx
  104a49:	6a 00                	push   0x0
  104a4b:	68 cc 97 10 00       	push   0x1097cc
  104a50:	e8 7b 00 00 00       	call   104ad0 <__ubsan_handle_type_mismatch>
  104a55:	83 c4 10             	add    esp,0x10
  104a58:	8b 44 24 0c          	mov    eax,DWORD PTR [esp+0xc]
  104a5c:	eb c8                	jmp    104a26 <strback+0x26>
  104a5e:	89 44 24 0c          	mov    DWORD PTR [esp+0xc],eax
  104a62:	50                   	push   eax
  104a63:	50                   	push   eax
  104a64:	6a 00                	push   0x0
  104a66:	68 b4 97 10 00       	push   0x1097b4
  104a6b:	e8 60 00 00 00       	call   104ad0 <__ubsan_handle_type_mismatch>
  104a70:	83 c4 10             	add    esp,0x10
  104a73:	8b 44 24 0c          	mov    eax,DWORD PTR [esp+0xc]
  104a77:	eb c1                	jmp    104a3a <strback+0x3a>
  104a79:	66 90                	xchg   ax,ax
  104a7b:	66 90                	xchg   ax,ax
  104a7d:	66 90                	xchg   ax,ax
  104a7f:	90                   	nop

00104a80 <__ubsan_handle_out_of_bounds>:
  104a80:	53                   	push   ebx
  104a81:	83 ec 10             	sub    esp,0x10
  104a84:	8b 5c 24 18          	mov    ebx,DWORD PTR [esp+0x18]
  104a88:	68 24 74 10 00       	push   0x107424
  104a8d:	68 60 74 10 00       	push   0x107460
  104a92:	e8 09 db ff ff       	call   1025a0 <printf>
  104a97:	83 c4 10             	add    esp,0x10
  104a9a:	85 db                	test   ebx,ebx
  104a9c:	74 1c                	je     104aba <__ubsan_handle_out_of_bounds+0x3a>
  104a9e:	f6 c3 03             	test   bl,0x3
  104aa1:	75 17                	jne    104aba <__ubsan_handle_out_of_bounds+0x3a>
  104aa3:	ff 33                	push   DWORD PTR [ebx]
  104aa5:	ff 73 08             	push   DWORD PTR [ebx+0x8]
  104aa8:	ff 73 04             	push   DWORD PTR [ebx+0x4]
  104aab:	68 7c 74 10 00       	push   0x10747c
  104ab0:	e8 4b ee ff ff       	call   103900 <perror>
  104ab5:	83 c4 18             	add    esp,0x18
  104ab8:	5b                   	pop    ebx
  104ab9:	c3                   	ret    
  104aba:	50                   	push   eax
  104abb:	50                   	push   eax
  104abc:	53                   	push   ebx
  104abd:	68 9c 9f 10 00       	push   0x109f9c
  104ac2:	e8 09 00 00 00       	call   104ad0 <__ubsan_handle_type_mismatch>
  104ac7:	83 c4 10             	add    esp,0x10
  104aca:	eb d7                	jmp    104aa3 <__ubsan_handle_out_of_bounds+0x23>
  104acc:	8d 74 26 00          	lea    esi,[esi+eiz*1+0x0]

00104ad0 <__ubsan_handle_type_mismatch>:
  104ad0:	57                   	push   edi
  104ad1:	56                   	push   esi
  104ad2:	53                   	push   ebx
  104ad3:	8b 7c 24 14          	mov    edi,DWORD PTR [esp+0x14]
  104ad7:	8b 5c 24 10          	mov    ebx,DWORD PTR [esp+0x10]
  104adb:	85 ff                	test   edi,edi
  104add:	74 31                	je     104b10 <__ubsan_handle_type_mismatch+0x40>
  104adf:	85 db                	test   ebx,ebx
  104ae1:	0f 84 b3 00 00 00    	je     104b9a <__ubsan_handle_type_mismatch+0xca>
  104ae7:	f6 c3 03             	test   bl,0x3
  104aea:	0f 85 aa 00 00 00    	jne    104b9a <__ubsan_handle_type_mismatch+0xca>
  104af0:	8b 73 10             	mov    esi,DWORD PTR [ebx+0x10]
  104af3:	85 f6                	test   esi,esi
  104af5:	74 10                	je     104b07 <__ubsan_handle_type_mismatch+0x37>
  104af7:	85 db                	test   ebx,ebx
  104af9:	74 78                	je     104b73 <__ubsan_handle_type_mismatch+0xa3>
  104afb:	f6 c3 03             	test   bl,0x3
  104afe:	75 73                	jne    104b73 <__ubsan_handle_type_mismatch+0xa3>
  104b00:	83 ee 01             	sub    esi,0x1
  104b03:	85 fe                	test   esi,edi
  104b05:	74 49                	je     104b50 <__ubsan_handle_type_mismatch+0x80>
  104b07:	5b                   	pop    ebx
  104b08:	5e                   	pop    esi
  104b09:	5f                   	pop    edi
  104b0a:	c3                   	ret    
  104b0b:	90                   	nop
  104b0c:	8d 74 26 00          	lea    esi,[esi+eiz*1+0x0]
  104b10:	83 ec 0c             	sub    esp,0xc
  104b13:	68 99 74 10 00       	push   0x107499
  104b18:	e8 83 da ff ff       	call   1025a0 <printf>
  104b1d:	83 c4 10             	add    esp,0x10
  104b20:	85 db                	test   ebx,ebx
  104b22:	74 64                	je     104b88 <__ubsan_handle_type_mismatch+0xb8>
  104b24:	f6 c3 03             	test   bl,0x3
  104b27:	75 5f                	jne    104b88 <__ubsan_handle_type_mismatch+0xb8>
  104b29:	ff 33                	push   DWORD PTR [ebx]
  104b2b:	ff 73 08             	push   DWORD PTR [ebx+0x8]
  104b2e:	ff 73 04             	push   DWORD PTR [ebx+0x4]
  104b31:	68 7c 74 10 00       	push   0x10747c
  104b36:	e8 c5 ed ff ff       	call   103900 <perror>
  104b3b:	83 c4 10             	add    esp,0x10
  104b3e:	5b                   	pop    ebx
  104b3f:	5e                   	pop    esi
  104b40:	5f                   	pop    edi
  104b41:	c3                   	ret    
  104b42:	8d b4 26 00 00 00 00 	lea    esi,[esi+eiz*1+0x0]
  104b49:	8d bc 27 00 00 00 00 	lea    edi,[edi+eiz*1+0x0]
  104b50:	83 ec 08             	sub    esp,0x8
  104b53:	68 24 74 10 00       	push   0x107424
  104b58:	68 ae 74 10 00       	push   0x1074ae
  104b5d:	e8 3e da ff ff       	call   1025a0 <printf>
  104b62:	c7 04 24 ca 74 10 00 	mov    DWORD PTR [esp],0x1074ca
  104b69:	e8 32 da ff ff       	call   1025a0 <printf>
  104b6e:	83 c4 10             	add    esp,0x10
  104b71:	eb ad                	jmp    104b20 <__ubsan_handle_type_mismatch+0x50>
  104b73:	52                   	push   edx
  104b74:	52                   	push   edx
  104b75:	53                   	push   ebx
  104b76:	68 48 9f 10 00       	push   0x109f48
  104b7b:	e8 50 ff ff ff       	call   104ad0 <__ubsan_handle_type_mismatch>
  104b80:	83 c4 10             	add    esp,0x10
  104b83:	e9 78 ff ff ff       	jmp    104b00 <__ubsan_handle_type_mismatch+0x30>
  104b88:	50                   	push   eax
  104b89:	50                   	push   eax
  104b8a:	53                   	push   ebx
  104b8b:	68 30 9f 10 00       	push   0x109f30
  104b90:	e8 3b ff ff ff       	call   104ad0 <__ubsan_handle_type_mismatch>
  104b95:	83 c4 10             	add    esp,0x10
  104b98:	eb 8f                	jmp    104b29 <__ubsan_handle_type_mismatch+0x59>
  104b9a:	51                   	push   ecx
  104b9b:	51                   	push   ecx
  104b9c:	53                   	push   ebx
  104b9d:	68 60 9f 10 00       	push   0x109f60
  104ba2:	e8 29 ff ff ff       	call   104ad0 <__ubsan_handle_type_mismatch>
  104ba7:	83 c4 10             	add    esp,0x10
  104baa:	e9 41 ff ff ff       	jmp    104af0 <__ubsan_handle_type_mismatch+0x20>
  104baf:	90                   	nop

00104bb0 <__ubsan_handle_add_overflow>:
  104bb0:	53                   	push   ebx
  104bb1:	83 ec 10             	sub    esp,0x10
  104bb4:	8b 5c 24 18          	mov    ebx,DWORD PTR [esp+0x18]
  104bb8:	68 24 74 10 00       	push   0x107424
  104bbd:	68 e3 74 10 00       	push   0x1074e3
  104bc2:	e8 d9 d9 ff ff       	call   1025a0 <printf>
  104bc7:	83 c4 10             	add    esp,0x10
  104bca:	85 db                	test   ebx,ebx
  104bcc:	74 1c                	je     104bea <__ubsan_handle_add_overflow+0x3a>
  104bce:	f6 c3 03             	test   bl,0x3
  104bd1:	75 17                	jne    104bea <__ubsan_handle_add_overflow+0x3a>
  104bd3:	ff 33                	push   DWORD PTR [ebx]
  104bd5:	ff 73 08             	push   DWORD PTR [ebx+0x8]
  104bd8:	ff 73 04             	push   DWORD PTR [ebx+0x4]
  104bdb:	68 7c 74 10 00       	push   0x10747c
  104be0:	e8 1b ed ff ff       	call   103900 <perror>
  104be5:	83 c4 18             	add    esp,0x18
  104be8:	5b                   	pop    ebx
  104be9:	c3                   	ret    
  104bea:	50                   	push   eax
  104beb:	50                   	push   eax
  104bec:	53                   	push   ebx
  104bed:	68 f8 9e 10 00       	push   0x109ef8
  104bf2:	e8 d9 fe ff ff       	call   104ad0 <__ubsan_handle_type_mismatch>
  104bf7:	83 c4 10             	add    esp,0x10
  104bfa:	eb d7                	jmp    104bd3 <__ubsan_handle_add_overflow+0x23>
  104bfc:	8d 74 26 00          	lea    esi,[esi+eiz*1+0x0]

00104c00 <__ubsan_handle_sub_overflow>:
  104c00:	53                   	push   ebx
  104c01:	83 ec 10             	sub    esp,0x10
  104c04:	8b 5c 24 18          	mov    ebx,DWORD PTR [esp+0x18]
  104c08:	68 24 74 10 00       	push   0x107424
  104c0d:	68 fe 74 10 00       	push   0x1074fe
  104c12:	e8 89 d9 ff ff       	call   1025a0 <printf>
  104c17:	83 c4 10             	add    esp,0x10
  104c1a:	85 db                	test   ebx,ebx
  104c1c:	74 1c                	je     104c3a <__ubsan_handle_sub_overflow+0x3a>
  104c1e:	f6 c3 03             	test   bl,0x3
  104c21:	75 17                	jne    104c3a <__ubsan_handle_sub_overflow+0x3a>
  104c23:	ff 33                	push   DWORD PTR [ebx]
  104c25:	ff 73 08             	push   DWORD PTR [ebx+0x8]
  104c28:	ff 73 04             	push   DWORD PTR [ebx+0x4]
  104c2b:	68 7c 74 10 00       	push   0x10747c
  104c30:	e8 cb ec ff ff       	call   103900 <perror>
  104c35:	83 c4 18             	add    esp,0x18
  104c38:	5b                   	pop    ebx
  104c39:	c3                   	ret    
  104c3a:	50                   	push   eax
  104c3b:	50                   	push   eax
  104c3c:	53                   	push   ebx
  104c3d:	68 e0 9e 10 00       	push   0x109ee0
  104c42:	e8 89 fe ff ff       	call   104ad0 <__ubsan_handle_type_mismatch>
  104c47:	83 c4 10             	add    esp,0x10
  104c4a:	eb d7                	jmp    104c23 <__ubsan_handle_sub_overflow+0x23>
  104c4c:	8d 74 26 00          	lea    esi,[esi+eiz*1+0x0]

00104c50 <__ubsan_handle_mul_overflow>:
  104c50:	53                   	push   ebx
  104c51:	83 ec 10             	sub    esp,0x10
  104c54:	8b 5c 24 18          	mov    ebx,DWORD PTR [esp+0x18]
  104c58:	68 24 74 10 00       	push   0x107424
  104c5d:	68 19 75 10 00       	push   0x107519
  104c62:	e8 39 d9 ff ff       	call   1025a0 <printf>
  104c67:	83 c4 10             	add    esp,0x10
  104c6a:	85 db                	test   ebx,ebx
  104c6c:	74 1c                	je     104c8a <__ubsan_handle_mul_overflow+0x3a>
  104c6e:	f6 c3 03             	test   bl,0x3
  104c71:	75 17                	jne    104c8a <__ubsan_handle_mul_overflow+0x3a>
  104c73:	ff 33                	push   DWORD PTR [ebx]
  104c75:	ff 73 08             	push   DWORD PTR [ebx+0x8]
  104c78:	ff 73 04             	push   DWORD PTR [ebx+0x4]
  104c7b:	68 7c 74 10 00       	push   0x10747c
  104c80:	e8 7b ec ff ff       	call   103900 <perror>
  104c85:	83 c4 18             	add    esp,0x18
  104c88:	5b                   	pop    ebx
  104c89:	c3                   	ret    
  104c8a:	50                   	push   eax
  104c8b:	50                   	push   eax
  104c8c:	53                   	push   ebx
  104c8d:	68 c8 9e 10 00       	push   0x109ec8
  104c92:	e8 39 fe ff ff       	call   104ad0 <__ubsan_handle_type_mismatch>
  104c97:	83 c4 10             	add    esp,0x10
  104c9a:	eb d7                	jmp    104c73 <__ubsan_handle_mul_overflow+0x23>
  104c9c:	8d 74 26 00          	lea    esi,[esi+eiz*1+0x0]

00104ca0 <__ubsan_handle_negate_overflow>:
  104ca0:	53                   	push   ebx
  104ca1:	83 ec 10             	sub    esp,0x10
  104ca4:	8b 5c 24 18          	mov    ebx,DWORD PTR [esp+0x18]
  104ca8:	68 24 74 10 00       	push   0x107424
  104cad:	68 34 75 10 00       	push   0x107534
  104cb2:	e8 e9 d8 ff ff       	call   1025a0 <printf>
  104cb7:	83 c4 10             	add    esp,0x10
  104cba:	85 db                	test   ebx,ebx
  104cbc:	74 1c                	je     104cda <__ubsan_handle_negate_overflow+0x3a>
  104cbe:	f6 c3 03             	test   bl,0x3
  104cc1:	75 17                	jne    104cda <__ubsan_handle_negate_overflow+0x3a>
  104cc3:	ff 33                	push   DWORD PTR [ebx]
  104cc5:	ff 73 08             	push   DWORD PTR [ebx+0x8]
  104cc8:	ff 73 04             	push   DWORD PTR [ebx+0x4]
  104ccb:	68 7c 74 10 00       	push   0x10747c
  104cd0:	e8 2b ec ff ff       	call   103900 <perror>
  104cd5:	83 c4 18             	add    esp,0x18
  104cd8:	5b                   	pop    ebx
  104cd9:	c3                   	ret    
  104cda:	50                   	push   eax
  104cdb:	50                   	push   eax
  104cdc:	53                   	push   ebx
  104cdd:	68 b0 9e 10 00       	push   0x109eb0
  104ce2:	e8 e9 fd ff ff       	call   104ad0 <__ubsan_handle_type_mismatch>
  104ce7:	83 c4 10             	add    esp,0x10
  104cea:	eb d7                	jmp    104cc3 <__ubsan_handle_negate_overflow+0x23>
  104cec:	8d 74 26 00          	lea    esi,[esi+eiz*1+0x0]

00104cf0 <__ubsan_handle_divrem_overflow>:
  104cf0:	53                   	push   ebx
  104cf1:	83 ec 10             	sub    esp,0x10
  104cf4:	8b 5c 24 18          	mov    ebx,DWORD PTR [esp+0x18]
  104cf8:	68 24 74 10 00       	push   0x107424
  104cfd:	68 52 75 10 00       	push   0x107552
  104d02:	e8 99 d8 ff ff       	call   1025a0 <printf>
  104d07:	83 c4 10             	add    esp,0x10
  104d0a:	85 db                	test   ebx,ebx
  104d0c:	74 1c                	je     104d2a <__ubsan_handle_divrem_overflow+0x3a>
  104d0e:	f6 c3 03             	test   bl,0x3
  104d11:	75 17                	jne    104d2a <__ubsan_handle_divrem_overflow+0x3a>
  104d13:	ff 33                	push   DWORD PTR [ebx]
  104d15:	ff 73 08             	push   DWORD PTR [ebx+0x8]
  104d18:	ff 73 04             	push   DWORD PTR [ebx+0x4]
  104d1b:	68 7c 74 10 00       	push   0x10747c
  104d20:	e8 db eb ff ff       	call   103900 <perror>
  104d25:	83 c4 18             	add    esp,0x18
  104d28:	5b                   	pop    ebx
  104d29:	c3                   	ret    
  104d2a:	50                   	push   eax
  104d2b:	50                   	push   eax
  104d2c:	53                   	push   ebx
  104d2d:	68 98 9e 10 00       	push   0x109e98
  104d32:	e8 99 fd ff ff       	call   104ad0 <__ubsan_handle_type_mismatch>
  104d37:	83 c4 10             	add    esp,0x10
  104d3a:	eb d7                	jmp    104d13 <__ubsan_handle_divrem_overflow+0x23>
  104d3c:	8d 74 26 00          	lea    esi,[esi+eiz*1+0x0]

00104d40 <__ubsan_handle_missing_return>:
  104d40:	53                   	push   ebx
  104d41:	83 ec 10             	sub    esp,0x10
  104d44:	8b 5c 24 18          	mov    ebx,DWORD PTR [esp+0x18]
  104d48:	68 24 74 10 00       	push   0x107424
  104d4d:	68 70 75 10 00       	push   0x107570
  104d52:	e8 49 d8 ff ff       	call   1025a0 <printf>
  104d57:	83 c4 10             	add    esp,0x10
  104d5a:	85 db                	test   ebx,ebx
  104d5c:	74 1c                	je     104d7a <__ubsan_handle_missing_return+0x3a>
  104d5e:	f6 c3 03             	test   bl,0x3
  104d61:	75 17                	jne    104d7a <__ubsan_handle_missing_return+0x3a>
  104d63:	ff 33                	push   DWORD PTR [ebx]
  104d65:	ff 73 08             	push   DWORD PTR [ebx+0x8]
  104d68:	ff 73 04             	push   DWORD PTR [ebx+0x4]
  104d6b:	68 7c 74 10 00       	push   0x10747c
  104d70:	e8 8b eb ff ff       	call   103900 <perror>
  104d75:	83 c4 18             	add    esp,0x18
  104d78:	5b                   	pop    ebx
  104d79:	c3                   	ret    
  104d7a:	50                   	push   eax
  104d7b:	50                   	push   eax
  104d7c:	53                   	push   ebx
  104d7d:	68 58 9e 10 00       	push   0x109e58
  104d82:	e8 49 fd ff ff       	call   104ad0 <__ubsan_handle_type_mismatch>
  104d87:	83 c4 10             	add    esp,0x10
  104d8a:	eb d7                	jmp    104d63 <__ubsan_handle_missing_return+0x23>
  104d8c:	8d 74 26 00          	lea    esi,[esi+eiz*1+0x0]

00104d90 <__ubsan_handle_load_invalid_value>:
  104d90:	53                   	push   ebx
  104d91:	83 ec 10             	sub    esp,0x10
  104d94:	8b 5c 24 18          	mov    ebx,DWORD PTR [esp+0x18]
  104d98:	68 24 74 10 00       	push   0x107424
  104d9d:	68 8d 75 10 00       	push   0x10758d
  104da2:	e8 f9 d7 ff ff       	call   1025a0 <printf>
  104da7:	83 c4 10             	add    esp,0x10
  104daa:	85 db                	test   ebx,ebx
  104dac:	74 1c                	je     104dca <__ubsan_handle_load_invalid_value+0x3a>
  104dae:	f6 c3 03             	test   bl,0x3
  104db1:	75 17                	jne    104dca <__ubsan_handle_load_invalid_value+0x3a>
  104db3:	ff 33                	push   DWORD PTR [ebx]
  104db5:	ff 73 08             	push   DWORD PTR [ebx+0x8]
  104db8:	ff 73 04             	push   DWORD PTR [ebx+0x4]
  104dbb:	68 7c 74 10 00       	push   0x10747c
  104dc0:	e8 3b eb ff ff       	call   103900 <perror>
  104dc5:	83 c4 18             	add    esp,0x18
  104dc8:	5b                   	pop    ebx
  104dc9:	c3                   	ret    
  104dca:	50                   	push   eax
  104dcb:	50                   	push   eax
  104dcc:	53                   	push   ebx
  104dcd:	68 1c 9e 10 00       	push   0x109e1c
  104dd2:	e8 f9 fc ff ff       	call   104ad0 <__ubsan_handle_type_mismatch>
  104dd7:	83 c4 10             	add    esp,0x10
  104dda:	eb d7                	jmp    104db3 <__ubsan_handle_load_invalid_value+0x23>
  104ddc:	8d 74 26 00          	lea    esi,[esi+eiz*1+0x0]

00104de0 <__ubsan_handle_shift_out_of_bounds>:
  104de0:	53                   	push   ebx
  104de1:	83 ec 10             	sub    esp,0x10
  104de4:	8b 5c 24 18          	mov    ebx,DWORD PTR [esp+0x18]
  104de8:	68 24 74 10 00       	push   0x107424
  104ded:	68 08 76 10 00       	push   0x107608
  104df2:	e8 a9 d7 ff ff       	call   1025a0 <printf>
  104df7:	83 c4 10             	add    esp,0x10
  104dfa:	85 db                	test   ebx,ebx
  104dfc:	74 1c                	je     104e1a <__ubsan_handle_shift_out_of_bounds+0x3a>
  104dfe:	f6 c3 03             	test   bl,0x3
  104e01:	75 17                	jne    104e1a <__ubsan_handle_shift_out_of_bounds+0x3a>
  104e03:	ff 33                	push   DWORD PTR [ebx]
  104e05:	ff 73 08             	push   DWORD PTR [ebx+0x8]
  104e08:	ff 73 04             	push   DWORD PTR [ebx+0x4]
  104e0b:	68 7c 74 10 00       	push   0x10747c
  104e10:	e8 eb ea ff ff       	call   103900 <perror>
  104e15:	83 c4 18             	add    esp,0x18
  104e18:	5b                   	pop    ebx
  104e19:	c3                   	ret    
  104e1a:	50                   	push   eax
  104e1b:	50                   	push   eax
  104e1c:	53                   	push   ebx
  104e1d:	68 dc 9d 10 00       	push   0x109ddc
  104e22:	e8 a9 fc ff ff       	call   104ad0 <__ubsan_handle_type_mismatch>
  104e27:	83 c4 10             	add    esp,0x10
  104e2a:	eb d7                	jmp    104e03 <__ubsan_handle_shift_out_of_bounds+0x23>
  104e2c:	8d 74 26 00          	lea    esi,[esi+eiz*1+0x0]

00104e30 <__ubsan_handle_vla_bound_not_positive>:
  104e30:	53                   	push   ebx
  104e31:	83 ec 10             	sub    esp,0x10
  104e34:	8b 5c 24 18          	mov    ebx,DWORD PTR [esp+0x18]
  104e38:	68 24 74 10 00       	push   0x107424
  104e3d:	68 2c 76 10 00       	push   0x10762c
  104e42:	e8 59 d7 ff ff       	call   1025a0 <printf>
  104e47:	83 c4 10             	add    esp,0x10
  104e4a:	85 db                	test   ebx,ebx
  104e4c:	74 1c                	je     104e6a <__ubsan_handle_vla_bound_not_positive+0x3a>
  104e4e:	f6 c3 03             	test   bl,0x3
  104e51:	75 17                	jne    104e6a <__ubsan_handle_vla_bound_not_positive+0x3a>
  104e53:	ff 33                	push   DWORD PTR [ebx]
  104e55:	ff 73 08             	push   DWORD PTR [ebx+0x8]
  104e58:	ff 73 04             	push   DWORD PTR [ebx+0x4]
  104e5b:	68 7c 74 10 00       	push   0x10747c
  104e60:	e8 9b ea ff ff       	call   103900 <perror>
  104e65:	83 c4 18             	add    esp,0x18
  104e68:	5b                   	pop    ebx
  104e69:	c3                   	ret    
  104e6a:	50                   	push   eax
  104e6b:	50                   	push   eax
  104e6c:	53                   	push   ebx
  104e6d:	68 a0 9d 10 00       	push   0x109da0
  104e72:	e8 59 fc ff ff       	call   104ad0 <__ubsan_handle_type_mismatch>
  104e77:	83 c4 10             	add    esp,0x10
  104e7a:	eb d7                	jmp    104e53 <__ubsan_handle_vla_bound_not_positive+0x23>

Disassembly of section .text.startup:

00104e80 <_ZN2os6kernel4mainEv>:
  104e80:	83 ec 14             	sub    esp,0x14
  104e83:	68 44 73 10 00       	push   0x107344
  104e88:	68 b1 73 10 00       	push   0x1073b1
  104e8d:	e8 0e d7 ff ff       	call   1025a0 <printf>
  104e92:	83 c4 10             	add    esp,0x10
  104e95:	eb fe                	jmp    104e95 <_ZN2os6kernel4mainEv+0x15>
